
build-cg/simplexsolver:     file format elf32-sh


Disassembly of section .text:

00300000 <_start>:
  300000:	2f 86       	mov.l	r8,@-r15
  300002:	2f 96       	mov.l	r9,@-r15
  300004:	4f 22       	sts.l	pr,@-r15
  300006:	d1 31       	mov.l	3000cc <_start+0xcc>,r1	! 301b20 <_hw_detect>
  300008:	7f f8       	add	#-8,r15
  30000a:	2f 42       	mov.l	r4,@r15
  30000c:	41 0b       	jsr	@r1
  30000e:	1f 51       	mov.l	r5,@(4,r15)
  300010:	d1 2f       	mov.l	3000d0 <_start+0xd0>,r1	! 30040c <_regcpy>
  300012:	d6 30       	mov.l	3000d4 <_start+0xd4>,r6	! 81018c0 <_keysc_tid>
  300014:	d5 30       	mov.l	3000d8 <_start+0xd8>,r5	! 2d0 <_sdata>
  300016:	d4 31       	mov.l	3000dc <_start+0xdc>,r4	! 307914 <_ldata>
  300018:	41 0b       	jsr	@r1
  30001a:	00 09       	nop	
  30001c:	d7 30       	mov.l	3000e0 <_start+0xe0>,r7	! 4c0 <_sbss>
  30001e:	e6 f1       	mov	#-15,r6
  300020:	d2 30       	mov.l	3000e4 <_start+0xe4>,r2	! 8101400 <_gint_exitbuf>
  300022:	e3 00       	mov	#0,r3
  300024:	61 73       	mov	r7,r1
  300026:	71 0f       	add	#15,r1
  300028:	41 09       	shlr2	r1
  30002a:	37 63       	cmp/ge	r6,r7
  30002c:	41 09       	shlr2	r1
  30002e:	71 01       	add	#1,r1
  300030:	89 00       	bt	300034 <_start+0x34>
  300032:	e1 01       	mov	#1,r1
  300034:	41 10       	dt	r1
  300036:	8b 1e       	bf	300076 <_start+0x76>
  300038:	d8 25       	mov.l	3000d0 <_start+0xd0>,r8	! 30040c <_regcpy>
  30003a:	d6 2b       	mov.l	3000e8 <_start+0xe8>,r6	! e5200000 <_ILbuf>
  30003c:	d5 2b       	mov.l	3000ec <_start+0xec>,r5	! a0 <_silram>
  30003e:	d4 2c       	mov.l	3000f0 <_start+0xf0>,r4	! 307be4 <_lilram>
  300040:	48 0b       	jsr	@r8
  300042:	00 09       	nop	
  300044:	d6 2b       	mov.l	3000f4 <_start+0xf4>,r6	! e500e000 <_rxyram>
  300046:	d5 2c       	mov.l	3000f8 <_start+0xf8>,r5	! 0 <_sxyram>
  300048:	d4 2c       	mov.l	3000fc <_start+0xfc>,r4	! 307c84 <_lxyram>
  30004a:	48 0b       	jsr	@r8
  30004c:	00 09       	nop	
  30004e:	d1 2c       	mov.l	300100 <_start+0x100>,r1	! 301ba4 <_kinit>
  300050:	41 0b       	jsr	@r1
  300052:	00 09       	nop	
  300054:	d1 2b       	mov.l	300104 <_start+0x104>,r1	! 3047c0 <_setjmp>
  300056:	d4 2c       	mov.l	300108 <_start+0x108>,r4	! 8101400 <_gint_exitbuf>
  300058:	41 0b       	jsr	@r1
  30005a:	00 09       	nop	
  30005c:	20 08       	tst	r0,r0
  30005e:	89 1f       	bt	3000a0 <_start+0xa0>
  300060:	d8 2a       	mov.l	30010c <_start+0x10c>,r8	! 300138 <_bdtors>
  300062:	d9 2b       	mov.l	300110 <_start+0x110>,r9	! 300138 <_bdtors>
  300064:	38 92       	cmp/hs	r9,r8
  300066:	8b 1f       	bf	3000a8 <_start+0xa8>
  300068:	d1 2a       	mov.l	300114 <_start+0x114>,r1	! 8101434 <_gint_restart>
  30006a:	61 12       	mov.l	@r1,r1
  30006c:	21 18       	tst	r1,r1
  30006e:	89 23       	bt	3000b8 <_start+0xb8>
  300070:	d1 29       	mov.l	300118 <_start+0x118>,r1	! 301ea4 <_gint_osmenu>
  300072:	af ed       	bra	300050 <_start+0x50>
  300074:	00 09       	nop	
  300076:	22 32       	mov.l	r3,@r2
  300078:	12 31       	mov.l	r3,@(4,r2)
  30007a:	12 32       	mov.l	r3,@(8,r2)
  30007c:	12 33       	mov.l	r3,@(12,r2)
  30007e:	af d9       	bra	300034 <_start+0x34>
  300080:	72 10       	add	#16,r2
  300082:	78 04       	add	#4,r8
  300084:	61 83       	mov	r8,r1
  300086:	71 c0       	add	#-64,r1
  300088:	51 1f       	mov.l	@(60,r1),r1
  30008a:	41 0b       	jsr	@r1
  30008c:	00 09       	nop	
  30008e:	38 92       	cmp/hs	r9,r8
  300090:	8f f7       	bf.s	300082 <_start+0x82>
  300092:	64 f2       	mov.l	@r15,r4
  300094:	d0 21       	mov.l	30011c <_start+0x11c>,r0	! 300240 <_main>
  300096:	40 0b       	jsr	@r0
  300098:	55 f1       	mov.l	@(4,r15),r5
  30009a:	d1 21       	mov.l	300120 <_start+0x120>,r1	! 30479c <_exit>
  30009c:	41 0b       	jsr	@r1
  30009e:	64 03       	mov	r0,r4
  3000a0:	d8 20       	mov.l	300124 <_start+0x124>,r8	! 300134 <_bctors>
  3000a2:	d9 21       	mov.l	300128 <_start+0x128>,r9	! 300138 <_bdtors>
  3000a4:	af f4       	bra	300090 <_start+0x90>
  3000a6:	38 92       	cmp/hs	r9,r8
  3000a8:	78 04       	add	#4,r8
  3000aa:	61 83       	mov	r8,r1
  3000ac:	71 c0       	add	#-64,r1
  3000ae:	51 1f       	mov.l	@(60,r1),r1
  3000b0:	41 0b       	jsr	@r1
  3000b2:	00 09       	nop	
  3000b4:	af d7       	bra	300066 <_start+0x66>
  3000b6:	38 92       	cmp/hs	r9,r8
  3000b8:	d1 1c       	mov.l	30012c <_start+0x12c>,r1	! 301d74 <_kquit>
  3000ba:	41 0b       	jsr	@r1
  3000bc:	00 09       	nop	
  3000be:	d1 1c       	mov.l	300130 <_start+0x130>,r1	! 8101438 <_gint_exitcode>
  3000c0:	60 12       	mov.l	@r1,r0
  3000c2:	7f 08       	add	#8,r15
  3000c4:	4f 26       	lds.l	@r15+,pr
  3000c6:	69 f6       	mov.l	@r15+,r9
  3000c8:	00 0b       	rts	
  3000ca:	68 f6       	mov.l	@r15+,r8
  3000cc:	00 30       	.word 0x0030
  3000ce:	1b 20       	mov.l	r2,@(0,r11)
  3000d0:	00 30       	.word 0x0030
  3000d2:	04 0c       	mov.b	@(r0,r0),r4
  3000d4:	08 10       	.word 0x0810
  3000d6:	18 c0       	mov.l	r12,@(0,r8)
  3000d8:	00 00       	.word 0x0000
  3000da:	02 d0       	.word 0x02d0
  3000dc:	00 30       	.word 0x0030
  3000de:	79 14       	add	#20,r9
  3000e0:	00 00       	.word 0x0000
  3000e2:	04 c0       	.word 0x04c0
  3000e4:	08 10       	.word 0x0810
  3000e6:	14 00       	mov.l	r0,@(0,r4)
  3000e8:	e5 20       	mov	#32,r5
  3000ea:	00 00       	.word 0x0000
  3000ec:	00 00       	.word 0x0000
  3000ee:	00 a0       	.word 0x00a0
  3000f0:	00 30       	.word 0x0030
  3000f2:	7b e4       	add	#-28,r11
  3000f4:	e5 00       	mov	#0,r5
  3000f6:	e0 00       	mov	#0,r0
  3000f8:	00 00       	.word 0x0000
  3000fa:	00 00       	.word 0x0000
  3000fc:	00 30       	.word 0x0030
  3000fe:	7c 84       	add	#-124,r12
  300100:	00 30       	.word 0x0030
  300102:	1b a4       	mov.l	r10,@(16,r11)
  300104:	00 30       	.word 0x0030
  300106:	47 c0       	.word 0x47c0
  300108:	08 10       	.word 0x0810
  30010a:	14 00       	mov.l	r0,@(0,r4)
  30010c:	00 30       	.word 0x0030
  30010e:	01 38       	.word 0x0138
  300110:	00 30       	.word 0x0030
  300112:	01 38       	.word 0x0138
  300114:	08 10       	.word 0x0810
  300116:	14 34       	mov.l	r3,@(16,r4)
  300118:	00 30       	.word 0x0030
  30011a:	1e a4       	mov.l	r10,@(16,r14)
  30011c:	00 30       	.word 0x0030
  30011e:	02 40       	.word 0x0240
  300120:	00 30       	.word 0x0030
  300122:	47 9c       	shad	r9,r7
  300124:	00 30       	.word 0x0030
  300126:	01 34       	mov.b	r3,@(r0,r1)
  300128:	00 30       	.word 0x0030
  30012a:	01 38       	.word 0x0138
  30012c:	00 30       	.word 0x0030
  30012e:	1d 74       	mov.l	r7,@(16,r13)
  300130:	08 10       	.word 0x0810
  300132:	14 38       	mov.l	r3,@(32,r4)

00300134 <_bctors>:
  300134:	00 30       	.word 0x0030
  300136:	5e ac       	mov.l	@(48,r10),r14

00300138 <_bdtors>:
	...

00300140 <_gint_exch>:
  300140:	4f 22       	sts.l	pr,@-r15
  300142:	4f 13       	stc.l	gbr,@-r15
  300144:	4f 02       	sts.l	mach,@-r15
  300146:	4f 12       	sts.l	macl,@-r15
  300148:	2f 86       	mov.l	r8,@-r15
  30014a:	2f 96       	mov.l	r9,@-r15
  30014c:	d0 18       	mov.l	3001b0 <.gint>,r0	! 8101bb4 <_gint>
  30014e:	60 02       	mov.l	@r0,r0
  300150:	c8 01       	tst	#1,r0
  300152:	d8 18       	mov.l	3001b4 <.expevt_sh4>,r8	! ff000024
  300154:	89 00       	bt	300158 <catch>
  300156:	d8 18       	mov.l	3001b8 <.expevt_sh3>,r8	! ffffffd4

00300158 <catch>:
  300158:	d0 18       	mov.l	3001bc <.catcher>,r0	! 8101678 <_gint_exc_catcher>
  30015a:	60 02       	mov.l	@r0,r0
  30015c:	20 08       	tst	r0,r0
  30015e:	89 0a       	bt	300176 <panic>
  300160:	09 02       	stc	sr,r9
  300162:	d1 18       	mov.l	3001c4 <.SR_set_IMASK>,r1	! f0
  300164:	21 9b       	or	r9,r1
  300166:	d2 18       	mov.l	3001c8 <.SR_clear_BL>,r2	! efffffff
  300168:	21 29       	and	r2,r1
  30016a:	41 0e       	ldc	r1,sr
  30016c:	40 0b       	jsr	@r0
  30016e:	64 82       	mov.l	@r8,r4
  300170:	49 0e       	ldc	r9,sr
  300172:	20 08       	tst	r0,r0
  300174:	89 0d       	bt	300192 <end>

00300176 <panic>:
  300176:	64 82       	mov.l	@r8,r4
  300178:	44 ce       	ldc	r4,r4_bank
  30017a:	69 f6       	mov.l	@r15+,r9
  30017c:	68 f6       	mov.l	@r15+,r8
  30017e:	4f 16       	lds.l	@r15+,macl
  300180:	4f 06       	lds.l	@r15+,mach
  300182:	4f 17       	ldc.l	@r15+,gbr
  300184:	4f 26       	lds.l	@r15+,pr
  300186:	00 32       	stc	ssr,r0
  300188:	40 0e       	ldc	r0,sr
  30018a:	d0 0d       	mov.l	3001c0 <.panic>,r0	! 8101a74 <_gint_exc_panic>
  30018c:	60 02       	mov.l	@r0,r0
  30018e:	40 2b       	jmp	@r0
  300190:	00 09       	nop	

00300192 <end>:
  300192:	69 f6       	mov.l	@r15+,r9
  300194:	68 f6       	mov.l	@r15+,r8
  300196:	4f 16       	lds.l	@r15+,macl
  300198:	4f 06       	lds.l	@r15+,mach
  30019a:	4f 17       	ldc.l	@r15+,gbr
  30019c:	4f 26       	lds.l	@r15+,pr
  30019e:	00 2b       	rte	
  3001a0:	00 09       	nop	
  3001a2:	00 09       	nop	
  3001a4:	00 09       	nop	
  3001a6:	00 09       	nop	
  3001a8:	00 09       	nop	
  3001aa:	00 09       	nop	
  3001ac:	00 09       	nop	
  3001ae:	00 09       	nop	

003001b0 <.gint>:
  3001b0:	08 10       	.word 0x0810
  3001b2:	1b b4       	mov.l	r11,@(16,r11)

003001b4 <.expevt_sh4>:
  3001b4:	ff 00       	.word 0xff00
  3001b6:	00 24       	mov.b	r2,@(r0,r0)

003001b8 <.expevt_sh3>:
  3001b8:	ff ff       	.word 0xffff
  3001ba:	ff d4       	.word 0xffd4

003001bc <.catcher>:
  3001bc:	08 10       	.word 0x0810
  3001be:	16 78       	mov.l	r7,@(32,r6)

003001c0 <.panic>:
  3001c0:	08 10       	.word 0x0810
  3001c2:	1a 74       	mov.l	r7,@(16,r10)

003001c4 <.SR_set_IMASK>:
  3001c4:	00 00       	.word 0x0000
  3001c6:	00 f0       	.word 0x00f0

003001c8 <.SR_clear_BL>:
  3001c8:	ef ff       	mov	#-1,r15
  3001ca:	ff ff       	.word 0xffff
  3001cc:	00 09       	nop	
  3001ce:	00 09       	nop	

003001d0 <_gint_tlbh>:
  3001d0:	4f 22       	sts.l	pr,@-r15
  3001d2:	4f 13       	stc.l	gbr,@-r15
  3001d4:	4f 02       	sts.l	mach,@-r15
  3001d6:	4f 12       	sts.l	macl,@-r15
  3001d8:	d0 11       	mov.l	300220 <.gint>,r0	! 8101bb4 <_gint>
  3001da:	60 02       	mov.l	@r0,r0
  3001dc:	c8 01       	tst	#1,r0
  3001de:	d0 11       	mov.l	300224 <.tea_sh4>,r0	! ff00000c
  3001e0:	89 00       	bt	3001e4 <test_tea>
  3001e2:	d0 11       	mov.l	300228 <.tea_sh3>,r0	! fffffffc

003001e4 <test_tea>:
  3001e4:	60 02       	mov.l	@r0,r0
  3001e6:	d1 12       	mov.l	300230 <.max_mapped_rom>,r1	! 30790c
  3001e8:	30 13       	cmp/ge	r1,r0
  3001ea:	89 0c       	bt	300206 <panic>
  3001ec:	d1 0f       	mov.l	30022c <.min_mapped_rom>,r1	! 300000 <_start>
  3001ee:	30 13       	cmp/ge	r1,r0
  3001f0:	8b 09       	bf	300206 <panic>

003001f2 <map>:
  3001f2:	e0 0c       	mov	#12,r0
  3001f4:	d2 0f       	mov.l	300234 <.syscall>,r2	! 80020070
  3001f6:	42 0b       	jsr	@r2
  3001f8:	00 09       	nop	
  3001fa:	4f 16       	lds.l	@r15+,macl
  3001fc:	4f 06       	lds.l	@r15+,mach
  3001fe:	4f 17       	ldc.l	@r15+,gbr
  300200:	4f 26       	lds.l	@r15+,pr
  300202:	00 2b       	rte	
  300204:	00 09       	nop	

00300206 <panic>:
  300206:	4f 16       	lds.l	@r15+,macl
  300208:	4f 06       	lds.l	@r15+,mach
  30020a:	4f 17       	ldc.l	@r15+,gbr
  30020c:	4f 26       	lds.l	@r15+,pr
  30020e:	00 22       	stc	vbr,r0
  300210:	e1 01       	mov	#1,r1
  300212:	41 18       	shll8	r1
  300214:	30 1c       	add	r1,r0
  300216:	40 2b       	jmp	@r0
  300218:	00 09       	nop	
  30021a:	00 09       	nop	
  30021c:	00 09       	nop	
  30021e:	00 09       	nop	

00300220 <.gint>:
  300220:	08 10       	.word 0x0810
  300222:	1b b4       	mov.l	r11,@(16,r11)

00300224 <.tea_sh4>:
  300224:	ff 00       	.word 0xff00
  300226:	00 0c       	mov.b	@(r0,r0),r0

00300228 <.tea_sh3>:
  300228:	ff ff       	.word 0xffff
  30022a:	ff fc       	.word 0xfffc

0030022c <.min_mapped_rom>:
  30022c:	00 30       	.word 0x0030
	...

00300230 <.max_mapped_rom>:
  300230:	00 30       	.word 0x0030
  300232:	79 0c       	add	#12,r9

00300234 <.syscall>:
  300234:	80 02       	mov.b	r0,@(2,r0)
  300236:	00 70       	.word 0x0070
  300238:	00 09       	nop	
  30023a:	00 09       	nop	
  30023c:	00 09       	nop	
  30023e:	00 09       	nop	

00300240 <_main>:
  300240:	d0 07       	mov.l	300260 <_main+0x20>,r0	! 3002dc <_new_tableux>
  300242:	e5 05       	mov	#5,r5
  300244:	4f 22       	sts.l	pr,@-r15
  300246:	40 0b       	jsr	@r0
  300248:	e4 03       	mov	#3,r4
  30024a:	51 04       	mov.l	@(16,r0),r1
  30024c:	61 12       	mov.l	@r1,r1
  30024e:	21 18       	tst	r1,r1
  300250:	8b 02       	bf	300258 <_main+0x18>
  300252:	d0 04       	mov.l	300264 <_main+0x24>,r0	! 300550 <_getkey>
  300254:	40 0b       	jsr	@r0
  300256:	00 09       	nop	
  300258:	e0 00       	mov	#0,r0
  30025a:	4f 26       	lds.l	@r15+,pr
  30025c:	00 0b       	rts	
  30025e:	00 09       	nop	
  300260:	00 30       	.word 0x0030
  300262:	02 dc       	mov.b	@(r0,r13),r2
  300264:	00 30       	.word 0x0030
  300266:	05 50       	.word 0x0550

00300268 <_new_viscell>:
  300268:	2f 86       	mov.l	r8,@-r15
  30026a:	2f 96       	mov.l	r9,@-r15
  30026c:	2f a6       	mov.l	r10,@-r15
  30026e:	6a 73       	mov	r7,r10
  300270:	2f b6       	mov.l	r11,@-r15
  300272:	6b 63       	mov	r6,r11
  300274:	2f c6       	mov.l	r12,@-r15
  300276:	6c 53       	mov	r5,r12
  300278:	2f d6       	mov.l	r13,@-r15
  30027a:	6d 43       	mov	r4,r13
  30027c:	2f e6       	mov.l	r14,@-r15
  30027e:	e4 18       	mov	#24,r4
  300280:	de 0d       	mov.l	3002b8 <_new_viscell+0x50>,r14	! 3049d4 <_malloc>
  300282:	4f 22       	sts.l	pr,@-r15
  300284:	4e 0b       	jsr	@r14
  300286:	59 f8       	mov.l	@(32,r15),r9
  300288:	69 9c       	extu.b	r9,r9
  30028a:	20 d2       	mov.l	r13,@r0
  30028c:	10 c1       	mov.l	r12,@(4,r0)
  30028e:	61 03       	mov	r0,r1
  300290:	10 b2       	mov.l	r11,@(8,r0)
  300292:	71 10       	add	#16,r1
  300294:	10 a3       	mov.l	r10,@(12,r0)
  300296:	68 03       	mov	r0,r8
  300298:	21 90       	mov.b	r9,@r1
  30029a:	4e 0b       	jsr	@r14
  30029c:	e4 04       	mov	#4,r4
  30029e:	51 f9       	mov.l	@(36,r15),r1
  3002a0:	60 83       	mov	r8,r0
  3002a2:	18 15       	mov.l	r1,@(20,r8)
  3002a4:	4f 26       	lds.l	@r15+,pr
  3002a6:	6e f6       	mov.l	@r15+,r14
  3002a8:	6d f6       	mov.l	@r15+,r13
  3002aa:	6c f6       	mov.l	@r15+,r12
  3002ac:	6b f6       	mov.l	@r15+,r11
  3002ae:	6a f6       	mov.l	@r15+,r10
  3002b0:	69 f6       	mov.l	@r15+,r9
  3002b2:	00 0b       	rts	
  3002b4:	68 f6       	mov.l	@r15+,r8
  3002b6:	00 09       	nop	
  3002b8:	00 30       	.word 0x0030
  3002ba:	49 d4       	.word 0x49d4

003002bc <_free_viscell>:
  3002bc:	2f 86       	mov.l	r8,@-r15
  3002be:	68 43       	mov	r4,r8
  3002c0:	2f 96       	mov.l	r9,@-r15
  3002c2:	d9 05       	mov.l	3002d8 <_free_viscell+0x1c>,r9	! 3049c8 <_free>
  3002c4:	4f 22       	sts.l	pr,@-r15
  3002c6:	49 0b       	jsr	@r9
  3002c8:	54 45       	mov.l	@(20,r4),r4
  3002ca:	64 83       	mov	r8,r4
  3002cc:	61 93       	mov	r9,r1
  3002ce:	4f 26       	lds.l	@r15+,pr
  3002d0:	69 f6       	mov.l	@r15+,r9
  3002d2:	41 2b       	jmp	@r1
  3002d4:	68 f6       	mov.l	@r15+,r8
  3002d6:	00 09       	nop	
  3002d8:	00 30       	.word 0x0030
  3002da:	49 c8       	.word 0x49c8

003002dc <_new_tableux>:
  3002dc:	2f 86       	mov.l	r8,@-r15
  3002de:	68 4c       	extu.b	r4,r8
  3002e0:	2f 96       	mov.l	r9,@-r15
  3002e2:	e4 04       	mov	#4,r4
  3002e4:	2f a6       	mov.l	r10,@-r15
  3002e6:	2f b6       	mov.l	r11,@-r15
  3002e8:	2f c6       	mov.l	r12,@-r15
  3002ea:	dc 20       	mov.l	30036c <_new_tableux+0x90>,r12	! 3049d4 <_malloc>
  3002ec:	2f d6       	mov.l	r13,@-r15
  3002ee:	2f e6       	mov.l	r14,@-r15
  3002f0:	4f 22       	sts.l	pr,@-r15
  3002f2:	4c 0b       	jsr	@r12
  3002f4:	6a 5c       	extu.b	r5,r10
  3002f6:	64 83       	mov	r8,r4
  3002f8:	20 80       	mov.b	r8,@r0
  3002fa:	69 03       	mov	r0,r9
  3002fc:	74 01       	add	#1,r4
  3002fe:	60 a3       	mov	r10,r0
  300300:	44 08       	shll2	r4
  300302:	4c 0b       	jsr	@r12
  300304:	80 91       	mov.b	r0,@(1,r9)
  300306:	61 02       	mov.l	@r0,r1
  300308:	21 18       	tst	r1,r1
  30030a:	8d 25       	bt.s	300358 <_new_tableux+0x7c>
  30030c:	19 03       	mov.l	r0,@(12,r9)
  30030e:	6e a3       	mov	r10,r14
  300310:	7e 01       	add	#1,r14
  300312:	4e 08       	shll2	r14
  300314:	eb 00       	mov	#0,r11
  300316:	5d 93       	mov.l	@(12,r9),r13
  300318:	61 b3       	mov	r11,r1
  30031a:	41 08       	shll2	r1
  30031c:	64 e3       	mov	r14,r4
  30031e:	4c 0b       	jsr	@r12
  300320:	3d 1c       	add	r1,r13
  300322:	7b 01       	add	#1,r11
  300324:	38 b3       	cmp/ge	r11,r8
  300326:	8d f6       	bt.s	300316 <_new_tableux+0x3a>
  300328:	2d 02       	mov.l	r0,@r13
  30032a:	d7 11       	mov.l	300370 <_new_tableux+0x94>,r7	! 306ef8
  30032c:	e3 00       	mov	#0,r3
  30032e:	78 01       	add	#1,r8
  300330:	48 10       	dt	r8
  300332:	8d 11       	bt.s	300358 <_new_tableux+0x7c>
  300334:	64 33       	mov	r3,r4
  300336:	61 a3       	mov	r10,r1
  300338:	44 08       	shll2	r4
  30033a:	e2 00       	mov	#0,r2
  30033c:	a0 08       	bra	300350 <_new_tableux+0x74>
  30033e:	71 01       	add	#1,r1
  300340:	56 93       	mov.l	@(12,r9),r6
  300342:	60 43       	mov	r4,r0
  300344:	05 6e       	mov.l	@(r0,r6),r5
  300346:	66 23       	mov	r2,r6
  300348:	46 08       	shll2	r6
  30034a:	60 63       	mov	r6,r0
  30034c:	72 01       	add	#1,r2
  30034e:	05 76       	mov.l	r7,@(r0,r5)
  300350:	41 10       	dt	r1
  300352:	8b f5       	bf	300340 <_new_tableux+0x64>
  300354:	af ec       	bra	300330 <_new_tableux+0x54>
  300356:	73 01       	add	#1,r3
  300358:	60 93       	mov	r9,r0
  30035a:	4f 26       	lds.l	@r15+,pr
  30035c:	6e f6       	mov.l	@r15+,r14
  30035e:	6d f6       	mov.l	@r15+,r13
  300360:	6c f6       	mov.l	@r15+,r12
  300362:	6b f6       	mov.l	@r15+,r11
  300364:	6a f6       	mov.l	@r15+,r10
  300366:	69 f6       	mov.l	@r15+,r9
  300368:	00 0b       	rts	
  30036a:	68 f6       	mov.l	@r15+,r8
  30036c:	00 30       	.word 0x0030
  30036e:	49 d4       	.word 0x49d4
  300370:	00 30       	.word 0x0030
  300372:	6e f8       	swap.b	r15,r14

00300374 <_free_tableux>:
  300374:	2f 86       	mov.l	r8,@-r15
  300376:	68 43       	mov	r4,r8
  300378:	2f 96       	mov.l	r9,@-r15
  30037a:	2f a6       	mov.l	r10,@-r15
  30037c:	ea 00       	mov	#0,r10
  30037e:	2f b6       	mov.l	r11,@-r15
  300380:	2f c6       	mov.l	r12,@-r15
  300382:	2f d6       	mov.l	r13,@-r15
  300384:	d9 1f       	mov.l	300404 <_free_tableux+0x90>,r9	! 3049c8 <_free>
  300386:	4f 22       	sts.l	pr,@-r15
  300388:	61 80       	mov.b	@r8,r1
  30038a:	61 1c       	extu.b	r1,r1
  30038c:	31 a7       	cmp/gt	r10,r1
  30038e:	8d 2b       	bt.s	3003e8 <_free_tableux+0x74>
  300390:	54 82       	mov.l	@(8,r8),r4
  300392:	49 0b       	jsr	@r9
  300394:	ea 00       	mov	#0,r10
  300396:	84 81       	mov.b	@(1,r8),r0
  300398:	60 0c       	extu.b	r0,r0
  30039a:	30 a7       	cmp/gt	r10,r0
  30039c:	8d 2b       	bt.s	3003f6 <_free_tableux+0x82>
  30039e:	54 81       	mov.l	@(4,r8),r4
  3003a0:	49 0b       	jsr	@r9
  3003a2:	eb 00       	mov	#0,r11
  3003a4:	dd 18       	mov.l	300408 <_free_tableux+0x94>,r13	! 3002bc <_free_viscell>
  3003a6:	6c b3       	mov	r11,r12
  3003a8:	ea 00       	mov	#0,r10
  3003aa:	4c 08       	shll2	r12
  3003ac:	51 83       	mov.l	@(12,r8),r1
  3003ae:	60 c3       	mov	r12,r0
  3003b0:	01 1e       	mov.l	@(r0,r1),r1
  3003b2:	60 a3       	mov	r10,r0
  3003b4:	40 08       	shll2	r0
  3003b6:	04 1e       	mov.l	@(r0,r1),r4
  3003b8:	4d 0b       	jsr	@r13
  3003ba:	7a 01       	add	#1,r10
  3003bc:	84 81       	mov.b	@(1,r8),r0
  3003be:	60 0c       	extu.b	r0,r0
  3003c0:	30 a3       	cmp/ge	r10,r0
  3003c2:	89 f3       	bt	3003ac <_free_tableux+0x38>
  3003c4:	61 80       	mov.b	@r8,r1
  3003c6:	7b 01       	add	#1,r11
  3003c8:	61 1c       	extu.b	r1,r1
  3003ca:	31 b3       	cmp/ge	r11,r1
  3003cc:	8d ec       	bt.s	3003a8 <_free_tableux+0x34>
  3003ce:	6c b3       	mov	r11,r12
  3003d0:	49 0b       	jsr	@r9
  3003d2:	54 83       	mov.l	@(12,r8),r4
  3003d4:	64 83       	mov	r8,r4
  3003d6:	61 93       	mov	r9,r1
  3003d8:	4f 26       	lds.l	@r15+,pr
  3003da:	6d f6       	mov.l	@r15+,r13
  3003dc:	6c f6       	mov.l	@r15+,r12
  3003de:	6b f6       	mov.l	@r15+,r11
  3003e0:	6a f6       	mov.l	@r15+,r10
  3003e2:	69 f6       	mov.l	@r15+,r9
  3003e4:	41 2b       	jmp	@r1
  3003e6:	68 f6       	mov.l	@r15+,r8
  3003e8:	60 a3       	mov	r10,r0
  3003ea:	40 08       	shll2	r0
  3003ec:	04 4e       	mov.l	@(r0,r4),r4
  3003ee:	49 0b       	jsr	@r9
  3003f0:	7a 01       	add	#1,r10
  3003f2:	af ca       	bra	30038a <_free_tableux+0x16>
  3003f4:	61 80       	mov.b	@r8,r1
  3003f6:	60 a3       	mov	r10,r0
  3003f8:	40 08       	shll2	r0
  3003fa:	04 4e       	mov.l	@(r0,r4),r4
  3003fc:	49 0b       	jsr	@r9
  3003fe:	7a 01       	add	#1,r10
  300400:	af ca       	bra	300398 <_free_tableux+0x24>
  300402:	84 81       	mov.b	@(1,r8),r0
  300404:	00 30       	.word 0x0030
  300406:	49 c8       	.word 0x49c8
  300408:	00 30       	.word 0x0030
  30040a:	02 bc       	mov.b	@(r0,r11),r2

0030040c <_regcpy>:
  30040c:	61 53       	mov	r5,r1
  30040e:	71 0f       	add	#15,r1
  300410:	41 09       	shlr2	r1
  300412:	e2 f1       	mov	#-15,r2
  300414:	41 09       	shlr2	r1
  300416:	35 23       	cmp/ge	r2,r5
  300418:	71 01       	add	#1,r1
  30041a:	89 00       	bt	30041e <_regcpy+0x12>
  30041c:	e1 01       	mov	#1,r1
  30041e:	41 10       	dt	r1
  300420:	8b 01       	bf	300426 <_regcpy+0x1a>
  300422:	00 0b       	rts	
  300424:	00 09       	nop	
  300426:	62 42       	mov.l	@r4,r2
  300428:	26 22       	mov.l	r2,@r6
  30042a:	52 41       	mov.l	@(4,r4),r2
  30042c:	16 21       	mov.l	r2,@(4,r6)
  30042e:	52 42       	mov.l	@(8,r4),r2
  300430:	16 22       	mov.l	r2,@(8,r6)
  300432:	52 43       	mov.l	@(12,r4),r2
  300434:	74 10       	add	#16,r4
  300436:	16 23       	mov.l	r2,@(12,r6)
  300438:	af f1       	bra	30041e <_regcpy+0x12>
  30043a:	76 10       	add	#16,r6

0030043c <_gint_setrestart>:
  30043c:	d1 01       	mov.l	300444 <_gint_setrestart+0x8>,r1	! 8101434 <_gint_restart>
  30043e:	00 0b       	rts	
  300440:	21 42       	mov.l	r4,@r1
  300442:	00 09       	nop	
  300444:	08 10       	.word 0x0810
  300446:	14 34       	mov.l	r3,@(16,r4)

00300448 <__Exit>:
  300448:	d1 03       	mov.l	300458 <__Exit+0x10>,r1	! 8101438 <_gint_exitcode>
  30044a:	4f 22       	sts.l	pr,@-r15
  30044c:	21 42       	mov.l	r4,@r1
  30044e:	d1 03       	mov.l	30045c <__Exit+0x14>,r1	! 3047e4 <_longjmp>
  300450:	d4 03       	mov.l	300460 <__Exit+0x18>,r4	! 8101400 <_gint_exitbuf>
  300452:	41 0b       	jsr	@r1
  300454:	e5 01       	mov	#1,r5
  300456:	00 09       	nop	
  300458:	08 10       	.word 0x0810
  30045a:	14 38       	mov.l	r3,@(32,r4)
  30045c:	00 30       	.word 0x0030
  30045e:	47 e4       	.word 0x47e4
  300460:	08 10       	.word 0x0810
  300462:	14 00       	mov.l	r0,@(0,r4)

00300464 <_getkey_opt>:
  300464:	2f 86       	mov.l	r8,@-r15
  300466:	2f 96       	mov.l	r9,@-r15
  300468:	69 43       	mov	r4,r9
  30046a:	2f a6       	mov.l	r10,@-r15
  30046c:	2f b6       	mov.l	r11,@-r15
  30046e:	2f c6       	mov.l	r12,@-r15
  300470:	6c 53       	mov	r5,r12
  300472:	2f d6       	mov.l	r13,@-r15
  300474:	ed 08       	mov	#8,r13
  300476:	d0 30       	mov.l	300538 <_getkey_opt+0xd4>,r0	! 300cb0 <_keydev_std>
  300478:	2d 99       	and	r9,r13
  30047a:	4f 22       	sts.l	pr,@-r15
  30047c:	db 2f       	mov.l	30053c <_getkey_opt+0xd8>,r11	! 300948 <_keydev_set_transform>
  30047e:	40 0b       	jsr	@r0
  300480:	7f f0       	add	#-16,r15
  300482:	d1 2f       	mov.l	300540 <_getkey_opt+0xdc>,r1	! 30092e <_keydev_transform>
  300484:	6a 03       	mov	r0,r10
  300486:	64 03       	mov	r0,r4
  300488:	41 0b       	jsr	@r1
  30048a:	62 f3       	mov	r15,r2
  30048c:	e5 03       	mov	#3,r5
  30048e:	56 f1       	mov.l	@(4,r15),r6
  300490:	25 99       	and	r9,r5
  300492:	64 a3       	mov	r10,r4
  300494:	75 70       	add	#112,r5
  300496:	1f 63       	mov.l	r6,@(12,r15)
  300498:	4b 0b       	jsr	@r11
  30049a:	1f 52       	mov.l	r5,@(8,r15)
  30049c:	d0 29       	mov.l	300544 <_getkey_opt+0xe0>,r0	! 300998 <_keydev_read>
  30049e:	40 0b       	jsr	@r0
  3004a0:	64 a3       	mov	r10,r4
  3004a2:	92 46       	mov.w	300532 <_getkey_opt+0xce>,r2	! 300
  3004a4:	63 03       	mov	r0,r3
  3004a6:	61 0c       	extu.b	r0,r1
  3004a8:	68 03       	mov	r0,r8
  3004aa:	20 28       	tst	r2,r0
  3004ac:	8f 15       	bf.s	3004da <_getkey_opt+0x76>
  3004ae:	23 29       	and	r2,r3
  3004b0:	2c c8       	tst	r12,r12
  3004b2:	8d 1f       	bt.s	3004f4 <_getkey_opt+0x90>
  3004b4:	2d d8       	tst	r13,r13
  3004b6:	61 c2       	mov.l	@r12,r1
  3004b8:	21 18       	tst	r1,r1
  3004ba:	8d 1b       	bt.s	3004f4 <_getkey_opt+0x90>
  3004bc:	2d d8       	tst	r13,r13
  3004be:	65 f2       	mov.l	@r15,r5
  3004c0:	64 a3       	mov	r10,r4
  3004c2:	4b 0b       	jsr	@r11
  3004c4:	56 f1       	mov.l	@(4,r15),r6
  3004c6:	60 83       	mov	r8,r0
  3004c8:	7f 10       	add	#16,r15
  3004ca:	4f 26       	lds.l	@r15+,pr
  3004cc:	6d f6       	mov.l	@r15+,r13
  3004ce:	6c f6       	mov.l	@r15+,r12
  3004d0:	6b f6       	mov.l	@r15+,r11
  3004d2:	6a f6       	mov.l	@r15+,r10
  3004d4:	69 f6       	mov.l	@r15+,r9
  3004d6:	00 0b       	rts	
  3004d8:	68 f6       	mov.l	@r15+,r8
  3004da:	33 20       	cmp/eq	r2,r3
  3004dc:	8f 09       	bf.s	3004f2 <_getkey_opt+0x8e>
  3004de:	60 93       	mov	r9,r0
  3004e0:	c8 20       	tst	#32,r0
  3004e2:	8f 07       	bf.s	3004f4 <_getkey_opt+0x90>
  3004e4:	2d d8       	tst	r13,r13
  3004e6:	c8 10       	tst	#16,r0
  3004e8:	8d d8       	bt.s	30049c <_getkey_opt+0x38>
  3004ea:	60 13       	mov	r1,r0
  3004ec:	70 8b       	add	#-117,r0
  3004ee:	c8 ee       	tst	#238,r0
  3004f0:	8b d4       	bf	30049c <_getkey_opt+0x38>
  3004f2:	2d d8       	tst	r13,r13
  3004f4:	8d 0b       	bt.s	30050e <_getkey_opt+0xaa>
  3004f6:	60 88       	swap.b	r8,r0
  3004f8:	91 1c       	mov.w	300534 <_getkey_opt+0xd0>,r1	! fff
  3004fa:	92 1c       	mov.w	300536 <_getkey_opt+0xd2>,r2	! 184
  3004fc:	21 89       	and	r8,r1
  3004fe:	31 20       	cmp/eq	r2,r1
  300500:	8f 06       	bf.s	300510 <_getkey_opt+0xac>
  300502:	c8 01       	tst	#1,r0
  300504:	d1 10       	mov.l	300548 <_getkey_opt+0xe4>,r1	! 301ea4 <_gint_osmenu>
  300506:	41 0b       	jsr	@r1
  300508:	00 09       	nop	
  30050a:	af c7       	bra	30049c <_getkey_opt+0x38>
  30050c:	00 09       	nop	
  30050e:	c8 01       	tst	#1,r0
  300510:	8d c4       	bt.s	30049c <_getkey_opt+0x38>
  300512:	60 93       	mov	r9,r0
  300514:	c8 80       	tst	#128,r0
  300516:	8d d3       	bt.s	3004c0 <_getkey_opt+0x5c>
  300518:	65 f2       	mov.l	@r15,r5
  30051a:	d1 0c       	mov.l	30054c <_getkey_opt+0xe8>,r1	! 810143c <_feature_function>
  30051c:	60 12       	mov.l	@r1,r0
  30051e:	20 08       	tst	r0,r0
  300520:	8d cf       	bt.s	3004c2 <_getkey_opt+0x5e>
  300522:	64 a3       	mov	r10,r4
  300524:	40 0b       	jsr	@r0
  300526:	64 83       	mov	r8,r4
  300528:	20 08       	tst	r0,r0
  30052a:	8f b7       	bf.s	30049c <_getkey_opt+0x38>
  30052c:	65 f2       	mov.l	@r15,r5
  30052e:	af c8       	bra	3004c2 <_getkey_opt+0x5e>
  300530:	64 a3       	mov	r10,r4
  300532:	03 00       	.word 0x0300
  300534:	0f ff       	mac.l	@r15+,@r15+
  300536:	01 84       	mov.b	r8,@(r0,r1)
  300538:	00 30       	.word 0x0030
  30053a:	0c b0       	.word 0x0cb0
  30053c:	00 30       	.word 0x0030
  30053e:	09 48       	.word 0x0948
  300540:	00 30       	.word 0x0030
  300542:	09 2e       	mov.l	@(r0,r2),r9
  300544:	00 30       	.word 0x0030
  300546:	09 98       	.word 0x0998
  300548:	00 30       	.word 0x0030
  30054a:	1e a4       	mov.l	r10,@(16,r14)
  30054c:	08 10       	.word 0x0810
  30054e:	14 3c       	mov.l	r3,@(48,r4)

00300550 <_getkey>:
  300550:	d0 02       	mov.l	30055c <_getkey+0xc>,r0	! 300464 <_getkey_opt>
  300552:	94 01       	mov.w	300558 <_getkey+0x8>,r4	! df
  300554:	40 2b       	jmp	@r0
  300556:	e5 00       	mov	#0,r5
  300558:	00 df       	mac.l	@r13+,@r0+
  30055a:	00 09       	nop	
  30055c:	00 30       	.word 0x0030
  30055e:	04 64       	mov.b	r6,@(r0,r4)

00300560 <_getkey_feature_function>:
  300560:	d1 01       	mov.l	300568 <_getkey_feature_function+0x8>,r1	! 810143c <_feature_function>
  300562:	00 0b       	rts	
  300564:	60 12       	mov.l	@r1,r0
  300566:	00 09       	nop	
  300568:	08 10       	.word 0x0810
  30056a:	14 3c       	mov.l	r3,@(48,r4)

0030056c <_getkey_set_feature_function>:
  30056c:	d1 01       	mov.l	300574 <_getkey_set_feature_function+0x8>,r1	! 810143c <_feature_function>
  30056e:	00 0b       	rts	
  300570:	21 42       	mov.l	r4,@r1
  300572:	00 09       	nop	
  300574:	08 10       	.word 0x0810
  300576:	14 3c       	mov.l	r3,@(48,r4)

00300578 <_getkey_repeat>:
  300578:	d0 09       	mov.l	3005a0 <_getkey_repeat+0x28>,r0	! 300cb0 <_keydev_std>
  30057a:	2f 86       	mov.l	r8,@-r15
  30057c:	68 43       	mov	r4,r8
  30057e:	2f 96       	mov.l	r9,@-r15
  300580:	4f 22       	sts.l	pr,@-r15
  300582:	40 0b       	jsr	@r0
  300584:	69 53       	mov	r5,r9
  300586:	91 09       	mov.w	30059c <_getkey_repeat+0x24>,r1	! 3e8
  300588:	64 03       	mov	r0,r4
  30058a:	09 17       	mul.l	r1,r9
  30058c:	06 1a       	sts	macl,r6
  30058e:	08 17       	mul.l	r1,r8
  300590:	d1 04       	mov.l	3005a4 <_getkey_repeat+0x2c>,r1	! 300984 <_keydev_set_standard_repeats>
  300592:	05 1a       	sts	macl,r5
  300594:	4f 26       	lds.l	@r15+,pr
  300596:	69 f6       	mov.l	@r15+,r9
  300598:	41 2b       	jmp	@r1
  30059a:	68 f6       	mov.l	@r15+,r8
  30059c:	03 e8       	.word 0x03e8
  30059e:	00 09       	nop	
  3005a0:	00 30       	.word 0x0030
  3005a2:	0c b0       	.word 0x0cb0
  3005a4:	00 30       	.word 0x0030
  3005a6:	09 84       	mov.b	r8,@(r0,r9)

003005a8 <_getkey_repeat_profile>:
  3005a8:	d0 06       	mov.l	3005c4 <_getkey_repeat_profile+0x1c>,r0	! 300cb0 <_keydev_std>
  3005aa:	4f 22       	sts.l	pr,@-r15
  3005ac:	40 0b       	jsr	@r0
  3005ae:	7f f8       	add	#-8,r15
  3005b0:	d1 05       	mov.l	3005c8 <_getkey_repeat_profile+0x20>,r1	! 30092e <_keydev_transform>
  3005b2:	64 03       	mov	r0,r4
  3005b4:	41 0b       	jsr	@r1
  3005b6:	62 f3       	mov	r15,r2
  3005b8:	50 f1       	mov.l	@(4,r15),r0
  3005ba:	7f 08       	add	#8,r15
  3005bc:	4f 26       	lds.l	@r15+,pr
  3005be:	00 0b       	rts	
  3005c0:	00 09       	nop	
  3005c2:	00 09       	nop	
  3005c4:	00 30       	.word 0x0030
  3005c6:	0c b0       	.word 0x0cb0
  3005c8:	00 30       	.word 0x0030
  3005ca:	09 2e       	mov.l	@(r0,r2),r9

003005cc <_getkey_set_repeat_profile>:
  3005cc:	2f 86       	mov.l	r8,@-r15
  3005ce:	68 43       	mov	r4,r8
  3005d0:	2f 96       	mov.l	r9,@-r15
  3005d2:	d9 09       	mov.l	3005f8 <_getkey_set_repeat_profile+0x2c>,r9	! 300cb0 <_keydev_std>
  3005d4:	4f 22       	sts.l	pr,@-r15
  3005d6:	49 0b       	jsr	@r9
  3005d8:	7f f8       	add	#-8,r15
  3005da:	d1 08       	mov.l	3005fc <_getkey_set_repeat_profile+0x30>,r1	! 30092e <_keydev_transform>
  3005dc:	64 03       	mov	r0,r4
  3005de:	41 0b       	jsr	@r1
  3005e0:	62 f3       	mov	r15,r2
  3005e2:	49 0b       	jsr	@r9
  3005e4:	1f 81       	mov.l	r8,@(4,r15)
  3005e6:	65 f2       	mov.l	@r15,r5
  3005e8:	64 03       	mov	r0,r4
  3005ea:	56 f1       	mov.l	@(4,r15),r6
  3005ec:	d1 04       	mov.l	300600 <_getkey_set_repeat_profile+0x34>,r1	! 300948 <_keydev_set_transform>
  3005ee:	7f 08       	add	#8,r15
  3005f0:	4f 26       	lds.l	@r15+,pr
  3005f2:	69 f6       	mov.l	@r15+,r9
  3005f4:	41 2b       	jmp	@r1
  3005f6:	68 f6       	mov.l	@r15+,r8
  3005f8:	00 30       	.word 0x0030
  3005fa:	0c b0       	.word 0x0cb0
  3005fc:	00 30       	.word 0x0030
  3005fe:	09 2e       	mov.l	@(r0,r2),r9
  300600:	00 30       	.word 0x0030
  300602:	09 48       	.word 0x0948

00300604 <_standard_repeater>:
  300604:	d0 07       	mov.l	300624 <_standard_repeater+0x20>,r0	! 300cb0 <_keydev_std>
  300606:	2f 86       	mov.l	r8,@-r15
  300608:	4f 22       	sts.l	pr,@-r15
  30060a:	40 0b       	jsr	@r0
  30060c:	68 63       	mov	r6,r8
  30060e:	91 08       	mov.w	300622 <_standard_repeater+0x1e>,r1	! bc
  300610:	28 88       	tst	r8,r8
  300612:	8d 04       	bt.s	30061e <_standard_repeater+0x1a>
  300614:	30 1c       	add	r1,r0
  300616:	50 03       	mov.l	@(12,r0),r0
  300618:	4f 26       	lds.l	@r15+,pr
  30061a:	00 0b       	rts	
  30061c:	68 f6       	mov.l	@r15+,r8
  30061e:	af fb       	bra	300618 <_standard_repeater+0x14>
  300620:	50 02       	mov.l	@(8,r0),r0
  300622:	00 bc       	mov.b	@(r0,r11),r0
  300624:	00 30       	.word 0x0030
  300626:	0c b0       	.word 0x0cb0

00300628 <_can_repeat.isra.0>:
  300628:	60 43       	mov	r4,r0
  30062a:	c8 05       	tst	#5,r0
  30062c:	8d 05       	bt.s	30063a <_can_repeat.isra.0+0x12>
  30062e:	c8 0a       	tst	#10,r0
  300630:	91 0c       	mov.w	30064c <_can_repeat.isra.0+0x24>,r1	! 81
  300632:	35 10       	cmp/eq	r1,r5
  300634:	8d 07       	bt.s	300646 <_can_repeat.isra.0+0x1e>
  300636:	e1 00       	mov	#0,r1
  300638:	c8 0a       	tst	#10,r0
  30063a:	e1 ff       	mov	#-1,r1
  30063c:	02 29       	movt	r2
  30063e:	60 53       	mov	r5,r0
  300640:	88 71       	cmp/eq	#113,r0
  300642:	61 1a       	negc	r1,r1
  300644:	21 2b       	or	r2,r1
  300646:	60 13       	mov	r1,r0
  300648:	00 0b       	rts	
  30064a:	c9 01       	and	#1,r0
  30064c:	00 81       	.word 0x0081

0030064e <_keydev_init>:
  30064e:	d0 02       	mov.l	300658 <_keydev_init+0xa>,r0	! 304970 <_memset>
  300650:	96 01       	mov.w	300656 <_keydev_init+0x8>,r6	! cc
  300652:	40 2b       	jmp	@r0
  300654:	e5 00       	mov	#0,r5
  300656:	00 cc       	mov.b	@(r0,r12),r0
  300658:	00 30       	.word 0x0030
  30065a:	49 70       	.word 0x4970

0030065c <_keydev_queue_push>:
  30065c:	84 49       	mov.b	@(9,r4),r0
  30065e:	d3 0d       	mov.l	300694 <_keydev_queue_push+0x38>,r3	! 8000001f
  300660:	61 03       	mov	r0,r1
  300662:	71 01       	add	#1,r1
  300664:	21 39       	and	r3,r1
  300666:	41 11       	cmp/pz	r1
  300668:	8d 04       	bt.s	300674 <_keydev_queue_push+0x18>
  30066a:	62 03       	mov	r0,r2
  30066c:	71 ff       	add	#-1,r1
  30066e:	e3 e0       	mov	#-32,r3
  300670:	21 3b       	or	r3,r1
  300672:	71 01       	add	#1,r1
  300674:	84 48       	mov.b	@(8,r4),r0
  300676:	30 10       	cmp/eq	r1,r0
  300678:	8b 04       	bf	300684 <_keydev_queue_push+0x28>
  30067a:	51 43       	mov.l	@(12,r4),r1
  30067c:	e0 00       	mov	#0,r0
  30067e:	71 01       	add	#1,r1
  300680:	00 0b       	rts	
  300682:	14 13       	mov.l	r1,@(12,r4)
  300684:	60 23       	mov	r2,r0
  300686:	70 11       	add	#17,r0
  300688:	40 08       	shll2	r0
  30068a:	04 56       	mov.l	r5,@(r0,r4)
  30068c:	60 13       	mov	r1,r0
  30068e:	80 49       	mov.b	r0,@(9,r4)
  300690:	00 0b       	rts	
  300692:	e0 01       	mov	#1,r0
  300694:	80 00       	mov.b	r0,@(0,r0)
  300696:	00 1f       	mac.l	@r1+,@r0+

00300698 <_keydev_process_state>:
  300698:	2f 86       	mov.l	r8,@-r15
  30069a:	2f 96       	mov.l	r9,@-r15
  30069c:	2f a6       	mov.l	r10,@-r15
  30069e:	2f b6       	mov.l	r11,@-r15
  3006a0:	2f c6       	mov.l	r12,@-r15
  3006a2:	6c 43       	mov	r4,r12
  3006a4:	2f d6       	mov.l	r13,@-r15
  3006a6:	2f e6       	mov.l	r14,@-r15
  3006a8:	4f 22       	sts.l	pr,@-r15
  3006aa:	68 42       	mov.l	@r4,r8
  3006ac:	7f ec       	add	#-20,r15
  3006ae:	91 57       	mov.w	300760 <_keydev_process_state+0xc8>,r1	! 200
  3006b0:	97 57       	mov.w	300762 <_keydev_process_state+0xca>,r7	! ff00
  3006b2:	48 28       	shll16	r8
  3006b4:	28 1b       	or	r1,r8
  3006b6:	1f 54       	mov.l	r5,@(16,r15)
  3006b8:	e1 00       	mov	#0,r1
  3006ba:	5e f4       	mov.l	@(16,r15),r14
  3006bc:	62 c3       	mov	r12,r2
  3006be:	eb 08       	mov	#8,r11
  3006c0:	72 2c       	add	#44,r2
  3006c2:	66 24       	mov.b	@r2+,r6
  3006c4:	21 18       	tst	r1,r1
  3006c6:	69 e4       	mov.b	@r14+,r9
  3006c8:	66 6c       	extu.b	r6,r6
  3006ca:	8d 13       	bt.s	3006f4 <_keydev_process_state+0x5c>
  3006cc:	69 9c       	extu.b	r9,r9
  3006ce:	66 67       	not	r6,r6
  3006d0:	29 69       	and	r6,r9
  3006d2:	29 98       	tst	r9,r9
  3006d4:	8f 10       	bf.s	3006f8 <_keydev_process_state+0x60>
  3006d6:	6a b3       	mov	r11,r10
  3006d8:	96 44       	mov.w	300764 <_keydev_process_state+0xcc>,r6	! c8
  3006da:	7b 10       	add	#16,r11
  3006dc:	6b bc       	extu.b	r11,r11
  3006de:	3b 60       	cmp/eq	r6,r11
  3006e0:	8f ef       	bf.s	3006c2 <_keydev_process_state+0x2a>
  3006e2:	60 13       	mov	r1,r0
  3006e4:	92 3f       	mov.w	300766 <_keydev_process_state+0xce>,r2	! fcff
  3006e6:	88 01       	cmp/eq	#1,r0
  3006e8:	22 89       	and	r8,r2
  3006ea:	98 3d       	mov.w	300768 <_keydev_process_state+0xd0>,r8	! 100
  3006ec:	8d 2e       	bt.s	30074c <_keydev_process_state+0xb4>
  3006ee:	28 2b       	or	r2,r8
  3006f0:	af e3       	bra	3006ba <_keydev_process_state+0x22>
  3006f2:	e1 01       	mov	#1,r1
  3006f4:	af ec       	bra	3006d0 <_keydev_process_state+0x38>
  3006f6:	69 97       	not	r9,r9
  3006f8:	9d 37       	mov.w	30076a <_keydev_process_state+0xd2>,r13	! 80
  3006fa:	d6 1c       	mov.l	30076c <_keydev_process_state+0xd4>,r6	! 30065c <_keydev_queue_push>
  3006fc:	7a f8       	add	#-8,r10
  3006fe:	6a ac       	extu.b	r10,r10
  300700:	29 d8       	tst	r13,r9
  300702:	89 16       	bt	300732 <_keydev_process_state+0x9a>
  300704:	28 79       	and	r7,r8
  300706:	1f 12       	mov.l	r1,@(8,r15)
  300708:	28 ab       	or	r10,r8
  30070a:	1f 23       	mov.l	r2,@(12,r15)
  30070c:	1f 61       	mov.l	r6,@(4,r15)
  30070e:	65 83       	mov	r8,r5
  300710:	2f 72       	mov.l	r7,@r15
  300712:	46 0b       	jsr	@r6
  300714:	64 c3       	mov	r12,r4
  300716:	20 08       	tst	r0,r0
  300718:	51 f2       	mov.l	@(8,r15),r1
  30071a:	52 f3       	mov.l	@(12,r15),r2
  30071c:	56 f1       	mov.l	@(4,r15),r6
  30071e:	8d 08       	bt.s	300732 <_keydev_process_state+0x9a>
  300720:	67 f2       	mov.l	@r15,r7
  300722:	21 18       	tst	r1,r1
  300724:	65 23       	mov	r2,r5
  300726:	8d 0c       	bt.s	300742 <_keydev_process_state+0xaa>
  300728:	75 f0       	add	#-16,r5
  30072a:	84 5f       	mov.b	@(15,r5),r0
  30072c:	20 db       	or	r13,r0
  30072e:	60 0c       	extu.b	r0,r0
  300730:	80 5f       	mov.b	r0,@(15,r5)
  300732:	7a 01       	add	#1,r10
  300734:	6a ac       	extu.b	r10,r10
  300736:	4d 21       	shar	r13
  300738:	3b a0       	cmp/eq	r10,r11
  30073a:	8f e2       	bf.s	300702 <_keydev_process_state+0x6a>
  30073c:	29 d8       	tst	r13,r9
  30073e:	af cb       	bra	3006d8 <_keydev_process_state+0x40>
  300740:	00 09       	nop	
  300742:	84 5f       	mov.b	@(15,r5),r0
  300744:	64 d7       	not	r13,r4
  300746:	24 09       	and	r0,r4
  300748:	af f2       	bra	300730 <_keydev_process_state+0x98>
  30074a:	60 4c       	extu.b	r4,r0
  30074c:	7f 14       	add	#20,r15
  30074e:	4f 26       	lds.l	@r15+,pr
  300750:	6e f6       	mov.l	@r15+,r14
  300752:	6d f6       	mov.l	@r15+,r13
  300754:	6c f6       	mov.l	@r15+,r12
  300756:	6b f6       	mov.l	@r15+,r11
  300758:	6a f6       	mov.l	@r15+,r10
  30075a:	69 f6       	mov.l	@r15+,r9
  30075c:	00 0b       	rts	
  30075e:	68 f6       	mov.l	@r15+,r8
  300760:	02 00       	.word 0x0200
  300762:	ff 00       	.word 0xff00
  300764:	00 c8       	setdmy	
  300766:	fc ff       	.word 0xfcff
  300768:	01 00       	.word 0x0100
  30076a:	00 80       	.word 0x0080
  30076c:	00 30       	.word 0x0030
  30076e:	06 5c       	mov.b	@(r0,r5),r6

00300770 <_keydev_repeat_event>:
  300770:	2f 86       	mov.l	r8,@-r15
  300772:	2f 96       	mov.l	r9,@-r15
  300774:	69 43       	mov	r4,r9
  300776:	2f a6       	mov.l	r10,@-r15
  300778:	2f b6       	mov.l	r11,@-r15
  30077a:	4f 22       	sts.l	pr,@-r15
  30077c:	68 42       	mov.l	@r4,r8
  30077e:	54 44       	mov.l	@(16,r4),r4
  300780:	6b 8d       	extu.w	r8,r11
  300782:	60 43       	mov	r4,r0
  300784:	c8 10       	tst	#16,r0
  300786:	8d 22       	bt.s	3007ce <_keydev_repeat_event+0x5e>
  300788:	48 28       	shll16	r8
  30078a:	5a 97       	mov.l	@(28,r9),r10
  30078c:	2a a8       	tst	r10,r10
  30078e:	8d 1f       	bt.s	3007d0 <_keydev_repeat_event+0x60>
  300790:	60 83       	mov	r8,r0
  300792:	51 9a       	mov.l	@(40,r9),r1
  300794:	21 18       	tst	r1,r1
  300796:	8b 1b       	bf	3007d0 <_keydev_repeat_event+0x60>
  300798:	d0 11       	mov.l	3007e0 <_keydev_repeat_event+0x70>,r0	! 300628 <_can_repeat.isra.0>
  30079a:	40 0b       	jsr	@r0
  30079c:	65 a3       	mov	r10,r5
  30079e:	20 08       	tst	r0,r0
  3007a0:	8d 15       	bt.s	3007ce <_keydev_repeat_event+0x5e>
  3007a2:	e2 ff       	mov	#-1,r2
  3007a4:	56 98       	mov.l	@(32,r9),r6
  3007a6:	50 95       	mov.l	@(20,r9),r0
  3007a8:	76 01       	add	#1,r6
  3007aa:	19 2a       	mov.l	r2,@(40,r9)
  3007ac:	19 68       	mov.l	r6,@(32,r9)
  3007ae:	20 08       	tst	r0,r0
  3007b0:	8d 05       	bt.s	3007be <_keydev_repeat_event+0x4e>
  3007b2:	51 99       	mov.l	@(36,r9),r1
  3007b4:	3b 18       	sub	r1,r11
  3007b6:	64 a3       	mov	r10,r4
  3007b8:	40 0b       	jsr	@r0
  3007ba:	65 bf       	exts.w	r11,r5
  3007bc:	19 0a       	mov.l	r0,@(40,r9)
  3007be:	51 98       	mov.l	@(32,r9),r1
  3007c0:	21 18       	tst	r1,r1
  3007c2:	89 04       	bt	3007ce <_keydev_repeat_event+0x5e>
  3007c4:	51 97       	mov.l	@(28,r9),r1
  3007c6:	92 09       	mov.w	3007dc <_keydev_repeat_event+0x6c>,r2	! 300
  3007c8:	61 1c       	extu.b	r1,r1
  3007ca:	28 2b       	or	r2,r8
  3007cc:	28 1b       	or	r1,r8
  3007ce:	60 83       	mov	r8,r0
  3007d0:	4f 26       	lds.l	@r15+,pr
  3007d2:	6b f6       	mov.l	@r15+,r11
  3007d4:	6a f6       	mov.l	@r15+,r10
  3007d6:	69 f6       	mov.l	@r15+,r9
  3007d8:	00 0b       	rts	
  3007da:	68 f6       	mov.l	@r15+,r8
  3007dc:	03 00       	.word 0x0300
  3007de:	00 09       	nop	
  3007e0:	00 30       	.word 0x0030
  3007e2:	06 28       	.word 0x0628

003007e4 <_keydev_tick>:
  3007e4:	d0 11       	mov.l	30082c <_keydev_tick+0x48>,r0	! 300770 <_keydev_repeat_event>
  3007e6:	2f 86       	mov.l	r8,@-r15
  3007e8:	68 43       	mov	r4,r8
  3007ea:	2f 96       	mov.l	r9,@-r15
  3007ec:	4f 22       	sts.l	pr,@-r15
  3007ee:	40 0b       	jsr	@r0
  3007f0:	69 53       	mov	r5,r9
  3007f2:	65 03       	mov	r0,r5
  3007f4:	60 08       	swap.b	r0,r0
  3007f6:	c8 03       	tst	#3,r0
  3007f8:	89 02       	bt	300800 <_keydev_tick+0x1c>
  3007fa:	d0 0d       	mov.l	300830 <_keydev_tick+0x4c>,r0	! 30065c <_keydev_queue_push>
  3007fc:	40 0b       	jsr	@r0
  3007fe:	64 83       	mov	r8,r4
  300800:	61 82       	mov.l	@r8,r1
  300802:	71 01       	add	#1,r1
  300804:	28 12       	mov.l	r1,@r8
  300806:	51 87       	mov.l	@(28,r8),r1
  300808:	21 18       	tst	r1,r1
  30080a:	89 0a       	bt	300822 <_keydev_tick+0x3e>
  30080c:	51 8a       	mov.l	@(40,r8),r1
  30080e:	41 11       	cmp/pz	r1
  300810:	8f 04       	bf.s	30081c <_keydev_tick+0x38>
  300812:	31 98       	sub	r9,r1
  300814:	41 11       	cmp/pz	r1
  300816:	89 00       	bt	30081a <_keydev_tick+0x36>
  300818:	e1 00       	mov	#0,r1
  30081a:	18 1a       	mov.l	r1,@(40,r8)
  30081c:	51 89       	mov.l	@(36,r8),r1
  30081e:	31 9c       	add	r9,r1
  300820:	18 19       	mov.l	r1,@(36,r8)
  300822:	4f 26       	lds.l	@r15+,pr
  300824:	69 f6       	mov.l	@r15+,r9
  300826:	00 0b       	rts	
  300828:	68 f6       	mov.l	@r15+,r8
  30082a:	00 09       	nop	
  30082c:	00 30       	.word 0x0030
  30082e:	07 70       	.word 0x0770
  300830:	00 30       	.word 0x0030
  300832:	06 5c       	mov.b	@(r0,r5),r6

00300834 <_keydev_unqueue_event>:
  300834:	2f 86       	mov.l	r8,@-r15
  300836:	68 43       	mov	r4,r8
  300838:	2f 96       	mov.l	r9,@-r15
  30083a:	2f a6       	mov.l	r10,@-r15
  30083c:	2f b6       	mov.l	r11,@-r15
  30083e:	4f 22       	sts.l	pr,@-r15
  300840:	84 48       	mov.b	@(8,r4),r0
  300842:	6a 42       	mov.l	@r4,r10
  300844:	61 03       	mov	r0,r1
  300846:	84 49       	mov.b	@(9,r4),r0
  300848:	30 10       	cmp/eq	r1,r0
  30084a:	8d 36       	bt.s	3008ba <_keydev_unqueue_event+0x86>
  30084c:	4a 28       	shll16	r10
  30084e:	60 13       	mov	r1,r0
  300850:	70 11       	add	#17,r0
  300852:	40 08       	shll2	r0
  300854:	30 4c       	add	r4,r0
  300856:	6a 02       	mov.l	@r0,r10
  300858:	84 03       	mov.b	@(3,r0),r0
  30085a:	69 0c       	extu.b	r0,r9
  30085c:	60 13       	mov	r1,r0
  30085e:	d1 29       	mov.l	300904 <_keydev_unqueue_event+0xd0>,r1	! 8000001f
  300860:	70 01       	add	#1,r0
  300862:	20 19       	and	r1,r0
  300864:	40 11       	cmp/pz	r0
  300866:	8d 03       	bt.s	300870 <_keydev_unqueue_event+0x3c>
  300868:	e1 e0       	mov	#-32,r1
  30086a:	70 ff       	add	#-1,r0
  30086c:	20 1b       	or	r1,r0
  30086e:	70 01       	add	#1,r0
  300870:	93 42       	mov.w	3008f8 <_keydev_unqueue_event+0xc4>,r3	! ff00
  300872:	61 93       	mov	r9,r1
  300874:	97 41       	mov.w	3008fa <_keydev_unqueue_event+0xc6>,r7	! 100
  300876:	41 09       	shlr2	r1
  300878:	2a 39       	and	r3,r10
  30087a:	93 3f       	mov.w	3008fc <_keydev_unqueue_event+0xc8>,r3	! 300
  30087c:	2a 9b       	or	r9,r10
  30087e:	92 3e       	mov.w	3008fe <_keydev_unqueue_event+0xca>,r2	! 80
  300880:	80 88       	mov.b	r0,@(8,r8)
  300882:	23 a9       	and	r10,r3
  300884:	60 93       	mov	r9,r0
  300886:	c9 07       	and	#7,r0
  300888:	60 0b       	neg	r0,r0
  30088a:	33 70       	cmp/eq	r7,r3
  30088c:	41 09       	shlr2	r1
  30088e:	8f 1b       	bf.s	3008c8 <_keydev_unqueue_event+0x94>
  300890:	42 0c       	shad	r0,r2
  300892:	31 8c       	add	r8,r1
  300894:	71 38       	add	#56,r1
  300896:	63 10       	mov.b	@r1,r3
  300898:	22 3b       	or	r3,r2
  30089a:	21 20       	mov.b	r2,@r1
  30089c:	5b 87       	mov.l	@(28,r8),r11
  30089e:	2b b8       	tst	r11,r11
  3008a0:	8f 0c       	bf.s	3008bc <_keydev_unqueue_event+0x88>
  3008a2:	60 a3       	mov	r10,r0
  3008a4:	d0 18       	mov.l	300908 <_keydev_unqueue_event+0xd4>,r0	! 300628 <_can_repeat.isra.0>
  3008a6:	65 93       	mov	r9,r5
  3008a8:	40 0b       	jsr	@r0
  3008aa:	54 84       	mov.l	@(16,r8),r4
  3008ac:	20 08       	tst	r0,r0
  3008ae:	8d 04       	bt.s	3008ba <_keydev_unqueue_event+0x86>
  3008b0:	e1 ff       	mov	#-1,r1
  3008b2:	18 97       	mov.l	r9,@(28,r8)
  3008b4:	18 18       	mov.l	r1,@(32,r8)
  3008b6:	18 b9       	mov.l	r11,@(36,r8)
  3008b8:	18 ba       	mov.l	r11,@(40,r8)
  3008ba:	60 a3       	mov	r10,r0
  3008bc:	4f 26       	lds.l	@r15+,pr
  3008be:	6b f6       	mov.l	@r15+,r11
  3008c0:	6a f6       	mov.l	@r15+,r10
  3008c2:	69 f6       	mov.l	@r15+,r9
  3008c4:	00 0b       	rts	
  3008c6:	68 f6       	mov.l	@r15+,r8
  3008c8:	97 1a       	mov.w	300900 <_keydev_unqueue_event+0xcc>,r7	! 200
  3008ca:	33 70       	cmp/eq	r7,r3
  3008cc:	8f f6       	bf.s	3008bc <_keydev_unqueue_event+0x88>
  3008ce:	60 a3       	mov	r10,r0
  3008d0:	31 8c       	add	r8,r1
  3008d2:	71 38       	add	#56,r1
  3008d4:	63 10       	mov.b	@r1,r3
  3008d6:	62 27       	not	r2,r2
  3008d8:	22 39       	and	r3,r2
  3008da:	21 20       	mov.b	r2,@r1
  3008dc:	51 87       	mov.l	@(28,r8),r1
  3008de:	39 10       	cmp/eq	r1,r9
  3008e0:	8f ec       	bf.s	3008bc <_keydev_unqueue_event+0x88>
  3008e2:	e1 00       	mov	#0,r1
  3008e4:	18 17       	mov.l	r1,@(28,r8)
  3008e6:	e1 ff       	mov	#-1,r1
  3008e8:	18 18       	mov.l	r1,@(32,r8)
  3008ea:	78 10       	add	#16,r8
  3008ec:	18 15       	mov.l	r1,@(20,r8)
  3008ee:	18 16       	mov.l	r1,@(24,r8)
  3008f0:	84 88       	mov.b	@(8,r8),r0
  3008f2:	c9 cf       	and	#207,r0
  3008f4:	af e1       	bra	3008ba <_keydev_unqueue_event+0x86>
  3008f6:	80 88       	mov.b	r0,@(8,r8)
  3008f8:	ff 00       	.word 0xff00
  3008fa:	01 00       	.word 0x0100
  3008fc:	03 00       	.word 0x0300
  3008fe:	00 80       	.word 0x0080
  300900:	02 00       	.word 0x0200
  300902:	00 09       	nop	
  300904:	80 00       	mov.b	r0,@(0,r0)
  300906:	00 1f       	mac.l	@r1+,@r0+
  300908:	00 30       	.word 0x0030
  30090a:	06 28       	.word 0x0628

0030090c <_keydev_keydown>:
  30090c:	e2 fc       	mov	#-4,r2
  30090e:	61 53       	mov	r5,r1
  300910:	41 2c       	shad	r2,r1
  300912:	60 53       	mov	r5,r0
  300914:	34 1c       	add	r1,r4
  300916:	91 09       	mov.w	30092c <_keydev_keydown+0x20>,r1	! 80
  300918:	c9 07       	and	#7,r0
  30091a:	74 38       	add	#56,r4
  30091c:	60 0b       	neg	r0,r0
  30091e:	62 40       	mov.b	@r4,r2
  300920:	41 0c       	shad	r0,r1
  300922:	61 1c       	extu.b	r1,r1
  300924:	21 28       	tst	r2,r1
  300926:	e0 ff       	mov	#-1,r0
  300928:	00 0b       	rts	
  30092a:	60 0a       	negc	r0,r0
  30092c:	00 80       	.word 0x0080

0030092e <_keydev_transform>:
  30092e:	d0 05       	mov.l	300944 <_keydev_transform+0x16>,r0	! 3048b0 <_memcpy>
  300930:	e6 08       	mov	#8,r6
  300932:	4f 22       	sts.l	pr,@-r15
  300934:	65 43       	mov	r4,r5
  300936:	64 23       	mov	r2,r4
  300938:	40 0b       	jsr	@r0
  30093a:	75 10       	add	#16,r5
  30093c:	4f 26       	lds.l	@r15+,pr
  30093e:	00 0b       	rts	
  300940:	00 09       	nop	
  300942:	00 09       	nop	
  300944:	00 30       	.word 0x0030
  300946:	48 b0       	.word 0x48b0

00300948 <_keydev_set_transform>:
  300948:	4f 22       	sts.l	pr,@-r15
  30094a:	7f f8       	add	#-8,r15
  30094c:	61 53       	mov	r5,r1
  30094e:	2f 52       	mov.l	r5,@r15
  300950:	74 10       	add	#16,r4
  300952:	65 42       	mov.l	@r4,r5
  300954:	25 1a       	xor	r1,r5
  300956:	60 53       	mov	r5,r0
  300958:	c8 01       	tst	#1,r0
  30095a:	8d 04       	bt.s	300966 <_keydev_set_transform+0x1e>
  30095c:	1f 61       	mov.l	r6,@(4,r15)
  30095e:	84 48       	mov.b	@(8,r4),r0
  300960:	c9 5f       	and	#95,r0
  300962:	80 48       	mov.b	r0,@(8,r4)
  300964:	60 53       	mov	r5,r0
  300966:	c8 02       	tst	#2,r0
  300968:	89 02       	bt	300970 <_keydev_set_transform+0x28>
  30096a:	84 48       	mov.b	@(8,r4),r0
  30096c:	c9 af       	and	#175,r0
  30096e:	80 48       	mov.b	r0,@(8,r4)
  300970:	d0 03       	mov.l	300980 <_keydev_set_transform+0x38>,r0	! 3048b0 <_memcpy>
  300972:	e6 08       	mov	#8,r6
  300974:	40 0b       	jsr	@r0
  300976:	65 f3       	mov	r15,r5
  300978:	7f 08       	add	#8,r15
  30097a:	4f 26       	lds.l	@r15+,pr
  30097c:	00 0b       	rts	
  30097e:	00 09       	nop	
  300980:	00 30       	.word 0x0030
  300982:	48 b0       	.word 0x48b0

00300984 <_keydev_set_standard_repeats>:
  300984:	91 05       	mov.w	300992 <_keydev_set_standard_repeats+0xe>,r1	! bc
  300986:	31 4c       	add	r4,r1
  300988:	11 52       	mov.l	r5,@(8,r1)
  30098a:	11 63       	mov.l	r6,@(12,r1)
  30098c:	d1 01       	mov.l	300994 <_keydev_set_standard_repeats+0x10>,r1	! 300604 <_standard_repeater>
  30098e:	00 0b       	rts	
  300990:	14 15       	mov.l	r1,@(20,r4)
  300992:	00 bc       	mov.b	@(r0,r11),r0
  300994:	00 30       	.word 0x0030
  300996:	06 04       	mov.b	r0,@(r0,r6)

00300998 <_keydev_read>:
  300998:	2f 86       	mov.l	r8,@-r15
  30099a:	2f 96       	mov.l	r9,@-r15
  30099c:	2f a6       	mov.l	r10,@-r15
  30099e:	6a 43       	mov	r4,r10
  3009a0:	2f b6       	mov.l	r11,@-r15
  3009a2:	2f c6       	mov.l	r12,@-r15
  3009a4:	2f d6       	mov.l	r13,@-r15
  3009a6:	2f e6       	mov.l	r14,@-r15
  3009a8:	9d c3       	mov.w	300b32 <_keydev_read+0x19a>,r13	! efff
  3009aa:	9e c3       	mov.w	300b34 <_keydev_read+0x19c>,r14	! 300
  3009ac:	4f 22       	sts.l	pr,@-r15
  3009ae:	d0 64       	mov.l	300b40 <_keydev_read+0x1a8>,r0	! 300834 <_keydev_unqueue_event>
  3009b0:	64 a3       	mov	r10,r4
  3009b2:	eb ff       	mov	#-1,r11
  3009b4:	40 0b       	jsr	@r0
  3009b6:	e9 ff       	mov	#-1,r9
  3009b8:	68 03       	mov	r0,r8
  3009ba:	60 08       	swap.b	r0,r0
  3009bc:	c8 08       	tst	#8,r0
  3009be:	6b ba       	negc	r11,r11
  3009c0:	c8 04       	tst	#4,r0
  3009c2:	69 9a       	negc	r9,r9
  3009c4:	28 e8       	tst	r14,r8
  3009c6:	8f 02       	bf.s	3009ce <_keydev_read+0x36>
  3009c8:	65 8c       	extu.b	r8,r5
  3009ca:	a0 90       	bra	300aee <_keydev_read+0x156>
  3009cc:	60 83       	mov	r8,r0
  3009ce:	5c a4       	mov.l	@(16,r10),r12
  3009d0:	e1 ff       	mov	#-1,r1
  3009d2:	e2 0c       	mov	#12,r2
  3009d4:	60 c3       	mov	r12,r0
  3009d6:	c8 0f       	tst	#15,r0
  3009d8:	61 1a       	negc	r1,r1
  3009da:	41 2d       	shld	r2,r1
  3009dc:	28 d9       	and	r13,r8
  3009de:	28 1b       	or	r1,r8
  3009e0:	60 88       	swap.b	r8,r0
  3009e2:	c8 01       	tst	#1,r0
  3009e4:	8d 1d       	bt.s	300a22 <_keydev_read+0x8a>
  3009e6:	60 c3       	mov	r12,r0
  3009e8:	c8 04       	tst	#4,r0
  3009ea:	8d 0d       	bt.s	300a08 <_keydev_read+0x70>
  3009ec:	c8 08       	tst	#8,r0
  3009ee:	91 a2       	mov.w	300b36 <_keydev_read+0x19e>,r1	! 81
  3009f0:	35 10       	cmp/eq	r1,r5
  3009f2:	8d 09       	bt.s	300a08 <_keydev_read+0x70>
  3009f4:	c8 08       	tst	#8,r0
  3009f6:	60 a3       	mov	r10,r0
  3009f8:	70 40       	add	#64,r0
  3009fa:	84 00       	mov.b	@(0,r0),r0
  3009fc:	e1 ff       	mov	#-1,r1
  3009fe:	c8 40       	tst	#64,r0
  300a00:	61 1a       	negc	r1,r1
  300a02:	2b 1b       	or	r1,r11
  300a04:	60 c3       	mov	r12,r0
  300a06:	c8 08       	tst	#8,r0
  300a08:	8d 0a       	bt.s	300a20 <_keydev_read+0x88>
  300a0a:	60 53       	mov	r5,r0
  300a0c:	88 71       	cmp/eq	#113,r0
  300a0e:	8d 08       	bt.s	300a22 <_keydev_read+0x8a>
  300a10:	60 c3       	mov	r12,r0
  300a12:	60 a3       	mov	r10,r0
  300a14:	70 30       	add	#48,r0
  300a16:	84 0f       	mov.b	@(15,r0),r0
  300a18:	e1 ff       	mov	#-1,r1
  300a1a:	c8 40       	tst	#64,r0
  300a1c:	61 1a       	negc	r1,r1
  300a1e:	29 1b       	or	r1,r9
  300a20:	60 c3       	mov	r12,r0
  300a22:	c8 01       	tst	#1,r0
  300a24:	8d 24       	bt.s	300a70 <_keydev_read+0xd8>
  300a26:	60 c3       	mov	r12,r0
  300a28:	e1 0b       	mov	#11,r1
  300a2a:	60 b3       	mov	r11,r0
  300a2c:	c9 01       	and	#1,r0
  300a2e:	92 83       	mov.w	300b38 <_keydev_read+0x1a0>,r2	! 100
  300a30:	40 1d       	shld	r1,r0
  300a32:	91 82       	mov.w	300b3a <_keydev_read+0x1a2>,r1	! f7ff
  300a34:	28 19       	and	r1,r8
  300a36:	91 81       	mov.w	300b3c <_keydev_read+0x1a4>,r1	! fbff
  300a38:	28 0b       	or	r0,r8
  300a3a:	60 93       	mov	r9,r0
  300a3c:	c9 01       	and	#1,r0
  300a3e:	40 18       	shll8	r0
  300a40:	28 19       	and	r1,r8
  300a42:	40 08       	shll2	r0
  300a44:	28 0b       	or	r0,r8
  300a46:	61 83       	mov	r8,r1
  300a48:	21 e9       	and	r14,r1
  300a4a:	31 20       	cmp/eq	r2,r1
  300a4c:	8b 58       	bf	300b00 <_keydev_read+0x168>
  300a4e:	91 72       	mov.w	300b36 <_keydev_read+0x19e>,r1	! 81
  300a50:	35 10       	cmp/eq	r1,r5
  300a52:	8f 59       	bf.s	300b08 <_keydev_read+0x170>
  300a54:	61 a3       	mov	r10,r1
  300a56:	71 10       	add	#16,r1
  300a58:	84 18       	mov.b	@(8,r1),r0
  300a5a:	c8 20       	tst	#32,r0
  300a5c:	8f 04       	bf.s	300a68 <_keydev_read+0xd0>
  300a5e:	62 03       	mov	r0,r2
  300a60:	e3 80       	mov	#-128,r3
  300a62:	60 23       	mov	r2,r0
  300a64:	20 3b       	or	r3,r0
  300a66:	80 18       	mov.b	r0,@(8,r1)
  300a68:	84 18       	mov.b	@(8,r1),r0
  300a6a:	c9 df       	and	#223,r0
  300a6c:	80 18       	mov.b	r0,@(8,r1)
  300a6e:	60 c3       	mov	r12,r0
  300a70:	c8 02       	tst	#2,r0
  300a72:	8d 23       	bt.s	300abc <_keydev_read+0x124>
  300a74:	60 c3       	mov	r12,r0
  300a76:	e1 0b       	mov	#11,r1
  300a78:	60 b3       	mov	r11,r0
  300a7a:	c9 01       	and	#1,r0
  300a7c:	92 5c       	mov.w	300b38 <_keydev_read+0x1a0>,r2	! 100
  300a7e:	40 1d       	shld	r1,r0
  300a80:	91 5b       	mov.w	300b3a <_keydev_read+0x1a2>,r1	! f7ff
  300a82:	28 19       	and	r1,r8
  300a84:	91 5a       	mov.w	300b3c <_keydev_read+0x1a4>,r1	! fbff
  300a86:	28 0b       	or	r0,r8
  300a88:	60 93       	mov	r9,r0
  300a8a:	c9 01       	and	#1,r0
  300a8c:	40 18       	shll8	r0
  300a8e:	28 19       	and	r1,r8
  300a90:	40 08       	shll2	r0
  300a92:	28 0b       	or	r0,r8
  300a94:	61 83       	mov	r8,r1
  300a96:	21 e9       	and	r14,r1
  300a98:	31 20       	cmp/eq	r2,r1
  300a9a:	8f 57       	bf.s	300b4c <_keydev_read+0x1b4>
  300a9c:	60 53       	mov	r5,r0
  300a9e:	88 71       	cmp/eq	#113,r0
  300aa0:	8f 58       	bf.s	300b54 <_keydev_read+0x1bc>
  300aa2:	61 a3       	mov	r10,r1
  300aa4:	71 10       	add	#16,r1
  300aa6:	84 18       	mov.b	@(8,r1),r0
  300aa8:	c8 10       	tst	#16,r0
  300aaa:	8f 03       	bf.s	300ab4 <_keydev_read+0x11c>
  300aac:	62 03       	mov	r0,r2
  300aae:	e0 40       	mov	#64,r0
  300ab0:	20 2b       	or	r2,r0
  300ab2:	80 18       	mov.b	r0,@(8,r1)
  300ab4:	84 18       	mov.b	@(8,r1),r0
  300ab6:	c9 ef       	and	#239,r0
  300ab8:	80 18       	mov.b	r0,@(8,r1)
  300aba:	60 c3       	mov	r12,r0
  300abc:	c8 20       	tst	#32,r0
  300abe:	8d 06       	bt.s	300ace <_keydev_read+0x136>
  300ac0:	e1 01       	mov	#1,r1
  300ac2:	d0 20       	mov.l	300b44 <_keydev_read+0x1ac>,r0	! 300628 <_can_repeat.isra.0>
  300ac4:	40 0b       	jsr	@r0
  300ac6:	64 c3       	mov	r12,r4
  300ac8:	20 08       	tst	r0,r0
  300aca:	8d 6e       	bt.s	300baa <_keydev_read+0x212>
  300acc:	e1 01       	mov	#1,r1
  300ace:	60 c3       	mov	r12,r0
  300ad0:	c8 40       	tst	#64,r0
  300ad2:	2b 19       	and	r1,r11
  300ad4:	8f 57       	bf.s	300b86 <_keydev_read+0x1ee>
  300ad6:	29 19       	and	r1,r9
  300ad8:	91 2f       	mov.w	300b3a <_keydev_read+0x1a2>,r1	! f7ff
  300ada:	e2 0b       	mov	#11,r2
  300adc:	4b 2d       	shld	r2,r11
  300ade:	28 19       	and	r1,r8
  300ae0:	91 2c       	mov.w	300b3c <_keydev_read+0x1a4>,r1	! fbff
  300ae2:	28 bb       	or	r11,r8
  300ae4:	49 18       	shll8	r9
  300ae6:	49 08       	shll2	r9
  300ae8:	28 19       	and	r1,r8
  300aea:	28 9b       	or	r9,r8
  300aec:	60 83       	mov	r8,r0
  300aee:	4f 26       	lds.l	@r15+,pr
  300af0:	6e f6       	mov.l	@r15+,r14
  300af2:	6d f6       	mov.l	@r15+,r13
  300af4:	6c f6       	mov.l	@r15+,r12
  300af6:	6b f6       	mov.l	@r15+,r11
  300af8:	6a f6       	mov.l	@r15+,r10
  300afa:	69 f6       	mov.l	@r15+,r9
  300afc:	00 0b       	rts	
  300afe:	68 f6       	mov.l	@r15+,r8
  300b00:	92 1d       	mov.w	300b3e <_keydev_read+0x1a6>,r2	! 200
  300b02:	31 20       	cmp/eq	r2,r1
  300b04:	8d 0e       	bt.s	300b24 <_keydev_read+0x18c>
  300b06:	61 a3       	mov	r10,r1
  300b08:	51 a7       	mov.l	@(28,r10),r1
  300b0a:	31 50       	cmp/eq	r5,r1
  300b0c:	8b af       	bf	300a6e <_keydev_read+0xd6>
  300b0e:	51 a6       	mov.l	@(24,r10),r1
  300b10:	d2 0d       	mov.l	300b48 <_keydev_read+0x1b0>,r2	! 20000000
  300b12:	21 28       	tst	r2,r1
  300b14:	e1 ff       	mov	#-1,r1
  300b16:	61 1a       	negc	r1,r1
  300b18:	2b 1b       	or	r1,r11
  300b1a:	61 a3       	mov	r10,r1
  300b1c:	71 10       	add	#16,r1
  300b1e:	84 18       	mov.b	@(8,r1),r0
  300b20:	af a4       	bra	300a6c <_keydev_read+0xd4>
  300b22:	c9 7f       	and	#127,r0
  300b24:	71 10       	add	#16,r1
  300b26:	84 18       	mov.b	@(8,r1),r0
  300b28:	40 11       	cmp/pz	r0
  300b2a:	8d a0       	bt.s	300a6e <_keydev_read+0xd6>
  300b2c:	c9 5f       	and	#95,r0
  300b2e:	af 9d       	bra	300a6c <_keydev_read+0xd4>
  300b30:	cb 20       	or	#32,r0
  300b32:	ef ff       	mov	#-1,r15
  300b34:	03 00       	.word 0x0300
  300b36:	00 81       	.word 0x0081
  300b38:	01 00       	.word 0x0100
  300b3a:	f7 ff       	movs.l	a0g,@r3+r8
  300b3c:	fb ff 02 00 	pshl	#32,0x0	movx.w	a1,@r5+r8	movy.w	a1,@r7+r9
  300b40:	00 30       	.word 0x0030
  300b42:	08 34       	mov.b	r3,@(r0,r8)
  300b44:	00 30       	.word 0x0030
  300b46:	06 28       	.word 0x0628
  300b48:	20 00       	mov.b	r0,@r0
  300b4a:	00 00       	.word 0x0000
  300b4c:	92 2f       	mov.w	300bae <_keydev_read+0x216>,r2	! 200
  300b4e:	31 20       	cmp/eq	r2,r1
  300b50:	8d 0e       	bt.s	300b70 <_keydev_read+0x1d8>
  300b52:	62 a3       	mov	r10,r2
  300b54:	51 a7       	mov.l	@(28,r10),r1
  300b56:	31 50       	cmp/eq	r5,r1
  300b58:	8b af       	bf	300aba <_keydev_read+0x122>
  300b5a:	51 a6       	mov.l	@(24,r10),r1
  300b5c:	d2 15       	mov.l	300bb4 <_keydev_read+0x21c>,r2	! 10000000
  300b5e:	21 28       	tst	r2,r1
  300b60:	e1 ff       	mov	#-1,r1
  300b62:	61 1a       	negc	r1,r1
  300b64:	29 1b       	or	r1,r9
  300b66:	61 a3       	mov	r10,r1
  300b68:	71 10       	add	#16,r1
  300b6a:	84 18       	mov.b	@(8,r1),r0
  300b6c:	af a4       	bra	300ab8 <_keydev_read+0x120>
  300b6e:	c9 bf       	and	#191,r0
  300b70:	72 10       	add	#16,r2
  300b72:	84 28       	mov.b	@(8,r2),r0
  300b74:	c8 40       	tst	#64,r0
  300b76:	8d a0       	bt.s	300aba <_keydev_read+0x122>
  300b78:	61 03       	mov	r0,r1
  300b7a:	e3 af       	mov	#-81,r3
  300b7c:	60 13       	mov	r1,r0
  300b7e:	20 39       	and	r3,r0
  300b80:	cb 10       	or	#16,r0
  300b82:	af 9a       	bra	300aba <_keydev_read+0x122>
  300b84:	80 28       	mov.b	r0,@(8,r2)
  300b86:	92 13       	mov.w	300bb0 <_keydev_read+0x218>,r2	! f7ff
  300b88:	e3 0b       	mov	#11,r3
  300b8a:	61 b3       	mov	r11,r1
  300b8c:	41 3d       	shld	r3,r1
  300b8e:	22 89       	and	r8,r2
  300b90:	68 23       	mov	r2,r8
  300b92:	92 0e       	mov.w	300bb2 <_keydev_read+0x21a>,r2	! fbff
  300b94:	28 1b       	or	r1,r8
  300b96:	61 93       	mov	r9,r1
  300b98:	41 18       	shll8	r1
  300b9a:	41 08       	shll2	r1
  300b9c:	28 29       	and	r2,r8
  300b9e:	28 1b       	or	r1,r8
  300ba0:	91 05       	mov.w	300bae <_keydev_read+0x216>,r1	! 200
  300ba2:	62 83       	mov	r8,r2
  300ba4:	22 e9       	and	r14,r2
  300ba6:	32 10       	cmp/eq	r1,r2
  300ba8:	8b 96       	bf	300ad8 <_keydev_read+0x140>
  300baa:	af 00       	bra	3009ae <_keydev_read+0x16>
  300bac:	00 09       	nop	
  300bae:	02 00       	.word 0x0200
  300bb0:	f7 ff       	movs.l	a0g,@r3+r8
  300bb2:	fb ff 10 00 	psha	#0,0x0	movx.w	a1,@r5+r8	movy.w	a1,@r7+r9
	...

00300bb8 <_configure>:
  300bb8:	2f 86       	mov.l	r8,@-r15
  300bba:	d1 1a       	mov.l	300c24 <_configure+0x6c>,r1	! 30064e <_keydev_init>
  300bbc:	4f 22       	sts.l	pr,@-r15
  300bbe:	d4 1a       	mov.l	300c28 <_configure+0x70>,r4	! 8101440 <_keysc_dev>
  300bc0:	41 0b       	jsr	@r1
  300bc2:	7f d4       	add	#-44,r15
  300bc4:	d1 19       	mov.l	300c2c <_configure+0x74>,r1	! 300948 <_keydev_set_transform>
  300bc6:	e5 10       	mov	#16,r5
  300bc8:	d4 17       	mov.l	300c28 <_configure+0x70>,r4	! 8101440 <_keysc_dev>
  300bca:	41 0b       	jsr	@r1
  300bcc:	e6 00       	mov	#0,r6
  300bce:	d1 18       	mov.l	300c30 <_configure+0x78>,r1	! 300984 <_keydev_set_standard_repeats>
  300bd0:	d6 18       	mov.l	300c34 <_configure+0x7c>,r6	! 9c40
  300bd2:	d5 19       	mov.l	300c38 <_configure+0x80>,r5	! 61a80
  300bd4:	d4 14       	mov.l	300c28 <_configure+0x70>,r4	! 8101440 <_keysc_dev>
  300bd6:	41 0b       	jsr	@r1
  300bd8:	00 09       	nop	
  300bda:	d0 18       	mov.l	300c3c <_configure+0x84>,r0	! 304970 <_memset>
  300bdc:	e6 10       	mov	#16,r6
  300bde:	d1 18       	mov.l	300c40 <_configure+0x88>,r1	! 81018c4 <_keysc_scan_us>
  300be0:	e5 00       	mov	#0,r5
  300be2:	64 f3       	mov	r15,r4
  300be4:	74 1c       	add	#28,r4
  300be6:	40 0b       	jsr	@r0
  300be8:	68 12       	mov.l	@r1,r8
  300bea:	d0 16       	mov.l	300c44 <_configure+0x8c>,r0	! 3048b0 <_memcpy>
  300bec:	e6 10       	mov	#16,r6
  300bee:	d1 16       	mov.l	300c48 <_configure+0x90>,r1	! 300c60 <_keysc_tick>
  300bf0:	64 f3       	mov	r15,r4
  300bf2:	65 f3       	mov	r15,r5
  300bf4:	75 1c       	add	#28,r5
  300bf6:	40 0b       	jsr	@r0
  300bf8:	1f 16       	mov.l	r1,@(24,r15)
  300bfa:	d0 14       	mov.l	300c4c <_configure+0x94>,r0	! 3010c0 <_timer_configure>
  300bfc:	e4 ff       	mov	#-1,r4
  300bfe:	57 f6       	mov.l	@(24,r15),r7
  300c00:	e5 00       	mov	#0,r5
  300c02:	40 0b       	jsr	@r0
  300c04:	66 83       	mov	r8,r6
  300c06:	d1 12       	mov.l	300c50 <_configure+0x98>,r1	! 81018c0 <_keysc_tid>
  300c08:	40 11       	cmp/pz	r0
  300c0a:	64 03       	mov	r0,r4
  300c0c:	8f 03       	bf.s	300c16 <_configure+0x5e>
  300c0e:	21 02       	mov.l	r0,@r1
  300c10:	d1 10       	mov.l	300c54 <_configure+0x9c>,r1	! 3012cc <_timer_start>
  300c12:	41 0b       	jsr	@r1
  300c14:	00 09       	nop	
  300c16:	d1 10       	mov.l	300c58 <_configure+0xa0>,r1	! 8101bb4 <_gint>
  300c18:	d2 10       	mov.l	300c5c <_configure+0xa4>,r2	! 80000004
  300c1a:	11 28       	mov.l	r2,@(32,r1)
  300c1c:	7f 2c       	add	#44,r15
  300c1e:	4f 26       	lds.l	@r15+,pr
  300c20:	00 0b       	rts	
  300c22:	68 f6       	mov.l	@r15+,r8
  300c24:	00 30       	.word 0x0030
  300c26:	06 4e       	mov.l	@(r0,r4),r6
  300c28:	08 10       	.word 0x0810
  300c2a:	14 40       	mov.l	r4,@(0,r4)
  300c2c:	00 30       	.word 0x0030
  300c2e:	09 48       	.word 0x0948
  300c30:	00 30       	.word 0x0030
  300c32:	09 84       	mov.b	r8,@(r0,r9)
  300c34:	00 00       	.word 0x0000
  300c36:	9c 40       	mov.w	300cba <_keydev_std+0xa>,r12	! 1440
  300c38:	00 06       	mov.l	r0,@(r0,r0)
  300c3a:	1a 80       	mov.l	r8,@(0,r10)
  300c3c:	00 30       	.word 0x0030
  300c3e:	49 70       	.word 0x4970
  300c40:	08 10       	.word 0x0810
  300c42:	18 c4       	mov.l	r12,@(16,r8)
  300c44:	00 30       	.word 0x0030
  300c46:	48 b0       	.word 0x48b0
  300c48:	00 30       	.word 0x0030
  300c4a:	0c 60       	.word 0x0c60
  300c4c:	00 30       	.word 0x0030
  300c4e:	10 c0       	mov.l	r12,@(0,r0)
  300c50:	08 10       	.word 0x0810
  300c52:	18 c0       	mov.l	r12,@(0,r8)
  300c54:	00 30       	.word 0x0030
  300c56:	12 cc       	mov.l	r12,@(48,r2)
  300c58:	08 10       	.word 0x0810
  300c5a:	1b b4       	mov.l	r11,@(16,r11)
  300c5c:	80 00       	mov.b	r0,@(0,r0)
  300c5e:	00 04       	mov.b	r0,@(r0,r0)

00300c60 <_keysc_tick>:
  300c60:	4f 22       	sts.l	pr,@-r15
  300c62:	d7 0e       	mov.l	300c9c <_keysc_tick+0x3c>,r7	! a44b0000
  300c64:	7f f4       	add	#-12,r15
  300c66:	e1 00       	mov	#0,r1
  300c68:	62 f3       	mov	r15,r2
  300c6a:	2f 12       	mov.l	r1,@r15
  300c6c:	1f 11       	mov.l	r1,@(4,r15)
  300c6e:	1f 12       	mov.l	r1,@(8,r15)
  300c70:	e1 06       	mov	#6,r1
  300c72:	63 75       	mov.w	@r7+,r3
  300c74:	41 10       	dt	r1
  300c76:	63 38       	swap.b	r3,r3
  300c78:	22 31       	mov.w	r3,@r2
  300c7a:	8f fa       	bf.s	300c72 <_keysc_tick+0x12>
  300c7c:	72 02       	add	#2,r2
  300c7e:	d1 08       	mov.l	300ca0 <_keysc_tick+0x40>,r1	! 300698 <_keydev_process_state>
  300c80:	d4 08       	mov.l	300ca4 <_keysc_tick+0x44>,r4	! 8101440 <_keysc_dev>
  300c82:	41 0b       	jsr	@r1
  300c84:	65 f3       	mov	r15,r5
  300c86:	d1 08       	mov.l	300ca8 <_keysc_tick+0x48>,r1	! 81018c4 <_keysc_scan_us>
  300c88:	d4 06       	mov.l	300ca4 <_keysc_tick+0x44>,r4	! 8101440 <_keysc_dev>
  300c8a:	65 12       	mov.l	@r1,r5
  300c8c:	d1 07       	mov.l	300cac <_keysc_tick+0x4c>,r1	! 3007e4 <_keydev_tick>
  300c8e:	41 0b       	jsr	@r1
  300c90:	00 09       	nop	
  300c92:	e0 00       	mov	#0,r0
  300c94:	7f 0c       	add	#12,r15
  300c96:	4f 26       	lds.l	@r15+,pr
  300c98:	00 0b       	rts	
  300c9a:	00 09       	nop	
  300c9c:	a4 4b       	bra	301536 <_timer_timeout+0xa>
  300c9e:	00 00       	.word 0x0000
  300ca0:	00 30       	.word 0x0030
  300ca2:	06 98       	.word 0x0698
  300ca4:	08 10       	.word 0x0810
  300ca6:	14 40       	mov.l	r4,@(0,r4)
  300ca8:	08 10       	.word 0x0810
  300caa:	18 c4       	mov.l	r12,@(16,r8)
  300cac:	00 30       	.word 0x0030
  300cae:	07 e4       	mov.b	r14,@(r0,r7)

00300cb0 <_keydev_std>:
  300cb0:	d0 01       	mov.l	300cb8 <_keydev_std+0x8>,r0	! 8101440 <_keysc_dev>
  300cb2:	00 0b       	rts	
  300cb4:	00 09       	nop	
  300cb6:	00 09       	nop	
  300cb8:	08 10       	.word 0x0810
  300cba:	14 40       	mov.l	r4,@(0,r4)

00300cbc <_pollevent>:
  300cbc:	d0 01       	mov.l	300cc4 <_pollevent+0x8>,r0	! 300834 <_keydev_unqueue_event>
  300cbe:	d4 02       	mov.l	300cc8 <_pollevent+0xc>,r4	! 8101440 <_keysc_dev>
  300cc0:	40 2b       	jmp	@r0
  300cc2:	00 09       	nop	
  300cc4:	00 30       	.word 0x0030
  300cc6:	08 34       	mov.b	r3,@(r0,r8)
  300cc8:	08 10       	.word 0x0810
  300cca:	14 40       	mov.l	r4,@(0,r4)

00300ccc <_waitevent>:
  300ccc:	2f 86       	mov.l	r8,@-r15
  300cce:	68 43       	mov	r4,r8
  300cd0:	2f 96       	mov.l	r9,@-r15
  300cd2:	2f a6       	mov.l	r10,@-r15
  300cd4:	4f 22       	sts.l	pr,@-r15
  300cd6:	da 10       	mov.l	300d18 <_waitevent+0x4c>,r10	! 300cbc <_pollevent>
  300cd8:	7f fc       	add	#-4,r15
  300cda:	99 1b       	mov.w	300d14 <_waitevent+0x48>,r9	! 300
  300cdc:	4a 0b       	jsr	@r10
  300cde:	00 09       	nop	
  300ce0:	61 03       	mov	r0,r1
  300ce2:	21 98       	tst	r9,r1
  300ce4:	8d 07       	bt.s	300cf6 <_waitevent+0x2a>
  300ce6:	20 99       	and	r9,r0
  300ce8:	60 13       	mov	r1,r0
  300cea:	7f 04       	add	#4,r15
  300cec:	4f 26       	lds.l	@r15+,pr
  300cee:	6a f6       	mov.l	@r15+,r10
  300cf0:	69 f6       	mov.l	@r15+,r9
  300cf2:	00 0b       	rts	
  300cf4:	68 f6       	mov.l	@r15+,r8
  300cf6:	28 88       	tst	r8,r8
  300cf8:	89 02       	bt	300d00 <_waitevent+0x34>
  300cfa:	61 82       	mov.l	@r8,r1
  300cfc:	21 18       	tst	r1,r1
  300cfe:	8b 04       	bf	300d0a <_waitevent+0x3e>
  300d00:	d1 06       	mov.l	300d1c <_waitevent+0x50>,r1	! 301930 <_sleep>
  300d02:	41 0b       	jsr	@r1
  300d04:	00 09       	nop	
  300d06:	af e9       	bra	300cdc <_waitevent+0x10>
  300d08:	00 09       	nop	
  300d0a:	d1 05       	mov.l	300d20 <_waitevent+0x54>,r1	! 8101440 <_keysc_dev>
  300d0c:	61 12       	mov.l	@r1,r1
  300d0e:	41 28       	shll16	r1
  300d10:	af eb       	bra	300cea <_waitevent+0x1e>
  300d12:	20 1b       	or	r1,r0
  300d14:	03 00       	.word 0x0300
  300d16:	00 09       	nop	
  300d18:	00 30       	.word 0x0030
  300d1a:	0c bc       	mov.b	@(r0,r11),r12
  300d1c:	00 30       	.word 0x0030
  300d1e:	19 30       	mov.l	r3,@(0,r9)
  300d20:	08 10       	.word 0x0810
  300d22:	14 40       	mov.l	r4,@(0,r4)

00300d24 <_clearevents>:
  300d24:	2f 86       	mov.l	r8,@-r15
  300d26:	2f 96       	mov.l	r9,@-r15
  300d28:	98 09       	mov.w	300d3e <_clearevents+0x1a>,r8	! 300
  300d2a:	d9 05       	mov.l	300d40 <_clearevents+0x1c>,r9	! 300cbc <_pollevent>
  300d2c:	4f 22       	sts.l	pr,@-r15
  300d2e:	49 0b       	jsr	@r9
  300d30:	00 09       	nop	
  300d32:	20 88       	tst	r8,r0
  300d34:	8b fb       	bf	300d2e <_clearevents+0xa>
  300d36:	4f 26       	lds.l	@r15+,pr
  300d38:	69 f6       	mov.l	@r15+,r9
  300d3a:	00 0b       	rts	
  300d3c:	68 f6       	mov.l	@r15+,r8
  300d3e:	03 00       	.word 0x0300
  300d40:	00 30       	.word 0x0030
  300d42:	0c bc       	mov.b	@(r0,r11),r12

00300d44 <_keydown>:
  300d44:	d0 04       	mov.l	300d58 <_keydown+0x14>,r0	! 30090c <_keydev_keydown>
  300d46:	65 43       	mov	r4,r5
  300d48:	4f 22       	sts.l	pr,@-r15
  300d4a:	d4 04       	mov.l	300d5c <_keydown+0x18>,r4	! 8101440 <_keysc_dev>
  300d4c:	40 0b       	jsr	@r0
  300d4e:	00 09       	nop	
  300d50:	4f 26       	lds.l	@r15+,pr
  300d52:	00 0b       	rts	
  300d54:	00 09       	nop	
  300d56:	00 09       	nop	
  300d58:	00 30       	.word 0x0030
  300d5a:	09 0c       	mov.b	@(r0,r0),r9
  300d5c:	08 10       	.word 0x0810
  300d5e:	14 40       	mov.l	r4,@(0,r4)

00300d60 <_stop_callback>:
  300d60:	00 0b       	rts	
  300d62:	e0 01       	mov	#1,r0

00300d64 <_constructor>:
  300d64:	00 0b       	rts	
  300d66:	00 09       	nop	

00300d68 <_hsave>:
  300d68:	d1 1a       	mov.l	300dd4 <_hsave+0x6c>,r1	! a4490004
  300d6a:	e3 06       	mov	#6,r3
  300d6c:	60 10       	mov.b	@r1,r0
  300d6e:	61 43       	mov	r4,r1
  300d70:	71 60       	add	#96,r1
  300d72:	80 1c       	mov.b	r0,@(12,r1)
  300d74:	d0 18       	mov.l	300dd8 <_hsave+0x70>,r0	! a4490008
  300d76:	61 02       	mov.l	@r0,r1
  300d78:	24 12       	mov.l	r1,@r4
  300d7a:	51 01       	mov.l	@(4,r0),r1
  300d7c:	85 04       	mov.w	@(8,r0),r0
  300d7e:	14 11       	mov.l	r1,@(4,r4)
  300d80:	81 44       	mov.w	r0,@(8,r4)
  300d82:	d0 16       	mov.l	300ddc <_hsave+0x74>,r0	! a4490014
  300d84:	61 02       	mov.l	@r0,r1
  300d86:	14 13       	mov.l	r1,@(12,r4)
  300d88:	51 01       	mov.l	@(4,r0),r1
  300d8a:	85 04       	mov.w	@(8,r0),r0
  300d8c:	14 14       	mov.l	r1,@(16,r4)
  300d8e:	81 4a       	mov.w	r0,@(20,r4)
  300d90:	d0 13       	mov.l	300de0 <_hsave+0x78>,r0	! a4490020
  300d92:	61 02       	mov.l	@r0,r1
  300d94:	14 16       	mov.l	r1,@(24,r4)
  300d96:	51 01       	mov.l	@(4,r0),r1
  300d98:	85 04       	mov.w	@(8,r0),r0
  300d9a:	14 17       	mov.l	r1,@(28,r4)
  300d9c:	61 43       	mov	r4,r1
  300d9e:	71 20       	add	#32,r1
  300da0:	81 10       	mov.w	r0,@(0,r1)
  300da2:	74 24       	add	#36,r4
  300da4:	d1 0f       	mov.l	300de4 <_hsave+0x7c>,r1	! a44d0030
  300da6:	52 11       	mov.l	@(4,r1),r2
  300da8:	22 28       	tst	r2,r2
  300daa:	e2 ff       	mov	#-1,r2
  300dac:	89 00       	bt	300db0 <_hsave+0x48>
  300dae:	52 11       	mov.l	@(4,r1),r2
  300db0:	57 12       	mov.l	@(8,r1),r7
  300db2:	24 22       	mov.l	r2,@r4
  300db4:	27 78       	tst	r7,r7
  300db6:	89 00       	bt	300dba <_hsave+0x52>
  300db8:	52 12       	mov.l	@(8,r1),r2
  300dba:	84 1c       	mov.b	@(12,r1),r0
  300dbc:	43 10       	dt	r3
  300dbe:	14 21       	mov.l	r2,@(4,r4)
  300dc0:	c9 0d       	and	#13,r0
  300dc2:	81 44       	mov.w	r0,@(8,r4)
  300dc4:	60 10       	mov.b	@r1,r0
  300dc6:	71 20       	add	#32,r1
  300dc8:	60 0c       	extu.b	r0,r0
  300dca:	81 45       	mov.w	r0,@(10,r4)
  300dcc:	8f eb       	bf.s	300da6 <_hsave+0x3e>
  300dce:	74 0c       	add	#12,r4
  300dd0:	00 0b       	rts	
  300dd2:	00 09       	nop	
  300dd4:	a4 49       	bra	30166a <_cpg_get_overclock_setting+0x26>
  300dd6:	00 04       	mov.b	r0,@(r0,r0)
  300dd8:	a4 49       	bra	30166e <_cpg_get_overclock_setting+0x2a>
  300dda:	00 08       	clrt	
  300ddc:	a4 49       	bra	301672 <_cpg_get_overclock_setting+0x2e>
  300dde:	00 14       	mov.b	r1,@(r0,r0)
  300de0:	a4 49       	bra	301676 <_cpg_get_overclock_setting+0x32>
  300de2:	00 20       	.word 0x0020
  300de4:	a4 4d       	bra	301682 <_cpg_set_overclock_setting+0x2>
  300de6:	00 30       	.word 0x0030

00300de8 <_hrestore>:
  300de8:	d1 1d       	mov.l	300e60 <_hrestore+0x78>,r1	! a4490004
  300dea:	e2 00       	mov	#0,r2
  300dec:	e7 06       	mov	#6,r7
  300dee:	21 20       	mov.b	r2,@r1
  300df0:	62 42       	mov.l	@r4,r2
  300df2:	85 44       	mov.w	@(8,r4),r0
  300df4:	11 21       	mov.l	r2,@(4,r1)
  300df6:	52 41       	mov.l	@(4,r4),r2
  300df8:	11 22       	mov.l	r2,@(8,r1)
  300dfa:	52 43       	mov.l	@(12,r4),r2
  300dfc:	81 16       	mov.w	r0,@(12,r1)
  300dfe:	71 10       	add	#16,r1
  300e00:	21 22       	mov.l	r2,@r1
  300e02:	52 44       	mov.l	@(16,r4),r2
  300e04:	85 4a       	mov.w	@(20,r4),r0
  300e06:	11 21       	mov.l	r2,@(4,r1)
  300e08:	52 46       	mov.l	@(24,r4),r2
  300e0a:	81 14       	mov.w	r0,@(8,r1)
  300e0c:	60 43       	mov	r4,r0
  300e0e:	11 23       	mov.l	r2,@(12,r1)
  300e10:	70 20       	add	#32,r0
  300e12:	52 47       	mov.l	@(28,r4),r2
  300e14:	85 00       	mov.w	@(0,r0),r0
  300e16:	11 24       	mov.l	r2,@(16,r1)
  300e18:	81 1a       	mov.w	r0,@(20,r1)
  300e1a:	62 43       	mov	r4,r2
  300e1c:	d1 11       	mov.l	300e64 <_hrestore+0x7c>,r1	! a44d0030
  300e1e:	72 24       	add	#36,r2
  300e20:	63 22       	mov.l	@r2,r3
  300e22:	11 31       	mov.l	r3,@(4,r1)
  300e24:	56 11       	mov.l	@(4,r1),r6
  300e26:	33 60       	cmp/eq	r6,r3
  300e28:	8b fb       	bf	300e22 <_hrestore+0x3a>
  300e2a:	85 25       	mov.w	@(10,r2),r0
  300e2c:	21 00       	mov.b	r0,@r1
  300e2e:	53 21       	mov.l	@(4,r2),r3
  300e30:	11 32       	mov.l	r3,@(8,r1)
  300e32:	56 12       	mov.l	@(8,r1),r6
  300e34:	33 60       	cmp/eq	r6,r3
  300e36:	8b fb       	bf	300e30 <_hrestore+0x48>
  300e38:	85 24       	mov.w	@(8,r2),r0
  300e3a:	66 0d       	extu.w	r0,r6
  300e3c:	63 0c       	extu.b	r0,r3
  300e3e:	60 33       	mov	r3,r0
  300e40:	80 1c       	mov.b	r0,@(12,r1)
  300e42:	84 1c       	mov.b	@(12,r1),r0
  300e44:	60 0c       	extu.b	r0,r0
  300e46:	36 00       	cmp/eq	r0,r6
  300e48:	8f fa       	bf.s	300e40 <_hrestore+0x58>
  300e4a:	60 33       	mov	r3,r0
  300e4c:	47 10       	dt	r7
  300e4e:	72 0c       	add	#12,r2
  300e50:	8f e6       	bf.s	300e20 <_hrestore+0x38>
  300e52:	71 20       	add	#32,r1
  300e54:	74 60       	add	#96,r4
  300e56:	d1 02       	mov.l	300e60 <_hrestore+0x78>,r1	! a4490004
  300e58:	84 4c       	mov.b	@(12,r4),r0
  300e5a:	21 00       	mov.b	r0,@r1
  300e5c:	00 0b       	rts	
  300e5e:	00 09       	nop	
  300e60:	a4 49       	bra	3016f6 <_cpg_set_overclock_setting+0x76>
  300e62:	00 04       	mov.b	r0,@(r0,r0)
  300e64:	a4 4d       	bra	301702 <_clock_get_speed+0x2>
  300e66:	00 30       	.word 0x0030

00300e68 <_configure>:
  300e68:	2f 86       	mov.l	r8,@-r15
  300e6a:	e6 0c       	mov	#12,r6
  300e6c:	2f 96       	mov.l	r9,@-r15
  300e6e:	2f a6       	mov.l	r10,@-r15
  300e70:	2f b6       	mov.l	r11,@-r15
  300e72:	2f c6       	mov.l	r12,@-r15
  300e74:	2f d6       	mov.l	r13,@-r15
  300e76:	2f e6       	mov.l	r14,@-r15
  300e78:	4f 22       	sts.l	pr,@-r15
  300e7a:	d0 4b       	mov.l	300fa8 <_configure+0x140>,r0	! 3048b0 <_memcpy>
  300e7c:	7f f4       	add	#-12,r15
  300e7e:	d5 4b       	mov.l	300fac <_configure+0x144>,r5	! 306c20
  300e80:	db 4b       	mov.l	300fb0 <_configure+0x148>,r11	! 301a7c <_intc_handler>
  300e82:	40 0b       	jsr	@r0
  300e84:	64 f3       	mov	r15,r4
  300e86:	d1 4b       	mov.l	300fb4 <_configure+0x14c>,r1	! a4490004
  300e88:	e2 00       	mov	#0,r2
  300e8a:	d5 4b       	mov.l	300fb8 <_configure+0x150>,r5	! 306630 <_inth_tmu>
  300e8c:	e6 60       	mov	#96,r6
  300e8e:	21 20       	mov.b	r2,@r1
  300e90:	94 88       	mov.w	300fa4 <_configure+0x13c>,r4	! 400
  300e92:	4b 0b       	jsr	@r11
  300e94:	00 09       	nop	
  300e96:	d1 49       	mov.l	300fbc <_configure+0x154>,r1	! a4490008
  300e98:	e2 00       	mov	#0,r2
  300e9a:	60 23       	mov	r2,r0
  300e9c:	81 14       	mov.w	r0,@(8,r1)
  300e9e:	85 14       	mov.w	@(8,r1),r0
  300ea0:	20 08       	tst	r0,r0
  300ea2:	8f fb       	bf.s	300e9c <_configure+0x34>
  300ea4:	60 23       	mov	r2,r0
  300ea6:	e2 ff       	mov	#-1,r2
  300ea8:	21 22       	mov.l	r2,@r1
  300eaa:	11 21       	mov.l	r2,@(4,r1)
  300eac:	e2 00       	mov	#0,r2
  300eae:	d1 44       	mov.l	300fc0 <_configure+0x158>,r1	! a4490014
  300eb0:	60 23       	mov	r2,r0
  300eb2:	81 14       	mov.w	r0,@(8,r1)
  300eb4:	85 14       	mov.w	@(8,r1),r0
  300eb6:	20 08       	tst	r0,r0
  300eb8:	8f fb       	bf.s	300eb2 <_configure+0x4a>
  300eba:	60 23       	mov	r2,r0
  300ebc:	e2 ff       	mov	#-1,r2
  300ebe:	21 22       	mov.l	r2,@r1
  300ec0:	11 21       	mov.l	r2,@(4,r1)
  300ec2:	e2 00       	mov	#0,r2
  300ec4:	d1 3f       	mov.l	300fc4 <_configure+0x15c>,r1	! a4490020
  300ec6:	60 23       	mov	r2,r0
  300ec8:	81 14       	mov.w	r0,@(8,r1)
  300eca:	85 14       	mov.w	@(8,r1),r0
  300ecc:	20 08       	tst	r0,r0
  300ece:	8f fb       	bf.s	300ec8 <_configure+0x60>
  300ed0:	60 23       	mov	r2,r0
  300ed2:	e2 ff       	mov	#-1,r2
  300ed4:	21 22       	mov.l	r2,@r1
  300ed6:	e3 00       	mov	#0,r3
  300ed8:	11 21       	mov.l	r2,@(4,r1)
  300eda:	e7 ff       	mov	#-1,r7
  300edc:	d1 3a       	mov.l	300fc8 <_configure+0x160>,r1	! a44d0030
  300ede:	e2 06       	mov	#6,r2
  300ee0:	21 30       	mov.b	r3,@r1
  300ee2:	11 71       	mov.l	r7,@(4,r1)
  300ee4:	50 11       	mov.l	@(4,r1),r0
  300ee6:	88 ff       	cmp/eq	#-1,r0
  300ee8:	8b fb       	bf	300ee2 <_configure+0x7a>
  300eea:	11 72       	mov.l	r7,@(8,r1)
  300eec:	50 12       	mov.l	@(8,r1),r0
  300eee:	88 ff       	cmp/eq	#-1,r0
  300ef0:	8f fb       	bf.s	300eea <_configure+0x82>
  300ef2:	60 33       	mov	r3,r0
  300ef4:	80 1c       	mov.b	r0,@(12,r1)
  300ef6:	84 1c       	mov.b	@(12,r1),r0
  300ef8:	20 08       	tst	r0,r0
  300efa:	8f fb       	bf.s	300ef4 <_configure+0x8c>
  300efc:	60 33       	mov	r3,r0
  300efe:	42 10       	dt	r2
  300f00:	8f ee       	bf.s	300ee0 <_configure+0x78>
  300f02:	71 20       	add	#32,r1
  300f04:	d5 31       	mov.l	300fcc <_configure+0x164>,r5	! 3065b0 <_inth_etmu4>
  300f06:	e6 60       	mov	#96,r6
  300f08:	94 4d       	mov.w	300fa6 <_configure+0x13e>,r4	! d00
  300f0a:	4b 0b       	jsr	@r11
  300f0c:	e9 03       	mov	#3,r9
  300f0e:	de 30       	mov.l	300fd0 <_configure+0x168>,r14	! 306610 <_inth_etmux>
  300f10:	6d 03       	mov	r0,r13
  300f12:	dc 30       	mov.l	300fd4 <_configure+0x16c>,r12	! 3018d6 <_cpu_getVBR>
  300f14:	6a f3       	mov	r15,r10
  300f16:	60 93       	mov	r9,r0
  300f18:	88 07       	cmp/eq	#7,r0
  300f1a:	8d 18       	bt.s	300f4e <_configure+0xe6>
  300f1c:	e6 20       	mov	#32,r6
  300f1e:	64 a1       	mov.w	@r10,r4
  300f20:	65 e3       	mov	r14,r5
  300f22:	4b 0b       	jsr	@r11
  300f24:	64 4d       	extu.w	r4,r4
  300f26:	4c 0b       	jsr	@r12
  300f28:	68 03       	mov	r0,r8
  300f2a:	51 85       	mov.l	@(20,r8),r1
  300f2c:	31 08       	sub	r0,r1
  300f2e:	60 93       	mov	r9,r0
  300f30:	31 dc       	add	r13,r1
  300f32:	81 89       	mov.w	r0,@(18,r8)
  300f34:	18 15       	mov.l	r1,@(20,r8)
  300f36:	e1 14       	mov	#20,r1
  300f38:	09 17       	mul.l	r1,r9
  300f3a:	51 86       	mov.l	@(24,r8),r1
  300f3c:	d0 26       	mov.l	300fd8 <_configure+0x170>,r0	! a44cffdc
  300f3e:	02 1a       	sts	macl,r2
  300f40:	31 2c       	add	r2,r1
  300f42:	e2 05       	mov	#5,r2
  300f44:	18 16       	mov.l	r1,@(24,r8)
  300f46:	61 93       	mov	r9,r1
  300f48:	41 2d       	shld	r2,r1
  300f4a:	31 0c       	add	r0,r1
  300f4c:	18 17       	mov.l	r1,@(28,r8)
  300f4e:	79 01       	add	#1,r9
  300f50:	60 93       	mov	r9,r0
  300f52:	88 09       	cmp/eq	#9,r0
  300f54:	8f e0       	bf.s	300f18 <_configure+0xb0>
  300f56:	7a 02       	add	#2,r10
  300f58:	d8 20       	mov.l	300fdc <_configure+0x174>,r8	! 301a08 <_intc_priority>
  300f5a:	e5 0d       	mov	#13,r5
  300f5c:	48 0b       	jsr	@r8
  300f5e:	e4 00       	mov	#0,r4
  300f60:	e5 0b       	mov	#11,r5
  300f62:	48 0b       	jsr	@r8
  300f64:	e4 01       	mov	#1,r4
  300f66:	e5 09       	mov	#9,r5
  300f68:	48 0b       	jsr	@r8
  300f6a:	e4 02       	mov	#2,r4
  300f6c:	e5 07       	mov	#7,r5
  300f6e:	48 0b       	jsr	@r8
  300f70:	e4 03       	mov	#3,r4
  300f72:	e5 07       	mov	#7,r5
  300f74:	48 0b       	jsr	@r8
  300f76:	e4 04       	mov	#4,r4
  300f78:	e5 07       	mov	#7,r5
  300f7a:	48 0b       	jsr	@r8
  300f7c:	e4 05       	mov	#5,r4
  300f7e:	e5 07       	mov	#7,r5
  300f80:	48 0b       	jsr	@r8
  300f82:	e4 06       	mov	#6,r4
  300f84:	e5 07       	mov	#7,r5
  300f86:	48 0b       	jsr	@r8
  300f88:	e4 07       	mov	#7,r4
  300f8a:	e5 07       	mov	#7,r5
  300f8c:	61 83       	mov	r8,r1
  300f8e:	e4 08       	mov	#8,r4
  300f90:	7f 0c       	add	#12,r15
  300f92:	4f 26       	lds.l	@r15+,pr
  300f94:	6e f6       	mov.l	@r15+,r14
  300f96:	6d f6       	mov.l	@r15+,r13
  300f98:	6c f6       	mov.l	@r15+,r12
  300f9a:	6b f6       	mov.l	@r15+,r11
  300f9c:	6a f6       	mov.l	@r15+,r10
  300f9e:	69 f6       	mov.l	@r15+,r9
  300fa0:	41 2b       	jmp	@r1
  300fa2:	68 f6       	mov.l	@r15+,r8
  300fa4:	04 00       	.word 0x0400
  300fa6:	0d 00       	.word 0x0d00
  300fa8:	00 30       	.word 0x0030
  300faa:	48 b0       	.word 0x48b0
  300fac:	00 30       	.word 0x0030
  300fae:	6c 20       	mov.b	@r2,r12
  300fb0:	00 30       	.word 0x0030
  300fb2:	1a 7c       	mov.l	r7,@(48,r10)
  300fb4:	a4 49       	bra	30184a <_cpu_atomic_start+0x2>
  300fb6:	00 04       	mov.b	r0,@(r0,r0)
  300fb8:	00 30       	.word 0x0030
  300fba:	66 30       	mov.b	@r3,r6
  300fbc:	a4 49       	bra	301852 <_cpu_atomic_start+0xa>
  300fbe:	00 08       	clrt	
  300fc0:	a4 49       	bra	301856 <_cpu_atomic_start+0xe>
  300fc2:	00 14       	mov.b	r1,@(r0,r0)
  300fc4:	a4 49       	bra	30185a <_cpu_atomic_start+0x12>
  300fc6:	00 20       	.word 0x0020
  300fc8:	a4 4d       	bra	301866 <_cpu_atomic_start+0x1e>
  300fca:	00 30       	.word 0x0030
  300fcc:	00 30       	.word 0x0030
  300fce:	65 b0       	mov.b	@r11,r5
  300fd0:	00 30       	.word 0x0030
  300fd2:	66 10       	mov.b	@r1,r6
  300fd4:	00 30       	.word 0x0030
  300fd6:	18 d6       	mov.l	r13,@(24,r8)
  300fd8:	a4 4c       	bra	301874 <_cpu_atomic_start+0x2c>
  300fda:	ff dc       	.word 0xffdc
  300fdc:	00 30       	.word 0x0030
  300fde:	1a 08       	mov.l	r0,@(32,r10)

00300fe0 <_timer_control>:
  300fe0:	e1 02       	mov	#2,r1
  300fe2:	34 17       	cmp/gt	r1,r4
  300fe4:	8d 0a       	bt.s	300ffc <_timer_control+0x1c>
  300fe6:	60 53       	mov	r5,r0
  300fe8:	d2 08       	mov.l	30100c <_timer_control+0x2c>,r2	! a4490004
  300fea:	e1 01       	mov	#1,r1
  300fec:	41 4d       	shld	r4,r1
  300fee:	63 20       	mov.b	@r2,r3
  300ff0:	40 4d       	shld	r4,r0
  300ff2:	21 3b       	or	r3,r1
  300ff4:	21 0a       	xor	r0,r1
  300ff6:	22 10       	mov.b	r1,@r2
  300ff8:	00 0b       	rts	
  300ffa:	00 09       	nop	
  300ffc:	e1 05       	mov	#5,r1
  300ffe:	44 1d       	shld	r1,r4
  301000:	d1 03       	mov.l	301010 <_timer_control+0x30>,r1	! a44cffd0
  301002:	ca 01       	xor	#1,r0
  301004:	34 1c       	add	r1,r4
  301006:	24 00       	mov.b	r0,@r4
  301008:	00 0b       	rts	
  30100a:	00 09       	nop	
  30100c:	a4 49       	bra	3018a2 <_cpu_atomic_end+0x16>
  30100e:	00 04       	mov.b	r0,@(r0,r0)
  301010:	a4 4c       	bra	3018ac <_cpu_atomic_end+0x20>
  301012:	ff d0       	.word 0xffd0

00301014 <_timer_delay>:
  301014:	2f 86       	mov.l	r8,@-r15
  301016:	e1 02       	mov	#2,r1
  301018:	2f 96       	mov.l	r9,@-r15
  30101a:	34 17       	cmp/gt	r1,r4
  30101c:	2f a6       	mov.l	r10,@-r15
  30101e:	69 63       	mov	r6,r9
  301020:	4f 22       	sts.l	pr,@-r15
  301022:	6a 53       	mov	r5,r10
  301024:	8d 41       	bt.s	3010aa <_timer_delay+0x96>
  301026:	68 73       	mov	r7,r8
  301028:	d0 21       	mov.l	3010b0 <_timer_delay+0x9c>,r0	! 30162c <_clock_freq>
  30102a:	40 0b       	jsr	@r0
  30102c:	00 09       	nop	
  30102e:	51 08       	mov.l	@(32,r0),r1
  301030:	62 13       	mov	r1,r2
  301032:	42 00       	shll	r2
  301034:	32 2a       	subc	r2,r2
  301036:	28 88       	tst	r8,r8
  301038:	8f 18       	bf.s	30106c <_timer_delay+0x58>
  30103a:	e0 1e       	mov	#30,r0
  30103c:	63 23       	mov	r2,r3
  30103e:	41 09       	shlr2	r1
  301040:	43 0d       	shld	r0,r3
  301042:	21 3b       	or	r3,r1
  301044:	42 09       	shlr2	r2
  301046:	02 97       	mul.l	r9,r2
  301048:	d0 1a       	mov.l	3010b4 <_timer_delay+0xa0>,r0	! 306020 <___udivdi3>
  30104a:	e6 00       	mov	#0,r6
  30104c:	d7 1a       	mov.l	3010b8 <_timer_delay+0xa4>,r7	! f4240
  30104e:	02 1a       	sts	macl,r2
  301050:	0a 17       	mul.l	r1,r10
  301052:	03 1a       	sts	macl,r3
  301054:	31 95       	dmulu.l	r9,r1
  301056:	32 3c       	add	r3,r2
  301058:	04 0a       	sts	mach,r4
  30105a:	05 1a       	sts	macl,r5
  30105c:	40 0b       	jsr	@r0
  30105e:	34 2c       	add	r2,r4
  301060:	60 13       	mov	r1,r0
  301062:	4f 26       	lds.l	@r15+,pr
  301064:	6a f6       	mov.l	@r15+,r10
  301066:	69 f6       	mov.l	@r15+,r9
  301068:	00 0b       	rts	
  30106a:	68 f6       	mov.l	@r15+,r8
  30106c:	60 83       	mov	r8,r0
  30106e:	88 10       	cmp/eq	#16,r0
  301070:	8d 0c       	bt.s	30108c <_timer_delay+0x78>
  301072:	63 23       	mov	r2,r3
  301074:	88 20       	cmp/eq	#32,r0
  301076:	8d 10       	bt.s	30109a <_timer_delay+0x86>
  301078:	e3 fa       	mov	#-6,r3
  30107a:	88 30       	cmp/eq	#48,r0
  30107c:	8f e3       	bf.s	301046 <_timer_delay+0x32>
  30107e:	63 23       	mov	r2,r3
  301080:	43 28       	shll16	r3
  301082:	43 18       	shll8	r3
  301084:	41 19       	shlr8	r1
  301086:	42 19       	shlr8	r2
  301088:	af dd       	bra	301046 <_timer_delay+0x32>
  30108a:	21 3b       	or	r3,r1
  30108c:	41 09       	shlr2	r1
  30108e:	e7 1c       	mov	#28,r7
  301090:	41 09       	shlr2	r1
  301092:	43 7d       	shld	r7,r3
  301094:	21 3b       	or	r3,r1
  301096:	af d5       	bra	301044 <_timer_delay+0x30>
  301098:	42 09       	shlr2	r2
  30109a:	e7 1a       	mov	#26,r7
  30109c:	41 3d       	shld	r3,r1
  30109e:	63 23       	mov	r2,r3
  3010a0:	e0 fa       	mov	#-6,r0
  3010a2:	43 7d       	shld	r7,r3
  3010a4:	21 3b       	or	r3,r1
  3010a6:	af ce       	bra	301046 <_timer_delay+0x32>
  3010a8:	42 0d       	shld	r0,r2
  3010aa:	d1 04       	mov.l	3010bc <_timer_delay+0xa8>,r1	! 8000
  3010ac:	af cb       	bra	301046 <_timer_delay+0x32>
  3010ae:	e2 00       	mov	#0,r2
  3010b0:	00 30       	.word 0x0030
  3010b2:	16 2c       	mov.l	r2,@(48,r6)
  3010b4:	00 30       	.word 0x0030
  3010b6:	60 20       	mov.b	@r2,r0
  3010b8:	00 0f       	mac.l	@r0+,@r0+
  3010ba:	42 40       	.word 0x4240
  3010bc:	00 00       	.word 0x0000
  3010be:	80 00       	mov.b	r0,@(0,r0)

003010c0 <_timer_configure>:
  3010c0:	7f fc       	add	#-4,r15
  3010c2:	27 78       	tst	r7,r7
  3010c4:	2f 86       	mov.l	r8,@-r15
  3010c6:	2f 96       	mov.l	r9,@-r15
  3010c8:	69 63       	mov	r6,r9
  3010ca:	2f a6       	mov.l	r10,@-r15
  3010cc:	2f b6       	mov.l	r11,@-r15
  3010ce:	6b 43       	mov	r4,r11
  3010d0:	2f c6       	mov.l	r12,@-r15
  3010d2:	6c 53       	mov	r5,r12
  3010d4:	2f d6       	mov.l	r13,@-r15
  3010d6:	6d 73       	mov	r7,r13
  3010d8:	2f e6       	mov.l	r14,@-r15
  3010da:	4f 22       	sts.l	pr,@-r15
  3010dc:	7f e8       	add	#-24,r15
  3010de:	8f 07       	bf.s	3010f0 <_timer_configure+0x30>
  3010e0:	1f 7e       	mov.l	r7,@(56,r15)
  3010e2:	d0 6f       	mov.l	3012a0 <_timer_configure+0x1e0>,r0	! 304970 <_memset>
  3010e4:	e6 14       	mov	#20,r6
  3010e6:	e5 00       	mov	#0,r5
  3010e8:	64 f3       	mov	r15,r4
  3010ea:	dd 6e       	mov.l	3012a4 <_timer_configure+0x1e4>,r13	! 300d60 <_stop_callback>
  3010ec:	40 0b       	jsr	@r0
  3010ee:	74 38       	add	#56,r4
  3010f0:	d4 6d       	mov.l	3012a8 <_timer_configure+0x1e8>,r4	! a4490004
  3010f2:	60 b3       	mov	r11,r0
  3010f4:	c9 0f       	and	#15,r0
  3010f6:	e8 08       	mov	#8,r8
  3010f8:	2f 02       	mov.l	r0,@r15
  3010fa:	e1 02       	mov	#2,r1
  3010fc:	ee 0c       	mov	#12,r14
  3010fe:	e5 09       	mov	#9,r5
  301100:	4b 11       	cmp/pz	r11
  301102:	8f 37       	bf.s	301174 <_timer_configure+0xb4>
  301104:	60 b3       	mov	r11,r0
  301106:	60 f2       	mov.l	@r15,r0
  301108:	30 80       	cmp/eq	r8,r0
  30110a:	8b 54       	bf	3011b6 <_timer_configure+0xf6>
  30110c:	38 17       	cmp/gt	r1,r8
  30110e:	8d 47       	bt.s	3011a0 <_timer_configure+0xe0>
  301110:	e3 05       	mov	#5,r3
  301112:	08 e7       	mul.l	r14,r8
  301114:	d2 65       	mov.l	3012ac <_timer_configure+0x1ec>,r2	! a4490008
  301116:	00 1a       	sts	macl,r0
  301118:	30 2c       	add	r2,r0
  30111a:	85 04       	mov.w	@(8,r0),r0
  30111c:	c8 20       	tst	#32,r0
  30111e:	8b 4a       	bf	3011b6 <_timer_configure+0xf6>
  301120:	62 40       	mov.b	@r4,r2
  301122:	63 8b       	neg	r8,r3
  301124:	ea 01       	mov	#1,r10
  301126:	62 2c       	extu.b	r2,r2
  301128:	42 3c       	shad	r3,r2
  30112a:	60 23       	mov	r2,r0
  30112c:	c8 01       	tst	#1,r0
  30112e:	8f 42       	bf.s	3011b6 <_timer_configure+0xf6>
  301130:	2a 29       	and	r2,r10
  301132:	4b 11       	cmp/pz	r11
  301134:	8d 4e       	bt.s	3011d4 <_timer_configure+0x114>
  301136:	3c a6       	cmp/hi	r10,r12
  301138:	8d 04       	bt.s	301144 <_timer_configure+0x84>
  30113a:	2c c8       	tst	r12,r12
  30113c:	d1 5c       	mov.l	3012b0 <_timer_configure+0x1f0>,r1	! 14dc9380
  30113e:	39 16       	cmp/hi	r1,r9
  301140:	8f 10       	bf.s	301164 <_timer_configure+0xa4>
  301142:	2c c8       	tst	r12,r12
  301144:	8f 05       	bf.s	301152 <_timer_configure+0x92>
  301146:	e1 01       	mov	#1,r1
  301148:	d1 5a       	mov.l	3012b4 <_timer_configure+0x1f4>,r1	! 553c1180
  30114a:	39 16       	cmp/hi	r1,r9
  30114c:	8f 0a       	bf.s	301164 <_timer_configure+0xa4>
  30114e:	ea 10       	mov	#16,r10
  301150:	e1 01       	mov	#1,r1
  301152:	3c 12       	cmp/hs	r1,r12
  301154:	8f 05       	bf.s	301162 <_timer_configure+0xa2>
  301156:	3c 16       	cmp/hi	r1,r12
  301158:	8d 04       	bt.s	301164 <_timer_configure+0xa4>
  30115a:	ea 30       	mov	#48,r10
  30115c:	d1 56       	mov.l	3012b8 <_timer_configure+0x1f8>,r1	! 54f04600
  30115e:	39 16       	cmp/hi	r1,r9
  301160:	89 00       	bt	301164 <_timer_configure+0xa4>
  301162:	ea 20       	mov	#32,r10
  301164:	d0 55       	mov.l	3012bc <_timer_configure+0x1fc>,r0	! 301014 <_timer_delay>
  301166:	66 93       	mov	r9,r6
  301168:	67 a3       	mov	r10,r7
  30116a:	65 c3       	mov	r12,r5
  30116c:	40 0b       	jsr	@r0
  30116e:	64 83       	mov	r8,r4
  301170:	a0 35       	bra	3011de <_timer_configure+0x11e>
  301172:	69 03       	mov	r0,r9
  301174:	88 ff       	cmp/eq	#-1,r0
  301176:	8f 0c       	bf.s	301192 <_timer_configure+0xd2>
  301178:	88 fe       	cmp/eq	#-2,r0
  30117a:	31 83       	cmp/ge	r8,r1
  30117c:	8d c6       	bt.s	30110c <_timer_configure+0x4c>
  30117e:	e2 00       	mov	#0,r2
  301180:	66 c3       	mov	r12,r6
  301182:	e3 63       	mov	#99,r3
  301184:	67 93       	mov	r9,r7
  301186:	36 20       	cmp/eq	r2,r6
  301188:	8f 01       	bf.s	30118e <_timer_configure+0xce>
  30118a:	36 26       	cmp/hi	r2,r6
  30118c:	37 36       	cmp/hi	r3,r7
  30118e:	af bc       	bra	30110a <_timer_configure+0x4a>
  301190:	00 09       	nop	
  301192:	8d ba       	bt.s	30110a <_timer_configure+0x4a>
  301194:	31 83       	cmp/ge	r8,r1
  301196:	88 fd       	cmp/eq	#-3,r0
  301198:	8f 0d       	bf.s	3011b6 <_timer_configure+0xf6>
  30119a:	38 17       	cmp/gt	r1,r8
  30119c:	af b5       	bra	30110a <_timer_configure+0x4a>
  30119e:	00 09       	nop	
  3011a0:	d0 47       	mov.l	3012c0 <_timer_configure+0x200>,r0	! a44cffd0
  3011a2:	62 83       	mov	r8,r2
  3011a4:	42 3d       	shld	r3,r2
  3011a6:	32 0c       	add	r0,r2
  3011a8:	84 2c       	mov.b	@(12,r2),r0
  3011aa:	c8 01       	tst	#1,r0
  3011ac:	8b 03       	bf	3011b6 <_timer_configure+0xf6>
  3011ae:	62 20       	mov.b	@r2,r2
  3011b0:	22 28       	tst	r2,r2
  3011b2:	8d 55       	bt.s	301260 <_timer_configure+0x1a0>
  3011b4:	4b 11       	cmp/pz	r11
  3011b6:	45 10       	dt	r5
  3011b8:	8f a2       	bf.s	301100 <_timer_configure+0x40>
  3011ba:	78 ff       	add	#-1,r8
  3011bc:	60 83       	mov	r8,r0
  3011be:	7f 18       	add	#24,r15
  3011c0:	4f 26       	lds.l	@r15+,pr
  3011c2:	6e f6       	mov.l	@r15+,r14
  3011c4:	6d f6       	mov.l	@r15+,r13
  3011c6:	6c f6       	mov.l	@r15+,r12
  3011c8:	6b f6       	mov.l	@r15+,r11
  3011ca:	6a f6       	mov.l	@r15+,r10
  3011cc:	69 f6       	mov.l	@r15+,r9
  3011ce:	68 f6       	mov.l	@r15+,r8
  3011d0:	00 0b       	rts	
  3011d2:	7f 04       	add	#4,r15
  3011d4:	60 b3       	mov	r11,r0
  3011d6:	40 09       	shlr2	r0
  3011d8:	40 09       	shlr2	r0
  3011da:	ea 0f       	mov	#15,r10
  3011dc:	2a 09       	and	r0,r10
  3011de:	db 39       	mov.l	3012c4 <_timer_configure+0x204>,r11	! 3048b0 <_memcpy>
  3011e0:	e6 14       	mov	#20,r6
  3011e2:	1f de       	mov.l	r13,@(56,r15)
  3011e4:	65 f3       	mov	r15,r5
  3011e6:	64 f3       	mov	r15,r4
  3011e8:	75 38       	add	#56,r5
  3011ea:	74 04       	add	#4,r4
  3011ec:	4b 0b       	jsr	@r11
  3011ee:	6c 93       	mov	r9,r12
  3011f0:	e1 02       	mov	#2,r1
  3011f2:	38 17       	cmp/gt	r1,r8
  3011f4:	8d 38       	bt.s	301268 <_timer_configure+0x1a8>
  3011f6:	e2 05       	mov	#5,r2
  3011f8:	e1 0c       	mov	#12,r1
  3011fa:	d2 2c       	mov.l	3012ac <_timer_configure+0x1ec>,r2	! a4490008
  3011fc:	08 17       	mul.l	r1,r8
  3011fe:	01 1a       	sts	macl,r1
  301200:	31 2c       	add	r2,r1
  301202:	85 14       	mov.w	@(8,r1),r0
  301204:	c8 20       	tst	#32,r0
  301206:	8f d9       	bf.s	3011bc <_timer_configure+0xfc>
  301208:	72 fc       	add	#-4,r2
  30120a:	60 20       	mov.b	@r2,r0
  30120c:	62 8b       	neg	r8,r2
  30120e:	60 0c       	extu.b	r0,r0
  301210:	40 2c       	shad	r2,r0
  301212:	c8 01       	tst	#1,r0
  301214:	8f d3       	bf.s	3011be <_timer_configure+0xfe>
  301216:	60 83       	mov	r8,r0
  301218:	21 92       	mov.l	r9,@r1
  30121a:	e3 f8       	mov	#-8,r3
  30121c:	11 91       	mov.l	r9,@(4,r1)
  30121e:	85 14       	mov.w	@(8,r1),r0
  301220:	62 03       	mov	r0,r2
  301222:	60 a3       	mov	r10,r0
  301224:	22 39       	and	r3,r2
  301226:	c9 07       	and	#7,r0
  301228:	20 2b       	or	r2,r0
  30122a:	92 38       	mov.w	30129e <_timer_configure+0x1de>,r2	! feff
  30122c:	81 14       	mov.w	r0,@(8,r1)
  30122e:	85 14       	mov.w	@(8,r1),r0
  301230:	20 29       	and	r2,r0
  301232:	81 14       	mov.w	r0,@(8,r1)
  301234:	85 14       	mov.w	@(8,r1),r0
  301236:	60 08       	swap.b	r0,r0
  301238:	c8 01       	tst	#1,r0
  30123a:	8b f8       	bf	30122e <_timer_configure+0x16e>
  30123c:	85 14       	mov.w	@(8,r1),r0
  30123e:	e2 e7       	mov	#-25,r2
  301240:	cb 20       	or	#32,r0
  301242:	81 14       	mov.w	r0,@(8,r1)
  301244:	85 14       	mov.w	@(8,r1),r0
  301246:	20 29       	and	r2,r0
  301248:	81 14       	mov.w	r0,@(8,r1)
  30124a:	e1 14       	mov	#20,r1
  30124c:	d4 1e       	mov.l	3012c8 <_timer_configure+0x208>,r4	! 810150c <_tmu_callbacks>
  30124e:	08 17       	mul.l	r1,r8
  301250:	65 f3       	mov	r15,r5
  301252:	e6 14       	mov	#20,r6
  301254:	75 04       	add	#4,r5
  301256:	01 1a       	sts	macl,r1
  301258:	4b 0b       	jsr	@r11
  30125a:	34 1c       	add	r1,r4
  30125c:	af af       	bra	3011be <_timer_configure+0xfe>
  30125e:	60 83       	mov	r8,r0
  301260:	8d bd       	bt.s	3011de <_timer_configure+0x11e>
  301262:	ea 00       	mov	#0,r10
  301264:	af 7e       	bra	301164 <_timer_configure+0xa4>
  301266:	00 09       	nop	
  301268:	d3 15       	mov.l	3012c0 <_timer_configure+0x200>,r3	! a44cffd0
  30126a:	61 83       	mov	r8,r1
  30126c:	41 2d       	shld	r2,r1
  30126e:	31 3c       	add	r3,r1
  301270:	84 1c       	mov.b	@(12,r1),r0
  301272:	c8 01       	tst	#1,r0
  301274:	8f a2       	bf.s	3011bc <_timer_configure+0xfc>
  301276:	e2 fd       	mov	#-3,r2
  301278:	84 1c       	mov.b	@(12,r1),r0
  30127a:	20 29       	and	r2,r0
  30127c:	80 1c       	mov.b	r0,@(12,r1)
  30127e:	84 1c       	mov.b	@(12,r1),r0
  301280:	c8 02       	tst	#2,r0
  301282:	8b f9       	bf	301278 <_timer_configure+0x1b8>
  301284:	11 c1       	mov.l	r12,@(4,r1)
  301286:	52 11       	mov.l	@(4,r1),r2
  301288:	3c 20       	cmp/eq	r2,r12
  30128a:	8b fb       	bf	301284 <_timer_configure+0x1c4>
  30128c:	11 c2       	mov.l	r12,@(8,r1)
  30128e:	52 12       	mov.l	@(8,r1),r2
  301290:	3c 20       	cmp/eq	r2,r12
  301292:	8b fb       	bf	30128c <_timer_configure+0x1cc>
  301294:	84 1c       	mov.b	@(12,r1),r0
  301296:	cb 01       	or	#1,r0
  301298:	80 1c       	mov.b	r0,@(12,r1)
  30129a:	af d7       	bra	30124c <_timer_configure+0x18c>
  30129c:	e1 14       	mov	#20,r1
  30129e:	fe ff       	.word 0xfeff
  3012a0:	00 30       	.word 0x0030
  3012a2:	49 70       	.word 0x4970
  3012a4:	00 30       	.word 0x0030
  3012a6:	0d 60       	.word 0x0d60
  3012a8:	a4 49       	bra	301b3e <_hw_detect+0x1e>
  3012aa:	00 04       	mov.b	r0,@(r0,r0)
  3012ac:	a4 49       	bra	301b42 <_hw_detect+0x22>
  3012ae:	00 08       	clrt	
  3012b0:	14 dc       	mov.l	r13,@(48,r4)
  3012b2:	93 80       	mov.w	3013b6 <_timer_wait+0x2e>,r3	! 6af6
  3012b4:	55 3c       	mov.l	@(48,r3),r5
  3012b6:	11 80       	mov.l	r8,@(0,r1)
  3012b8:	54 f0       	mov.l	@(0,r15),r4
  3012ba:	46 00       	shll	r6
  3012bc:	00 30       	.word 0x0030
  3012be:	10 14       	mov.l	r1,@(16,r0)
  3012c0:	a4 4c       	bra	301b5c <_hw_detect+0x3c>
  3012c2:	ff d0       	.word 0xffd0
  3012c4:	00 30       	.word 0x0030
  3012c6:	48 b0       	.word 0x48b0
  3012c8:	08 10       	.word 0x0810
  3012ca:	15 0c       	mov.l	r0,@(48,r5)

003012cc <_timer_start>:
  3012cc:	d1 01       	mov.l	3012d4 <_timer_start+0x8>,r1	! 300fe0 <_timer_control>
  3012ce:	41 2b       	jmp	@r1
  3012d0:	e5 00       	mov	#0,r5
  3012d2:	00 09       	nop	
  3012d4:	00 30       	.word 0x0030
  3012d6:	0f e0       	.word 0x0fe0

003012d8 <_timer_reload>:
  3012d8:	e1 02       	mov	#2,r1
  3012da:	34 17       	cmp/gt	r1,r4
  3012dc:	8d 08       	bt.s	3012f0 <_timer_reload+0x18>
  3012de:	e1 05       	mov	#5,r1
  3012e0:	e1 0c       	mov	#12,r1
  3012e2:	d2 06       	mov.l	3012fc <_timer_reload+0x24>,r2	! a4490008
  3012e4:	04 17       	mul.l	r1,r4
  3012e6:	01 1a       	sts	macl,r1
  3012e8:	31 2c       	add	r2,r1
  3012ea:	21 52       	mov.l	r5,@r1
  3012ec:	00 0b       	rts	
  3012ee:	00 09       	nop	
  3012f0:	d2 03       	mov.l	301300 <_timer_reload+0x28>,r2	! a44cffd0
  3012f2:	44 1d       	shld	r1,r4
  3012f4:	34 2c       	add	r2,r4
  3012f6:	14 51       	mov.l	r5,@(4,r4)
  3012f8:	00 0b       	rts	
  3012fa:	00 09       	nop	
  3012fc:	a4 49       	bra	301b92 <_hw_detect+0x72>
  3012fe:	00 08       	clrt	
  301300:	a4 4c       	bra	301b9c <_hw_detect+0x7c>
  301302:	ff d0       	.word 0xffd0

00301304 <_timer_pause>:
  301304:	d1 01       	mov.l	30130c <_timer_pause+0x8>,r1	! 300fe0 <_timer_control>
  301306:	41 2b       	jmp	@r1
  301308:	e5 01       	mov	#1,r5
  30130a:	00 09       	nop	
  30130c:	00 30       	.word 0x0030
  30130e:	0f e0       	.word 0x0fe0

00301310 <_timer_stop>:
  301310:	d1 1a       	mov.l	30137c <_timer_stop+0x6c>,r1	! 301304 <_timer_pause>
  301312:	2f 86       	mov.l	r8,@-r15
  301314:	4f 22       	sts.l	pr,@-r15
  301316:	41 0b       	jsr	@r1
  301318:	68 43       	mov	r4,r8
  30131a:	e1 02       	mov	#2,r1
  30131c:	38 17       	cmp/gt	r1,r8
  30131e:	8d 13       	bt.s	301348 <_timer_stop+0x38>
  301320:	e1 05       	mov	#5,r1
  301322:	e1 0c       	mov	#12,r1
  301324:	d2 16       	mov.l	301380 <_timer_stop+0x70>,r2	! a4490008
  301326:	08 17       	mul.l	r1,r8
  301328:	01 1a       	sts	macl,r1
  30132a:	31 2c       	add	r2,r1
  30132c:	85 14       	mov.w	@(8,r1),r0
  30132e:	e2 df       	mov	#-33,r2
  301330:	20 29       	and	r2,r0
  301332:	92 22       	mov.w	30137a <_timer_stop+0x6a>,r2	! feff
  301334:	81 14       	mov.w	r0,@(8,r1)
  301336:	85 14       	mov.w	@(8,r1),r0
  301338:	20 29       	and	r2,r0
  30133a:	81 14       	mov.w	r0,@(8,r1)
  30133c:	e2 ff       	mov	#-1,r2
  30133e:	21 22       	mov.l	r2,@r1
  301340:	11 21       	mov.l	r2,@(4,r1)
  301342:	4f 26       	lds.l	@r15+,pr
  301344:	00 0b       	rts	
  301346:	68 f6       	mov.l	@r15+,r8
  301348:	d4 0e       	mov.l	301384 <_timer_stop+0x74>,r4	! a44cffd0
  30134a:	48 1d       	shld	r1,r8
  30134c:	34 8c       	add	r8,r4
  30134e:	84 4c       	mov.b	@(12,r4),r0
  301350:	e1 ff       	mov	#-1,r1
  301352:	c9 fe       	and	#254,r0
  301354:	80 4c       	mov.b	r0,@(12,r4)
  301356:	14 11       	mov.l	r1,@(4,r4)
  301358:	50 41       	mov.l	@(4,r4),r0
  30135a:	88 ff       	cmp/eq	#-1,r0
  30135c:	8b fb       	bf	301356 <_timer_stop+0x46>
  30135e:	e1 ff       	mov	#-1,r1
  301360:	14 12       	mov.l	r1,@(8,r4)
  301362:	50 42       	mov.l	@(8,r4),r0
  301364:	88 ff       	cmp/eq	#-1,r0
  301366:	8b fb       	bf	301360 <_timer_stop+0x50>
  301368:	e1 fd       	mov	#-3,r1
  30136a:	84 4c       	mov.b	@(12,r4),r0
  30136c:	20 19       	and	r1,r0
  30136e:	80 4c       	mov.b	r0,@(12,r4)
  301370:	84 4c       	mov.b	@(12,r4),r0
  301372:	c8 02       	tst	#2,r0
  301374:	8b f9       	bf	30136a <_timer_stop+0x5a>
  301376:	af e4       	bra	301342 <_timer_stop+0x32>
  301378:	00 09       	nop	
  30137a:	fe ff       	.word 0xfeff
  30137c:	00 30       	.word 0x0030
  30137e:	13 04       	mov.l	r0,@(16,r3)
  301380:	a4 49       	bra	301c16 <_kinit+0x72>
  301382:	00 08       	clrt	
  301384:	a4 4c       	bra	301c20 <_kinit+0x7c>
  301386:	ff d0       	.word 0xffd0

00301388 <_timer_wait>:
  301388:	2f 86       	mov.l	r8,@-r15
  30138a:	e1 02       	mov	#2,r1
  30138c:	2f 96       	mov.l	r9,@-r15
  30138e:	34 17       	cmp/gt	r1,r4
  301390:	2f a6       	mov.l	r10,@-r15
  301392:	2f b6       	mov.l	r11,@-r15
  301394:	8d 1a       	bt.s	3013cc <_timer_wait+0x44>
  301396:	4f 22       	sts.l	pr,@-r15
  301398:	e1 0c       	mov	#12,r1
  30139a:	da 14       	mov.l	3013ec <_timer_wait+0x64>,r10	! a4490004
  30139c:	04 17       	mul.l	r1,r4
  30139e:	db 14       	mov.l	3013f0 <_timer_wait+0x68>,r11	! 301930 <_sleep>
  3013a0:	e8 01       	mov	#1,r8
  3013a2:	d1 14       	mov.l	3013f4 <_timer_wait+0x6c>,r1	! a4490008
  3013a4:	48 4d       	shld	r4,r8
  3013a6:	09 1a       	sts	macl,r9
  3013a8:	39 1c       	add	r1,r9
  3013aa:	61 a0       	mov.b	@r10,r1
  3013ac:	62 8c       	extu.b	r8,r2
  3013ae:	22 18       	tst	r1,r2
  3013b0:	8b 05       	bf	3013be <_timer_wait+0x36>
  3013b2:	4f 26       	lds.l	@r15+,pr
  3013b4:	6b f6       	mov.l	@r15+,r11
  3013b6:	6a f6       	mov.l	@r15+,r10
  3013b8:	69 f6       	mov.l	@r15+,r9
  3013ba:	00 0b       	rts	
  3013bc:	68 f6       	mov.l	@r15+,r8
  3013be:	85 94       	mov.w	@(8,r9),r0
  3013c0:	c8 20       	tst	#32,r0
  3013c2:	89 f2       	bt	3013aa <_timer_wait+0x22>
  3013c4:	4b 0b       	jsr	@r11
  3013c6:	00 09       	nop	
  3013c8:	af ef       	bra	3013aa <_timer_wait+0x22>
  3013ca:	00 09       	nop	
  3013cc:	d8 0a       	mov.l	3013f8 <_timer_wait+0x70>,r8	! a44cffd0
  3013ce:	e1 05       	mov	#5,r1
  3013d0:	d9 07       	mov.l	3013f0 <_timer_wait+0x68>,r9	! 301930 <_sleep>
  3013d2:	44 1d       	shld	r1,r4
  3013d4:	38 4c       	add	r4,r8
  3013d6:	61 80       	mov.b	@r8,r1
  3013d8:	21 18       	tst	r1,r1
  3013da:	89 ea       	bt	3013b2 <_timer_wait+0x2a>
  3013dc:	84 8c       	mov.b	@(12,r8),r0
  3013de:	c8 01       	tst	#1,r0
  3013e0:	89 f9       	bt	3013d6 <_timer_wait+0x4e>
  3013e2:	49 0b       	jsr	@r9
  3013e4:	00 09       	nop	
  3013e6:	af f6       	bra	3013d6 <_timer_wait+0x4e>
  3013e8:	00 09       	nop	
  3013ea:	00 09       	nop	
  3013ec:	a4 49       	bra	301c82 <_kinit+0xde>
  3013ee:	00 04       	mov.b	r0,@(r0,r0)
  3013f0:	00 30       	.word 0x0030
  3013f2:	19 30       	mov.l	r3,@(0,r9)
  3013f4:	a4 49       	bra	301c8a <_kinit+0xe6>
  3013f6:	00 08       	clrt	
  3013f8:	a4 4c       	bra	301c94 <_kinit+0xf0>
  3013fa:	ff d0       	.word 0xffd0

003013fc <_timer_spinwait>:
  3013fc:	2f 86       	mov.l	r8,@-r15
  3013fe:	e1 02       	mov	#2,r1
  301400:	34 17       	cmp/gt	r1,r4
  301402:	8d 13       	bt.s	30142c <_timer_spinwait+0x30>
  301404:	4f 22       	sts.l	pr,@-r15
  301406:	e1 0c       	mov	#12,r1
  301408:	04 17       	mul.l	r1,r4
  30140a:	d1 12       	mov.l	301454 <_timer_spinwait+0x58>,r1	! a4490008
  30140c:	08 1a       	sts	macl,r8
  30140e:	38 1c       	add	r1,r8
  301410:	85 84       	mov.w	@(8,r8),r0
  301412:	e1 df       	mov	#-33,r1
  301414:	20 19       	and	r1,r0
  301416:	d1 10       	mov.l	301458 <_timer_spinwait+0x5c>,r1	! 3012cc <_timer_start>
  301418:	81 84       	mov.w	r0,@(8,r8)
  30141a:	41 0b       	jsr	@r1
  30141c:	00 09       	nop	
  30141e:	85 84       	mov.w	@(8,r8),r0
  301420:	60 08       	swap.b	r0,r0
  301422:	c8 01       	tst	#1,r0
  301424:	89 fb       	bt	30141e <_timer_spinwait+0x22>
  301426:	4f 26       	lds.l	@r15+,pr
  301428:	00 0b       	rts	
  30142a:	68 f6       	mov.l	@r15+,r8
  30142c:	e1 05       	mov	#5,r1
  30142e:	68 43       	mov	r4,r8
  301430:	48 1d       	shld	r1,r8
  301432:	d1 0a       	mov.l	30145c <_timer_spinwait+0x60>,r1	! a44cffd0
  301434:	38 1c       	add	r1,r8
  301436:	e1 fe       	mov	#-2,r1
  301438:	84 8c       	mov.b	@(12,r8),r0
  30143a:	20 19       	and	r1,r0
  30143c:	80 8c       	mov.b	r0,@(12,r8)
  30143e:	84 8c       	mov.b	@(12,r8),r0
  301440:	c8 01       	tst	#1,r0
  301442:	8b f9       	bf	301438 <_timer_spinwait+0x3c>
  301444:	d1 04       	mov.l	301458 <_timer_spinwait+0x5c>,r1	! 3012cc <_timer_start>
  301446:	41 0b       	jsr	@r1
  301448:	00 09       	nop	
  30144a:	84 8c       	mov.b	@(12,r8),r0
  30144c:	c8 02       	tst	#2,r0
  30144e:	89 fc       	bt	30144a <_timer_spinwait+0x4e>
  301450:	af e9       	bra	301426 <_timer_spinwait+0x2a>
  301452:	00 09       	nop	
  301454:	a4 49       	bra	301cea <_kinit+0x146>
  301456:	00 08       	clrt	
  301458:	00 30       	.word 0x0030
  30145a:	12 cc       	mov.l	r12,@(48,r2)
  30145c:	a4 4c       	bra	301cf8 <_kinit+0x154>
  30145e:	ff d0       	.word 0xffd0

00301460 <_timer_rescale>:
  301460:	2f 86       	mov.l	r8,@-r15
  301462:	2f 96       	mov.l	r9,@-r15
  301464:	69 53       	mov	r5,r9
  301466:	2f a6       	mov.l	r10,@-r15
  301468:	6a 43       	mov	r4,r10
  30146a:	2f b6       	mov.l	r11,@-r15
  30146c:	2f c6       	mov.l	r12,@-r15
  30146e:	d8 13       	mov.l	3014bc <_timer_rescale+0x5c>,r8	! a4490008
  301470:	db 13       	mov.l	3014c0 <_timer_rescale+0x60>,r11	! 306020 <___udivdi3>
  301472:	dc 14       	mov.l	3014c4 <_timer_rescale+0x64>,r12	! a449002c
  301474:	4f 22       	sts.l	pr,@-r15
  301476:	50 81       	mov.l	@(4,r8),r0
  301478:	88 ff       	cmp/eq	#-1,r0
  30147a:	8b 02       	bf	301482 <_timer_rescale+0x22>
  30147c:	60 82       	mov.l	@r8,r0
  30147e:	88 ff       	cmp/eq	#-1,r0
  301480:	89 12       	bt	3014a8 <_timer_rescale+0x48>
  301482:	60 82       	mov.l	@r8,r0
  301484:	88 ff       	cmp/eq	#-1,r0
  301486:	89 07       	bt	301498 <_timer_rescale+0x38>
  301488:	61 82       	mov.l	@r8,r1
  30148a:	e6 00       	mov	#0,r6
  30148c:	67 a3       	mov	r10,r7
  30148e:	31 95       	dmulu.l	r9,r1
  301490:	05 1a       	sts	macl,r5
  301492:	4b 0b       	jsr	@r11
  301494:	04 0a       	sts	mach,r4
  301496:	28 12       	mov.l	r1,@r8
  301498:	51 81       	mov.l	@(4,r8),r1
  30149a:	e6 00       	mov	#0,r6
  30149c:	67 a3       	mov	r10,r7
  30149e:	31 95       	dmulu.l	r9,r1
  3014a0:	05 1a       	sts	macl,r5
  3014a2:	4b 0b       	jsr	@r11
  3014a4:	04 0a       	sts	mach,r4
  3014a6:	18 11       	mov.l	r1,@(4,r8)
  3014a8:	78 0c       	add	#12,r8
  3014aa:	38 c0       	cmp/eq	r12,r8
  3014ac:	8b e3       	bf	301476 <_timer_rescale+0x16>
  3014ae:	4f 26       	lds.l	@r15+,pr
  3014b0:	6c f6       	mov.l	@r15+,r12
  3014b2:	6b f6       	mov.l	@r15+,r11
  3014b4:	6a f6       	mov.l	@r15+,r10
  3014b6:	69 f6       	mov.l	@r15+,r9
  3014b8:	00 0b       	rts	
  3014ba:	68 f6       	mov.l	@r15+,r8
  3014bc:	a4 49       	bra	301d52 <_kinit+0x1ae>
  3014be:	00 08       	clrt	
  3014c0:	00 30       	.word 0x0030
  3014c2:	60 20       	mov.b	@r2,r0
  3014c4:	a4 49       	bra	301d5a <_kinit+0x1b6>
  3014c6:	00 2c       	mov.b	@(r0,r2),r0

003014c8 <_timer_setup>:
  3014c8:	2f 86       	mov.l	r8,@-r15
  3014ca:	e1 40       	mov	#64,r1
  3014cc:	2f 96       	mov.l	r9,@-r15
  3014ce:	68 43       	mov	r4,r8
  3014d0:	2f a6       	mov.l	r10,@-r15
  3014d2:	69 63       	mov	r6,r9
  3014d4:	2f b6       	mov.l	r11,@-r15
  3014d6:	6a 53       	mov	r5,r10
  3014d8:	2f c6       	mov.l	r12,@-r15
  3014da:	6b 73       	mov	r7,r11
  3014dc:	4f 22       	sts.l	pr,@-r15
  3014de:	d0 10       	mov.l	301520 <_timer_setup+0x58>,r0	! 304970 <_memset>
  3014e0:	7f d8       	add	#-40,r15
  3014e2:	31 fc       	add	r15,r1
  3014e4:	64 f3       	mov	r15,r4
  3014e6:	5c 10       	mov.l	@(0,r1),r12
  3014e8:	e6 0c       	mov	#12,r6
  3014ea:	1f 14       	mov.l	r1,@(16,r15)
  3014ec:	e5 00       	mov	#0,r5
  3014ee:	40 0b       	jsr	@r0
  3014f0:	74 1c       	add	#28,r4
  3014f2:	d0 0c       	mov.l	301524 <_timer_setup+0x5c>,r0	! 3048b0 <_memcpy>
  3014f4:	64 f3       	mov	r15,r4
  3014f6:	1f b5       	mov.l	r11,@(20,r15)
  3014f8:	e6 10       	mov	#16,r6
  3014fa:	1f c6       	mov.l	r12,@(24,r15)
  3014fc:	65 f3       	mov	r15,r5
  3014fe:	40 0b       	jsr	@r0
  301500:	75 18       	add	#24,r5
  301502:	d0 09       	mov.l	301528 <_timer_setup+0x60>,r0	! 3010c0 <_timer_configure>
  301504:	65 a3       	mov	r10,r5
  301506:	57 f5       	mov.l	@(20,r15),r7
  301508:	66 93       	mov	r9,r6
  30150a:	40 0b       	jsr	@r0
  30150c:	64 83       	mov	r8,r4
  30150e:	7f 28       	add	#40,r15
  301510:	4f 26       	lds.l	@r15+,pr
  301512:	6c f6       	mov.l	@r15+,r12
  301514:	6b f6       	mov.l	@r15+,r11
  301516:	6a f6       	mov.l	@r15+,r10
  301518:	69 f6       	mov.l	@r15+,r9
  30151a:	00 0b       	rts	
  30151c:	68 f6       	mov.l	@r15+,r8
  30151e:	00 09       	nop	
  301520:	00 30       	.word 0x0030
  301522:	49 70       	.word 0x4970
  301524:	00 30       	.word 0x0030
  301526:	48 b0       	.word 0x48b0
  301528:	00 30       	.word 0x0030
  30152a:	10 c0       	mov.l	r12,@(0,r0)

0030152c <_timer_timeout>:
  30152c:	24 48       	tst	r4,r4
  30152e:	89 02       	bt	301536 <_timer_timeout+0xa>
  301530:	61 42       	mov.l	@r4,r1
  301532:	71 01       	add	#1,r1
  301534:	24 12       	mov.l	r1,@r4
  301536:	00 0b       	rts	
  301538:	e0 01       	mov	#1,r0
  30153a:	00 09       	nop	

0030153c <_sh7305_probe>:
  30153c:	2f 86       	mov.l	r8,@-r15
  30153e:	d8 26       	mov.l	3015d8 <_sh7305_probe+0x9c>,r8	! a4150000
  301540:	d7 26       	mov.l	3015dc <_sh7305_probe+0xa0>,r7	! 8101b90 <_freq>
  301542:	60 82       	mov.l	@r8,r0
  301544:	d1 26       	mov.l	3015e0 <_sh7305_probe+0xa4>,r1	! a4150040
  301546:	40 29       	shlr16	r0
  301548:	93 45       	mov.w	3015d6 <_sh7305_probe+0x9a>,r3	! 7ff
  30154a:	40 19       	shlr8	r0
  30154c:	c9 3f       	and	#63,r0
  30154e:	66 03       	mov	r0,r6
  301550:	76 01       	add	#1,r6
  301552:	17 61       	mov.l	r6,@(4,r7)
  301554:	52 14       	mov.l	@(16,r1),r2
  301556:	50 14       	mov.l	@(16,r1),r0
  301558:	e1 f2       	mov	#-14,r1
  30155a:	22 39       	and	r3,r2
  30155c:	40 1d       	shld	r1,r0
  30155e:	c9 03       	and	#3,r0
  301560:	88 01       	cmp/eq	#1,r0
  301562:	8b 00       	bf	301566 <_sh7305_probe+0x2a>
  301564:	42 21       	shar	r2
  301566:	65 82       	mov.l	@r8,r5
  301568:	e3 0f       	mov	#15,r3
  30156a:	61 82       	mov.l	@r8,r1
  30156c:	45 19       	shlr8	r5
  30156e:	60 82       	mov.l	@r8,r0
  301570:	25 39       	and	r3,r5
  301572:	27 22       	mov.l	r2,@r7
  301574:	e3 ec       	mov	#-20,r3
  301576:	41 3d       	shld	r3,r1
  301578:	e3 0f       	mov	#15,r3
  30157a:	21 39       	and	r3,r1
  30157c:	75 01       	add	#1,r5
  30157e:	e3 01       	mov	#1,r3
  301580:	64 33       	mov	r3,r4
  301582:	71 01       	add	#1,r1
  301584:	44 5d       	shld	r5,r4
  301586:	c9 0f       	and	#15,r0
  301588:	17 42       	mov.l	r4,@(8,r7)
  30158a:	64 33       	mov	r3,r4
  30158c:	44 1d       	shld	r1,r4
  30158e:	17 43       	mov.l	r4,@(12,r7)
  301590:	64 03       	mov	r0,r4
  301592:	74 01       	add	#1,r4
  301594:	43 4d       	shld	r4,r3
  301596:	17 34       	mov.l	r3,@(16,r7)
  301598:	53 89       	mov.l	@(36,r8),r3
  30159a:	60 38       	swap.b	r3,r0
  30159c:	c8 10       	tst	#16,r0
  30159e:	8d 17       	bt.s	3015d0 <_sh7305_probe+0x94>
  3015a0:	e3 0f       	mov	#15,r3
  3015a2:	42 3d       	shld	r3,r2
  3015a4:	d3 0c       	mov.l	3015d8 <_sh7305_probe+0x9c>,r3	! a4150000
  3015a6:	53 39       	mov.l	@(36,r3),r3
  3015a8:	60 38       	swap.b	r3,r0
  3015aa:	c8 40       	tst	#64,r0
  3015ac:	8d 01       	bt.s	3015b2 <_sh7305_probe+0x76>
  3015ae:	02 67       	mul.l	r6,r2
  3015b0:	02 1a       	sts	macl,r2
  3015b2:	d3 0c       	mov.l	3015e4 <_sh7305_probe+0xa8>,r3	! 8000
  3015b4:	65 5b       	neg	r5,r5
  3015b6:	61 1b       	neg	r1,r1
  3015b8:	17 35       	mov.l	r3,@(20,r7)
  3015ba:	64 4b       	neg	r4,r4
  3015bc:	63 23       	mov	r2,r3
  3015be:	43 5c       	shad	r5,r3
  3015c0:	17 36       	mov.l	r3,@(24,r7)
  3015c2:	63 23       	mov	r2,r3
  3015c4:	42 4c       	shad	r4,r2
  3015c6:	43 1c       	shad	r1,r3
  3015c8:	17 28       	mov.l	r2,@(32,r7)
  3015ca:	17 37       	mov.l	r3,@(28,r7)
  3015cc:	00 0b       	rts	
  3015ce:	68 f6       	mov.l	@r15+,r8
  3015d0:	d2 04       	mov.l	3015e4 <_sh7305_probe+0xa8>,r2	! 8000
  3015d2:	af e7       	bra	3015a4 <_sh7305_probe+0x68>
  3015d4:	00 09       	nop	
  3015d6:	07 ff       	mac.l	@r15+,@r7+
  3015d8:	a4 15       	bra	301e06 <___osmenu+0x42>
  3015da:	00 00       	.word 0x0000
  3015dc:	08 10       	.word 0x0810
  3015de:	1b 90       	mov.l	r9,@(0,r11)
  3015e0:	a4 15       	bra	301e0e <___osmenu+0x4a>
  3015e2:	00 40       	.word 0x0040
  3015e4:	00 00       	.word 0x0000
  3015e6:	80 00       	mov.b	r0,@(0,r0)

003015e8 <_configure>:
  3015e8:	d2 03       	mov.l	3015f8 <_configure+0x10>,r2	! a4150040
  3015ea:	d3 04       	mov.l	3015fc <_configure+0x14>,r3	! 7fffffff
  3015ec:	51 21       	mov.l	@(4,r2),r1
  3015ee:	21 39       	and	r3,r1
  3015f0:	12 11       	mov.l	r1,@(4,r2)
  3015f2:	d1 03       	mov.l	301600 <_configure+0x18>,r1	! 30153c <_sh7305_probe>
  3015f4:	41 2b       	jmp	@r1
  3015f6:	00 09       	nop	
  3015f8:	a4 15       	bra	301e26 <___osmenu+0x62>
  3015fa:	00 40       	.word 0x0040
  3015fc:	7f ff       	add	#-1,r15
  3015fe:	ff ff       	.word 0xffff
  301600:	00 30       	.word 0x0030
  301602:	15 3c       	mov.l	r3,@(48,r5)

00301604 <_hrestore>:
  301604:	d1 02       	mov.l	301610 <_hrestore+0xc>,r1	! a4150040
  301606:	62 46       	mov.l	@r4+,r2
  301608:	11 21       	mov.l	r2,@(4,r1)
  30160a:	d1 02       	mov.l	301614 <_hrestore+0x10>,r1	! 301680 <_cpg_set_overclock_setting>
  30160c:	41 2b       	jmp	@r1
  30160e:	00 09       	nop	
  301610:	a4 15       	bra	301e3e <___osmenu+0x7a>
  301612:	00 40       	.word 0x0040
  301614:	00 30       	.word 0x0030
  301616:	16 80       	mov.l	r8,@(0,r6)

00301618 <_hsave>:
  301618:	d1 02       	mov.l	301624 <_hsave+0xc>,r1	! a4150040
  30161a:	51 11       	mov.l	@(4,r1),r1
  30161c:	24 12       	mov.l	r1,@r4
  30161e:	d1 02       	mov.l	301628 <_hsave+0x10>,r1	! 301644 <_cpg_get_overclock_setting>
  301620:	41 2b       	jmp	@r1
  301622:	74 04       	add	#4,r4
  301624:	a4 15       	bra	301e52 <___osmenu+0x8e>
  301626:	00 40       	.word 0x0040
  301628:	00 30       	.word 0x0030
  30162a:	16 44       	mov.l	r4,@(16,r6)

0030162c <_clock_freq>:
  30162c:	d0 01       	mov.l	301634 <_clock_freq+0x8>,r0	! 8101b90 <_freq>
  30162e:	00 0b       	rts	
  301630:	00 09       	nop	
  301632:	00 09       	nop	
  301634:	08 10       	.word 0x0810
  301636:	1b 90       	mov.l	r9,@(0,r11)

00301638 <_cpg_compute_freq>:
  301638:	d1 01       	mov.l	301640 <_cpg_compute_freq+0x8>,r1	! 30153c <_sh7305_probe>
  30163a:	41 2b       	jmp	@r1
  30163c:	00 09       	nop	
  30163e:	00 09       	nop	
  301640:	00 30       	.word 0x0030
  301642:	15 3c       	mov.l	r3,@(48,r5)

00301644 <_cpg_get_overclock_setting>:
  301644:	d1 0c       	mov.l	301678 <_cpg_get_overclock_setting+0x34>,r1	! a4150000
  301646:	62 13       	mov	r1,r2
  301648:	72 40       	add	#64,r2
  30164a:	52 24       	mov.l	@(16,r2),r2
  30164c:	24 22       	mov.l	r2,@r4
  30164e:	61 12       	mov.l	@r1,r1
  301650:	14 11       	mov.l	r1,@(4,r4)
  301652:	d1 0a       	mov.l	30167c <_cpg_get_overclock_setting+0x38>,r1	! fec10000
  301654:	52 11       	mov.l	@(4,r1),r2
  301656:	14 22       	mov.l	r2,@(8,r4)
  301658:	52 19       	mov.l	@(36,r1),r2
  30165a:	14 26       	mov.l	r2,@(24,r4)
  30165c:	52 12       	mov.l	@(8,r1),r2
  30165e:	14 23       	mov.l	r2,@(12,r4)
  301660:	52 1a       	mov.l	@(40,r1),r2
  301662:	14 27       	mov.l	r2,@(28,r4)
  301664:	52 13       	mov.l	@(12,r1),r2
  301666:	14 24       	mov.l	r2,@(16,r4)
  301668:	52 1b       	mov.l	@(44,r1),r2
  30166a:	14 28       	mov.l	r2,@(32,r4)
  30166c:	52 15       	mov.l	@(20,r1),r2
  30166e:	14 25       	mov.l	r2,@(20,r4)
  301670:	51 1d       	mov.l	@(52,r1),r1
  301672:	00 0b       	rts	
  301674:	14 19       	mov.l	r1,@(36,r4)
  301676:	00 09       	nop	
  301678:	a4 15       	bra	301ea6 <_gint_osmenu+0x2>
  30167a:	00 00       	.word 0x0000
  30167c:	fe c1       	.word 0xfec1
	...

00301680 <_cpg_set_overclock_setting>:
  301680:	d1 19       	mov.l	3016e8 <_cpg_set_overclock_setting+0x68>,r1	! fec10000
  301682:	93 2f       	mov.w	3016e4 <_cpg_set_overclock_setting+0x64>,r3	! f87f
  301684:	52 19       	mov.l	@(36,r1),r2
  301686:	d7 19       	mov.l	3016ec <_cpg_set_overclock_setting+0x6c>,r7	! a4150040
  301688:	22 39       	and	r3,r2
  30168a:	93 2c       	mov.w	3016e6 <_cpg_set_overclock_setting+0x66>,r3	! 580
  30168c:	d6 18       	mov.l	3016f0 <_cpg_set_overclock_setting+0x70>,r6	! 80000000
  30168e:	22 3b       	or	r3,r2
  301690:	11 29       	mov.l	r2,@(36,r1)
  301692:	63 42       	mov.l	@r4,r3
  301694:	d2 17       	mov.l	3016f4 <_cpg_set_overclock_setting+0x74>,r2	! a4150000
  301696:	17 34       	mov.l	r3,@(16,r7)
  301698:	53 41       	mov.l	@(4,r4),r3
  30169a:	22 32       	mov.l	r3,@r2
  30169c:	63 22       	mov.l	@r2,r3
  30169e:	23 6b       	or	r6,r3
  3016a0:	22 32       	mov.l	r3,@r2
  3016a2:	52 78       	mov.l	@(32,r7),r2
  3016a4:	22 28       	tst	r2,r2
  3016a6:	8b fc       	bf	3016a2 <_cpg_set_overclock_setting+0x22>
  3016a8:	53 42       	mov.l	@(8,r4),r3
  3016aa:	11 31       	mov.l	r3,@(4,r1)
  3016ac:	53 46       	mov.l	@(24,r4),r3
  3016ae:	11 39       	mov.l	r3,@(36,r1)
  3016b0:	53 43       	mov.l	@(12,r4),r3
  3016b2:	11 32       	mov.l	r3,@(8,r1)
  3016b4:	53 47       	mov.l	@(28,r4),r3
  3016b6:	11 3a       	mov.l	r3,@(40,r1)
  3016b8:	53 44       	mov.l	@(16,r4),r3
  3016ba:	11 33       	mov.l	r3,@(12,r1)
  3016bc:	53 48       	mov.l	@(32,r4),r3
  3016be:	11 3b       	mov.l	r3,@(44,r1)
  3016c0:	50 1b       	mov.l	@(44,r1),r0
  3016c2:	e1 f9       	mov	#-7,r1
  3016c4:	40 1d       	shld	r1,r0
  3016c6:	c9 03       	and	#3,r0
  3016c8:	88 01       	cmp/eq	#1,r0
  3016ca:	8b 08       	bf	3016de <_cpg_set_overclock_setting+0x5e>
  3016cc:	d1 0a       	mov.l	3016f8 <_cpg_set_overclock_setting+0x78>,r1	! fec15040
  3016ce:	21 20       	mov.b	r2,@r1
  3016d0:	52 45       	mov.l	@(20,r4),r2
  3016d2:	d1 05       	mov.l	3016e8 <_cpg_set_overclock_setting+0x68>,r1	! fec10000
  3016d4:	11 25       	mov.l	r2,@(20,r1)
  3016d6:	52 49       	mov.l	@(36,r4),r2
  3016d8:	11 2d       	mov.l	r2,@(52,r1)
  3016da:	00 0b       	rts	
  3016dc:	00 09       	nop	
  3016de:	d1 07       	mov.l	3016fc <_cpg_set_overclock_setting+0x7c>,r1	! fec15060
  3016e0:	af f5       	bra	3016ce <_cpg_set_overclock_setting+0x4e>
  3016e2:	00 09       	nop	
  3016e4:	f8 7f 05 80 	pshl	#88,0x0	movx.w	a0,@r4+r8	movy.w	a1,@r6+r9
  3016e8:	fe c1       	.word 0xfec1
  3016ea:	00 00       	.word 0x0000
  3016ec:	a4 15       	bra	301f1a <_BFile_Remove+0x6>
  3016ee:	00 40       	.word 0x0040
  3016f0:	80 00       	mov.b	r0,@(0,r0)
  3016f2:	00 00       	.word 0x0000
  3016f4:	a4 15       	bra	301f22 <_BFile_Remove+0xe>
  3016f6:	00 00       	.word 0x0000
  3016f8:	fe c1       	.word 0xfec1
  3016fa:	50 40       	mov.l	@(0,r4),r0
  3016fc:	fe c1       	.word 0xfec1
  3016fe:	50 60       	mov.l	@(0,r6),r0

00301700 <_clock_get_speed>:
  301700:	d1 20       	mov.l	301784 <_clock_get_speed+0x84>,r1	! 8101bb4 <_gint>
  301702:	50 13       	mov.l	@(12,r1),r0
  301704:	88 05       	cmp/eq	#5,r0
  301706:	8d 03       	bt.s	301710 <_clock_get_speed+0x10>
  301708:	88 04       	cmp/eq	#4,r0
  30170a:	89 35       	bt	301778 <_clock_get_speed+0x78>
  30170c:	00 0b       	rts	
  30170e:	e0 00       	mov	#0,r0
  301710:	d1 1d       	mov.l	301788 <_clock_get_speed+0x88>,r1	! 8101994 <_settings_cg50>
  301712:	d6 1e       	mov.l	30178c <_clock_get_speed+0x8c>,r6	! a4150000
  301714:	e0 00       	mov	#0,r0
  301716:	d7 1e       	mov.l	301790 <_clock_get_speed+0x90>,r7	! a4150040
  301718:	e3 05       	mov	#5,r3
  30171a:	d2 1e       	mov.l	301794 <_clock_get_speed+0x94>,r2	! fec10000
  30171c:	54 74       	mov.l	@(16,r7),r4
  30171e:	65 12       	mov.l	@r1,r5
  301720:	34 50       	cmp/eq	r5,r4
  301722:	8f 24       	bf.s	30176e <_clock_get_speed+0x6e>
  301724:	70 01       	add	#1,r0
  301726:	64 62       	mov.l	@r6,r4
  301728:	55 11       	mov.l	@(4,r1),r5
  30172a:	34 50       	cmp/eq	r5,r4
  30172c:	8b 1f       	bf	30176e <_clock_get_speed+0x6e>
  30172e:	54 21       	mov.l	@(4,r2),r4
  301730:	55 12       	mov.l	@(8,r1),r5
  301732:	34 50       	cmp/eq	r5,r4
  301734:	8b 1b       	bf	30176e <_clock_get_speed+0x6e>
  301736:	54 22       	mov.l	@(8,r2),r4
  301738:	55 13       	mov.l	@(12,r1),r5
  30173a:	34 50       	cmp/eq	r5,r4
  30173c:	8b 17       	bf	30176e <_clock_get_speed+0x6e>
  30173e:	54 23       	mov.l	@(12,r2),r4
  301740:	55 14       	mov.l	@(16,r1),r5
  301742:	34 50       	cmp/eq	r5,r4
  301744:	8b 13       	bf	30176e <_clock_get_speed+0x6e>
  301746:	54 25       	mov.l	@(20,r2),r4
  301748:	55 15       	mov.l	@(20,r1),r5
  30174a:	34 50       	cmp/eq	r5,r4
  30174c:	8b 0f       	bf	30176e <_clock_get_speed+0x6e>
  30174e:	54 29       	mov.l	@(36,r2),r4
  301750:	55 16       	mov.l	@(24,r1),r5
  301752:	34 50       	cmp/eq	r5,r4
  301754:	8b 0b       	bf	30176e <_clock_get_speed+0x6e>
  301756:	54 2a       	mov.l	@(40,r2),r4
  301758:	55 17       	mov.l	@(28,r1),r5
  30175a:	34 50       	cmp/eq	r5,r4
  30175c:	8b 07       	bf	30176e <_clock_get_speed+0x6e>
  30175e:	54 2b       	mov.l	@(44,r2),r4
  301760:	55 18       	mov.l	@(32,r1),r5
  301762:	34 50       	cmp/eq	r5,r4
  301764:	8b 03       	bf	30176e <_clock_get_speed+0x6e>
  301766:	54 2d       	mov.l	@(52,r2),r4
  301768:	55 19       	mov.l	@(36,r1),r5
  30176a:	34 50       	cmp/eq	r5,r4
  30176c:	89 07       	bt	30177e <_clock_get_speed+0x7e>
  30176e:	43 10       	dt	r3
  301770:	8f d4       	bf.s	30171c <_clock_get_speed+0x1c>
  301772:	71 28       	add	#40,r1
  301774:	af ca       	bra	30170c <_clock_get_speed+0xc>
  301776:	00 09       	nop	
  301778:	d1 07       	mov.l	301798 <_clock_get_speed+0x98>,r1	! 81018cc <_settings_cg20>
  30177a:	af ca       	bra	301712 <_clock_get_speed+0x12>
  30177c:	00 09       	nop	
  30177e:	00 0b       	rts	
  301780:	00 09       	nop	
  301782:	00 09       	nop	
  301784:	08 10       	.word 0x0810
  301786:	1b b4       	mov.l	r11,@(16,r11)
  301788:	08 10       	.word 0x0810
  30178a:	19 94       	mov.l	r9,@(16,r9)
  30178c:	a4 15       	bra	301fba <_BFile_FindNext+0x6>
  30178e:	00 00       	.word 0x0000
  301790:	a4 15       	bra	301fbe <_BFile_FindNext+0xa>
  301792:	00 40       	.word 0x0040
  301794:	fe c1       	.word 0xfec1
  301796:	00 00       	.word 0x0000
  301798:	08 10       	.word 0x0810
  30179a:	18 cc       	mov.l	r12,@(48,r8)

0030179c <_clock_set_speed>:
  30179c:	2f 86       	mov.l	r8,@-r15
  30179e:	e1 04       	mov	#4,r1
  3017a0:	2f 96       	mov.l	r9,@-r15
  3017a2:	62 43       	mov	r4,r2
  3017a4:	2f a6       	mov.l	r10,@-r15
  3017a6:	72 ff       	add	#-1,r2
  3017a8:	4f 22       	sts.l	pr,@-r15
  3017aa:	32 16       	cmp/hi	r1,r2
  3017ac:	8d 30       	bt.s	301810 <_clock_set_speed+0x74>
  3017ae:	68 43       	mov	r4,r8
  3017b0:	d0 1a       	mov.l	30181c <_clock_set_speed+0x80>,r0	! 301700 <_clock_get_speed>
  3017b2:	40 0b       	jsr	@r0
  3017b4:	00 09       	nop	
  3017b6:	30 80       	cmp/eq	r8,r0
  3017b8:	89 2a       	bt	301810 <_clock_set_speed+0x74>
  3017ba:	d1 19       	mov.l	301820 <_clock_set_speed+0x84>,r1	! 8101bb4 <_gint>
  3017bc:	50 13       	mov.l	@(12,r1),r0
  3017be:	88 05       	cmp/eq	#5,r0
  3017c0:	8d 05       	bt.s	3017ce <_clock_set_speed+0x32>
  3017c2:	88 04       	cmp/eq	#4,r0
  3017c4:	8f 24       	bf.s	301810 <_clock_set_speed+0x74>
  3017c6:	e1 28       	mov	#40,r1
  3017c8:	d4 16       	mov.l	301824 <_clock_set_speed+0x88>,r4	! 81018cc <_settings_cg20>
  3017ca:	a0 02       	bra	3017d2 <_clock_set_speed+0x36>
  3017cc:	00 09       	nop	
  3017ce:	d4 16       	mov.l	301828 <_clock_set_speed+0x8c>,r4	! 8101994 <_settings_cg50>
  3017d0:	e1 28       	mov	#40,r1
  3017d2:	d9 16       	mov.l	30182c <_clock_set_speed+0x90>,r9	! 30162c <_clock_freq>
  3017d4:	08 17       	mul.l	r1,r8
  3017d6:	68 43       	mov	r4,r8
  3017d8:	01 1a       	sts	macl,r1
  3017da:	71 d8       	add	#-40,r1
  3017dc:	49 0b       	jsr	@r9
  3017de:	38 1c       	add	r1,r8
  3017e0:	d1 13       	mov.l	301830 <_clock_set_speed+0x94>,r1	! 302118 <_gint_world_sync>
  3017e2:	41 0b       	jsr	@r1
  3017e4:	5a 08       	mov.l	@(32,r0),r10
  3017e6:	d1 13       	mov.l	301834 <_clock_set_speed+0x98>,r1	! 301848 <_cpu_atomic_start>
  3017e8:	41 0b       	jsr	@r1
  3017ea:	00 09       	nop	
  3017ec:	d1 12       	mov.l	301838 <_clock_set_speed+0x9c>,r1	! 301680 <_cpg_set_overclock_setting>
  3017ee:	41 0b       	jsr	@r1
  3017f0:	64 83       	mov	r8,r4
  3017f2:	d1 12       	mov.l	30183c <_clock_set_speed+0xa0>,r1	! 301638 <_cpg_compute_freq>
  3017f4:	41 0b       	jsr	@r1
  3017f6:	00 09       	nop	
  3017f8:	49 0b       	jsr	@r9
  3017fa:	00 09       	nop	
  3017fc:	d1 10       	mov.l	301840 <_clock_set_speed+0xa4>,r1	! 301460 <_timer_rescale>
  3017fe:	64 a3       	mov	r10,r4
  301800:	41 0b       	jsr	@r1
  301802:	55 08       	mov.l	@(32,r0),r5
  301804:	d1 0f       	mov.l	301844 <_clock_set_speed+0xa8>,r1	! 30188c <_cpu_atomic_end>
  301806:	4f 26       	lds.l	@r15+,pr
  301808:	6a f6       	mov.l	@r15+,r10
  30180a:	69 f6       	mov.l	@r15+,r9
  30180c:	41 2b       	jmp	@r1
  30180e:	68 f6       	mov.l	@r15+,r8
  301810:	4f 26       	lds.l	@r15+,pr
  301812:	6a f6       	mov.l	@r15+,r10
  301814:	69 f6       	mov.l	@r15+,r9
  301816:	00 0b       	rts	
  301818:	68 f6       	mov.l	@r15+,r8
  30181a:	00 09       	nop	
  30181c:	00 30       	.word 0x0030
  30181e:	17 00       	mov.l	r0,@(0,r7)
  301820:	08 10       	.word 0x0810
  301822:	1b b4       	mov.l	r11,@(16,r11)
  301824:	08 10       	.word 0x0810
  301826:	18 cc       	mov.l	r12,@(48,r8)
  301828:	08 10       	.word 0x0810
  30182a:	19 94       	mov.l	r9,@(16,r9)
  30182c:	00 30       	.word 0x0030
  30182e:	16 2c       	mov.l	r2,@(48,r6)
  301830:	00 30       	.word 0x0030
  301832:	21 18       	tst	r1,r1
  301834:	00 30       	.word 0x0030
  301836:	18 48       	mov.l	r4,@(32,r8)
  301838:	00 30       	.word 0x0030
  30183a:	16 80       	mov.l	r8,@(0,r6)
  30183c:	00 30       	.word 0x0030
  30183e:	16 38       	mov.l	r3,@(32,r6)
  301840:	00 30       	.word 0x0030
  301842:	14 60       	mov.l	r6,@(0,r4)
  301844:	00 30       	.word 0x0030
  301846:	18 8c       	mov.l	r8,@(48,r8)

00301848 <_cpu_atomic_start>:
  301848:	d0 0c       	mov.l	30187c <_cpu_atomic_start+0x34>,r0	! 301904 <_cpu_getSR>
  30184a:	2f 86       	mov.l	r8,@-r15
  30184c:	4f 22       	sts.l	pr,@-r15
  30184e:	40 0b       	jsr	@r0
  301850:	e8 0f       	mov	#15,r8
  301852:	91 11       	mov.w	301878 <_cpu_atomic_start+0x30>,r1	! f0
  301854:	64 03       	mov	r0,r4
  301856:	40 09       	shlr2	r0
  301858:	24 1b       	or	r1,r4
  30185a:	d1 09       	mov.l	301880 <_cpu_atomic_start+0x38>,r1	! 30190a <_cpu_setSR>
  30185c:	40 09       	shlr2	r0
  30185e:	41 0b       	jsr	@r1
  301860:	28 09       	and	r0,r8
  301862:	d2 08       	mov.l	301884 <_cpu_atomic_start+0x3c>,r2	! 81015c0 <_atomic_level>
  301864:	61 22       	mov.l	@r2,r1
  301866:	21 18       	tst	r1,r1
  301868:	8b 01       	bf	30186e <_cpu_atomic_start+0x26>
  30186a:	d3 07       	mov.l	301888 <_cpu_atomic_start+0x40>,r3	! 81015c4 <_saved_IMASK>
  30186c:	23 82       	mov.l	r8,@r3
  30186e:	71 01       	add	#1,r1
  301870:	22 12       	mov.l	r1,@r2
  301872:	4f 26       	lds.l	@r15+,pr
  301874:	00 0b       	rts	
  301876:	68 f6       	mov.l	@r15+,r8
  301878:	00 f0       	.word 0x00f0
  30187a:	00 09       	nop	
  30187c:	00 30       	.word 0x0030
  30187e:	19 04       	mov.l	r0,@(16,r9)
  301880:	00 30       	.word 0x0030
  301882:	19 0a       	mov.l	r0,@(40,r9)
  301884:	08 10       	.word 0x0810
  301886:	15 c0       	mov.l	r12,@(0,r5)
  301888:	08 10       	.word 0x0810
  30188a:	15 c4       	mov.l	r12,@(16,r5)

0030188c <_cpu_atomic_end>:
  30188c:	d0 0b       	mov.l	3018bc <_cpu_atomic_end+0x30>,r0	! 301904 <_cpu_getSR>
  30188e:	4f 22       	sts.l	pr,@-r15
  301890:	40 0b       	jsr	@r0
  301892:	00 09       	nop	
  301894:	d2 0a       	mov.l	3018c0 <_cpu_atomic_end+0x34>,r2	! 81015c0 <_atomic_level>
  301896:	64 03       	mov	r0,r4
  301898:	61 22       	mov.l	@r2,r1
  30189a:	41 10       	dt	r1
  30189c:	8f 09       	bf.s	3018b2 <_cpu_atomic_end+0x26>
  30189e:	22 12       	mov.l	r1,@r2
  3018a0:	d2 08       	mov.l	3018c4 <_cpu_atomic_end+0x38>,r2	! 81015c4 <_saved_IMASK>
  3018a2:	93 09       	mov.w	3018b8 <_cpu_atomic_end+0x2c>,r3	! ff0f
  3018a4:	60 22       	mov.l	@r2,r0
  3018a6:	24 39       	and	r3,r4
  3018a8:	22 12       	mov.l	r1,@r2
  3018aa:	c9 0f       	and	#15,r0
  3018ac:	40 08       	shll2	r0
  3018ae:	40 08       	shll2	r0
  3018b0:	24 0b       	or	r0,r4
  3018b2:	d1 05       	mov.l	3018c8 <_cpu_atomic_end+0x3c>,r1	! 30190a <_cpu_setSR>
  3018b4:	41 2b       	jmp	@r1
  3018b6:	4f 26       	lds.l	@r15+,pr
  3018b8:	ff 0f       	.word 0xff0f
  3018ba:	00 09       	nop	
  3018bc:	00 30       	.word 0x0030
  3018be:	19 04       	mov.l	r0,@(16,r9)
  3018c0:	08 10       	.word 0x0810
  3018c2:	15 c0       	mov.l	r12,@(0,r5)
  3018c4:	08 10       	.word 0x0810
  3018c6:	15 c4       	mov.l	r12,@(16,r5)
  3018c8:	00 30       	.word 0x0030
  3018ca:	19 0a       	mov.l	r0,@(40,r9)
  3018cc:	00 00       	.word 0x0000
	...

003018d0 <_cpu_setVBR>:
  3018d0:	44 2e       	ldc	r4,vbr
  3018d2:	00 0b       	rts	
  3018d4:	00 09       	nop	

003018d6 <_cpu_getVBR>:
  3018d6:	00 22       	stc	vbr,r0
  3018d8:	00 0b       	rts	
  3018da:	00 09       	nop	

003018dc <_cpu_setCPUOPM>:
  3018dc:	d0 08       	mov.l	301900 <_cpu_getCPUOPM+0x12>,r0	! ff2f0000
  3018de:	20 42       	mov.l	r4,@r0
  3018e0:	65 02       	mov.l	@r0,r5
  3018e2:	e0 a0       	mov	#-96,r0
  3018e4:	40 28       	shll16	r0
  3018e6:	40 18       	shll8	r0
  3018e8:	00 e3       	icbi	@r0
  3018ea:	00 0b       	rts	
  3018ec:	00 09       	nop	

003018ee <_cpu_getCPUOPM>:
  3018ee:	d0 04       	mov.l	301900 <_cpu_getCPUOPM+0x12>,r0	! ff2f0000
  3018f0:	00 0b       	rts	
  3018f2:	60 02       	mov.l	@r0,r0
  3018f4:	00 09       	nop	
  3018f6:	00 09       	nop	
  3018f8:	00 09       	nop	
  3018fa:	00 09       	nop	
  3018fc:	00 09       	nop	
  3018fe:	00 09       	nop	
  301900:	ff 2f       	.word 0xff2f
	...

00301904 <_cpu_getSR>:
  301904:	00 02       	stc	sr,r0
  301906:	00 0b       	rts	
  301908:	00 09       	nop	

0030190a <_cpu_setSR>:
  30190a:	d0 05       	mov.l	301920 <_cpu_setSR+0x16>,r0	! 700010f0
  30190c:	61 07       	not	r0,r1
  30190e:	02 02       	stc	sr,r2
  301910:	22 19       	and	r1,r2
  301912:	24 09       	and	r0,r4
  301914:	22 4b       	or	r4,r2
  301916:	42 0e       	ldc	r2,sr
  301918:	00 0b       	rts	
  30191a:	00 09       	nop	
  30191c:	00 09       	nop	
  30191e:	00 09       	nop	
  301920:	70 00       	add	#0,r0
  301922:	10 f0       	mov.l	r15,@(0,r0)
  301924:	00 09       	nop	
  301926:	00 09       	nop	
  301928:	00 09       	nop	
  30192a:	00 09       	nop	
  30192c:	00 09       	nop	
  30192e:	00 09       	nop	

00301930 <_sleep>:
  301930:	d1 03       	mov.l	301940 <_sleep+0x10>,r1	! 81015c8 <_cpu_sleep_block_counter>
  301932:	61 12       	mov.l	@r1,r1
  301934:	41 15       	cmp/pl	r1
  301936:	89 00       	bt	30193a <_sleep+0xa>
  301938:	00 1b       	sleep	
  30193a:	00 0b       	rts	
  30193c:	00 09       	nop	
  30193e:	00 09       	nop	
  301940:	08 10       	.word 0x0810
  301942:	15 c8       	mov.l	r12,@(32,r5)

00301944 <_sleep_block>:
  301944:	d1 05       	mov.l	30195c <_sleep_block+0x18>,r1	! 301848 <_cpu_atomic_start>
  301946:	4f 22       	sts.l	pr,@-r15
  301948:	41 0b       	jsr	@r1
  30194a:	00 09       	nop	
  30194c:	d2 04       	mov.l	301960 <_sleep_block+0x1c>,r2	! 81015c8 <_cpu_sleep_block_counter>
  30194e:	61 22       	mov.l	@r2,r1
  301950:	71 01       	add	#1,r1
  301952:	22 12       	mov.l	r1,@r2
  301954:	d1 03       	mov.l	301964 <_sleep_block+0x20>,r1	! 30188c <_cpu_atomic_end>
  301956:	41 2b       	jmp	@r1
  301958:	4f 26       	lds.l	@r15+,pr
  30195a:	00 09       	nop	
  30195c:	00 30       	.word 0x0030
  30195e:	18 48       	mov.l	r4,@(32,r8)
  301960:	08 10       	.word 0x0810
  301962:	15 c8       	mov.l	r12,@(32,r5)
  301964:	00 30       	.word 0x0030
  301966:	18 8c       	mov.l	r8,@(48,r8)

00301968 <_sleep_unblock>:
  301968:	d1 05       	mov.l	301980 <_sleep_unblock+0x18>,r1	! 301848 <_cpu_atomic_start>
  30196a:	4f 22       	sts.l	pr,@-r15
  30196c:	41 0b       	jsr	@r1
  30196e:	00 09       	nop	
  301970:	d2 04       	mov.l	301984 <_sleep_unblock+0x1c>,r2	! 81015c8 <_cpu_sleep_block_counter>
  301972:	61 22       	mov.l	@r2,r1
  301974:	71 ff       	add	#-1,r1
  301976:	22 12       	mov.l	r1,@r2
  301978:	d1 03       	mov.l	301988 <_sleep_unblock+0x20>,r1	! 30188c <_cpu_atomic_end>
  30197a:	41 2b       	jmp	@r1
  30197c:	4f 26       	lds.l	@r15+,pr
  30197e:	00 09       	nop	
  301980:	00 30       	.word 0x0030
  301982:	18 48       	mov.l	r4,@(32,r8)
  301984:	08 10       	.word 0x0810
  301986:	15 c8       	mov.l	r12,@(32,r5)
  301988:	00 30       	.word 0x0030
  30198a:	18 8c       	mov.l	r8,@(48,r8)

0030198c <_configure>:
  30198c:	d1 04       	mov.l	3019a0 <_configure+0x14>,r1	! 8101a5c <_SH7305_INTC>
  30198e:	e3 00       	mov	#0,r3
  301990:	62 12       	mov.l	@r1,r2
  301992:	e1 0c       	mov	#12,r1
  301994:	22 31       	mov.w	r3,@r2
  301996:	41 10       	dt	r1
  301998:	8f fc       	bf.s	301994 <_configure+0x8>
  30199a:	72 04       	add	#4,r2
  30199c:	00 0b       	rts	
  30199e:	00 09       	nop	
  3019a0:	08 10       	.word 0x0810
  3019a2:	1a 5c       	mov.l	r5,@(48,r10)

003019a4 <_hsave>:
  3019a4:	d7 0a       	mov.l	3019d0 <_hsave+0x2c>,r7	! 8101a5c <_SH7305_INTC>
  3019a6:	61 43       	mov	r4,r1
  3019a8:	e2 0c       	mov	#12,r2
  3019aa:	63 72       	mov.l	@r7,r3
  3019ac:	71 18       	add	#24,r1
  3019ae:	66 31       	mov.w	@r3,r6
  3019b0:	42 10       	dt	r2
  3019b2:	73 04       	add	#4,r3
  3019b4:	24 61       	mov.w	r6,@r4
  3019b6:	8f fa       	bf.s	3019ae <_hsave+0xa>
  3019b8:	74 02       	add	#2,r4
  3019ba:	53 71       	mov.l	@(4,r7),r3
  3019bc:	e2 0d       	mov	#13,r2
  3019be:	67 30       	mov.b	@r3,r7
  3019c0:	42 10       	dt	r2
  3019c2:	73 04       	add	#4,r3
  3019c4:	21 70       	mov.b	r7,@r1
  3019c6:	8f fa       	bf.s	3019be <_hsave+0x1a>
  3019c8:	71 01       	add	#1,r1
  3019ca:	00 0b       	rts	
  3019cc:	00 09       	nop	
  3019ce:	00 09       	nop	
  3019d0:	08 10       	.word 0x0810
  3019d2:	1a 5c       	mov.l	r5,@(48,r10)

003019d4 <_hrestore>:
  3019d4:	d2 0b       	mov.l	301a04 <_hrestore+0x30>,r2	! 8101a5c <_SH7305_INTC>
  3019d6:	61 43       	mov	r4,r1
  3019d8:	e3 0c       	mov	#12,r3
  3019da:	67 22       	mov.l	@r2,r7
  3019dc:	71 18       	add	#24,r1
  3019de:	66 45       	mov.w	@r4+,r6
  3019e0:	43 10       	dt	r3
  3019e2:	27 61       	mov.w	r6,@r7
  3019e4:	8f fb       	bf.s	3019de <_hrestore+0xa>
  3019e6:	77 04       	add	#4,r7
  3019e8:	56 22       	mov.l	@(8,r2),r6
  3019ea:	e0 00       	mov	#0,r0
  3019ec:	53 21       	mov.l	@(4,r2),r3
  3019ee:	e5 ff       	mov	#-1,r5
  3019f0:	e2 0d       	mov	#13,r2
  3019f2:	06 54       	mov.b	r5,@(r0,r6)
  3019f4:	42 10       	dt	r2
  3019f6:	67 14       	mov.b	@r1+,r7
  3019f8:	03 74       	mov.b	r7,@(r0,r3)
  3019fa:	8f fa       	bf.s	3019f2 <_hrestore+0x1e>
  3019fc:	70 04       	add	#4,r0
  3019fe:	00 0b       	rts	
  301a00:	00 09       	nop	
  301a02:	00 09       	nop	
  301a04:	08 10       	.word 0x0810
  301a06:	1a 5c       	mov.l	r5,@(48,r10)

00301a08 <_intc_priority>:
  301a08:	e2 0c       	mov	#12,r2
  301a0a:	d1 1a       	mov.l	301a74 <_intc_priority+0x6c>,r1	! 306c3c <_info>
  301a0c:	04 27       	mul.l	r2,r4
  301a0e:	2f 86       	mov.l	r8,@-r15
  301a10:	e6 00       	mov	#0,r6
  301a12:	e7 fc       	mov	#-4,r7
  301a14:	03 1a       	sts	macl,r3
  301a16:	33 1c       	add	r1,r3
  301a18:	62 35       	mov.w	@r3+,r2
  301a1a:	63 31       	mov.w	@r3,r3
  301a1c:	62 2d       	extu.w	r2,r2
  301a1e:	63 3d       	extu.w	r3,r3
  301a20:	43 7c       	shad	r7,r3
  301a22:	23 38       	tst	r3,r3
  301a24:	8f 23       	bf.s	301a6e <_intc_priority+0x66>
  301a26:	45 15       	cmp/pl	r5
  301a28:	d8 13       	mov.l	301a78 <_intc_priority+0x70>,r8	! 8101a5c <_SH7305_INTC>
  301a2a:	42 08       	shll2	r2
  301a2c:	67 82       	mov.l	@r8,r7
  301a2e:	37 2c       	add	r2,r7
  301a30:	63 71       	mov.w	@r7,r3
  301a32:	62 6b       	neg	r6,r2
  301a34:	60 71       	mov.w	@r7,r0
  301a36:	63 3d       	extu.w	r3,r3
  301a38:	43 2c       	shad	r2,r3
  301a3a:	e2 0f       	mov	#15,r2
  301a3c:	23 29       	and	r2,r3
  301a3e:	42 6d       	shld	r6,r2
  301a40:	62 27       	not	r2,r2
  301a42:	22 09       	and	r0,r2
  301a44:	60 53       	mov	r5,r0
  301a46:	40 6d       	shld	r6,r0
  301a48:	22 0b       	or	r0,r2
  301a4a:	27 21       	mov.w	r2,@r7
  301a4c:	8f 0c       	bf.s	301a68 <_intc_priority+0x60>
  301a4e:	e2 0c       	mov	#12,r2
  301a50:	04 27       	mul.l	r2,r4
  301a52:	02 1a       	sts	macl,r2
  301a54:	31 2c       	add	r2,r1
  301a56:	85 13       	mov.w	@(6,r1),r0
  301a58:	62 0d       	extu.w	r0,r2
  301a5a:	22 28       	tst	r2,r2
  301a5c:	89 04       	bt	301a68 <_intc_priority+0x60>
  301a5e:	85 12       	mov.w	@(4,r1),r0
  301a60:	51 82       	mov.l	@(8,r8),r1
  301a62:	60 0d       	extu.w	r0,r0
  301a64:	40 08       	shll2	r0
  301a66:	01 24       	mov.b	r2,@(r0,r1)
  301a68:	60 33       	mov	r3,r0
  301a6a:	00 0b       	rts	
  301a6c:	68 f6       	mov.l	@r15+,r8
  301a6e:	af d7       	bra	301a20 <_intc_priority+0x18>
  301a70:	76 04       	add	#4,r6
  301a72:	00 09       	nop	
  301a74:	00 30       	.word 0x0030
  301a76:	6c 3c       	extu.b	r3,r12
  301a78:	08 10       	.word 0x0810
  301a7a:	1a 5c       	mov.l	r5,@(48,r10)

00301a7c <_intc_handler>:
  301a7c:	2f 86       	mov.l	r8,@-r15
  301a7e:	2f 96       	mov.l	r9,@-r15
  301a80:	69 63       	mov	r6,r9
  301a82:	91 20       	mov.w	301ac6 <_intc_handler+0x4a>,r1	! 3ff
  301a84:	2f a6       	mov.l	r10,@-r15
  301a86:	6a 53       	mov	r5,r10
  301a88:	34 17       	cmp/gt	r1,r4
  301a8a:	8f 16       	bf.s	301aba <_intc_handler+0x3e>
  301a8c:	4f 22       	sts.l	pr,@-r15
  301a8e:	e1 e0       	mov	#-32,r1
  301a90:	68 43       	mov	r4,r8
  301a92:	28 19       	and	r1,r8
  301a94:	91 18       	mov.w	301ac8 <_intc_handler+0x4c>,r1	! fc0
  301a96:	62 83       	mov	r8,r2
  301a98:	32 6c       	add	r6,r2
  301a9a:	32 16       	cmp/hi	r1,r2
  301a9c:	89 0d       	bt	301aba <_intc_handler+0x3e>
  301a9e:	d0 0b       	mov.l	301acc <_intc_handler+0x50>,r0	! 3018d6 <_cpu_getVBR>
  301aa0:	40 0b       	jsr	@r0
  301aa2:	00 09       	nop	
  301aa4:	94 11       	mov.w	301aca <_intc_handler+0x4e>,r4	! 240
  301aa6:	66 93       	mov	r9,r6
  301aa8:	65 a3       	mov	r10,r5
  301aaa:	34 8c       	add	r8,r4
  301aac:	34 0c       	add	r0,r4
  301aae:	d0 08       	mov.l	301ad0 <_intc_handler+0x54>,r0	! 3048b0 <_memcpy>
  301ab0:	4f 26       	lds.l	@r15+,pr
  301ab2:	6a f6       	mov.l	@r15+,r10
  301ab4:	69 f6       	mov.l	@r15+,r9
  301ab6:	40 2b       	jmp	@r0
  301ab8:	68 f6       	mov.l	@r15+,r8
  301aba:	e0 00       	mov	#0,r0
  301abc:	4f 26       	lds.l	@r15+,pr
  301abe:	6a f6       	mov.l	@r15+,r10
  301ac0:	69 f6       	mov.l	@r15+,r9
  301ac2:	00 0b       	rts	
  301ac4:	68 f6       	mov.l	@r15+,r8
  301ac6:	03 ff       	mac.l	@r15+,@r3+
  301ac8:	0f c0       	.word 0x0fc0
  301aca:	02 40       	.word 0x0240
  301acc:	00 30       	.word 0x0030
  301ace:	18 d6       	mov.l	r13,@(24,r8)
  301ad0:	00 30       	.word 0x0030
  301ad2:	48 b0       	.word 0x48b0

00301ad4 <_intc_handler_function>:
  301ad4:	7f f4       	add	#-12,r15
  301ad6:	d0 0e       	mov.l	301b10 <_intc_handler_function+0x3c>,r0	! 301a7c <_intc_handler>
  301ad8:	2f 86       	mov.l	r8,@-r15
  301ada:	4f 22       	sts.l	pr,@-r15
  301adc:	1f 52       	mov.l	r5,@(8,r15)
  301ade:	1f 63       	mov.l	r6,@(12,r15)
  301ae0:	e6 20       	mov	#32,r6
  301ae2:	d5 0c       	mov.l	301b14 <_intc_handler_function+0x40>,r5	! 306550 <_intc_generic_handler>
  301ae4:	40 0b       	jsr	@r0
  301ae6:	1f 74       	mov.l	r7,@(16,r15)
  301ae8:	20 08       	tst	r0,r0
  301aea:	68 03       	mov	r0,r8
  301aec:	8d 0b       	bt.s	301b06 <_intc_handler_function+0x32>
  301aee:	e0 00       	mov	#0,r0
  301af0:	d0 09       	mov.l	301b18 <_intc_handler_function+0x44>,r0	! 3048b0 <_memcpy>
  301af2:	e6 14       	mov	#20,r6
  301af4:	65 f3       	mov	r15,r5
  301af6:	64 83       	mov	r8,r4
  301af8:	75 08       	add	#8,r5
  301afa:	40 0b       	jsr	@r0
  301afc:	74 08       	add	#8,r4
  301afe:	d1 07       	mov.l	301b1c <_intc_handler_function+0x48>,r1	! 8101b84 <_gint_inth_callback>
  301b00:	e0 01       	mov	#1,r0
  301b02:	61 12       	mov.l	@r1,r1
  301b04:	18 17       	mov.l	r1,@(28,r8)
  301b06:	4f 26       	lds.l	@r15+,pr
  301b08:	68 f6       	mov.l	@r15+,r8
  301b0a:	00 0b       	rts	
  301b0c:	7f 0c       	add	#12,r15
  301b0e:	00 09       	nop	
  301b10:	00 30       	.word 0x0030
  301b12:	1a 7c       	mov.l	r7,@(48,r10)
  301b14:	00 30       	.word 0x0030
  301b16:	65 50       	mov.b	@r5,r5
  301b18:	00 30       	.word 0x0030
  301b1a:	48 b0       	.word 0x48b0
  301b1c:	08 10       	.word 0x0810
  301b1e:	1b 84       	mov.l	r8,@(16,r11)

00301b20 <_hw_detect>:
  301b20:	2f 86       	mov.l	r8,@-r15
  301b22:	e2 02       	mov	#2,r2
  301b24:	d8 14       	mov.l	301b78 <_hw_detect+0x58>,r8	! 8101bb4 <_gint>
  301b26:	e6 08       	mov	#8,r6
  301b28:	4f 22       	sts.l	pr,@-r15
  301b2a:	d1 14       	mov.l	301b7c <_hw_detect+0x5c>,r1	! ff000030
  301b2c:	28 22       	mov.l	r2,@r8
  301b2e:	61 12       	mov.l	@r1,r1
  301b30:	d3 13       	mov.l	301b80 <_hw_detect+0x60>,r3	! 8bffffff
  301b32:	18 11       	mov.l	r1,@(4,r8)
  301b34:	d1 13       	mov.l	301b84 <_hw_detect+0x64>,r1	! ff000044
  301b36:	d0 14       	mov.l	301b88 <_hw_detect+0x68>,r0	! 304810 <_memcmp>
  301b38:	61 12       	mov.l	@r1,r1
  301b3a:	d5 14       	mov.l	301b8c <_hw_detect+0x6c>,r5	! 306d44
  301b3c:	18 12       	mov.l	r1,@(8,r8)
  301b3e:	61 f3       	mov	r15,r1
  301b40:	31 36       	cmp/hi	r3,r1
  301b42:	d4 13       	mov.l	301b90 <_hw_detect+0x70>,r4	! 8001ffd0
  301b44:	01 29       	movt	r1
  301b46:	18 2b       	mov.l	r2,@(44,r8)
  301b48:	71 04       	add	#4,r1
  301b4a:	40 0b       	jsr	@r0
  301b4c:	18 13       	mov.l	r1,@(12,r8)
  301b4e:	20 08       	tst	r0,r0
  301b50:	8f 0b       	bf.s	301b6a <_hw_detect+0x4a>
  301b52:	e1 06       	mov	#6,r1
  301b54:	18 13       	mov.l	r1,@(12,r8)
  301b56:	d1 0f       	mov.l	301b94 <_hw_detect+0x74>,r1	! 800000
  301b58:	18 14       	mov.l	r1,@(16,r8)
  301b5a:	e5 00       	mov	#0,r5
  301b5c:	d1 0e       	mov.l	301b98 <_hw_detect+0x78>,r1	! 2000000
  301b5e:	e4 00       	mov	#0,r4
  301b60:	18 15       	mov.l	r1,@(20,r8)
  301b62:	d1 0e       	mov.l	301b9c <_hw_detect+0x7c>,r1	! 302d70 <_utlb_mapped_memory>
  301b64:	4f 26       	lds.l	@r15+,pr
  301b66:	41 2b       	jmp	@r1
  301b68:	68 f6       	mov.l	@r15+,r8
  301b6a:	50 83       	mov.l	@(12,r8),r0
  301b6c:	88 04       	cmp/eq	#4,r0
  301b6e:	8b f2       	bf	301b56 <_hw_detect+0x36>
  301b70:	d1 0b       	mov.l	301ba0 <_hw_detect+0x80>,r1	! 200000
  301b72:	af f2       	bra	301b5a <_hw_detect+0x3a>
  301b74:	18 14       	mov.l	r1,@(16,r8)
  301b76:	00 09       	nop	
  301b78:	08 10       	.word 0x0810
  301b7a:	1b b4       	mov.l	r11,@(16,r11)
  301b7c:	ff 00       	.word 0xff00
  301b7e:	00 30       	.word 0x0030
  301b80:	8b ff       	bf	301b82 <_hw_detect+0x62>
  301b82:	ff ff       	.word 0xffff
  301b84:	ff 00       	.word 0xff00
  301b86:	00 44       	mov.b	r4,@(r0,r0)
  301b88:	00 30       	.word 0x0030
  301b8a:	48 10       	dt	r8
  301b8c:	00 30       	.word 0x0030
  301b8e:	6d 44       	mov.b	@r4+,r13
  301b90:	80 01       	mov.b	r0,@(1,r0)
  301b92:	ff d0       	.word 0xffd0
  301b94:	00 80       	.word 0x0080
  301b96:	00 00       	.word 0x0000
  301b98:	02 00       	.word 0x0200
  301b9a:	00 00       	.word 0x0000
  301b9c:	00 30       	.word 0x0030
  301b9e:	2d 70       	mov.b	r7,@r13
  301ba0:	00 20       	.word 0x0020
	...

00301ba4 <_kinit>:
  301ba4:	2f 86       	mov.l	r8,@-r15
  301ba6:	2f 96       	mov.l	r9,@-r15
  301ba8:	2f a6       	mov.l	r10,@-r15
  301baa:	2f b6       	mov.l	r11,@-r15
  301bac:	2f c6       	mov.l	r12,@-r15
  301bae:	db 4f       	mov.l	301cec <_kinit+0x148>,r11	! 302eb4 <_mmu_uram>
  301bb0:	2f d6       	mov.l	r13,@-r15
  301bb2:	2f e6       	mov.l	r14,@-r15
  301bb4:	4f 22       	sts.l	pr,@-r15
  301bb6:	4b 0b       	jsr	@r11
  301bb8:	ec 01       	mov	#1,r12
  301bba:	d8 4d       	mov.l	301cf0 <_kinit+0x14c>,r8	! 3048b0 <_memcpy>
  301bbc:	4b 0b       	jsr	@r11
  301bbe:	69 03       	mov	r0,r9
  301bc0:	6a 03       	mov	r0,r10
  301bc2:	d0 4c       	mov.l	301cf4 <_kinit+0x150>,r0	! 302ed4 <_mmu_uram_size>
  301bc4:	40 0b       	jsr	@r0
  301bc6:	00 09       	nop	
  301bc8:	91 8a       	mov.w	301ce0 <_kinit+0x13c>,r1	! c000
  301bca:	94 8a       	mov.w	301ce2 <_kinit+0x13e>,r4	! 100
  301bcc:	30 1c       	add	r1,r0
  301bce:	d1 4a       	mov.l	301cf8 <_kinit+0x154>,r1	! 81015cc <_gint_stack_top>
  301bd0:	3a 0c       	add	r0,r10
  301bd2:	d6 4a       	mov.l	301cfc <_kinit+0x158>,r6	! 98 <_gint_exch_size>
  301bd4:	21 a2       	mov.l	r10,@r1
  301bd6:	d5 4a       	mov.l	301d00 <_kinit+0x15c>,r5	! 300140 <_gint_exch>
  301bd8:	48 0b       	jsr	@r8
  301bda:	34 9c       	add	r9,r4
  301bdc:	94 82       	mov.w	301ce4 <_kinit+0x140>,r4	! 400
  301bde:	d6 49       	mov.l	301d04 <_kinit+0x160>,r6	! 70 <_gint_tlbh_size>
  301be0:	d5 49       	mov.l	301d08 <_kinit+0x164>,r5	! 3001d0 <_gint_tlbh>
  301be2:	48 0b       	jsr	@r8
  301be4:	34 9c       	add	r9,r4
  301be6:	94 7e       	mov.w	301ce6 <_kinit+0x142>,r4	! 600
  301be8:	e6 40       	mov	#64,r6
  301bea:	d5 48       	mov.l	301d0c <_kinit+0x168>,r5	! 306570 <_gint_inth_7305>
  301bec:	48 0b       	jsr	@r8
  301bee:	34 9c       	add	r9,r4
  301bf0:	d1 47       	mov.l	301d10 <_kinit+0x16c>,r1	! 302b28 <_kmalloc_init>
  301bf2:	d8 48       	mov.l	301d14 <_kinit+0x170>,r8	! 8101610 <_static_ram.1>
  301bf4:	41 0b       	jsr	@r1
  301bf6:	00 09       	nop	
  301bf8:	d1 47       	mov.l	301d18 <_kinit+0x174>,r1	! 306d50
  301bfa:	18 c7       	mov.l	r12,@(28,r8)
  301bfc:	4b 0b       	jsr	@r11
  301bfe:	18 13       	mov.l	r1,@(12,r8)
  301c00:	18 a5       	mov.l	r10,@(20,r8)
  301c02:	e5 01       	mov	#1,r5
  301c04:	d1 45       	mov.l	301d1c <_kinit+0x178>,r1	! 1c00
  301c06:	64 83       	mov	r8,r4
  301c08:	da 45       	mov.l	301d20 <_kinit+0x17c>,r10	! 3029f8 <_kmalloc_init_arena>
  301c0a:	31 0c       	add	r0,r1
  301c0c:	db 45       	mov.l	301d24 <_kinit+0x180>,r11	! 302ccc <_kmalloc_add_arena>
  301c0e:	4a 0b       	jsr	@r10
  301c10:	18 14       	mov.l	r1,@(16,r8)
  301c12:	4b 0b       	jsr	@r11
  301c14:	64 83       	mov	r8,r4
  301c16:	d2 44       	mov.l	301d28 <_kinit+0x184>,r2	! 81015dc <_os_stack.0>
  301c18:	d1 44       	mov.l	301d2c <_kinit+0x188>,r1	! 306d58
  301c1a:	12 c7       	mov.l	r12,@(28,r2)
  301c1c:	12 13       	mov.l	r1,@(12,r2)
  301c1e:	d1 44       	mov.l	301d30 <_kinit+0x18c>,r1	! 8101bb4 <_gint>
  301c20:	50 13       	mov.l	@(12,r1),r0
  301c22:	e1 fd       	mov	#-3,r1
  301c24:	20 19       	and	r1,r0
  301c26:	88 04       	cmp/eq	#4,r0
  301c28:	89 27       	bt	301c7a <_kinit+0xd6>
  301c2a:	d1 42       	mov.l	301d34 <_kinit+0x190>,r1	! 8c0f0000
  301c2c:	d3 42       	mov.l	301d38 <_kinit+0x194>,r3	! 57800
  301c2e:	e5 01       	mov	#1,r5
  301c30:	12 14       	mov.l	r1,@(16,r2)
  301c32:	31 3c       	add	r3,r1
  301c34:	d4 3c       	mov.l	301d28 <_kinit+0x184>,r4	! 81015dc <_os_stack.0>
  301c36:	4a 0b       	jsr	@r10
  301c38:	12 15       	mov.l	r1,@(20,r2)
  301c3a:	d8 40       	mov.l	301d3c <_kinit+0x198>,r8	! 302080 <_gint_world_alloc>
  301c3c:	d4 3a       	mov.l	301d28 <_kinit+0x184>,r4	! 81015dc <_os_stack.0>
  301c3e:	4b 0b       	jsr	@r11
  301c40:	00 09       	nop	
  301c42:	48 0b       	jsr	@r8
  301c44:	00 09       	nop	
  301c46:	da 3e       	mov.l	301d40 <_kinit+0x19c>,r10	! 81015d8 <_gint_world_os>
  301c48:	db 3e       	mov.l	301d44 <_kinit+0x1a0>,r11	! 81015d4 <_gint_world_addin>
  301c4a:	48 0b       	jsr	@r8
  301c4c:	2a 02       	mov.l	r0,@r10
  301c4e:	d8 3e       	mov.l	301d48 <_kinit+0x1a4>,r8	! 3066b0 <_drv_cpu>
  301c50:	e2 fc       	mov	#-4,r2
  301c52:	d1 3e       	mov.l	301d4c <_kinit+0x1a8>,r1	! 306830 <_CELLHEIGHT>
  301c54:	2b 02       	mov.l	r0,@r11
  301c56:	31 88       	sub	r8,r1
  301c58:	d0 3d       	mov.l	301d50 <_kinit+0x1ac>,r0	! 3049d4 <_malloc>
  301c5a:	41 2c       	shad	r2,r1
  301c5c:	d2 3d       	mov.l	301d54 <_kinit+0x1b0>,r2	! aaaaaaab
  301c5e:	de 3e       	mov.l	301d58 <_kinit+0x1b4>,r14	! 81015d0 <_gint_driver_flags>
  301c60:	01 27       	mul.l	r2,r1
  301c62:	0c 1a       	sts	macl,r12
  301c64:	40 0b       	jsr	@r0
  301c66:	04 1a       	sts	macl,r4
  301c68:	2e 02       	mov.l	r0,@r14
  301c6a:	d0 3c       	mov.l	301d5c <_kinit+0x1b8>,r0	! 302f08 <_dvram_init>
  301c6c:	40 0b       	jsr	@r0
  301c6e:	00 09       	nop	
  301c70:	20 08       	tst	r0,r0
  301c72:	8b 05       	bf	301c80 <_kinit+0xdc>
  301c74:	d1 3a       	mov.l	301d60 <_kinit+0x1bc>,r1	! 304784 <_abort>
  301c76:	41 0b       	jsr	@r1
  301c78:	00 09       	nop	
  301c7a:	d1 3a       	mov.l	301d64 <_kinit+0x1c0>,r1	! 880f0000
  301c7c:	af d6       	bra	301c2c <_kinit+0x88>
  301c7e:	00 09       	nop	
  301c80:	61 a2       	mov.l	@r10,r1
  301c82:	21 18       	tst	r1,r1
  301c84:	89 06       	bt	301c94 <_kinit+0xf0>
  301c86:	61 b2       	mov.l	@r11,r1
  301c88:	21 18       	tst	r1,r1
  301c8a:	89 03       	bt	301c94 <_kinit+0xf0>
  301c8c:	61 e2       	mov.l	@r14,r1
  301c8e:	21 18       	tst	r1,r1
  301c90:	8f 15       	bf.s	301cbe <_kinit+0x11a>
  301c92:	ed 00       	mov	#0,r13
  301c94:	d1 34       	mov.l	301d68 <_kinit+0x1c4>,r1	! 303368 <_gint_panic>
  301c96:	94 27       	mov.w	301ce8 <_kinit+0x144>,r4	! 1060
  301c98:	41 0b       	jsr	@r1
  301c9a:	00 09       	nop	
  301c9c:	51 81       	mov.l	@(4,r8),r1
  301c9e:	21 18       	tst	r1,r1
  301ca0:	8d 03       	bt.s	301caa <_kinit+0x106>
  301ca2:	60 83       	mov	r8,r0
  301ca4:	41 0b       	jsr	@r1
  301ca6:	00 09       	nop	
  301ca8:	60 83       	mov	r8,r0
  301caa:	70 20       	add	#32,r0
  301cac:	84 0e       	mov.b	@(14,r0),r0
  301cae:	e2 01       	mov	#1,r2
  301cb0:	61 e2       	mov.l	@r14,r1
  301cb2:	78 30       	add	#48,r8
  301cb4:	c9 10       	and	#16,r0
  301cb6:	22 0b       	or	r0,r2
  301cb8:	60 d3       	mov	r13,r0
  301cba:	7d 01       	add	#1,r13
  301cbc:	01 24       	mov.b	r2,@(r0,r1)
  301cbe:	3c d7       	cmp/gt	r13,r12
  301cc0:	89 ec       	bt	301c9c <_kinit+0xf8>
  301cc2:	d1 2a       	mov.l	301d6c <_kinit+0x1c8>,r1	! 303080 <_cpu_configure_VBR>
  301cc4:	41 0b       	jsr	@r1
  301cc6:	64 93       	mov	r9,r4
  301cc8:	65 b2       	mov.l	@r11,r5
  301cca:	64 a2       	mov.l	@r10,r4
  301ccc:	d1 28       	mov.l	301d70 <_kinit+0x1cc>,r1	! 302164 <_gint_world_switch_in>
  301cce:	4f 26       	lds.l	@r15+,pr
  301cd0:	6e f6       	mov.l	@r15+,r14
  301cd2:	6d f6       	mov.l	@r15+,r13
  301cd4:	6c f6       	mov.l	@r15+,r12
  301cd6:	6b f6       	mov.l	@r15+,r11
  301cd8:	6a f6       	mov.l	@r15+,r10
  301cda:	69 f6       	mov.l	@r15+,r9
  301cdc:	41 2b       	jmp	@r1
  301cde:	68 f6       	mov.l	@r15+,r8
  301ce0:	c0 00       	mov.b	r0,@(0,gbr)
  301ce2:	01 00       	.word 0x0100
  301ce4:	04 00       	.word 0x0400
  301ce6:	06 00       	.word 0x0600
  301ce8:	10 60       	mov.l	r6,@(0,r0)
  301cea:	00 09       	nop	
  301cec:	00 30       	.word 0x0030
  301cee:	2e b4       	mov.b	r11,@-r14
  301cf0:	00 30       	.word 0x0030
  301cf2:	48 b0       	.word 0x48b0
  301cf4:	00 30       	.word 0x0030
  301cf6:	2e d4       	mov.b	r13,@-r14
  301cf8:	08 10       	.word 0x0810
  301cfa:	15 cc       	mov.l	r12,@(48,r5)
  301cfc:	00 00       	.word 0x0000
  301cfe:	00 98       	setdmx	
  301d00:	00 30       	.word 0x0030
  301d02:	01 40       	.word 0x0140
  301d04:	00 00       	.word 0x0000
  301d06:	00 70       	.word 0x0070
  301d08:	00 30       	.word 0x0030
  301d0a:	01 d0       	.word 0x01d0
  301d0c:	00 30       	.word 0x0030
  301d0e:	65 70       	mov.b	@r7,r5
  301d10:	00 30       	.word 0x0030
  301d12:	2b 28       	tst	r2,r11
  301d14:	08 10       	.word 0x0810
  301d16:	16 10       	mov.l	r1,@(0,r6)
  301d18:	00 30       	.word 0x0030
  301d1a:	6d 50       	mov.b	@r5,r13
  301d1c:	00 00       	.word 0x0000
  301d1e:	1c 00       	mov.l	r0,@(0,r12)
  301d20:	00 30       	.word 0x0030
  301d22:	29 f8       	tst	r15,r9
  301d24:	00 30       	.word 0x0030
  301d26:	2c cc       	cmp/str	r12,r12
  301d28:	08 10       	.word 0x0810
  301d2a:	15 dc       	mov.l	r13,@(48,r5)
  301d2c:	00 30       	.word 0x0030
  301d2e:	6d 58       	swap.b	r5,r13
  301d30:	08 10       	.word 0x0810
  301d32:	1b b4       	mov.l	r11,@(16,r11)
  301d34:	8c 0f       	ldrs	301d56 <_kinit+0x1b2>	! aaab
  301d36:	00 00       	.word 0x0000
  301d38:	00 05       	mov.w	r0,@(r0,r0)
  301d3a:	78 00       	add	#0,r8
  301d3c:	00 30       	.word 0x0030
  301d3e:	20 80       	mov.b	r8,@r0
  301d40:	08 10       	.word 0x0810
  301d42:	15 d8       	mov.l	r13,@(32,r5)
  301d44:	08 10       	.word 0x0810
  301d46:	15 d4       	mov.l	r13,@(16,r5)
  301d48:	00 30       	.word 0x0030
  301d4a:	66 b0       	mov.b	@r11,r6
  301d4c:	00 30       	.word 0x0030
  301d4e:	68 30       	mov.b	@r3,r8
  301d50:	00 30       	.word 0x0030
  301d52:	49 d4       	.word 0x49d4
  301d54:	aa aa       	bra	3012ac <_timer_configure+0x1ec>
  301d56:	aa ab       	bra	3012b0 <_timer_configure+0x1f0>
  301d58:	08 10       	.word 0x0810
  301d5a:	15 d0       	mov.l	r13,@(0,r5)
  301d5c:	00 30       	.word 0x0030
  301d5e:	2f 08       	tst	r0,r15
  301d60:	00 30       	.word 0x0030
  301d62:	47 84       	.word 0x4784
  301d64:	88 0f       	cmp/eq	#15,r0
  301d66:	00 00       	.word 0x0000
  301d68:	00 30       	.word 0x0030
  301d6a:	33 68       	sub	r6,r3
  301d6c:	00 30       	.word 0x0030
  301d6e:	30 80       	cmp/eq	r8,r0
  301d70:	00 30       	.word 0x0030
  301d72:	21 64       	mov.b	r6,@-r1

00301d74 <_kquit>:
  301d74:	2f 86       	mov.l	r8,@-r15
  301d76:	d1 0d       	mov.l	301dac <_kquit+0x38>,r1	! 302268 <_gint_world_switch_out>
  301d78:	2f 96       	mov.l	r9,@-r15
  301d7a:	d8 0d       	mov.l	301db0 <_kquit+0x3c>,r8	! 81015d4 <_gint_world_addin>
  301d7c:	d9 0d       	mov.l	301db4 <_kquit+0x40>,r9	! 81015d8 <_gint_world_os>
  301d7e:	2f a6       	mov.l	r10,@-r15
  301d80:	4f 22       	sts.l	pr,@-r15
  301d82:	65 92       	mov.l	@r9,r5
  301d84:	41 0b       	jsr	@r1
  301d86:	64 82       	mov.l	@r8,r4
  301d88:	da 0b       	mov.l	301db8 <_kquit+0x44>,r10	! 30210c <_gint_world_free>
  301d8a:	4a 0b       	jsr	@r10
  301d8c:	64 92       	mov.l	@r9,r4
  301d8e:	4a 0b       	jsr	@r10
  301d90:	64 82       	mov.l	@r8,r4
  301d92:	d1 0a       	mov.l	301dbc <_kquit+0x48>,r1	! 3049c8 <_free>
  301d94:	da 0a       	mov.l	301dc0 <_kquit+0x4c>,r10	! 81015d0 <_gint_driver_flags>
  301d96:	41 0b       	jsr	@r1
  301d98:	64 a2       	mov.l	@r10,r4
  301d9a:	e1 00       	mov	#0,r1
  301d9c:	29 12       	mov.l	r1,@r9
  301d9e:	28 12       	mov.l	r1,@r8
  301da0:	2a 12       	mov.l	r1,@r10
  301da2:	4f 26       	lds.l	@r15+,pr
  301da4:	6a f6       	mov.l	@r15+,r10
  301da6:	69 f6       	mov.l	@r15+,r9
  301da8:	00 0b       	rts	
  301daa:	68 f6       	mov.l	@r15+,r8
  301dac:	00 30       	.word 0x0030
  301dae:	22 68       	tst	r6,r2
  301db0:	08 10       	.word 0x0810
  301db2:	15 d4       	mov.l	r13,@(16,r5)
  301db4:	08 10       	.word 0x0810
  301db6:	15 d8       	mov.l	r13,@(32,r5)
  301db8:	00 30       	.word 0x0030
  301dba:	21 0c       	cmp/str	r0,r1
  301dbc:	00 30       	.word 0x0030
  301dbe:	49 c8       	.word 0x49c8
  301dc0:	08 10       	.word 0x0810
  301dc2:	15 d0       	mov.l	r13,@(0,r5)

00301dc4 <___osmenu>:
  301dc4:	d1 22       	mov.l	301e50 <___osmenu+0x8c>,r1	! 302034 <___ClearKeyBuffer>
  301dc6:	4f 22       	sts.l	pr,@-r15
  301dc8:	41 0b       	jsr	@r1
  301dca:	7f e4       	add	#-28,r15
  301dcc:	d1 21       	mov.l	301e54 <___osmenu+0x90>,r1	! 302fa0 <_dgetvram>
  301dce:	65 f3       	mov	r15,r5
  301dd0:	64 f3       	mov	r15,r4
  301dd2:	75 10       	add	#16,r5
  301dd4:	41 0b       	jsr	@r1
  301dd6:	74 0c       	add	#12,r4
  301dd8:	d0 1f       	mov.l	301e58 <___osmenu+0x94>,r0	! 302044 <___GetVRAMAddress>
  301dda:	40 0b       	jsr	@r0
  301ddc:	00 09       	nop	
  301dde:	d2 1f       	mov.l	301e5c <___osmenu+0x98>,r2	! 8101668 <_gint_vram>
  301de0:	51 f3       	mov.l	@(12,r15),r1
  301de2:	62 22       	mov.l	@r2,r2
  301de4:	32 10       	cmp/eq	r1,r2
  301de6:	8f 02       	bf.s	301dee <___osmenu+0x2a>
  301de8:	71 0c       	add	#12,r1
  301dea:	51 f4       	mov.l	@(16,r15),r1
  301dec:	71 0c       	add	#12,r1
  301dee:	97 2b       	mov.w	301e48 <___osmenu+0x84>,r7	! d8
  301df0:	92 2b       	mov.w	301e4a <___osmenu+0x86>,r2	! 180
  301df2:	63 03       	mov	r0,r3
  301df4:	66 13       	mov	r1,r6
  301df6:	65 65       	mov.w	@r6+,r5
  301df8:	42 10       	dt	r2
  301dfa:	23 51       	mov.w	r5,@r3
  301dfc:	8f fb       	bf.s	301df6 <___osmenu+0x32>
  301dfe:	73 02       	add	#2,r3
  301e00:	92 24       	mov.w	301e4c <___osmenu+0x88>,r2	! 300
  301e02:	47 10       	dt	r7
  301e04:	30 2c       	add	r2,r0
  301e06:	72 18       	add	#24,r2
  301e08:	8f f2       	bf.s	301df0 <___osmenu+0x2c>
  301e0a:	31 2c       	add	r2,r1
  301e0c:	d0 14       	mov.l	301e60 <___osmenu+0x9c>,r0	! 301fd4 <___Timer_Install>
  301e0e:	e4 00       	mov	#0,r4
  301e10:	d5 14       	mov.l	301e64 <___osmenu+0xa0>,r5	! 301e74 <___osmenu_handler>
  301e12:	40 0b       	jsr	@r0
  301e14:	e6 00       	mov	#0,r6
  301e16:	d1 14       	mov.l	301e68 <___osmenu+0xa4>,r1	! 8101644 <___osmenu_id>
  301e18:	40 15       	cmp/pl	r0
  301e1a:	64 03       	mov	r0,r4
  301e1c:	8f 10       	bf.s	301e40 <___osmenu+0x7c>
  301e1e:	21 02       	mov.l	r0,@r1
  301e20:	d0 12       	mov.l	301e6c <___osmenu+0xa8>,r0	! 301fe4 <___Timer_Start>
  301e22:	40 0b       	jsr	@r0
  301e24:	00 09       	nop	
  301e26:	d0 12       	mov.l	301e70 <___osmenu+0xac>,r0	! 302024 <___GetKeyWait>
  301e28:	61 f3       	mov	r15,r1
  301e2a:	71 0a       	add	#10,r1
  301e2c:	65 f3       	mov	r15,r5
  301e2e:	1f 11       	mov.l	r1,@(4,r15)
  301e30:	e1 00       	mov	#0,r1
  301e32:	64 f3       	mov	r15,r4
  301e34:	2f 12       	mov.l	r1,@r15
  301e36:	e7 01       	mov	#1,r7
  301e38:	e6 00       	mov	#0,r6
  301e3a:	75 18       	add	#24,r5
  301e3c:	40 0b       	jsr	@r0
  301e3e:	74 14       	add	#20,r4
  301e40:	7f 1c       	add	#28,r15
  301e42:	4f 26       	lds.l	@r15+,pr
  301e44:	00 0b       	rts	
  301e46:	00 09       	nop	
  301e48:	00 d8       	.word 0x00d8
  301e4a:	01 80       	.word 0x0180
  301e4c:	03 00       	.word 0x0300
  301e4e:	00 09       	nop	
  301e50:	00 30       	.word 0x0030
  301e52:	20 34       	mov.b	r3,@-r0
  301e54:	00 30       	.word 0x0030
  301e56:	2f a0       	mov.b	r10,@r15
  301e58:	00 30       	.word 0x0030
  301e5a:	20 44       	mov.b	r4,@-r0
  301e5c:	08 10       	.word 0x0810
  301e5e:	16 68       	mov.l	r6,@(32,r6)
  301e60:	00 30       	.word 0x0030
  301e62:	1f d4       	mov.l	r13,@(16,r15)
  301e64:	00 30       	.word 0x0030
  301e66:	1e 74       	mov.l	r7,@(16,r14)
  301e68:	08 10       	.word 0x0810
  301e6a:	16 44       	mov.l	r4,@(16,r6)
  301e6c:	00 30       	.word 0x0030
  301e6e:	1f e4       	mov.l	r14,@(16,r15)
  301e70:	00 30       	.word 0x0030
  301e72:	20 24       	mov.b	r2,@-r0

00301e74 <___osmenu_handler>:
  301e74:	d0 07       	mov.l	301e94 <___osmenu_handler+0x20>,r0	! 302014 <___PutKeyCode>
  301e76:	e6 00       	mov	#0,r6
  301e78:	2f 86       	mov.l	r8,@-r15
  301e7a:	e5 09       	mov	#9,r5
  301e7c:	4f 22       	sts.l	pr,@-r15
  301e7e:	d8 06       	mov.l	301e98 <___osmenu_handler+0x24>,r8	! 8101644 <___osmenu_id>
  301e80:	40 0b       	jsr	@r0
  301e82:	e4 04       	mov	#4,r4
  301e84:	d0 05       	mov.l	301e9c <___osmenu_handler+0x28>,r0	! 301ff4 <___Timer_Stop>
  301e86:	40 0b       	jsr	@r0
  301e88:	64 82       	mov.l	@r8,r4
  301e8a:	64 82       	mov.l	@r8,r4
  301e8c:	d0 04       	mov.l	301ea0 <___osmenu_handler+0x2c>,r0	! 302004 <___Timer_Deinstall>
  301e8e:	4f 26       	lds.l	@r15+,pr
  301e90:	40 2b       	jmp	@r0
  301e92:	68 f6       	mov.l	@r15+,r8
  301e94:	00 30       	.word 0x0030
  301e96:	20 14       	mov.b	r1,@-r0
  301e98:	08 10       	.word 0x0810
  301e9a:	16 44       	mov.l	r4,@(16,r6)
  301e9c:	00 30       	.word 0x0030
  301e9e:	1f f4       	mov.l	r15,@(16,r15)
  301ea0:	00 30       	.word 0x0030
  301ea2:	20 04       	mov.b	r0,@-r0

00301ea4 <_gint_osmenu>:
  301ea4:	4f 22       	sts.l	pr,@-r15
  301ea6:	d0 09       	mov.l	301ecc <_gint_osmenu+0x28>,r0	! 304970 <_memset>
  301ea8:	7f e8       	add	#-24,r15
  301eaa:	e6 10       	mov	#16,r6
  301eac:	64 f3       	mov	r15,r4
  301eae:	e5 00       	mov	#0,r5
  301eb0:	40 0b       	jsr	@r0
  301eb2:	74 08       	add	#8,r4
  301eb4:	d0 06       	mov.l	301ed0 <_gint_osmenu+0x2c>,r0	! 302344 <_gint_world_switch>
  301eb6:	51 f5       	mov.l	@(20,r15),r1
  301eb8:	d4 06       	mov.l	301ed4 <_gint_osmenu+0x30>,r4	! 301dc4 <___osmenu>
  301eba:	55 f2       	mov.l	@(8,r15),r5
  301ebc:	56 f3       	mov.l	@(12,r15),r6
  301ebe:	57 f4       	mov.l	@(16,r15),r7
  301ec0:	40 0b       	jsr	@r0
  301ec2:	2f 12       	mov.l	r1,@r15
  301ec4:	7f 18       	add	#24,r15
  301ec6:	4f 26       	lds.l	@r15+,pr
  301ec8:	00 0b       	rts	
  301eca:	00 09       	nop	
  301ecc:	00 30       	.word 0x0030
  301ece:	49 70       	.word 0x4970
  301ed0:	00 30       	.word 0x0030
  301ed2:	23 44       	mov.b	r4,@-r3
  301ed4:	00 30       	.word 0x0030
  301ed6:	1d c4       	mov.l	r12,@(16,r13)
	...

00301ee0 <___malloc>:
  301ee0:	d2 64       	mov.l	302074 <syscall_table>,r2	! 80020070
  301ee2:	d0 03       	mov.l	301ef0 <___malloc+0x10>,r0	! 1f44
  301ee4:	42 2b       	jmp	@r2
  301ee6:	00 09       	nop	
  301ee8:	00 09       	nop	
  301eea:	00 09       	nop	
  301eec:	00 09       	nop	
  301eee:	00 09       	nop	
  301ef0:	00 00       	.word 0x0000
  301ef2:	1f 44       	mov.l	r4,@(16,r15)

00301ef4 <___free>:
  301ef4:	d2 5f       	mov.l	302074 <syscall_table>,r2	! 80020070
  301ef6:	d0 02       	mov.l	301f00 <___free+0xc>,r0	! 1f42
  301ef8:	42 2b       	jmp	@r2
  301efa:	00 09       	nop	
  301efc:	00 09       	nop	
  301efe:	00 09       	nop	
  301f00:	00 00       	.word 0x0000
  301f02:	1f 42       	mov.l	r4,@(8,r15)

00301f04 <___realloc>:
  301f04:	d2 5b       	mov.l	302074 <syscall_table>,r2	! 80020070
  301f06:	d0 02       	mov.l	301f10 <___realloc+0xc>,r0	! 1f46
  301f08:	42 2b       	jmp	@r2
  301f0a:	00 09       	nop	
  301f0c:	00 09       	nop	
  301f0e:	00 09       	nop	
  301f10:	00 00       	.word 0x0000
  301f12:	1f 46       	mov.l	r4,@(24,r15)

00301f14 <_BFile_Remove>:
  301f14:	d2 57       	mov.l	302074 <syscall_table>,r2	! 80020070
  301f16:	d0 02       	mov.l	301f20 <_BFile_Remove+0xc>,r0	! 1db4
  301f18:	42 2b       	jmp	@r2
  301f1a:	00 09       	nop	
  301f1c:	00 09       	nop	
  301f1e:	00 09       	nop	
  301f20:	00 00       	.word 0x0000
  301f22:	1d b4       	mov.l	r11,@(16,r13)

00301f24 <_BFile_Create>:
  301f24:	d2 53       	mov.l	302074 <syscall_table>,r2	! 80020070
  301f26:	d0 02       	mov.l	301f30 <_BFile_Create+0xc>,r0	! 1dae
  301f28:	42 2b       	jmp	@r2
  301f2a:	00 09       	nop	
  301f2c:	00 09       	nop	
  301f2e:	00 09       	nop	
  301f30:	00 00       	.word 0x0000
  301f32:	1d ae       	mov.l	r10,@(56,r13)

00301f34 <_BFile_Open>:
  301f34:	e6 00       	mov	#0,r6
  301f36:	d2 4f       	mov.l	302074 <syscall_table>,r2	! 80020070
  301f38:	d0 01       	mov.l	301f40 <_BFile_Open+0xc>,r0	! 1da3
  301f3a:	42 2b       	jmp	@r2
  301f3c:	00 09       	nop	
  301f3e:	00 09       	nop	
  301f40:	00 00       	.word 0x0000
  301f42:	1d a3       	mov.l	r10,@(12,r13)

00301f44 <_BFile_Close>:
  301f44:	d2 4b       	mov.l	302074 <syscall_table>,r2	! 80020070
  301f46:	d0 02       	mov.l	301f50 <_BFile_Close+0xc>,r0	! 1da4
  301f48:	42 2b       	jmp	@r2
  301f4a:	00 09       	nop	
  301f4c:	00 09       	nop	
  301f4e:	00 09       	nop	
  301f50:	00 00       	.word 0x0000
  301f52:	1d a4       	mov.l	r10,@(16,r13)

00301f54 <_BFile_Size>:
  301f54:	d2 47       	mov.l	302074 <syscall_table>,r2	! 80020070
  301f56:	d0 02       	mov.l	301f60 <_BFile_Size+0xc>,r0	! 1da6
  301f58:	42 2b       	jmp	@r2
  301f5a:	00 09       	nop	
  301f5c:	00 09       	nop	
  301f5e:	00 09       	nop	
  301f60:	00 00       	.word 0x0000
  301f62:	1d a6       	mov.l	r10,@(24,r13)

00301f64 <_BFile_Seek>:
  301f64:	d2 43       	mov.l	302074 <syscall_table>,r2	! 80020070
  301f66:	d0 02       	mov.l	301f70 <_BFile_Seek+0xc>,r0	! 1da9
  301f68:	42 2b       	jmp	@r2
  301f6a:	00 09       	nop	
  301f6c:	00 09       	nop	
  301f6e:	00 09       	nop	
  301f70:	00 00       	.word 0x0000
  301f72:	1d a9       	mov.l	r10,@(36,r13)

00301f74 <_BFile_GetPos>:
  301f74:	d2 3f       	mov.l	302074 <syscall_table>,r2	! 80020070
  301f76:	d0 02       	mov.l	301f80 <_BFile_GetPos+0xc>,r0	! 1dab
  301f78:	42 2b       	jmp	@r2
  301f7a:	00 09       	nop	
  301f7c:	00 09       	nop	
  301f7e:	00 09       	nop	
  301f80:	00 00       	.word 0x0000
  301f82:	1d ab       	mov.l	r10,@(44,r13)

00301f84 <_BFile_Write>:
  301f84:	d2 3b       	mov.l	302074 <syscall_table>,r2	! 80020070
  301f86:	d0 02       	mov.l	301f90 <_BFile_Write+0xc>,r0	! 1daf
  301f88:	42 2b       	jmp	@r2
  301f8a:	00 09       	nop	
  301f8c:	00 09       	nop	
  301f8e:	00 09       	nop	
  301f90:	00 00       	.word 0x0000
  301f92:	1d af       	mov.l	r10,@(60,r13)

00301f94 <_BFile_Read>:
  301f94:	d2 37       	mov.l	302074 <syscall_table>,r2	! 80020070
  301f96:	d0 02       	mov.l	301fa0 <_BFile_Read+0xc>,r0	! 1dac
  301f98:	42 2b       	jmp	@r2
  301f9a:	00 09       	nop	
  301f9c:	00 09       	nop	
  301f9e:	00 09       	nop	
  301fa0:	00 00       	.word 0x0000
  301fa2:	1d ac       	mov.l	r10,@(48,r13)

00301fa4 <_BFile_FindFirst>:
  301fa4:	d2 33       	mov.l	302074 <syscall_table>,r2	! 80020070
  301fa6:	d0 02       	mov.l	301fb0 <_BFile_FindFirst+0xc>,r0	! 1db6
  301fa8:	42 2b       	jmp	@r2
  301faa:	00 09       	nop	
  301fac:	00 09       	nop	
  301fae:	00 09       	nop	
  301fb0:	00 00       	.word 0x0000
  301fb2:	1d b6       	mov.l	r11,@(24,r13)

00301fb4 <_BFile_FindNext>:
  301fb4:	d2 2f       	mov.l	302074 <syscall_table>,r2	! 80020070
  301fb6:	d0 02       	mov.l	301fc0 <_BFile_FindNext+0xc>,r0	! 1db8
  301fb8:	42 2b       	jmp	@r2
  301fba:	00 09       	nop	
  301fbc:	00 09       	nop	
  301fbe:	00 09       	nop	
  301fc0:	00 00       	.word 0x0000
  301fc2:	1d b8       	mov.l	r11,@(32,r13)

00301fc4 <_BFile_FindClose>:
  301fc4:	d2 2b       	mov.l	302074 <syscall_table>,r2	! 80020070
  301fc6:	d0 02       	mov.l	301fd0 <_BFile_FindClose+0xc>,r0	! 1dba
  301fc8:	42 2b       	jmp	@r2
  301fca:	00 09       	nop	
  301fcc:	00 09       	nop	
  301fce:	00 09       	nop	
  301fd0:	00 00       	.word 0x0000
  301fd2:	1d ba       	mov.l	r11,@(40,r13)

00301fd4 <___Timer_Install>:
  301fd4:	d2 27       	mov.l	302074 <syscall_table>,r2	! 80020070
  301fd6:	d0 02       	mov.l	301fe0 <___Timer_Install+0xc>,r0	! 8d9
  301fd8:	42 2b       	jmp	@r2
  301fda:	00 09       	nop	
  301fdc:	00 09       	nop	
  301fde:	00 09       	nop	
  301fe0:	00 00       	.word 0x0000
  301fe2:	08 d9       	.word 0x08d9

00301fe4 <___Timer_Start>:
  301fe4:	d2 23       	mov.l	302074 <syscall_table>,r2	! 80020070
  301fe6:	d0 02       	mov.l	301ff0 <___Timer_Start+0xc>,r0	! 8db
  301fe8:	42 2b       	jmp	@r2
  301fea:	00 09       	nop	
  301fec:	00 09       	nop	
  301fee:	00 09       	nop	
  301ff0:	00 00       	.word 0x0000
  301ff2:	08 db       	.word 0x08db

00301ff4 <___Timer_Stop>:
  301ff4:	d2 1f       	mov.l	302074 <syscall_table>,r2	! 80020070
  301ff6:	d0 02       	mov.l	302000 <___Timer_Stop+0xc>,r0	! 8dc
  301ff8:	42 2b       	jmp	@r2
  301ffa:	00 09       	nop	
  301ffc:	00 09       	nop	
  301ffe:	00 09       	nop	
  302000:	00 00       	.word 0x0000
  302002:	08 dc       	mov.b	@(r0,r13),r8

00302004 <___Timer_Deinstall>:
  302004:	d2 1b       	mov.l	302074 <syscall_table>,r2	! 80020070
  302006:	d0 02       	mov.l	302010 <___Timer_Deinstall+0xc>,r0	! 8da
  302008:	42 2b       	jmp	@r2
  30200a:	00 09       	nop	
  30200c:	00 09       	nop	
  30200e:	00 09       	nop	
  302010:	00 00       	.word 0x0000
  302012:	08 da       	.word 0x08da

00302014 <___PutKeyCode>:
  302014:	d2 17       	mov.l	302074 <syscall_table>,r2	! 80020070
  302016:	d0 02       	mov.l	302020 <___PutKeyCode+0xc>,r0	! 12c6
  302018:	42 2b       	jmp	@r2
  30201a:	00 09       	nop	
  30201c:	00 09       	nop	
  30201e:	00 09       	nop	
  302020:	00 00       	.word 0x0000
  302022:	12 c6       	mov.l	r12,@(24,r2)

00302024 <___GetKeyWait>:
  302024:	d2 13       	mov.l	302074 <syscall_table>,r2	! 80020070
  302026:	d0 02       	mov.l	302030 <___GetKeyWait+0xc>,r0	! 12bf
  302028:	42 2b       	jmp	@r2
  30202a:	00 09       	nop	
  30202c:	00 09       	nop	
  30202e:	00 09       	nop	
  302030:	00 00       	.word 0x0000
  302032:	12 bf       	mov.l	r11,@(60,r2)

00302034 <___ClearKeyBuffer>:
  302034:	d2 0f       	mov.l	302074 <syscall_table>,r2	! 80020070
  302036:	d0 02       	mov.l	302040 <___ClearKeyBuffer+0xc>,r0	! 12c7
  302038:	42 2b       	jmp	@r2
  30203a:	00 09       	nop	
  30203c:	00 09       	nop	
  30203e:	00 09       	nop	
  302040:	00 00       	.word 0x0000
  302042:	12 c7       	mov.l	r12,@(28,r2)

00302044 <___GetVRAMAddress>:
  302044:	d2 0b       	mov.l	302074 <syscall_table>,r2	! 80020070
  302046:	d0 02       	mov.l	302050 <___GetVRAMAddress+0xc>,r0	! 1e6
  302048:	42 2b       	jmp	@r2
  30204a:	00 09       	nop	
  30204c:	00 09       	nop	
  30204e:	00 09       	nop	
  302050:	00 00       	.word 0x0000
  302052:	01 e6       	mov.l	r14,@(r0,r1)

00302054 <___ConfigureStatusArea>:
  302054:	d2 07       	mov.l	302074 <syscall_table>,r2	! 80020070
  302056:	d0 02       	mov.l	302060 <___ConfigureStatusArea+0xc>,r0	! 2b7
  302058:	42 2b       	jmp	@r2
  30205a:	00 09       	nop	
  30205c:	00 09       	nop	
  30205e:	00 09       	nop	
  302060:	00 00       	.word 0x0000
  302062:	02 b7       	mul.l	r11,r2

00302064 <___SpecialMatrixCodeProcessing>:
  302064:	d2 03       	mov.l	302074 <syscall_table>,r2	! 80020070
  302066:	d0 02       	mov.l	302070 <___SpecialMatrixCodeProcessing+0xc>,r0	! 1e60
  302068:	42 2b       	jmp	@r2
  30206a:	00 09       	nop	
  30206c:	00 09       	nop	
  30206e:	00 09       	nop	
  302070:	00 00       	.word 0x0000
  302072:	1e 60       	mov.l	r6,@(0,r14)

00302074 <syscall_table>:
  302074:	80 02       	mov.b	r0,@(2,r0)
  302076:	00 70       	.word 0x0070
  302078:	00 09       	nop	
  30207a:	00 09       	nop	
  30207c:	00 09       	nop	
  30207e:	00 09       	nop	

00302080 <_gint_world_alloc>:
  302080:	2f 86       	mov.l	r8,@-r15
  302082:	e2 fc       	mov	#-4,r2
  302084:	d8 1d       	mov.l	3020fc <_gint_world_alloc+0x7c>,r8	! 3066b0 <_drv_cpu>
  302086:	e4 00       	mov	#0,r4
  302088:	d1 1d       	mov.l	302100 <_gint_world_alloc+0x80>,r1	! 306830 <_CELLHEIGHT>
  30208a:	e7 fc       	mov	#-4,r7
  30208c:	2f 96       	mov.l	r9,@-r15
  30208e:	31 88       	sub	r8,r1
  302090:	2f a6       	mov.l	r10,@-r15
  302092:	41 2c       	shad	r2,r1
  302094:	d2 1b       	mov.l	302104 <_gint_world_alloc+0x84>,r2	! aaaaaaab
  302096:	78 2c       	add	#44,r8
  302098:	01 27       	mul.l	r2,r1
  30209a:	4f 22       	sts.l	pr,@-r15
  30209c:	0a 1a       	sts	macl,r10
  30209e:	09 1a       	sts	macl,r9
  3020a0:	02 1a       	sts	macl,r2
  3020a2:	4a 11       	cmp/pz	r10
  3020a4:	63 83       	mov	r8,r3
  3020a6:	49 08       	shll2	r9
  3020a8:	72 01       	add	#1,r2
  3020aa:	89 00       	bt	3020ae <_gint_world_alloc+0x2e>
  3020ac:	e2 01       	mov	#1,r2
  3020ae:	42 10       	dt	r2
  3020b0:	8b 14       	bf	3020dc <_gint_world_alloc+0x5c>
  3020b2:	d0 15       	mov.l	302108 <_gint_world_alloc+0x88>,r0	! 3049d4 <_malloc>
  3020b4:	40 0b       	jsr	@r0
  3020b6:	34 9c       	add	r9,r4
  3020b8:	20 08       	tst	r0,r0
  3020ba:	8d 0a       	bt.s	3020d2 <_gint_world_alloc+0x52>
  3020bc:	4a 11       	cmp/pz	r10
  3020be:	62 03       	mov	r0,r2
  3020c0:	63 a3       	mov	r10,r3
  3020c2:	32 9c       	add	r9,r2
  3020c4:	e6 fc       	mov	#-4,r6
  3020c6:	67 03       	mov	r0,r7
  3020c8:	73 01       	add	#1,r3
  3020ca:	89 00       	bt	3020ce <_gint_world_alloc+0x4e>
  3020cc:	e3 01       	mov	#1,r3
  3020ce:	43 10       	dt	r3
  3020d0:	8b 0b       	bf	3020ea <_gint_world_alloc+0x6a>
  3020d2:	4f 26       	lds.l	@r15+,pr
  3020d4:	6a f6       	mov.l	@r15+,r10
  3020d6:	69 f6       	mov.l	@r15+,r9
  3020d8:	00 0b       	rts	
  3020da:	68 f6       	mov.l	@r15+,r8
  3020dc:	61 31       	mov.w	@r3,r1
  3020de:	73 30       	add	#48,r3
  3020e0:	61 1d       	extu.w	r1,r1
  3020e2:	71 03       	add	#3,r1
  3020e4:	21 79       	and	r7,r1
  3020e6:	af e2       	bra	3020ae <_gint_world_alloc+0x2e>
  3020e8:	34 1c       	add	r1,r4
  3020ea:	61 81       	mov.w	@r8,r1
  3020ec:	78 30       	add	#48,r8
  3020ee:	27 22       	mov.l	r2,@r7
  3020f0:	77 04       	add	#4,r7
  3020f2:	61 1d       	extu.w	r1,r1
  3020f4:	71 03       	add	#3,r1
  3020f6:	21 69       	and	r6,r1
  3020f8:	af e9       	bra	3020ce <_gint_world_alloc+0x4e>
  3020fa:	32 1c       	add	r1,r2
  3020fc:	00 30       	.word 0x0030
  3020fe:	66 b0       	mov.b	@r11,r6
  302100:	00 30       	.word 0x0030
  302102:	68 30       	mov.b	@r3,r8
  302104:	aa aa       	bra	30165c <_cpg_get_overclock_setting+0x18>
  302106:	aa ab       	bra	301660 <_cpg_get_overclock_setting+0x1c>
  302108:	00 30       	.word 0x0030
  30210a:	49 d4       	.word 0x49d4

0030210c <_gint_world_free>:
  30210c:	d1 01       	mov.l	302114 <_gint_world_free+0x8>,r1	! 3049c8 <_free>
  30210e:	41 2b       	jmp	@r1
  302110:	00 09       	nop	
  302112:	00 09       	nop	
  302114:	00 30       	.word 0x0030
  302116:	49 c8       	.word 0x49c8

00302118 <_gint_world_sync>:
  302118:	d2 0f       	mov.l	302158 <_gint_world_sync+0x40>,r2	! 3066b0 <_drv_cpu>
  30211a:	e3 fc       	mov	#-4,r3
  30211c:	d1 0f       	mov.l	30215c <_gint_world_sync+0x44>,r1	! 306830 <_CELLHEIGHT>
  30211e:	2f 86       	mov.l	r8,@-r15
  302120:	31 28       	sub	r2,r1
  302122:	2f 96       	mov.l	r9,@-r15
  302124:	41 3c       	shad	r3,r1
  302126:	d3 0e       	mov.l	302160 <_gint_world_sync+0x48>,r3	! aaaaaaab
  302128:	2f a6       	mov.l	r10,@-r15
  30212a:	69 23       	mov	r2,r9
  30212c:	01 37       	mul.l	r3,r1
  30212e:	4f 22       	sts.l	pr,@-r15
  302130:	08 1a       	sts	macl,r8
  302132:	ea 30       	mov	#48,r10
  302134:	79 24       	add	#36,r9
  302136:	78 ff       	add	#-1,r8
  302138:	48 11       	cmp/pz	r8
  30213a:	8d 05       	bt.s	302148 <_gint_world_sync+0x30>
  30213c:	08 a7       	mul.l	r10,r8
  30213e:	4f 26       	lds.l	@r15+,pr
  302140:	6a f6       	mov.l	@r15+,r10
  302142:	69 f6       	mov.l	@r15+,r9
  302144:	00 0b       	rts	
  302146:	68 f6       	mov.l	@r15+,r8
  302148:	00 1a       	sts	macl,r0
  30214a:	01 9e       	mov.l	@(r0,r9),r1
  30214c:	21 18       	tst	r1,r1
  30214e:	89 01       	bt	302154 <_gint_world_sync+0x3c>
  302150:	41 0b       	jsr	@r1
  302152:	00 09       	nop	
  302154:	af f0       	bra	302138 <_gint_world_sync+0x20>
  302156:	78 ff       	add	#-1,r8
  302158:	00 30       	.word 0x0030
  30215a:	66 b0       	mov.b	@r11,r6
  30215c:	00 30       	.word 0x0030
  30215e:	68 30       	mov.b	@r3,r8
  302160:	aa aa       	bra	3016b8 <_cpg_set_overclock_setting+0x38>
  302162:	aa ab       	bra	3016bc <_cpg_set_overclock_setting+0x3c>

00302164 <_gint_world_switch_in>:
  302164:	d2 3a       	mov.l	302250 <_gint_world_switch_in+0xec>,r2	! 3066b0 <_drv_cpu>
  302166:	e3 fc       	mov	#-4,r3
  302168:	d1 3a       	mov.l	302254 <_gint_world_switch_in+0xf0>,r1	! 306830 <_CELLHEIGHT>
  30216a:	2f 86       	mov.l	r8,@-r15
  30216c:	31 28       	sub	r2,r1
  30216e:	2f 96       	mov.l	r9,@-r15
  302170:	41 3c       	shad	r3,r1
  302172:	d3 39       	mov.l	302258 <_gint_world_switch_in+0xf4>,r3	! aaaaaaab
  302174:	2f a6       	mov.l	r10,@-r15
  302176:	69 23       	mov	r2,r9
  302178:	2f b6       	mov.l	r11,@-r15
  30217a:	ea 30       	mov	#48,r10
  30217c:	01 37       	mul.l	r3,r1
  30217e:	2f c6       	mov.l	r12,@-r15
  302180:	79 08       	add	#8,r9
  302182:	2f d6       	mov.l	r13,@-r15
  302184:	6b 53       	mov	r5,r11
  302186:	2f e6       	mov.l	r14,@-r15
  302188:	08 1a       	sts	macl,r8
  30218a:	4f 22       	sts.l	pr,@-r15
  30218c:	0c 1a       	sts	macl,r12
  30218e:	7f fc       	add	#-4,r15
  302190:	2f 42       	mov.l	r4,@r15
  302192:	78 ff       	add	#-1,r8
  302194:	48 11       	cmp/pz	r8
  302196:	8d 13       	bt.s	3021c0 <_gint_world_switch_in+0x5c>
  302198:	08 a7       	mul.l	r10,r8
  30219a:	d1 30       	mov.l	30225c <_gint_world_switch_in+0xf8>,r1	! 301848 <_cpu_atomic_start>
  30219c:	ea 00       	mov	#0,r10
  30219e:	d9 2c       	mov.l	302250 <_gint_world_switch_in+0xec>,r9	! 3066b0 <_drv_cpu>
  3021a0:	dd 2f       	mov.l	302260 <_gint_world_switch_in+0xfc>,r13	! 81015d0 <_gint_driver_flags>
  3021a2:	41 0b       	jsr	@r1
  3021a4:	ee fd       	mov	#-3,r14
  3021a6:	3c a7       	cmp/gt	r10,r12
  3021a8:	89 12       	bt	3021d0 <_gint_world_switch_in+0x6c>
  3021aa:	d1 2e       	mov.l	302264 <_gint_world_switch_in+0x100>,r1	! 30188c <_cpu_atomic_end>
  3021ac:	7f 04       	add	#4,r15
  3021ae:	4f 26       	lds.l	@r15+,pr
  3021b0:	6e f6       	mov.l	@r15+,r14
  3021b2:	6d f6       	mov.l	@r15+,r13
  3021b4:	6c f6       	mov.l	@r15+,r12
  3021b6:	6b f6       	mov.l	@r15+,r11
  3021b8:	6a f6       	mov.l	@r15+,r10
  3021ba:	69 f6       	mov.l	@r15+,r9
  3021bc:	41 2b       	jmp	@r1
  3021be:	68 f6       	mov.l	@r15+,r8
  3021c0:	00 1a       	sts	macl,r0
  3021c2:	01 9e       	mov.l	@(r0,r9),r1
  3021c4:	21 18       	tst	r1,r1
  3021c6:	89 01       	bt	3021cc <_gint_world_switch_in+0x68>
  3021c8:	41 0b       	jsr	@r1
  3021ca:	00 09       	nop	
  3021cc:	af e2       	bra	302194 <_gint_world_switch_in+0x30>
  3021ce:	78 ff       	add	#-1,r8
  3021d0:	50 93       	mov.l	@(12,r9),r0
  3021d2:	68 d2       	mov.l	@r13,r8
  3021d4:	20 08       	tst	r0,r0
  3021d6:	8f 2c       	bf.s	302232 <_gint_world_switch_in+0xce>
  3021d8:	38 ac       	add	r10,r8
  3021da:	60 80       	mov.b	@r8,r0
  3021dc:	cb 02       	or	#2,r0
  3021de:	28 00       	mov.b	r0,@r8
  3021e0:	60 80       	mov.b	@r8,r0
  3021e2:	c8 10       	tst	#16,r0
  3021e4:	8b 11       	bf	30220a <_gint_world_switch_in+0xa6>
  3021e6:	51 96       	mov.l	@(24,r9),r1
  3021e8:	21 18       	tst	r1,r1
  3021ea:	8d 04       	bt.s	3021f6 <_gint_world_switch_in+0x92>
  3021ec:	62 f2       	mov.l	@r15,r2
  3021ee:	60 a3       	mov	r10,r0
  3021f0:	40 08       	shll2	r0
  3021f2:	41 0b       	jsr	@r1
  3021f4:	04 2e       	mov.l	@(r0,r2),r4
  3021f6:	60 80       	mov.b	@r8,r0
  3021f8:	c8 01       	tst	#1,r0
  3021fa:	8b 06       	bf	30220a <_gint_world_switch_in+0xa6>
  3021fc:	51 97       	mov.l	@(28,r9),r1
  3021fe:	21 18       	tst	r1,r1
  302200:	8d 03       	bt.s	30220a <_gint_world_switch_in+0xa6>
  302202:	60 a3       	mov	r10,r0
  302204:	40 08       	shll2	r0
  302206:	41 0b       	jsr	@r1
  302208:	04 be       	mov.l	@(r0,r11),r4
  30220a:	51 98       	mov.l	@(32,r9),r1
  30220c:	21 18       	tst	r1,r1
  30220e:	89 01       	bt	302214 <_gint_world_switch_in+0xb0>
  302210:	41 0b       	jsr	@r1
  302212:	00 09       	nop	
  302214:	60 80       	mov.b	@r8,r0
  302216:	c8 01       	tst	#1,r0
  302218:	89 08       	bt	30222c <_gint_world_switch_in+0xc8>
  30221a:	51 9a       	mov.l	@(40,r9),r1
  30221c:	21 18       	tst	r1,r1
  30221e:	8d 04       	bt.s	30222a <_gint_world_switch_in+0xc6>
  302220:	c9 fe       	and	#254,r0
  302222:	41 0b       	jsr	@r1
  302224:	00 09       	nop	
  302226:	60 80       	mov.b	@r8,r0
  302228:	c9 fe       	and	#254,r0
  30222a:	28 00       	mov.b	r0,@r8
  30222c:	7a 01       	add	#1,r10
  30222e:	af ba       	bra	3021a6 <_gint_world_switch_in+0x42>
  302230:	79 30       	add	#48,r9
  302232:	40 0b       	jsr	@r0
  302234:	00 09       	nop	
  302236:	20 08       	tst	r0,r0
  302238:	8b cf       	bf	3021da <_gint_world_switch_in+0x76>
  30223a:	61 80       	mov.b	@r8,r1
  30223c:	21 e9       	and	r14,r1
  30223e:	28 10       	mov.b	r1,@r8
  302240:	51 94       	mov.l	@(16,r9),r1
  302242:	21 18       	tst	r1,r1
  302244:	89 cc       	bt	3021e0 <_gint_world_switch_in+0x7c>
  302246:	41 0b       	jsr	@r1
  302248:	00 09       	nop	
  30224a:	af ca       	bra	3021e2 <_gint_world_switch_in+0x7e>
  30224c:	60 80       	mov.b	@r8,r0
  30224e:	00 09       	nop	
  302250:	00 30       	.word 0x0030
  302252:	66 b0       	mov.b	@r11,r6
  302254:	00 30       	.word 0x0030
  302256:	68 30       	mov.b	@r3,r8
  302258:	aa aa       	bra	3017b0 <_clock_set_speed+0x14>
  30225a:	aa ab       	bra	3017b4 <_clock_set_speed+0x18>
  30225c:	00 30       	.word 0x0030
  30225e:	18 48       	mov.l	r4,@(32,r8)
  302260:	08 10       	.word 0x0810
  302262:	15 d0       	mov.l	r13,@(0,r5)
  302264:	00 30       	.word 0x0030
  302266:	18 8c       	mov.l	r8,@(48,r8)

00302268 <_gint_world_switch_out>:
  302268:	2f 86       	mov.l	r8,@-r15
  30226a:	e1 fc       	mov	#-4,r1
  30226c:	2f 96       	mov.l	r9,@-r15
  30226e:	2f a6       	mov.l	r10,@-r15
  302270:	d8 2e       	mov.l	30232c <_gint_world_switch_out+0xc4>,r8	! 3066b0 <_drv_cpu>
  302272:	da 2f       	mov.l	302330 <_gint_world_switch_out+0xc8>,r10	! 306830 <_CELLHEIGHT>
  302274:	2f b6       	mov.l	r11,@-r15
  302276:	6b 43       	mov	r4,r11
  302278:	3a 88       	sub	r8,r10
  30227a:	2f c6       	mov.l	r12,@-r15
  30227c:	62 a3       	mov	r10,r2
  30227e:	42 1c       	shad	r1,r2
  302280:	d1 2c       	mov.l	302334 <_gint_world_switch_out+0xcc>,r1	! aaaaaaab
  302282:	6c 53       	mov	r5,r12
  302284:	2f d6       	mov.l	r13,@-r15
  302286:	02 17       	mul.l	r1,r2
  302288:	2f e6       	mov.l	r14,@-r15
  30228a:	62 83       	mov	r8,r2
  30228c:	4f 22       	sts.l	pr,@-r15
  30228e:	09 1a       	sts	macl,r9
  302290:	7f fc       	add	#-4,r15
  302292:	ee 30       	mov	#48,r14
  302294:	79 ff       	add	#-1,r9
  302296:	72 24       	add	#36,r2
  302298:	6d 93       	mov	r9,r13
  30229a:	4d 11       	cmp/pz	r13
  30229c:	8d 12       	bt.s	3022c4 <_gint_world_switch_out+0x5c>
  30229e:	0d e7       	mul.l	r14,r13
  3022a0:	d1 25       	mov.l	302338 <_gint_world_switch_out+0xd0>,r1	! 301848 <_cpu_atomic_start>
  3022a2:	7a dc       	add	#-36,r10
  3022a4:	dd 25       	mov.l	30233c <_gint_world_switch_out+0xd4>,r13	! 81015d0 <_gint_driver_flags>
  3022a6:	41 0b       	jsr	@r1
  3022a8:	38 ac       	add	r10,r8
  3022aa:	49 11       	cmp/pz	r9
  3022ac:	89 13       	bt	3022d6 <_gint_world_switch_out+0x6e>
  3022ae:	d1 24       	mov.l	302340 <_gint_world_switch_out+0xd8>,r1	! 30188c <_cpu_atomic_end>
  3022b0:	7f 04       	add	#4,r15
  3022b2:	4f 26       	lds.l	@r15+,pr
  3022b4:	6e f6       	mov.l	@r15+,r14
  3022b6:	6d f6       	mov.l	@r15+,r13
  3022b8:	6c f6       	mov.l	@r15+,r12
  3022ba:	6b f6       	mov.l	@r15+,r11
  3022bc:	6a f6       	mov.l	@r15+,r10
  3022be:	69 f6       	mov.l	@r15+,r9
  3022c0:	41 2b       	jmp	@r1
  3022c2:	68 f6       	mov.l	@r15+,r8
  3022c4:	00 1a       	sts	macl,r0
  3022c6:	01 2e       	mov.l	@(r0,r2),r1
  3022c8:	21 18       	tst	r1,r1
  3022ca:	89 02       	bt	3022d2 <_gint_world_switch_out+0x6a>
  3022cc:	41 0b       	jsr	@r1
  3022ce:	2f 22       	mov.l	r2,@r15
  3022d0:	62 f2       	mov.l	@r15,r2
  3022d2:	af e2       	bra	30229a <_gint_world_switch_out+0x32>
  3022d4:	7d ff       	add	#-1,r13
  3022d6:	60 82       	mov.l	@r8,r0
  3022d8:	6a d2       	mov.l	@r13,r10
  3022da:	20 08       	tst	r0,r0
  3022dc:	8d 09       	bt.s	3022f2 <_gint_world_switch_out+0x8a>
  3022de:	3a 9c       	add	r9,r10
  3022e0:	40 0b       	jsr	@r0
  3022e2:	00 09       	nop	
  3022e4:	20 08       	tst	r0,r0
  3022e6:	8b 04       	bf	3022f2 <_gint_world_switch_out+0x8a>
  3022e8:	51 81       	mov.l	@(4,r8),r1
  3022ea:	21 18       	tst	r1,r1
  3022ec:	89 01       	bt	3022f2 <_gint_world_switch_out+0x8a>
  3022ee:	41 0b       	jsr	@r1
  3022f0:	00 09       	nop	
  3022f2:	60 a0       	mov.b	@r10,r0
  3022f4:	c8 10       	tst	#16,r0
  3022f6:	8f 10       	bf.s	30231a <_gint_world_switch_out+0xb2>
  3022f8:	c8 02       	tst	#2,r0
  3022fa:	51 83       	mov.l	@(12,r8),r1
  3022fc:	21 18       	tst	r1,r1
  3022fe:	8d 03       	bt.s	302308 <_gint_world_switch_out+0xa0>
  302300:	60 93       	mov	r9,r0
  302302:	40 08       	shll2	r0
  302304:	41 0b       	jsr	@r1
  302306:	04 be       	mov.l	@(r0,r11),r4
  302308:	51 84       	mov.l	@(16,r8),r1
  30230a:	21 18       	tst	r1,r1
  30230c:	8d 03       	bt.s	302316 <_gint_world_switch_out+0xae>
  30230e:	60 93       	mov	r9,r0
  302310:	40 08       	shll2	r0
  302312:	41 0b       	jsr	@r1
  302314:	04 ce       	mov.l	@(r0,r12),r4
  302316:	60 a0       	mov.b	@r10,r0
  302318:	c8 02       	tst	#2,r0
  30231a:	8b 04       	bf	302326 <_gint_world_switch_out+0xbe>
  30231c:	51 82       	mov.l	@(8,r8),r1
  30231e:	21 18       	tst	r1,r1
  302320:	89 01       	bt	302326 <_gint_world_switch_out+0xbe>
  302322:	41 0b       	jsr	@r1
  302324:	00 09       	nop	
  302326:	79 ff       	add	#-1,r9
  302328:	af bf       	bra	3022aa <_gint_world_switch_out+0x42>
  30232a:	78 d0       	add	#-48,r8
  30232c:	00 30       	.word 0x0030
  30232e:	66 b0       	mov.b	@r11,r6
  302330:	00 30       	.word 0x0030
  302332:	68 30       	mov.b	@r3,r8
  302334:	aa aa       	bra	30188c <_cpu_atomic_end>
  302336:	aa ab       	bra	301890 <_cpu_atomic_end+0x4>
  302338:	00 30       	.word 0x0030
  30233a:	18 48       	mov.l	r4,@(32,r8)
  30233c:	08 10       	.word 0x0810
  30233e:	15 d0       	mov.l	r13,@(0,r5)
  302340:	00 30       	.word 0x0030
  302342:	18 8c       	mov.l	r8,@(48,r8)

00302344 <_gint_world_switch>:
  302344:	7f f0       	add	#-16,r15
  302346:	d1 1b       	mov.l	3023b4 <_gint_world_switch+0x70>,r1	! 302268 <_gint_world_switch_out>
  302348:	2f 86       	mov.l	r8,@-r15
  30234a:	68 43       	mov	r4,r8
  30234c:	2f 96       	mov.l	r9,@-r15
  30234e:	2f a6       	mov.l	r10,@-r15
  302350:	2f b6       	mov.l	r11,@-r15
  302352:	4f 22       	sts.l	pr,@-r15
  302354:	da 18       	mov.l	3023b8 <_gint_world_switch+0x74>,r10	! 81015d8 <_gint_world_os>
  302356:	db 19       	mov.l	3023bc <_gint_world_switch+0x78>,r11	! 81015d4 <_gint_world_addin>
  302358:	1f 45       	mov.l	r4,@(20,r15)
  30235a:	1f 56       	mov.l	r5,@(24,r15)
  30235c:	64 b2       	mov.l	@r11,r4
  30235e:	65 a2       	mov.l	@r10,r5
  302360:	1f 67       	mov.l	r6,@(28,r15)
  302362:	41 0b       	jsr	@r1
  302364:	1f 78       	mov.l	r7,@(32,r15)
  302366:	d1 16       	mov.l	3023c0 <_gint_world_switch+0x7c>,r1	! 81015cc <_gint_stack_top>
  302368:	69 12       	mov.l	@r1,r9
  30236a:	29 98       	tst	r9,r9
  30236c:	8d 02       	bt.s	302374 <_gint_world_switch+0x30>
  30236e:	28 88       	tst	r8,r8
  302370:	d1 14       	mov.l	3023c4 <_gint_world_switch+0x80>,r1	! b7c0ffee
  302372:	29 12       	mov.l	r1,@r9
  302374:	8d 0f       	bt.s	302396 <_gint_world_switch+0x52>
  302376:	57 f9       	mov.l	@(36,r15),r7
  302378:	56 f8       	mov.l	@(32,r15),r6
  30237a:	55 f7       	mov.l	@(28,r15),r5
  30237c:	48 0b       	jsr	@r8
  30237e:	54 f6       	mov.l	@(24,r15),r4
  302380:	29 98       	tst	r9,r9
  302382:	8d 09       	bt.s	302398 <_gint_world_switch+0x54>
  302384:	68 03       	mov	r0,r8
  302386:	62 92       	mov.l	@r9,r2
  302388:	d1 0e       	mov.l	3023c4 <_gint_world_switch+0x80>,r1	! b7c0ffee
  30238a:	32 10       	cmp/eq	r1,r2
  30238c:	89 04       	bt	302398 <_gint_world_switch+0x54>
  30238e:	d1 0e       	mov.l	3023c8 <_gint_world_switch+0x84>,r1	! 303368 <_gint_panic>
  302390:	94 0e       	mov.w	3023b0 <_gint_world_switch+0x6c>,r4	! 1080
  302392:	41 0b       	jsr	@r1
  302394:	00 09       	nop	
  302396:	e8 00       	mov	#0,r8
  302398:	d1 0c       	mov.l	3023cc <_gint_world_switch+0x88>,r1	! 302164 <_gint_world_switch_in>
  30239a:	65 b2       	mov.l	@r11,r5
  30239c:	41 0b       	jsr	@r1
  30239e:	64 a2       	mov.l	@r10,r4
  3023a0:	60 83       	mov	r8,r0
  3023a2:	4f 26       	lds.l	@r15+,pr
  3023a4:	6b f6       	mov.l	@r15+,r11
  3023a6:	6a f6       	mov.l	@r15+,r10
  3023a8:	69 f6       	mov.l	@r15+,r9
  3023aa:	68 f6       	mov.l	@r15+,r8
  3023ac:	00 0b       	rts	
  3023ae:	7f 10       	add	#16,r15
  3023b0:	10 80       	mov.l	r8,@(0,r0)
  3023b2:	00 09       	nop	
  3023b4:	00 30       	.word 0x0030
  3023b6:	22 68       	tst	r6,r2
  3023b8:	08 10       	.word 0x0810
  3023ba:	15 d8       	mov.l	r13,@(32,r5)
  3023bc:	08 10       	.word 0x0810
  3023be:	15 d4       	mov.l	r13,@(16,r5)
  3023c0:	08 10       	.word 0x0810
  3023c2:	15 cc       	mov.l	r12,@(48,r5)
  3023c4:	b7 c0       	bsr	303348 <_gint_default_panic+0x2bc>
  3023c6:	ff ee       	.word 0xffee
  3023c8:	00 30       	.word 0x0030
  3023ca:	33 68       	sub	r6,r3
  3023cc:	00 30       	.word 0x0030
  3023ce:	21 64       	mov.b	r6,@-r1

003023d0 <_gint_switch>:
  3023d0:	2f 86       	mov.l	r8,@-r15
  3023d2:	e6 10       	mov	#16,r6
  3023d4:	4f 22       	sts.l	pr,@-r15
  3023d6:	d0 09       	mov.l	3023fc <_gint_switch+0x2c>,r0	! 304970 <_memset>
  3023d8:	7f e8       	add	#-24,r15
  3023da:	68 43       	mov	r4,r8
  3023dc:	e5 00       	mov	#0,r5
  3023de:	64 f3       	mov	r15,r4
  3023e0:	40 0b       	jsr	@r0
  3023e2:	74 08       	add	#8,r4
  3023e4:	d0 06       	mov.l	302400 <_gint_switch+0x30>,r0	! 302344 <_gint_world_switch>
  3023e6:	64 83       	mov	r8,r4
  3023e8:	51 f5       	mov.l	@(20,r15),r1
  3023ea:	55 f2       	mov.l	@(8,r15),r5
  3023ec:	56 f3       	mov.l	@(12,r15),r6
  3023ee:	57 f4       	mov.l	@(16,r15),r7
  3023f0:	40 0b       	jsr	@r0
  3023f2:	2f 12       	mov.l	r1,@r15
  3023f4:	7f 18       	add	#24,r15
  3023f6:	4f 26       	lds.l	@r15+,pr
  3023f8:	00 0b       	rts	
  3023fa:	68 f6       	mov.l	@r15+,r8
  3023fc:	00 30       	.word 0x0030
  3023fe:	49 70       	.word 0x4970
  302400:	00 30       	.word 0x0030
  302402:	23 44       	mov.b	r4,@-r3

00302404 <_next_block>:
  302404:	61 42       	mov.l	@r4,r1
  302406:	d2 05       	mov.l	30241c <_next_block+0x18>,r2	! 4000000
  302408:	21 28       	tst	r2,r1
  30240a:	8f 05       	bf.s	302418 <_next_block+0x14>
  30240c:	e0 00       	mov	#0,r0
  30240e:	d2 04       	mov.l	302420 <_next_block+0x1c>,r2	! ffffff
  302410:	60 43       	mov	r4,r0
  302412:	21 29       	and	r2,r1
  302414:	71 04       	add	#4,r1
  302416:	30 1c       	add	r1,r0
  302418:	00 0b       	rts	
  30241a:	00 09       	nop	
  30241c:	04 00       	.word 0x0400
  30241e:	00 00       	.word 0x0000
  302420:	00 ff       	mac.l	@r15+,@r0+
  302422:	ff ff       	.word 0xffff

00302424 <_split>:
  302424:	2f 86       	mov.l	r8,@-r15
  302426:	e2 0b       	mov	#11,r2
  302428:	2f 96       	mov.l	r9,@-r15
  30242a:	e8 00       	mov	#0,r8
  30242c:	2f a6       	mov.l	r10,@-r15
  30242e:	69 43       	mov	r4,r9
  302430:	2f b6       	mov.l	r11,@-r15
  302432:	4f 22       	sts.l	pr,@-r15
  302434:	d7 1e       	mov.l	3024b0 <_split+0x8c>,r7	! ffffff
  302436:	61 42       	mov.l	@r4,r1
  302438:	63 13       	mov	r1,r3
  30243a:	23 79       	and	r7,r3
  30243c:	33 58       	sub	r5,r3
  30243e:	33 26       	cmp/hi	r2,r3
  302440:	8f 2e       	bf.s	3024a0 <_split+0x7c>
  302442:	6a 53       	mov	r5,r10
  302444:	d2 1b       	mov.l	3024b4 <_split+0x90>,r2	! 4000000
  302446:	68 53       	mov	r5,r8
  302448:	78 04       	add	#4,r8
  30244a:	db 1b       	mov.l	3024b8 <_split+0x94>,r11	! feffffff
  30244c:	38 4c       	add	r4,r8
  30244e:	21 28       	tst	r2,r1
  302450:	62 80       	mov.b	@r8,r2
  302452:	e1 ff       	mov	#-1,r1
  302454:	61 1a       	negc	r1,r1
  302456:	d0 19       	mov.l	3024bc <_split+0x98>,r0	! 302404 <_next_block>
  302458:	e6 f9       	mov	#-7,r6
  30245a:	22 69       	and	r6,r2
  30245c:	41 08       	shll2	r1
  30245e:	21 2b       	or	r2,r1
  302460:	d2 17       	mov.l	3024c0 <_split+0x9c>,r2	! 2000000
  302462:	28 10       	mov.b	r1,@r8
  302464:	73 fc       	add	#-4,r3
  302466:	61 42       	mov.l	@r4,r1
  302468:	23 79       	and	r7,r3
  30246a:	64 83       	mov	r8,r4
  30246c:	21 28       	tst	r2,r1
  30246e:	e2 ff       	mov	#-1,r2
  302470:	62 2a       	negc	r2,r2
  302472:	61 82       	mov.l	@r8,r1
  302474:	42 28       	shll16	r2
  302476:	42 18       	shll8	r2
  302478:	21 b9       	and	r11,r1
  30247a:	21 2b       	or	r2,r1
  30247c:	d2 11       	mov.l	3024c4 <_split+0xa0>,r2	! ff000000
  30247e:	21 29       	and	r2,r1
  302480:	21 3b       	or	r3,r1
  302482:	40 0b       	jsr	@r0
  302484:	28 12       	mov.l	r1,@r8
  302486:	20 08       	tst	r0,r0
  302488:	89 02       	bt	302490 <_split+0x6c>
  30248a:	61 02       	mov.l	@r0,r1
  30248c:	21 b9       	and	r11,r1
  30248e:	20 12       	mov.l	r1,@r0
  302490:	61 92       	mov.l	@r9,r1
  302492:	d2 07       	mov.l	3024b0 <_split+0x8c>,r2	! ffffff
  302494:	d3 0c       	mov.l	3024c8 <_split+0xa4>,r3	! fb000000
  302496:	22 a9       	and	r10,r2
  302498:	6a 13       	mov	r1,r10
  30249a:	2a 39       	and	r3,r10
  30249c:	2a 2b       	or	r2,r10
  30249e:	29 a2       	mov.l	r10,@r9
  3024a0:	60 83       	mov	r8,r0
  3024a2:	4f 26       	lds.l	@r15+,pr
  3024a4:	6b f6       	mov.l	@r15+,r11
  3024a6:	6a f6       	mov.l	@r15+,r10
  3024a8:	69 f6       	mov.l	@r15+,r9
  3024aa:	00 0b       	rts	
  3024ac:	68 f6       	mov.l	@r15+,r8
  3024ae:	00 09       	nop	
  3024b0:	00 ff       	mac.l	@r15+,@r0+
  3024b2:	ff ff       	.word 0xffff
  3024b4:	04 00       	.word 0x0400
  3024b6:	00 00       	.word 0x0000
  3024b8:	fe ff       	.word 0xfeff
  3024ba:	ff ff       	.word 0xffff
  3024bc:	00 30       	.word 0x0030
  3024be:	24 04       	mov.b	r0,@-r4
  3024c0:	02 00       	.word 0x0200
  3024c2:	00 00       	.word 0x0000
  3024c4:	ff 00       	.word 0xff00
  3024c6:	00 00       	.word 0x0000
  3024c8:	fb 00 00 00 	pshl	#0,0x0	.word 0xfb00

003024cc <_merge>:
  3024cc:	61 52       	mov.l	@r5,r1
  3024ce:	d7 15       	mov.l	302524 <_merge+0x58>,r7	! 4000000
  3024d0:	63 13       	mov	r1,r3
  3024d2:	2f 86       	mov.l	r8,@-r15
  3024d4:	21 78       	tst	r7,r1
  3024d6:	e1 ff       	mov	#-1,r1
  3024d8:	61 1a       	negc	r1,r1
  3024da:	68 42       	mov.l	@r4,r8
  3024dc:	e7 1a       	mov	#26,r7
  3024de:	d2 12       	mov.l	302528 <_merge+0x5c>,r2	! ffffff
  3024e0:	41 7d       	shld	r7,r1
  3024e2:	d7 12       	mov.l	30252c <_merge+0x60>,r7	! fbffffff
  3024e4:	23 29       	and	r2,r3
  3024e6:	d0 12       	mov.l	302530 <_merge+0x64>,r0	! 302404 <_next_block>
  3024e8:	28 79       	and	r7,r8
  3024ea:	28 1b       	or	r1,r8
  3024ec:	61 83       	mov	r8,r1
  3024ee:	21 29       	and	r2,r1
  3024f0:	71 04       	add	#4,r1
  3024f2:	31 3c       	add	r3,r1
  3024f4:	21 29       	and	r2,r1
  3024f6:	d2 0f       	mov.l	302534 <_merge+0x68>,r2	! ff000000
  3024f8:	4f 22       	sts.l	pr,@-r15
  3024fa:	28 29       	and	r2,r8
  3024fc:	28 1b       	or	r1,r8
  3024fe:	40 0b       	jsr	@r0
  302500:	24 82       	mov.l	r8,@r4
  302502:	20 08       	tst	r0,r0
  302504:	89 0a       	bt	30251c <_merge+0x50>
  302506:	d1 0c       	mov.l	302538 <_merge+0x6c>,r1	! 2000000
  302508:	62 02       	mov.l	@r0,r2
  30250a:	28 18       	tst	r1,r8
  30250c:	e1 ff       	mov	#-1,r1
  30250e:	d3 0b       	mov.l	30253c <_merge+0x70>,r3	! feffffff
  302510:	61 1a       	negc	r1,r1
  302512:	41 28       	shll16	r1
  302514:	41 18       	shll8	r1
  302516:	22 39       	and	r3,r2
  302518:	21 2b       	or	r2,r1
  30251a:	20 12       	mov.l	r1,@r0
  30251c:	4f 26       	lds.l	@r15+,pr
  30251e:	00 0b       	rts	
  302520:	68 f6       	mov.l	@r15+,r8
  302522:	00 09       	nop	
  302524:	04 00       	.word 0x0400
  302526:	00 00       	.word 0x0000
  302528:	00 ff       	mac.l	@r15+,@r0+
  30252a:	ff ff       	.word 0xffff
  30252c:	fb ff ff ff 	dcf plds	a0g,macl	movx.w	a1,@r5+r8	movy.w	a1,@r7+r9
  302530:	00 30       	.word 0x0030
  302532:	24 04       	mov.b	r0,@-r4
  302534:	ff 00       	.word 0xff00
  302536:	00 00       	.word 0x0000
  302538:	02 00       	.word 0x0200
  30253a:	00 00       	.word 0x0000
  30253c:	fe ff       	.word 0xfeff
  30253e:	ff ff       	.word 0xffff

00302540 <_set_footer>:
  302540:	60 42       	mov.l	@r4,r0
  302542:	d1 06       	mov.l	30255c <_set_footer+0x1c>,r1	! ffffff
  302544:	20 19       	and	r1,r0
  302546:	34 0c       	add	r0,r4
  302548:	88 08       	cmp/eq	#8,r0
  30254a:	8f 05       	bf.s	302558 <_set_footer+0x18>
  30254c:	74 c4       	add	#-60,r4
  30254e:	e1 01       	mov	#1,r1
  302550:	26 1b       	or	r1,r6
  302552:	14 5e       	mov.l	r5,@(56,r4)
  302554:	00 0b       	rts	
  302556:	14 6f       	mov.l	r6,@(60,r4)
  302558:	af fb       	bra	302552 <_set_footer+0x12>
  30255a:	14 0d       	mov.l	r0,@(52,r4)
  30255c:	00 ff       	mac.l	@r15+,@r0+
  30255e:	ff ff       	.word 0xffff

00302560 <_prepend_link>:
  302560:	2f 86       	mov.l	r8,@-r15
  302562:	2f 96       	mov.l	r9,@-r15
  302564:	2f a6       	mov.l	r10,@-r15
  302566:	6a 53       	mov	r5,r10
  302568:	2f b6       	mov.l	r11,@-r15
  30256a:	2f c6       	mov.l	r12,@-r15
  30256c:	2f d6       	mov.l	r13,@-r15
  30256e:	4f 22       	sts.l	pr,@-r15
  302570:	d1 19       	mov.l	3025d8 <_prepend_link+0x78>,r1	! ffffff
  302572:	69 42       	mov.l	@r4,r9
  302574:	29 19       	and	r1,r9
  302576:	e1 3f       	mov	#63,r1
  302578:	39 16       	cmp/hi	r1,r9
  30257a:	8d 27       	bt.s	3025cc <_prepend_link+0x6c>
  30257c:	6b 43       	mov	r4,r11
  30257e:	61 93       	mov	r9,r1
  302580:	71 f8       	add	#-8,r1
  302582:	41 09       	shlr2	r1
  302584:	41 08       	shll2	r1
  302586:	dd 15       	mov.l	3025dc <_prepend_link+0x7c>,r13	! 302540 <_set_footer>
  302588:	68 a3       	mov	r10,r8
  30258a:	38 1c       	add	r1,r8
  30258c:	6c 82       	mov.l	@r8,r12
  30258e:	e5 00       	mov	#0,r5
  302590:	64 b3       	mov	r11,r4
  302592:	4d 0b       	jsr	@r13
  302594:	66 c3       	mov	r12,r6
  302596:	2c c8       	tst	r12,r12
  302598:	8d 08       	bt.s	3025ac <_prepend_link+0x4c>
  30259a:	65 b3       	mov	r11,r5
  30259c:	d1 0e       	mov.l	3025d8 <_prepend_link+0x78>,r1	! ffffff
  30259e:	60 c2       	mov.l	@r12,r0
  3025a0:	64 c3       	mov	r12,r4
  3025a2:	20 19       	and	r1,r0
  3025a4:	06 ce       	mov.l	@(r0,r12),r6
  3025a6:	e1 fc       	mov	#-4,r1
  3025a8:	4d 0b       	jsr	@r13
  3025aa:	26 19       	and	r1,r6
  3025ac:	28 b2       	mov.l	r11,@r8
  3025ae:	7a 40       	add	#64,r10
  3025b0:	51 a0       	mov.l	@(0,r10),r1
  3025b2:	21 18       	tst	r1,r1
  3025b4:	89 02       	bt	3025bc <_prepend_link+0x5c>
  3025b6:	62 12       	mov.l	@r1,r2
  3025b8:	32 9c       	add	r9,r2
  3025ba:	21 22       	mov.l	r2,@r1
  3025bc:	4f 26       	lds.l	@r15+,pr
  3025be:	6d f6       	mov.l	@r15+,r13
  3025c0:	6c f6       	mov.l	@r15+,r12
  3025c2:	6b f6       	mov.l	@r15+,r11
  3025c4:	6a f6       	mov.l	@r15+,r10
  3025c6:	69 f6       	mov.l	@r15+,r9
  3025c8:	00 0b       	rts	
  3025ca:	68 f6       	mov.l	@r15+,r8
  3025cc:	91 03       	mov.w	3025d6 <_prepend_link+0x76>,r1	! ff
  3025ce:	39 16       	cmp/hi	r1,r9
  3025d0:	01 29       	movt	r1
  3025d2:	af d7       	bra	302584 <_prepend_link+0x24>
  3025d4:	71 0e       	add	#14,r1
  3025d6:	00 ff       	mac.l	@r15+,@r0+
  3025d8:	00 ff       	mac.l	@r15+,@r0+
  3025da:	ff ff       	.word 0xffff
  3025dc:	00 30       	.word 0x0030
  3025de:	25 40       	mov.b	r4,@r5

003025e0 <_remove_link>:
  3025e0:	2f 86       	mov.l	r8,@-r15
  3025e2:	2f 96       	mov.l	r9,@-r15
  3025e4:	2f a6       	mov.l	r10,@-r15
  3025e6:	2f b6       	mov.l	r11,@-r15
  3025e8:	6b 53       	mov	r5,r11
  3025ea:	2f c6       	mov.l	r12,@-r15
  3025ec:	2f d6       	mov.l	r13,@-r15
  3025ee:	4f 22       	sts.l	pr,@-r15
  3025f0:	d1 21       	mov.l	302678 <_remove_link+0x98>,r1	! ffffff
  3025f2:	6a 42       	mov.l	@r4,r10
  3025f4:	2a 19       	and	r1,r10
  3025f6:	e1 3f       	mov	#63,r1
  3025f8:	3a 16       	cmp/hi	r1,r10
  3025fa:	8d 37       	bt.s	30266c <_remove_link+0x8c>
  3025fc:	6c 43       	mov	r4,r12
  3025fe:	68 a3       	mov	r10,r8
  302600:	78 f8       	add	#-8,r8
  302602:	48 09       	shlr2	r8
  302604:	61 c3       	mov	r12,r1
  302606:	31 ac       	add	r10,r1
  302608:	71 c4       	add	#-60,r1
  30260a:	59 1f       	mov.l	@(60,r1),r9
  30260c:	5d 1e       	mov.l	@(56,r1),r13
  30260e:	e1 fc       	mov	#-4,r1
  302610:	2d d8       	tst	r13,r13
  302612:	8d 0a       	bt.s	30262a <_remove_link+0x4a>
  302614:	29 19       	and	r1,r9
  302616:	61 d2       	mov.l	@r13,r1
  302618:	66 93       	mov	r9,r6
  30261a:	d2 17       	mov.l	302678 <_remove_link+0x98>,r2	! ffffff
  30261c:	21 29       	and	r2,r1
  30261e:	31 dc       	add	r13,r1
  302620:	71 c0       	add	#-64,r1
  302622:	55 1f       	mov.l	@(60,r1),r5
  302624:	d1 15       	mov.l	30267c <_remove_link+0x9c>,r1	! 302540 <_set_footer>
  302626:	41 0b       	jsr	@r1
  302628:	64 d3       	mov	r13,r4
  30262a:	29 98       	tst	r9,r9
  30262c:	8d 09       	bt.s	302642 <_remove_link+0x62>
  30262e:	65 d3       	mov	r13,r5
  302630:	d1 11       	mov.l	302678 <_remove_link+0x98>,r1	! ffffff
  302632:	60 92       	mov.l	@r9,r0
  302634:	20 19       	and	r1,r0
  302636:	06 9e       	mov.l	@(r0,r9),r6
  302638:	e1 fc       	mov	#-4,r1
  30263a:	26 19       	and	r1,r6
  30263c:	d1 0f       	mov.l	30267c <_remove_link+0x9c>,r1	! 302540 <_set_footer>
  30263e:	41 0b       	jsr	@r1
  302640:	64 93       	mov	r9,r4
  302642:	48 08       	shll2	r8
  302644:	38 bc       	add	r11,r8
  302646:	61 82       	mov.l	@r8,r1
  302648:	31 c0       	cmp/eq	r12,r1
  30264a:	8b 00       	bf	30264e <_remove_link+0x6e>
  30264c:	28 92       	mov.l	r9,@r8
  30264e:	7b 40       	add	#64,r11
  302650:	51 b0       	mov.l	@(0,r11),r1
  302652:	21 18       	tst	r1,r1
  302654:	89 02       	bt	30265c <_remove_link+0x7c>
  302656:	62 12       	mov.l	@r1,r2
  302658:	32 a8       	sub	r10,r2
  30265a:	21 22       	mov.l	r2,@r1
  30265c:	4f 26       	lds.l	@r15+,pr
  30265e:	6d f6       	mov.l	@r15+,r13
  302660:	6c f6       	mov.l	@r15+,r12
  302662:	6b f6       	mov.l	@r15+,r11
  302664:	6a f6       	mov.l	@r15+,r10
  302666:	69 f6       	mov.l	@r15+,r9
  302668:	00 0b       	rts	
  30266a:	68 f6       	mov.l	@r15+,r8
  30266c:	91 03       	mov.w	302676 <_remove_link+0x96>,r1	! ff
  30266e:	3a 16       	cmp/hi	r1,r10
  302670:	08 29       	movt	r8
  302672:	af c7       	bra	302604 <_remove_link+0x24>
  302674:	78 0e       	add	#14,r8
  302676:	00 ff       	mac.l	@r15+,@r0+
  302678:	00 ff       	mac.l	@r15+,@r0+
  30267a:	ff ff       	.word 0xffff
  30267c:	00 30       	.word 0x0030
  30267e:	25 40       	mov.b	r4,@r5

00302680 <_gint_malloc>:
  302680:	2f 86       	mov.l	r8,@-r15
  302682:	61 53       	mov	r5,r1
  302684:	2f 96       	mov.l	r9,@-r15
  302686:	71 40       	add	#64,r1
  302688:	2f a6       	mov.l	r10,@-r15
  30268a:	2f b6       	mov.l	r11,@-r15
  30268c:	2f c6       	mov.l	r12,@-r15
  30268e:	2f d6       	mov.l	r13,@-r15
  302690:	2f e6       	mov.l	r14,@-r15
  302692:	4f 22       	sts.l	pr,@-r15
  302694:	5a 10       	mov.l	@(0,r1),r10
  302696:	e1 07       	mov	#7,r1
  302698:	34 16       	cmp/hi	r1,r4
  30269a:	8f 23       	bf.s	3026e4 <_gint_malloc+0x64>
  30269c:	6b 53       	mov	r5,r11
  30269e:	e1 fc       	mov	#-4,r1
  3026a0:	74 03       	add	#3,r4
  3026a2:	69 43       	mov	r4,r9
  3026a4:	29 19       	and	r1,r9
  3026a6:	e1 3f       	mov	#63,r1
  3026a8:	39 16       	cmp/hi	r1,r9
  3026aa:	89 1d       	bt	3026e8 <_gint_malloc+0x68>
  3026ac:	61 93       	mov	r9,r1
  3026ae:	71 f8       	add	#-8,r1
  3026b0:	41 09       	shlr2	r1
  3026b2:	e2 10       	mov	#16,r2
  3026b4:	67 13       	mov	r1,r7
  3026b6:	e3 11       	mov	#17,r3
  3026b8:	31 27       	cmp/gt	r2,r1
  3026ba:	47 08       	shll2	r7
  3026bc:	dc 35       	mov.l	302794 <_gint_malloc+0x114>,r12	! ffffff
  3026be:	37 bc       	add	r11,r7
  3026c0:	e4 0d       	mov	#13,r4
  3026c2:	ed fc       	mov	#-4,r13
  3026c4:	33 18       	sub	r1,r3
  3026c6:	8b 00       	bf	3026ca <_gint_malloc+0x4a>
  3026c8:	e3 01       	mov	#1,r3
  3026ca:	43 10       	dt	r3
  3026cc:	8f 11       	bf.s	3026f2 <_gint_malloc+0x72>
  3026ce:	31 47       	cmp/gt	r4,r1
  3026d0:	2a a8       	tst	r10,r10
  3026d2:	89 05       	bt	3026e0 <_gint_malloc+0x60>
  3026d4:	61 a2       	mov.l	@r10,r1
  3026d6:	31 92       	cmp/hs	r9,r1
  3026d8:	8b 56       	bf	302788 <_gint_malloc+0x108>
  3026da:	51 a4       	mov.l	@(16,r10),r1
  3026dc:	71 01       	add	#1,r1
  3026de:	1a 14       	mov.l	r1,@(16,r10)
  3026e0:	a0 49       	bra	302776 <_gint_malloc+0xf6>
  3026e2:	e0 00       	mov	#0,r0
  3026e4:	af e2       	bra	3026ac <_gint_malloc+0x2c>
  3026e6:	e9 08       	mov	#8,r9
  3026e8:	91 52       	mov.w	302790 <_gint_malloc+0x110>,r1	! ff
  3026ea:	39 16       	cmp/hi	r1,r9
  3026ec:	01 29       	movt	r1
  3026ee:	af e0       	bra	3026b2 <_gint_malloc+0x32>
  3026f0:	71 0e       	add	#14,r1
  3026f2:	8f 12       	bf.s	30271a <_gint_malloc+0x9a>
  3026f4:	68 76       	mov.l	@r7+,r8
  3026f6:	62 83       	mov	r8,r2
  3026f8:	e6 ff       	mov	#-1,r6
  3026fa:	a0 0a       	bra	302712 <_gint_malloc+0x92>
  3026fc:	e8 00       	mov	#0,r8
  3026fe:	60 22       	mov.l	@r2,r0
  302700:	20 c9       	and	r12,r0
  302702:	30 92       	cmp/hs	r9,r0
  302704:	8f 03       	bf.s	30270e <_gint_malloc+0x8e>
  302706:	36 06       	cmp/hi	r0,r6
  302708:	8b 01       	bf	30270e <_gint_malloc+0x8e>
  30270a:	66 03       	mov	r0,r6
  30270c:	68 23       	mov	r2,r8
  30270e:	02 2e       	mov.l	@(r0,r2),r2
  302710:	22 d9       	and	r13,r2
  302712:	22 28       	tst	r2,r2
  302714:	8d 01       	bt.s	30271a <_gint_malloc+0x9a>
  302716:	36 90       	cmp/eq	r9,r6
  302718:	8b f1       	bf	3026fe <_gint_malloc+0x7e>
  30271a:	28 88       	tst	r8,r8
  30271c:	8d d5       	bt.s	3026ca <_gint_malloc+0x4a>
  30271e:	71 01       	add	#1,r1
  302720:	d1 1d       	mov.l	302798 <_gint_malloc+0x118>,r1	! 3025e0 <_remove_link>
  302722:	65 b3       	mov	r11,r5
  302724:	41 0b       	jsr	@r1
  302726:	64 83       	mov	r8,r4
  302728:	d0 1c       	mov.l	30279c <_gint_malloc+0x11c>,r0	! 302424 <_split>
  30272a:	64 83       	mov	r8,r4
  30272c:	40 0b       	jsr	@r0
  30272e:	65 93       	mov	r9,r5
  302730:	20 08       	tst	r0,r0
  302732:	8d 03       	bt.s	30273c <_gint_malloc+0xbc>
  302734:	64 03       	mov	r0,r4
  302736:	d1 1a       	mov.l	3027a0 <_gint_malloc+0x120>,r1	! 302560 <_prepend_link>
  302738:	41 0b       	jsr	@r1
  30273a:	65 b3       	mov	r11,r5
  30273c:	d0 19       	mov.l	3027a4 <_gint_malloc+0x124>,r0	! 302404 <_next_block>
  30273e:	40 0b       	jsr	@r0
  302740:	64 83       	mov	r8,r4
  302742:	61 82       	mov.l	@r8,r1
  302744:	20 08       	tst	r0,r0
  302746:	d2 18       	mov.l	3027a8 <_gint_malloc+0x128>,r2	! 2000000
  302748:	21 2b       	or	r2,r1
  30274a:	8d 04       	bt.s	302756 <_gint_malloc+0xd6>
  30274c:	28 12       	mov.l	r1,@r8
  30274e:	61 02       	mov.l	@r0,r1
  302750:	d2 16       	mov.l	3027ac <_gint_malloc+0x12c>,r2	! 1000000
  302752:	21 2b       	or	r2,r1
  302754:	20 12       	mov.l	r1,@r0
  302756:	2a a8       	tst	r10,r10
  302758:	8d 0c       	bt.s	302774 <_gint_malloc+0xf4>
  30275a:	60 83       	mov	r8,r0
  30275c:	61 82       	mov.l	@r8,r1
  30275e:	d2 0d       	mov.l	302794 <_gint_malloc+0x114>,r2	! ffffff
  302760:	21 29       	and	r2,r1
  302762:	52 a1       	mov.l	@(4,r10),r2
  302764:	31 2c       	add	r2,r1
  302766:	52 a2       	mov.l	@(8,r10),r2
  302768:	1a 11       	mov.l	r1,@(4,r10)
  30276a:	32 12       	cmp/hs	r1,r2
  30276c:	89 00       	bt	302770 <_gint_malloc+0xf0>
  30276e:	62 13       	mov	r1,r2
  302770:	1a 22       	mov.l	r2,@(8,r10)
  302772:	60 83       	mov	r8,r0
  302774:	70 04       	add	#4,r0
  302776:	4f 26       	lds.l	@r15+,pr
  302778:	6e f6       	mov.l	@r15+,r14
  30277a:	6d f6       	mov.l	@r15+,r13
  30277c:	6c f6       	mov.l	@r15+,r12
  30277e:	6b f6       	mov.l	@r15+,r11
  302780:	6a f6       	mov.l	@r15+,r10
  302782:	69 f6       	mov.l	@r15+,r9
  302784:	00 0b       	rts	
  302786:	68 f6       	mov.l	@r15+,r8
  302788:	51 a3       	mov.l	@(12,r10),r1
  30278a:	71 01       	add	#1,r1
  30278c:	af a8       	bra	3026e0 <_gint_malloc+0x60>
  30278e:	1a 13       	mov.l	r1,@(12,r10)
  302790:	00 ff       	mac.l	@r15+,@r0+
  302792:	00 09       	nop	
  302794:	00 ff       	mac.l	@r15+,@r0+
  302796:	ff ff       	.word 0xffff
  302798:	00 30       	.word 0x0030
  30279a:	25 e0       	mov.b	r14,@r5
  30279c:	00 30       	.word 0x0030
  30279e:	24 24       	mov.b	r2,@-r4
  3027a0:	00 30       	.word 0x0030
  3027a2:	25 60       	mov.b	r6,@r5
  3027a4:	00 30       	.word 0x0030
  3027a6:	24 04       	mov.b	r0,@-r4
  3027a8:	02 00       	.word 0x0200
  3027aa:	00 00       	.word 0x0000
  3027ac:	01 00       	.word 0x0100
	...

003027b0 <_gint_free>:
  3027b0:	2f 86       	mov.l	r8,@-r15
  3027b2:	68 43       	mov	r4,r8
  3027b4:	2f 96       	mov.l	r9,@-r15
  3027b6:	78 c0       	add	#-64,r8
  3027b8:	2f a6       	mov.l	r10,@-r15
  3027ba:	e9 00       	mov	#0,r9
  3027bc:	2f b6       	mov.l	r11,@-r15
  3027be:	6b 43       	mov	r4,r11
  3027c0:	2f c6       	mov.l	r12,@-r15
  3027c2:	7b fc       	add	#-4,r11
  3027c4:	4f 22       	sts.l	pr,@-r15
  3027c6:	d2 23       	mov.l	302854 <_gint_free+0xa4>,r2	! 1000000
  3027c8:	51 8f       	mov.l	@(60,r8),r1
  3027ca:	21 28       	tst	r2,r1
  3027cc:	8f 08       	bf.s	3027e0 <_gint_free+0x30>
  3027ce:	6c 53       	mov	r5,r12
  3027d0:	50 8e       	mov.l	@(56,r8),r0
  3027d2:	e1 08       	mov	#8,r1
  3027d4:	c8 01       	tst	#1,r0
  3027d6:	8b 00       	bf	3027da <_gint_free+0x2a>
  3027d8:	51 8c       	mov.l	@(48,r8),r1
  3027da:	69 b3       	mov	r11,r9
  3027dc:	39 18       	sub	r1,r9
  3027de:	79 fc       	add	#-4,r9
  3027e0:	d0 1d       	mov.l	302858 <_gint_free+0xa8>,r0	! 302404 <_next_block>
  3027e2:	40 0b       	jsr	@r0
  3027e4:	64 b3       	mov	r11,r4
  3027e6:	51 8f       	mov.l	@(60,r8),r1
  3027e8:	d2 1c       	mov.l	30285c <_gint_free+0xac>,r2	! fdffffff
  3027ea:	21 29       	and	r2,r1
  3027ec:	18 1f       	mov.l	r1,@(60,r8)
  3027ee:	62 c3       	mov	r12,r2
  3027f0:	72 40       	add	#64,r2
  3027f2:	52 20       	mov.l	@(0,r2),r2
  3027f4:	22 28       	tst	r2,r2
  3027f6:	8d 05       	bt.s	302804 <_gint_free+0x54>
  3027f8:	6a 03       	mov	r0,r10
  3027fa:	d3 19       	mov.l	302860 <_gint_free+0xb0>,r3	! ffffff
  3027fc:	21 39       	and	r3,r1
  3027fe:	53 21       	mov.l	@(4,r2),r3
  302800:	33 18       	sub	r1,r3
  302802:	12 31       	mov.l	r3,@(4,r2)
  302804:	2a a8       	tst	r10,r10
  302806:	8d 10       	bt.s	30282a <_gint_free+0x7a>
  302808:	29 98       	tst	r9,r9
  30280a:	61 a2       	mov.l	@r10,r1
  30280c:	d2 15       	mov.l	302864 <_gint_free+0xb4>,r2	! feffffff
  30280e:	21 29       	and	r2,r1
  302810:	d2 15       	mov.l	302868 <_gint_free+0xb8>,r2	! 2000000
  302812:	21 28       	tst	r2,r1
  302814:	8f 08       	bf.s	302828 <_gint_free+0x78>
  302816:	2a 12       	mov.l	r1,@r10
  302818:	d1 14       	mov.l	30286c <_gint_free+0xbc>,r1	! 3025e0 <_remove_link>
  30281a:	65 c3       	mov	r12,r5
  30281c:	41 0b       	jsr	@r1
  30281e:	64 a3       	mov	r10,r4
  302820:	d1 13       	mov.l	302870 <_gint_free+0xc0>,r1	! 3024cc <_merge>
  302822:	65 a3       	mov	r10,r5
  302824:	41 0b       	jsr	@r1
  302826:	64 b3       	mov	r11,r4
  302828:	29 98       	tst	r9,r9
  30282a:	8d 08       	bt.s	30283e <_gint_free+0x8e>
  30282c:	65 c3       	mov	r12,r5
  30282e:	d1 0f       	mov.l	30286c <_gint_free+0xbc>,r1	! 3025e0 <_remove_link>
  302830:	41 0b       	jsr	@r1
  302832:	64 93       	mov	r9,r4
  302834:	d1 0e       	mov.l	302870 <_gint_free+0xc0>,r1	! 3024cc <_merge>
  302836:	65 b3       	mov	r11,r5
  302838:	64 93       	mov	r9,r4
  30283a:	41 0b       	jsr	@r1
  30283c:	6b 93       	mov	r9,r11
  30283e:	d1 0d       	mov.l	302874 <_gint_free+0xc4>,r1	! 302560 <_prepend_link>
  302840:	65 c3       	mov	r12,r5
  302842:	64 b3       	mov	r11,r4
  302844:	4f 26       	lds.l	@r15+,pr
  302846:	6c f6       	mov.l	@r15+,r12
  302848:	6b f6       	mov.l	@r15+,r11
  30284a:	6a f6       	mov.l	@r15+,r10
  30284c:	69 f6       	mov.l	@r15+,r9
  30284e:	41 2b       	jmp	@r1
  302850:	68 f6       	mov.l	@r15+,r8
  302852:	00 09       	nop	
  302854:	01 00       	.word 0x0100
  302856:	00 00       	.word 0x0000
  302858:	00 30       	.word 0x0030
  30285a:	24 04       	mov.b	r0,@-r4
  30285c:	fd ff       	.word 0xfdff
  30285e:	ff ff       	.word 0xffff
  302860:	00 ff       	mac.l	@r15+,@r0+
  302862:	ff ff       	.word 0xffff
  302864:	fe ff       	.word 0xfeff
  302866:	ff ff       	.word 0xffff
  302868:	02 00       	.word 0x0200
  30286a:	00 00       	.word 0x0000
  30286c:	00 30       	.word 0x0030
  30286e:	25 e0       	mov.b	r14,@r5
  302870:	00 30       	.word 0x0030
  302872:	24 cc       	cmp/str	r12,r4
  302874:	00 30       	.word 0x0030
  302876:	25 60       	mov.b	r6,@r5

00302878 <_gint_realloc>:
  302878:	2f 86       	mov.l	r8,@-r15
  30287a:	61 63       	mov	r6,r1
  30287c:	2f 96       	mov.l	r9,@-r15
  30287e:	71 40       	add	#64,r1
  302880:	2f a6       	mov.l	r10,@-r15
  302882:	69 43       	mov	r4,r9
  302884:	2f b6       	mov.l	r11,@-r15
  302886:	6a 63       	mov	r6,r10
  302888:	2f c6       	mov.l	r12,@-r15
  30288a:	eb 08       	mov	#8,r11
  30288c:	2f d6       	mov.l	r13,@-r15
  30288e:	2f e6       	mov.l	r14,@-r15
  302890:	6e 43       	mov	r4,r14
  302892:	4f 22       	sts.l	pr,@-r15
  302894:	58 10       	mov.l	@(0,r1),r8
  302896:	e1 07       	mov	#7,r1
  302898:	35 16       	cmp/hi	r1,r5
  30289a:	7f f8       	add	#-8,r15
  30289c:	8f 03       	bf.s	3028a6 <_gint_realloc+0x2e>
  30289e:	7e fc       	add	#-4,r14
  3028a0:	75 03       	add	#3,r5
  3028a2:	eb fc       	mov	#-4,r11
  3028a4:	2b 59       	and	r5,r11
  3028a6:	61 93       	mov	r9,r1
  3028a8:	71 c0       	add	#-64,r1
  3028aa:	5c 1f       	mov.l	@(60,r1),r12
  3028ac:	d7 48       	mov.l	3029d0 <_gint_realloc+0x158>,r7	! ffffff
  3028ae:	2c 79       	and	r7,r12
  3028b0:	3c b2       	cmp/hs	r11,r12
  3028b2:	8f 31       	bf.s	302918 <_gint_realloc+0xa0>
  3028b4:	1f 11       	mov.l	r1,@(4,r15)
  3028b6:	d0 47       	mov.l	3029d4 <_gint_realloc+0x15c>,r0	! 302424 <_split>
  3028b8:	65 b3       	mov	r11,r5
  3028ba:	40 0b       	jsr	@r0
  3028bc:	64 e3       	mov	r14,r4
  3028be:	20 08       	tst	r0,r0
  3028c0:	8f 0c       	bf.s	3028dc <_gint_realloc+0x64>
  3028c2:	6d 03       	mov	r0,r13
  3028c4:	6c 93       	mov	r9,r12
  3028c6:	60 c3       	mov	r12,r0
  3028c8:	7f 08       	add	#8,r15
  3028ca:	4f 26       	lds.l	@r15+,pr
  3028cc:	6e f6       	mov.l	@r15+,r14
  3028ce:	6d f6       	mov.l	@r15+,r13
  3028d0:	6c f6       	mov.l	@r15+,r12
  3028d2:	6b f6       	mov.l	@r15+,r11
  3028d4:	6a f6       	mov.l	@r15+,r10
  3028d6:	69 f6       	mov.l	@r15+,r9
  3028d8:	00 0b       	rts	
  3028da:	68 f6       	mov.l	@r15+,r8
  3028dc:	64 03       	mov	r0,r4
  3028de:	d0 3e       	mov.l	3029d8 <_gint_realloc+0x160>,r0	! 302404 <_next_block>
  3028e0:	40 0b       	jsr	@r0
  3028e2:	00 09       	nop	
  3028e4:	20 08       	tst	r0,r0
  3028e6:	8d 0c       	bt.s	302902 <_gint_realloc+0x8a>
  3028e8:	6e 03       	mov	r0,r14
  3028ea:	61 02       	mov.l	@r0,r1
  3028ec:	d2 3b       	mov.l	3029dc <_gint_realloc+0x164>,r2	! 2000000
  3028ee:	21 28       	tst	r2,r1
  3028f0:	8f 07       	bf.s	302902 <_gint_realloc+0x8a>
  3028f2:	65 a3       	mov	r10,r5
  3028f4:	d1 3a       	mov.l	3029e0 <_gint_realloc+0x168>,r1	! 3025e0 <_remove_link>
  3028f6:	41 0b       	jsr	@r1
  3028f8:	64 03       	mov	r0,r4
  3028fa:	d1 3a       	mov.l	3029e4 <_gint_realloc+0x16c>,r1	! 3024cc <_merge>
  3028fc:	65 e3       	mov	r14,r5
  3028fe:	41 0b       	jsr	@r1
  302900:	64 d3       	mov	r13,r4
  302902:	d1 39       	mov.l	3029e8 <_gint_realloc+0x170>,r1	! 302560 <_prepend_link>
  302904:	65 a3       	mov	r10,r5
  302906:	41 0b       	jsr	@r1
  302908:	64 d3       	mov	r13,r4
  30290a:	28 88       	tst	r8,r8
  30290c:	89 da       	bt	3028c4 <_gint_realloc+0x4c>
  30290e:	51 81       	mov.l	@(4,r8),r1
  302910:	31 c8       	sub	r12,r1
  302912:	31 bc       	add	r11,r1
  302914:	af d6       	bra	3028c4 <_gint_realloc+0x4c>
  302916:	18 11       	mov.l	r1,@(4,r8)
  302918:	d0 2f       	mov.l	3029d8 <_gint_realloc+0x160>,r0	! 302404 <_next_block>
  30291a:	64 e3       	mov	r14,r4
  30291c:	40 0b       	jsr	@r0
  30291e:	2f 72       	mov.l	r7,@r15
  302920:	20 08       	tst	r0,r0
  302922:	67 f2       	mov.l	@r15,r7
  302924:	8d 2b       	bt.s	30297e <_gint_realloc+0x106>
  302926:	6d 03       	mov	r0,r13
  302928:	63 02       	mov.l	@r0,r3
  30292a:	d1 2c       	mov.l	3029dc <_gint_realloc+0x164>,r1	! 2000000
  30292c:	23 18       	tst	r1,r3
  30292e:	8f 26       	bf.s	30297e <_gint_realloc+0x106>
  302930:	62 b3       	mov	r11,r2
  302932:	32 c8       	sub	r12,r2
  302934:	72 fc       	add	#-4,r2
  302936:	23 79       	and	r7,r3
  302938:	33 23       	cmp/ge	r2,r3
  30293a:	8f 20       	bf.s	30297e <_gint_realloc+0x106>
  30293c:	64 03       	mov	r0,r4
  30293e:	d3 28       	mov.l	3029e0 <_gint_realloc+0x168>,r3	! 3025e0 <_remove_link>
  302940:	2f 22       	mov.l	r2,@r15
  302942:	43 0b       	jsr	@r3
  302944:	65 a3       	mov	r10,r5
  302946:	d0 23       	mov.l	3029d4 <_gint_realloc+0x15c>,r0	! 302424 <_split>
  302948:	64 d3       	mov	r13,r4
  30294a:	40 0b       	jsr	@r0
  30294c:	65 f2       	mov.l	@r15,r5
  30294e:	20 08       	tst	r0,r0
  302950:	8d 03       	bt.s	30295a <_gint_realloc+0xe2>
  302952:	64 03       	mov	r0,r4
  302954:	d2 24       	mov.l	3029e8 <_gint_realloc+0x170>,r2	! 302560 <_prepend_link>
  302956:	42 0b       	jsr	@r2
  302958:	65 a3       	mov	r10,r5
  30295a:	d1 22       	mov.l	3029e4 <_gint_realloc+0x16c>,r1	! 3024cc <_merge>
  30295c:	65 d3       	mov	r13,r5
  30295e:	41 0b       	jsr	@r1
  302960:	64 e3       	mov	r14,r4
  302962:	28 88       	tst	r8,r8
  302964:	8d ae       	bt.s	3028c4 <_gint_realloc+0x4c>
  302966:	52 f1       	mov.l	@(4,r15),r2
  302968:	51 2f       	mov.l	@(60,r2),r1
  30296a:	d2 19       	mov.l	3029d0 <_gint_realloc+0x158>,r2	! ffffff
  30296c:	21 29       	and	r2,r1
  30296e:	52 81       	mov.l	@(4,r8),r2
  302970:	31 c8       	sub	r12,r1
  302972:	31 2c       	add	r2,r1
  302974:	18 11       	mov.l	r1,@(4,r8)
  302976:	51 85       	mov.l	@(20,r8),r1
  302978:	71 01       	add	#1,r1
  30297a:	af a3       	bra	3028c4 <_gint_realloc+0x4c>
  30297c:	18 15       	mov.l	r1,@(20,r8)
  30297e:	d0 1b       	mov.l	3029ec <_gint_realloc+0x174>,r0	! 302680 <_gint_malloc>
  302980:	65 a3       	mov	r10,r5
  302982:	40 0b       	jsr	@r0
  302984:	64 b3       	mov	r11,r4
  302986:	20 08       	tst	r0,r0
  302988:	8f 0b       	bf.s	3029a2 <_gint_realloc+0x12a>
  30298a:	6c 03       	mov	r0,r12
  30298c:	28 88       	tst	r8,r8
  30298e:	8d 9b       	bt.s	3028c8 <_gint_realloc+0x50>
  302990:	60 c3       	mov	r12,r0
  302992:	61 82       	mov.l	@r8,r1
  302994:	31 b6       	cmp/hi	r11,r1
  302996:	89 16       	bt	3029c6 <_gint_realloc+0x14e>
  302998:	51 83       	mov.l	@(12,r8),r1
  30299a:	71 01       	add	#1,r1
  30299c:	18 13       	mov.l	r1,@(12,r8)
  30299e:	af 93       	bra	3028c8 <_gint_realloc+0x50>
  3029a0:	60 c3       	mov	r12,r0
  3029a2:	51 f1       	mov.l	@(4,r15),r1
  3029a4:	64 03       	mov	r0,r4
  3029a6:	d0 12       	mov.l	3029f0 <_gint_realloc+0x178>,r0	! 3048b0 <_memcpy>
  3029a8:	65 93       	mov	r9,r5
  3029aa:	56 1f       	mov.l	@(60,r1),r6
  3029ac:	d1 08       	mov.l	3029d0 <_gint_realloc+0x158>,r1	! ffffff
  3029ae:	40 0b       	jsr	@r0
  3029b0:	26 19       	and	r1,r6
  3029b2:	d1 10       	mov.l	3029f4 <_gint_realloc+0x17c>,r1	! 3027b0 <_gint_free>
  3029b4:	65 a3       	mov	r10,r5
  3029b6:	41 0b       	jsr	@r1
  3029b8:	64 93       	mov	r9,r4
  3029ba:	28 88       	tst	r8,r8
  3029bc:	89 ef       	bt	30299e <_gint_realloc+0x126>
  3029be:	51 86       	mov.l	@(24,r8),r1
  3029c0:	71 01       	add	#1,r1
  3029c2:	af 80       	bra	3028c6 <_gint_realloc+0x4e>
  3029c4:	18 16       	mov.l	r1,@(24,r8)
  3029c6:	51 84       	mov.l	@(16,r8),r1
  3029c8:	71 01       	add	#1,r1
  3029ca:	af 7c       	bra	3028c6 <_gint_realloc+0x4e>
  3029cc:	18 14       	mov.l	r1,@(16,r8)
  3029ce:	00 09       	nop	
  3029d0:	00 ff       	mac.l	@r15+,@r0+
  3029d2:	ff ff       	.word 0xffff
  3029d4:	00 30       	.word 0x0030
  3029d6:	24 24       	mov.b	r2,@-r4
  3029d8:	00 30       	.word 0x0030
  3029da:	24 04       	mov.b	r0,@-r4
  3029dc:	02 00       	.word 0x0200
  3029de:	00 00       	.word 0x0000
  3029e0:	00 30       	.word 0x0030
  3029e2:	25 e0       	mov.b	r14,@r5
  3029e4:	00 30       	.word 0x0030
  3029e6:	24 cc       	cmp/str	r12,r4
  3029e8:	00 30       	.word 0x0030
  3029ea:	25 60       	mov.b	r6,@r5
  3029ec:	00 30       	.word 0x0030
  3029ee:	26 80       	mov.b	r8,@r6
  3029f0:	00 30       	.word 0x0030
  3029f2:	48 b0       	.word 0x48b0
  3029f4:	00 30       	.word 0x0030
  3029f6:	27 b0       	mov.b	r11,@r7

003029f8 <_kmalloc_init_arena>:
  3029f8:	2f 86       	mov.l	r8,@-r15
  3029fa:	65 5c       	extu.b	r5,r5
  3029fc:	2f 96       	mov.l	r9,@-r15
  3029fe:	2f a6       	mov.l	r10,@-r15
  302a00:	2f b6       	mov.l	r11,@-r15
  302a02:	2f c6       	mov.l	r12,@-r15
  302a04:	4f 22       	sts.l	pr,@-r15
  302a06:	5a 44       	mov.l	@(16,r4),r10
  302a08:	51 45       	mov.l	@(20,r4),r1
  302a0a:	92 55       	mov.w	302ab8 <_kmalloc_init_arena+0xc0>,r2	! ff
  302a0c:	31 a8       	sub	r10,r1
  302a0e:	31 27       	cmp/gt	r2,r1
  302a10:	8f 43       	bf.s	302a9a <_kmalloc_init_arena+0xa2>
  302a12:	69 43       	mov	r4,r9
  302a14:	d1 29       	mov.l	302abc <_kmalloc_init_arena+0xc4>,r1	! 302680 <_gint_malloc>
  302a16:	25 58       	tst	r5,r5
  302a18:	14 a6       	mov.l	r10,@(24,r4)
  302a1a:	68 a3       	mov	r10,r8
  302a1c:	24 12       	mov.l	r1,@r4
  302a1e:	6b a3       	mov	r10,r11
  302a20:	d1 27       	mov.l	302ac0 <_kmalloc_init_arena+0xc8>,r1	! 3027b0 <_gint_free>
  302a22:	78 44       	add	#68,r8
  302a24:	7b 40       	add	#64,r11
  302a26:	14 12       	mov.l	r1,@(8,r4)
  302a28:	d1 26       	mov.l	302ac4 <_kmalloc_init_arena+0xcc>,r1	! 302878 <_gint_realloc>
  302a2a:	8d 3d       	bt.s	302aa8 <_kmalloc_init_arena+0xb0>
  302a2c:	14 11       	mov.l	r1,@(4,r4)
  302a2e:	d0 26       	mov.l	302ac8 <_kmalloc_init_arena+0xd0>,r0	! 304970 <_memset>
  302a30:	64 83       	mov	r8,r4
  302a32:	1b 80       	mov.l	r8,@(0,r11)
  302a34:	e6 1c       	mov	#28,r6
  302a36:	e5 00       	mov	#0,r5
  302a38:	40 0b       	jsr	@r0
  302a3a:	6c a3       	mov	r10,r12
  302a3c:	7c 60       	add	#96,r12
  302a3e:	68 c3       	mov	r12,r8
  302a40:	60 80       	mov.b	@r8,r0
  302a42:	e1 f8       	mov	#-8,r1
  302a44:	59 95       	mov.l	@(20,r9),r9
  302a46:	e6 00       	mov	#0,r6
  302a48:	20 19       	and	r1,r0
  302a4a:	d3 20       	mov.l	302acc <_kmalloc_init_arena+0xd4>,r3	! ff000000
  302a4c:	cb 05       	or	#5,r0
  302a4e:	dc 20       	mov.l	302ad0 <_kmalloc_init_arena+0xd8>,r12	! ffffff
  302a50:	28 00       	mov.b	r0,@r8
  302a52:	39 88       	sub	r8,r9
  302a54:	61 82       	mov.l	@r8,r1
  302a56:	79 fc       	add	#-4,r9
  302a58:	62 93       	mov	r9,r2
  302a5a:	22 c9       	and	r12,r2
  302a5c:	21 39       	and	r3,r1
  302a5e:	64 83       	mov	r8,r4
  302a60:	21 2b       	or	r2,r1
  302a62:	28 12       	mov.l	r1,@r8
  302a64:	d1 1b       	mov.l	302ad4 <_kmalloc_init_arena+0xdc>,r1	! 302540 <_set_footer>
  302a66:	41 0b       	jsr	@r1
  302a68:	e5 00       	mov	#0,r5
  302a6a:	61 b3       	mov	r11,r1
  302a6c:	31 a8       	sub	r10,r1
  302a6e:	71 fc       	add	#-4,r1
  302a70:	62 a3       	mov	r10,r2
  302a72:	41 09       	shlr2	r1
  302a74:	e3 00       	mov	#0,r3
  302a76:	71 01       	add	#1,r1
  302a78:	22 32       	mov.l	r3,@r2
  302a7a:	41 10       	dt	r1
  302a7c:	8f fc       	bf.s	302a78 <_kmalloc_init_arena+0x80>
  302a7e:	72 04       	add	#4,r2
  302a80:	d1 15       	mov.l	302ad8 <_kmalloc_init_arena+0xe0>,r1	! ffffc0
  302a82:	29 18       	tst	r1,r9
  302a84:	8f 12       	bf.s	302aac <_kmalloc_init_arena+0xb4>
  302a86:	2c 99       	and	r9,r12
  302a88:	60 c3       	mov	r12,r0
  302a8a:	70 f8       	add	#-8,r0
  302a8c:	40 09       	shlr2	r0
  302a8e:	51 b0       	mov.l	@(0,r11),r1
  302a90:	40 08       	shll2	r0
  302a92:	0a 86       	mov.l	r8,@(r0,r10)
  302a94:	21 18       	tst	r1,r1
  302a96:	89 00       	bt	302a9a <_kmalloc_init_arena+0xa2>
  302a98:	21 c2       	mov.l	r12,@r1
  302a9a:	4f 26       	lds.l	@r15+,pr
  302a9c:	6c f6       	mov.l	@r15+,r12
  302a9e:	6b f6       	mov.l	@r15+,r11
  302aa0:	6a f6       	mov.l	@r15+,r10
  302aa2:	69 f6       	mov.l	@r15+,r9
  302aa4:	00 0b       	rts	
  302aa6:	68 f6       	mov.l	@r15+,r8
  302aa8:	af ca       	bra	302a40 <_kmalloc_init_arena+0x48>
  302aaa:	1b 50       	mov.l	r5,@(0,r11)
  302aac:	d1 0b       	mov.l	302adc <_kmalloc_init_arena+0xe4>,r1	! ffff00
  302aae:	29 18       	tst	r1,r9
  302ab0:	e1 ff       	mov	#-1,r1
  302ab2:	60 1a       	negc	r1,r0
  302ab4:	af eb       	bra	302a8e <_kmalloc_init_arena+0x96>
  302ab6:	70 0e       	add	#14,r0
  302ab8:	00 ff       	mac.l	@r15+,@r0+
  302aba:	00 09       	nop	
  302abc:	00 30       	.word 0x0030
  302abe:	26 80       	mov.b	r8,@r6
  302ac0:	00 30       	.word 0x0030
  302ac2:	27 b0       	mov.b	r11,@r7
  302ac4:	00 30       	.word 0x0030
  302ac6:	28 78       	tst	r7,r8
  302ac8:	00 30       	.word 0x0030
  302aca:	49 70       	.word 0x4970
  302acc:	ff 00       	.word 0xff00
  302ace:	00 00       	.word 0x0000
  302ad0:	00 ff       	mac.l	@r15+,@r0+
  302ad2:	ff ff       	.word 0xffff
  302ad4:	00 30       	.word 0x0030
  302ad6:	25 40       	mov.b	r4,@r5
  302ad8:	00 ff       	mac.l	@r15+,@r0+
  302ada:	ff c0       	.word 0xffc0
  302adc:	00 ff       	mac.l	@r15+,@r0+
  302ade:	ff 00       	.word 0xff00

00302ae0 <_kmalloc_get_gint_stats>:
  302ae0:	62 42       	mov.l	@r4,r2
  302ae2:	d1 04       	mov.l	302af4 <_kmalloc_get_gint_stats+0x14>,r1	! 302680 <_gint_malloc>
  302ae4:	32 10       	cmp/eq	r1,r2
  302ae6:	8f 03       	bf.s	302af0 <_kmalloc_get_gint_stats+0x10>
  302ae8:	e0 00       	mov	#0,r0
  302aea:	51 46       	mov.l	@(24,r4),r1
  302aec:	71 40       	add	#64,r1
  302aee:	50 10       	mov.l	@(0,r1),r0
  302af0:	00 0b       	rts	
  302af2:	00 09       	nop	
  302af4:	00 30       	.word 0x0030
  302af6:	26 80       	mov.b	r8,@r6

00302af8 <_arena_owning>:
  302af8:	d2 0a       	mov.l	302b24 <_arena_owning+0x2c>,r2	! 8101648 <_arenas>
  302afa:	e1 08       	mov	#8,r1
  302afc:	60 26       	mov.l	@r2+,r0
  302afe:	20 08       	tst	r0,r0
  302b00:	89 0b       	bt	302b1a <_arena_owning+0x22>
  302b02:	53 04       	mov.l	@(16,r0),r3
  302b04:	33 46       	cmp/hi	r4,r3
  302b06:	8d 04       	bt.s	302b12 <_arena_owning+0x1a>
  302b08:	23 38       	tst	r3,r3
  302b0a:	57 05       	mov.l	@(20,r0),r7
  302b0c:	37 46       	cmp/hi	r4,r7
  302b0e:	8d 07       	bt.s	302b20 <_arena_owning+0x28>
  302b10:	23 38       	tst	r3,r3
  302b12:	8b 02       	bf	302b1a <_arena_owning+0x22>
  302b14:	53 05       	mov.l	@(20,r0),r3
  302b16:	23 38       	tst	r3,r3
  302b18:	89 02       	bt	302b20 <_arena_owning+0x28>
  302b1a:	41 10       	dt	r1
  302b1c:	8f ee       	bf.s	302afc <_arena_owning+0x4>
  302b1e:	e0 00       	mov	#0,r0
  302b20:	00 0b       	rts	
  302b22:	00 09       	nop	
  302b24:	08 10       	.word 0x0810
  302b26:	16 48       	mov.l	r4,@(32,r6)

00302b28 <_kmalloc_init>:
  302b28:	d1 01       	mov.l	302b30 <_kmalloc_init+0x8>,r1	! 8101648 <_arenas>
  302b2a:	d2 02       	mov.l	302b34 <_kmalloc_init+0xc>,r2	! 8101a78 <_kmalloc_arena_osheap>
  302b2c:	00 0b       	rts	
  302b2e:	11 27       	mov.l	r2,@(28,r1)
  302b30:	08 10       	.word 0x0810
  302b32:	16 48       	mov.l	r4,@(32,r6)
  302b34:	08 10       	.word 0x0810
  302b36:	1a 78       	mov.l	r7,@(32,r10)

00302b38 <_kmalloc_get_arena>:
  302b38:	2f 86       	mov.l	r8,@-r15
  302b3a:	e8 00       	mov	#0,r8
  302b3c:	2f 96       	mov.l	r9,@-r15
  302b3e:	2f a6       	mov.l	r10,@-r15
  302b40:	6a 43       	mov	r4,r10
  302b42:	2f b6       	mov.l	r11,@-r15
  302b44:	2f c6       	mov.l	r12,@-r15
  302b46:	dc 0f       	mov.l	302b84 <_kmalloc_get_arena+0x4c>,r12	! 3047a8 <_strcmp>
  302b48:	d9 0f       	mov.l	302b88 <_kmalloc_get_arena+0x50>,r9	! 8101648 <_arenas>
  302b4a:	4f 22       	sts.l	pr,@-r15
  302b4c:	6b 93       	mov	r9,r11
  302b4e:	61 96       	mov.l	@r9+,r1
  302b50:	21 18       	tst	r1,r1
  302b52:	89 10       	bt	302b76 <_kmalloc_get_arena+0x3e>
  302b54:	54 13       	mov.l	@(12,r1),r4
  302b56:	4c 0b       	jsr	@r12
  302b58:	65 a3       	mov	r10,r5
  302b5a:	20 08       	tst	r0,r0
  302b5c:	8f 0c       	bf.s	302b78 <_kmalloc_get_arena+0x40>
  302b5e:	78 01       	add	#1,r8
  302b60:	78 ff       	add	#-1,r8
  302b62:	60 83       	mov	r8,r0
  302b64:	40 08       	shll2	r0
  302b66:	00 be       	mov.l	@(r0,r11),r0
  302b68:	4f 26       	lds.l	@r15+,pr
  302b6a:	6c f6       	mov.l	@r15+,r12
  302b6c:	6b f6       	mov.l	@r15+,r11
  302b6e:	6a f6       	mov.l	@r15+,r10
  302b70:	69 f6       	mov.l	@r15+,r9
  302b72:	00 0b       	rts	
  302b74:	68 f6       	mov.l	@r15+,r8
  302b76:	78 01       	add	#1,r8
  302b78:	60 83       	mov	r8,r0
  302b7a:	88 08       	cmp/eq	#8,r0
  302b7c:	8f e7       	bf.s	302b4e <_kmalloc_get_arena+0x16>
  302b7e:	e0 00       	mov	#0,r0
  302b80:	af f2       	bra	302b68 <_kmalloc_get_arena+0x30>
  302b82:	00 09       	nop	
  302b84:	00 30       	.word 0x0030
  302b86:	47 a8       	.word 0x47a8
  302b88:	08 10       	.word 0x0810
  302b8a:	16 48       	mov.l	r4,@(32,r6)

00302b8c <_kmalloc>:
  302b8c:	2f 86       	mov.l	r8,@-r15
  302b8e:	24 48       	tst	r4,r4
  302b90:	2f 96       	mov.l	r9,@-r15
  302b92:	69 53       	mov	r5,r9
  302b94:	2f a6       	mov.l	r10,@-r15
  302b96:	2f b6       	mov.l	r11,@-r15
  302b98:	2f c6       	mov.l	r12,@-r15
  302b9a:	6c 43       	mov	r4,r12
  302b9c:	2f d6       	mov.l	r13,@-r15
  302b9e:	8d 32       	bt.s	302c06 <_kmalloc+0x7a>
  302ba0:	4f 22       	sts.l	pr,@-r15
  302ba2:	dd 1d       	mov.l	302c18 <_kmalloc+0x8c>,r13	! 8101648 <_arenas>
  302ba4:	db 1d       	mov.l	302c1c <_kmalloc+0x90>,r11	! 3047a8 <_strcmp>
  302ba6:	6a d3       	mov	r13,r10
  302ba8:	7a 20       	add	#32,r10
  302baa:	68 d6       	mov.l	@r13+,r8
  302bac:	28 88       	tst	r8,r8
  302bae:	8d 28       	bt.s	302c02 <_kmalloc+0x76>
  302bb0:	29 98       	tst	r9,r9
  302bb2:	89 2a       	bt	302c0a <_kmalloc+0x7e>
  302bb4:	54 83       	mov.l	@(12,r8),r4
  302bb6:	4b 0b       	jsr	@r11
  302bb8:	65 93       	mov	r9,r5
  302bba:	20 08       	tst	r0,r0
  302bbc:	8f 22       	bf.s	302c04 <_kmalloc+0x78>
  302bbe:	3d a0       	cmp/eq	r10,r13
  302bc0:	60 82       	mov.l	@r8,r0
  302bc2:	64 c3       	mov	r12,r4
  302bc4:	40 0b       	jsr	@r0
  302bc6:	55 86       	mov.l	@(24,r8),r5
  302bc8:	20 08       	tst	r0,r0
  302bca:	61 83       	mov	r8,r1
  302bcc:	8d 16       	bt.s	302bfc <_kmalloc+0x70>
  302bce:	71 20       	add	#32,r1
  302bd0:	52 88       	mov.l	@(32,r8),r2
  302bd2:	53 11       	mov.l	@(4,r1),r3
  302bd4:	72 01       	add	#1,r2
  302bd6:	18 28       	mov.l	r2,@(32,r8)
  302bd8:	33 23       	cmp/ge	r2,r3
  302bda:	89 00       	bt	302bde <_kmalloc+0x52>
  302bdc:	63 23       	mov	r2,r3
  302bde:	52 12       	mov.l	@(8,r1),r2
  302be0:	11 31       	mov.l	r3,@(4,r1)
  302be2:	32 cc       	add	r12,r2
  302be4:	11 22       	mov.l	r2,@(8,r1)
  302be6:	52 13       	mov.l	@(12,r1),r2
  302be8:	72 01       	add	#1,r2
  302bea:	11 23       	mov.l	r2,@(12,r1)
  302bec:	4f 26       	lds.l	@r15+,pr
  302bee:	6d f6       	mov.l	@r15+,r13
  302bf0:	6c f6       	mov.l	@r15+,r12
  302bf2:	6b f6       	mov.l	@r15+,r11
  302bf4:	6a f6       	mov.l	@r15+,r10
  302bf6:	69 f6       	mov.l	@r15+,r9
  302bf8:	00 0b       	rts	
  302bfa:	68 f6       	mov.l	@r15+,r8
  302bfc:	52 14       	mov.l	@(16,r1),r2
  302bfe:	72 01       	add	#1,r2
  302c00:	11 24       	mov.l	r2,@(16,r1)
  302c02:	3d a0       	cmp/eq	r10,r13
  302c04:	8b d1       	bf	302baa <_kmalloc+0x1e>
  302c06:	af f1       	bra	302bec <_kmalloc+0x60>
  302c08:	e0 00       	mov	#0,r0
  302c0a:	51 87       	mov.l	@(28,r8),r1
  302c0c:	21 18       	tst	r1,r1
  302c0e:	8f d7       	bf.s	302bc0 <_kmalloc+0x34>
  302c10:	3d a0       	cmp/eq	r10,r13
  302c12:	af f7       	bra	302c04 <_kmalloc+0x78>
  302c14:	00 09       	nop	
  302c16:	00 09       	nop	
  302c18:	08 10       	.word 0x0810
  302c1a:	16 48       	mov.l	r4,@(32,r6)
  302c1c:	00 30       	.word 0x0030
  302c1e:	47 a8       	.word 0x47a8

00302c20 <_kfree>:
  302c20:	2f 86       	mov.l	r8,@-r15
  302c22:	24 48       	tst	r4,r4
  302c24:	2f 96       	mov.l	r9,@-r15
  302c26:	69 43       	mov	r4,r9
  302c28:	8d 0d       	bt.s	302c46 <_kfree+0x26>
  302c2a:	4f 22       	sts.l	pr,@-r15
  302c2c:	d0 08       	mov.l	302c50 <_kfree+0x30>,r0	! 302af8 <_arena_owning>
  302c2e:	40 0b       	jsr	@r0
  302c30:	00 09       	nop	
  302c32:	20 08       	tst	r0,r0
  302c34:	8d 07       	bt.s	302c46 <_kfree+0x26>
  302c36:	68 03       	mov	r0,r8
  302c38:	51 02       	mov.l	@(8,r0),r1
  302c3a:	64 93       	mov	r9,r4
  302c3c:	41 0b       	jsr	@r1
  302c3e:	55 06       	mov.l	@(24,r0),r5
  302c40:	51 88       	mov.l	@(32,r8),r1
  302c42:	71 ff       	add	#-1,r1
  302c44:	18 18       	mov.l	r1,@(32,r8)
  302c46:	4f 26       	lds.l	@r15+,pr
  302c48:	69 f6       	mov.l	@r15+,r9
  302c4a:	00 0b       	rts	
  302c4c:	68 f6       	mov.l	@r15+,r8
  302c4e:	00 09       	nop	
  302c50:	00 30       	.word 0x0030
  302c52:	2a f8       	tst	r15,r10

00302c54 <_krealloc>:
  302c54:	2f 86       	mov.l	r8,@-r15
  302c56:	24 48       	tst	r4,r4
  302c58:	2f 96       	mov.l	r9,@-r15
  302c5a:	69 53       	mov	r5,r9
  302c5c:	2f a6       	mov.l	r10,@-r15
  302c5e:	6a 43       	mov	r4,r10
  302c60:	8f 08       	bf.s	302c74 <_krealloc+0x20>
  302c62:	4f 22       	sts.l	pr,@-r15
  302c64:	d0 16       	mov.l	302cc0 <_krealloc+0x6c>,r0	! 302b8c <_kmalloc>
  302c66:	e5 00       	mov	#0,r5
  302c68:	64 93       	mov	r9,r4
  302c6a:	4f 26       	lds.l	@r15+,pr
  302c6c:	6a f6       	mov.l	@r15+,r10
  302c6e:	69 f6       	mov.l	@r15+,r9
  302c70:	40 2b       	jmp	@r0
  302c72:	68 f6       	mov.l	@r15+,r8
  302c74:	25 58       	tst	r5,r5
  302c76:	8b 04       	bf	302c82 <_krealloc+0x2e>
  302c78:	d1 12       	mov.l	302cc4 <_krealloc+0x70>,r1	! 302c20 <_kfree>
  302c7a:	41 0b       	jsr	@r1
  302c7c:	00 09       	nop	
  302c7e:	a0 14       	bra	302caa <_krealloc+0x56>
  302c80:	e8 00       	mov	#0,r8
  302c82:	d0 11       	mov.l	302cc8 <_krealloc+0x74>,r0	! 302af8 <_arena_owning>
  302c84:	40 0b       	jsr	@r0
  302c86:	00 09       	nop	
  302c88:	20 08       	tst	r0,r0
  302c8a:	8d 0e       	bt.s	302caa <_krealloc+0x56>
  302c8c:	68 03       	mov	r0,r8
  302c8e:	50 01       	mov.l	@(4,r0),r0
  302c90:	65 93       	mov	r9,r5
  302c92:	56 86       	mov.l	@(24,r8),r6
  302c94:	40 0b       	jsr	@r0
  302c96:	64 a3       	mov	r10,r4
  302c98:	20 08       	tst	r0,r0
  302c9a:	89 0c       	bt	302cb6 <_krealloc+0x62>
  302c9c:	51 8a       	mov.l	@(40,r8),r1
  302c9e:	31 9c       	add	r9,r1
  302ca0:	18 1a       	mov.l	r1,@(40,r8)
  302ca2:	51 8b       	mov.l	@(44,r8),r1
  302ca4:	71 01       	add	#1,r1
  302ca6:	18 1b       	mov.l	r1,@(44,r8)
  302ca8:	68 03       	mov	r0,r8
  302caa:	60 83       	mov	r8,r0
  302cac:	4f 26       	lds.l	@r15+,pr
  302cae:	6a f6       	mov.l	@r15+,r10
  302cb0:	69 f6       	mov.l	@r15+,r9
  302cb2:	00 0b       	rts	
  302cb4:	68 f6       	mov.l	@r15+,r8
  302cb6:	51 8c       	mov.l	@(48,r8),r1
  302cb8:	71 01       	add	#1,r1
  302cba:	af e0       	bra	302c7e <_krealloc+0x2a>
  302cbc:	18 1c       	mov.l	r1,@(48,r8)
  302cbe:	00 09       	nop	
  302cc0:	00 30       	.word 0x0030
  302cc2:	2b 8c       	cmp/str	r8,r11
  302cc4:	00 30       	.word 0x0030
  302cc6:	2c 20       	mov.b	r2,@r12
  302cc8:	00 30       	.word 0x0030
  302cca:	2a f8       	tst	r15,r10

00302ccc <_kmalloc_add_arena>:
  302ccc:	d2 07       	mov.l	302cec <_kmalloc_add_arena+0x20>,r2	! 8101648 <_arenas>
  302cce:	e0 00       	mov	#0,r0
  302cd0:	e1 08       	mov	#8,r1
  302cd2:	63 23       	mov	r2,r3
  302cd4:	67 26       	mov.l	@r2+,r7
  302cd6:	27 78       	tst	r7,r7
  302cd8:	8b 03       	bf	302ce2 <_kmalloc_add_arena+0x16>
  302cda:	40 08       	shll2	r0
  302cdc:	03 46       	mov.l	r4,@(r0,r3)
  302cde:	00 0b       	rts	
  302ce0:	e0 01       	mov	#1,r0
  302ce2:	41 10       	dt	r1
  302ce4:	8f f6       	bf.s	302cd4 <_kmalloc_add_arena+0x8>
  302ce6:	70 01       	add	#1,r0
  302ce8:	00 0b       	rts	
  302cea:	e0 00       	mov	#0,r0
  302cec:	08 10       	.word 0x0810
  302cee:	16 48       	mov.l	r4,@(32,r6)

00302cf0 <_configure>:
  302cf0:	d1 02       	mov.l	302cfc <_configure+0xc>,r1	! ff000040
  302cf2:	50 1c       	mov.l	@(48,r1),r0
  302cf4:	cb 80       	or	#128,r0
  302cf6:	11 0c       	mov.l	r0,@(48,r1)
  302cf8:	00 0b       	rts	
  302cfa:	00 09       	nop	
  302cfc:	ff 00       	.word 0xff00
  302cfe:	00 40       	.word 0x0040

00302d00 <_hsave>:
  302d00:	d1 02       	mov.l	302d0c <_hsave+0xc>,r1	! ff000040
  302d02:	52 1c       	mov.l	@(48,r1),r2
  302d04:	24 22       	mov.l	r2,@r4
  302d06:	51 1e       	mov.l	@(56,r1),r1
  302d08:	00 0b       	rts	
  302d0a:	14 11       	mov.l	r1,@(4,r4)
  302d0c:	ff 00       	.word 0xff00
  302d0e:	00 40       	.word 0x0040

00302d10 <_hrestore>:
  302d10:	62 42       	mov.l	@r4,r2
  302d12:	d1 03       	mov.l	302d20 <_hrestore+0x10>,r1	! ff000040
  302d14:	11 2c       	mov.l	r2,@(48,r1)
  302d16:	52 41       	mov.l	@(4,r4),r2
  302d18:	11 2e       	mov.l	r2,@(56,r1)
  302d1a:	00 0b       	rts	
  302d1c:	00 09       	nop	
  302d1e:	00 09       	nop	
  302d20:	ff 00       	.word 0xff00
  302d22:	00 40       	.word 0x0040

00302d24 <_mmu_is_rom>:
  302d24:	d1 06       	mov.l	302d40 <_mmu_is_rom+0x1c>,r1	! d8000000
  302d26:	d2 07       	mov.l	302d44 <_mmu_is_rom+0x20>,r2	! 80000000
  302d28:	21 49       	and	r4,r1
  302d2a:	31 20       	cmp/eq	r2,r1
  302d2c:	8d 06       	bt.s	302d3c <_mmu_is_rom+0x18>
  302d2e:	e0 01       	mov	#1,r0
  302d30:	d1 05       	mov.l	302d48 <_mmu_is_rom+0x24>,r1	! ffd00000
  302d32:	e0 ff       	mov	#-1,r0
  302d34:	34 1c       	add	r1,r4
  302d36:	d1 05       	mov.l	302d4c <_mmu_is_rom+0x28>,r1	! 4fffff
  302d38:	34 16       	cmp/hi	r1,r4
  302d3a:	60 0a       	negc	r0,r0
  302d3c:	00 0b       	rts	
  302d3e:	00 09       	nop	
  302d40:	d8 00       	mov.l	302d44 <_mmu_is_rom+0x20>,r8	! 80000000
  302d42:	00 00       	.word 0x0000
  302d44:	80 00       	mov.b	r0,@(0,r0)
  302d46:	00 00       	.word 0x0000
  302d48:	ff d0       	.word 0xffd0
  302d4a:	00 00       	.word 0x0000
  302d4c:	00 4f       	mac.l	@r4+,@r0+
  302d4e:	ff ff       	.word 0xffff

00302d50 <_utlb_addr>:
  302d50:	d1 02       	mov.l	302d5c <_utlb_addr+0xc>,r1	! f6000000
  302d52:	60 43       	mov	r4,r0
  302d54:	c9 3f       	and	#63,r0
  302d56:	40 18       	shll8	r0
  302d58:	00 0b       	rts	
  302d5a:	20 1b       	or	r1,r0
  302d5c:	f6 00       	movs.w	@-r2,0x0
	...

00302d60 <_utlb_data>:
  302d60:	d1 02       	mov.l	302d6c <_utlb_data+0xc>,r1	! f7000000
  302d62:	60 43       	mov	r4,r0
  302d64:	c9 3f       	and	#63,r0
  302d66:	40 18       	shll8	r0
  302d68:	00 0b       	rts	
  302d6a:	20 1b       	or	r1,r0
  302d6c:	f7 00       	movs.w	@-r3,0x0
	...

00302d70 <_utlb_mapped_memory>:
  302d70:	2f 86       	mov.l	r8,@-r15
  302d72:	e3 00       	mov	#0,r3
  302d74:	2f 96       	mov.l	r9,@-r15
  302d76:	e2 00       	mov	#0,r2
  302d78:	2f a6       	mov.l	r10,@-r15
  302d7a:	e7 00       	mov	#0,r7
  302d7c:	2f b6       	mov.l	r11,@-r15
  302d7e:	e6 40       	mov	#64,r6
  302d80:	2f c6       	mov.l	r12,@-r15
  302d82:	eb 01       	mov	#1,r11
  302d84:	2f d6       	mov.l	r13,@-r15
  302d86:	98 41       	mov.w	302e0c <_utlb_mapped_memory+0x9c>,r8	! 100
  302d88:	da 21       	mov.l	302e10 <_utlb_mapped_memory+0xa0>,r10	! 14100c0a
  302d8a:	dc 22       	mov.l	302e14 <_utlb_mapped_memory+0xa4>,r12	! 3fffff
  302d8c:	dd 22       	mov.l	302e18 <_utlb_mapped_memory+0xa8>,r13	! 7ffff
  302d8e:	2f e6       	mov.l	r14,@-r15
  302d90:	d1 22       	mov.l	302e1c <_utlb_mapped_memory+0xac>,r1	! f6000000
  302d92:	21 3b       	or	r3,r1
  302d94:	6e 12       	mov.l	@r1,r14
  302d96:	2e 88       	tst	r8,r14
  302d98:	89 1e       	bt	302dd8 <_utlb_mapped_memory+0x68>
  302d9a:	d1 21       	mov.l	302e20 <_utlb_mapped_memory+0xb0>,r1	! f7000000
  302d9c:	21 3b       	or	r3,r1
  302d9e:	60 12       	mov.l	@r1,r0
  302da0:	20 88       	tst	r8,r0
  302da2:	8d 19       	bt.s	302dd8 <_utlb_mapped_memory+0x68>
  302da4:	c8 80       	tst	#128,r0
  302da6:	e1 ff       	mov	#-1,r1
  302da8:	61 1a       	negc	r1,r1
  302daa:	c8 10       	tst	#16,r0
  302dac:	e0 ff       	mov	#-1,r0
  302dae:	60 0a       	negc	r0,r0
  302db0:	31 1c       	add	r1,r1
  302db2:	21 0b       	or	r0,r1
  302db4:	60 a3       	mov	r10,r0
  302db6:	41 08       	shll2	r1
  302db8:	31 1c       	add	r1,r1
  302dba:	61 1b       	neg	r1,r1
  302dbc:	40 1c       	shad	r1,r0
  302dbe:	61 0c       	extu.b	r0,r1
  302dc0:	60 b3       	mov	r11,r0
  302dc2:	40 1d       	shld	r1,r0
  302dc4:	61 e3       	mov	r14,r1
  302dc6:	41 19       	shlr8	r1
  302dc8:	de 16       	mov.l	302e24 <_utlb_mapped_memory+0xb4>,r14	! ffd00000
  302dca:	41 09       	shlr2	r1
  302dcc:	41 18       	shll8	r1
  302dce:	41 08       	shll2	r1
  302dd0:	3e 1c       	add	r1,r14
  302dd2:	3e c6       	cmp/hi	r12,r14
  302dd4:	89 14       	bt	302e00 <_utlb_mapped_memory+0x90>
  302dd6:	37 0c       	add	r0,r7
  302dd8:	91 18       	mov.w	302e0c <_utlb_mapped_memory+0x9c>,r1	! 100
  302dda:	46 10       	dt	r6
  302ddc:	8f d8       	bf.s	302d90 <_utlb_mapped_memory+0x20>
  302dde:	33 1c       	add	r1,r3
  302de0:	24 48       	tst	r4,r4
  302de2:	89 00       	bt	302de6 <_utlb_mapped_memory+0x76>
  302de4:	24 72       	mov.l	r7,@r4
  302de6:	25 58       	tst	r5,r5
  302de8:	89 00       	bt	302dec <_utlb_mapped_memory+0x7c>
  302dea:	25 22       	mov.l	r2,@r5
  302dec:	d1 0e       	mov.l	302e28 <_utlb_mapped_memory+0xb8>,r1	! 8101bb4 <_gint>
  302dee:	11 26       	mov.l	r2,@(24,r1)
  302df0:	6e f6       	mov.l	@r15+,r14
  302df2:	6d f6       	mov.l	@r15+,r13
  302df4:	6c f6       	mov.l	@r15+,r12
  302df6:	6b f6       	mov.l	@r15+,r11
  302df8:	6a f6       	mov.l	@r15+,r10
  302dfa:	69 f6       	mov.l	@r15+,r9
  302dfc:	00 0b       	rts	
  302dfe:	68 f6       	mov.l	@r15+,r8
  302e00:	d9 0a       	mov.l	302e2c <_utlb_mapped_memory+0xbc>,r9	! f7f00000
  302e02:	31 9c       	add	r9,r1
  302e04:	31 d6       	cmp/hi	r13,r1
  302e06:	89 e7       	bt	302dd8 <_utlb_mapped_memory+0x68>
  302e08:	af e6       	bra	302dd8 <_utlb_mapped_memory+0x68>
  302e0a:	32 0c       	add	r0,r2
  302e0c:	01 00       	.word 0x0100
  302e0e:	00 09       	nop	
  302e10:	14 10       	mov.l	r1,@(0,r4)
  302e12:	0c 0a       	sts	mach,r12
  302e14:	00 3f       	mac.l	@r3+,@r0+
  302e16:	ff ff       	.word 0xffff
  302e18:	00 07       	mul.l	r0,r0
  302e1a:	ff ff       	.word 0xffff
  302e1c:	f6 00       	movs.w	@-r2,0x0
  302e1e:	00 00       	.word 0x0000
  302e20:	f7 00       	movs.w	@-r3,0x0
  302e22:	00 00       	.word 0x0000
  302e24:	ff d0       	.word 0xffd0
  302e26:	00 00       	.word 0x0000
  302e28:	08 10       	.word 0x0810
  302e2a:	1b b4       	mov.l	r11,@(16,r11)
  302e2c:	f7 f0       	movs.w	@-r3,a0g
	...

00302e30 <_utlb_translate>:
  302e30:	2f 86       	mov.l	r8,@-r15
  302e32:	e2 00       	mov	#0,r2
  302e34:	d6 18       	mov.l	302e98 <_utlb_translate+0x68>,r6	! f6000000
  302e36:	e3 40       	mov	#64,r3
  302e38:	97 2d       	mov.w	302e96 <_utlb_translate+0x66>,r7	! 100
  302e3a:	d8 18       	mov.l	302e9c <_utlb_translate+0x6c>,r8	! f7000000
  302e3c:	61 23       	mov	r2,r1
  302e3e:	21 6b       	or	r6,r1
  302e40:	61 12       	mov.l	@r1,r1
  302e42:	21 78       	tst	r7,r1
  302e44:	8d 21       	bt.s	302e8a <_utlb_translate+0x5a>
  302e46:	60 23       	mov	r2,r0
  302e48:	20 8b       	or	r8,r0
  302e4a:	60 02       	mov.l	@r0,r0
  302e4c:	20 78       	tst	r7,r0
  302e4e:	8d 1c       	bt.s	302e8a <_utlb_translate+0x5a>
  302e50:	41 19       	shlr8	r1
  302e52:	41 09       	shlr2	r1
  302e54:	41 18       	shll8	r1
  302e56:	41 08       	shll2	r1
  302e58:	31 40       	cmp/eq	r4,r1
  302e5a:	8f 16       	bf.s	302e8a <_utlb_translate+0x5a>
  302e5c:	25 58       	tst	r5,r5
  302e5e:	8d 10       	bt.s	302e82 <_utlb_translate+0x52>
  302e60:	c8 80       	tst	#128,r0
  302e62:	e1 ff       	mov	#-1,r1
  302e64:	61 1a       	negc	r1,r1
  302e66:	c8 10       	tst	#16,r0
  302e68:	e2 ff       	mov	#-1,r2
  302e6a:	62 2a       	negc	r2,r2
  302e6c:	31 1c       	add	r1,r1
  302e6e:	21 2b       	or	r2,r1
  302e70:	d2 0b       	mov.l	302ea0 <_utlb_translate+0x70>,r2	! 14100c0a
  302e72:	41 08       	shll2	r1
  302e74:	31 1c       	add	r1,r1
  302e76:	61 1b       	neg	r1,r1
  302e78:	42 1c       	shad	r1,r2
  302e7a:	61 2c       	extu.b	r2,r1
  302e7c:	e2 01       	mov	#1,r2
  302e7e:	42 1d       	shld	r1,r2
  302e80:	25 22       	mov.l	r2,@r5
  302e82:	d1 08       	mov.l	302ea4 <_utlb_translate+0x74>,r1	! 1ffffc00
  302e84:	20 19       	and	r1,r0
  302e86:	00 0b       	rts	
  302e88:	68 f6       	mov.l	@r15+,r8
  302e8a:	91 04       	mov.w	302e96 <_utlb_translate+0x66>,r1	! 100
  302e8c:	43 10       	dt	r3
  302e8e:	8f d5       	bf.s	302e3c <_utlb_translate+0xc>
  302e90:	32 1c       	add	r1,r2
  302e92:	af f8       	bra	302e86 <_utlb_translate+0x56>
  302e94:	e0 ff       	mov	#-1,r0
  302e96:	01 00       	.word 0x0100
  302e98:	f6 00       	movs.w	@-r2,0x0
  302e9a:	00 00       	.word 0x0000
  302e9c:	f7 00       	movs.w	@-r3,0x0
  302e9e:	00 00       	.word 0x0000
  302ea0:	14 10       	mov.l	r1,@(0,r4)
  302ea2:	0c 0a       	sts	mach,r12
  302ea4:	1f ff       	mov.l	r15,@(60,r15)
  302ea6:	fc 00       	.word 0xfc00

00302ea8 <_mmu_translate>:
  302ea8:	d0 01       	mov.l	302eb0 <_mmu_translate+0x8>,r0	! 302e30 <_utlb_translate>
  302eaa:	40 2b       	jmp	@r0
  302eac:	00 09       	nop	
  302eae:	00 09       	nop	
  302eb0:	00 30       	.word 0x0030
  302eb2:	2e 30       	mov.b	r3,@r14

00302eb4 <_mmu_uram>:
  302eb4:	d0 04       	mov.l	302ec8 <_mmu_uram+0x14>,r0	! 302e30 <_utlb_translate>
  302eb6:	4f 22       	sts.l	pr,@-r15
  302eb8:	d4 04       	mov.l	302ecc <_mmu_uram+0x18>,r4	! 8100000
  302eba:	40 0b       	jsr	@r0
  302ebc:	e5 00       	mov	#0,r5
  302ebe:	d1 04       	mov.l	302ed0 <_mmu_uram+0x1c>,r1	! 80000000
  302ec0:	20 1b       	or	r1,r0
  302ec2:	4f 26       	lds.l	@r15+,pr
  302ec4:	00 0b       	rts	
  302ec6:	00 09       	nop	
  302ec8:	00 30       	.word 0x0030
  302eca:	2e 30       	mov.b	r3,@r14
  302ecc:	08 10       	.word 0x0810
  302ece:	00 00       	.word 0x0000
  302ed0:	80 00       	mov.b	r0,@(0,r0)
	...

00302ed4 <_mmu_uram_size>:
  302ed4:	2f 86       	mov.l	r8,@-r15
  302ed6:	e8 00       	mov	#0,r8
  302ed8:	2f 96       	mov.l	r9,@-r15
  302eda:	4f 22       	sts.l	pr,@-r15
  302edc:	d9 08       	mov.l	302f00 <_mmu_uram_size+0x2c>,r9	! 302e30 <_utlb_translate>
  302ede:	7f fc       	add	#-4,r15
  302ee0:	d4 08       	mov.l	302f04 <_mmu_uram_size+0x30>,r4	! 8100000
  302ee2:	65 f3       	mov	r15,r5
  302ee4:	49 0b       	jsr	@r9
  302ee6:	34 8c       	add	r8,r4
  302ee8:	88 ff       	cmp/eq	#-1,r0
  302eea:	8f 06       	bf.s	302efa <_mmu_uram_size+0x26>
  302eec:	61 f2       	mov.l	@r15,r1
  302eee:	60 83       	mov	r8,r0
  302ef0:	7f 04       	add	#4,r15
  302ef2:	4f 26       	lds.l	@r15+,pr
  302ef4:	69 f6       	mov.l	@r15+,r9
  302ef6:	00 0b       	rts	
  302ef8:	68 f6       	mov.l	@r15+,r8
  302efa:	af f1       	bra	302ee0 <_mmu_uram_size+0xc>
  302efc:	38 1c       	add	r1,r8
  302efe:	00 09       	nop	
  302f00:	00 30       	.word 0x0030
  302f02:	2e 30       	mov.b	r3,@r14
  302f04:	08 10       	.word 0x0810
	...

00302f08 <_dvram_init>:
  302f08:	d0 0d       	mov.l	302f40 <_dvram_init+0x38>,r0	! 3049d4 <_malloc>
  302f0a:	d4 0e       	mov.l	302f44 <_dvram_init+0x3c>,r4	! 2b560
  302f0c:	4f 22       	sts.l	pr,@-r15
  302f0e:	40 0b       	jsr	@r0
  302f10:	00 09       	nop	
  302f12:	20 08       	tst	r0,r0
  302f14:	8d 10       	bt.s	302f38 <_dvram_init+0x30>
  302f16:	e1 00       	mov	#0,r1
  302f18:	e2 e0       	mov	#-32,r2
  302f1a:	61 03       	mov	r0,r1
  302f1c:	71 1f       	add	#31,r1
  302f1e:	21 29       	and	r2,r1
  302f20:	d2 09       	mov.l	302f48 <_dvram_init+0x40>,r2	! 1fffffff
  302f22:	71 20       	add	#32,r1
  302f24:	21 29       	and	r2,r1
  302f26:	d2 09       	mov.l	302f4c <_dvram_init+0x44>,r2	! a0000000
  302f28:	21 2b       	or	r2,r1
  302f2a:	d2 09       	mov.l	302f50 <_dvram_init+0x48>,r2	! 8101670 <_vram_1>
  302f2c:	22 12       	mov.l	r1,@r2
  302f2e:	d2 09       	mov.l	302f54 <_dvram_init+0x4c>,r2	! 810166c <_vram_2>
  302f30:	22 12       	mov.l	r1,@r2
  302f32:	d2 09       	mov.l	302f58 <_dvram_init+0x50>,r2	! 8101668 <_gint_vram>
  302f34:	22 12       	mov.l	r1,@r2
  302f36:	e1 01       	mov	#1,r1
  302f38:	60 13       	mov	r1,r0
  302f3a:	4f 26       	lds.l	@r15+,pr
  302f3c:	00 0b       	rts	
  302f3e:	00 09       	nop	
  302f40:	00 30       	.word 0x0030
  302f42:	49 d4       	.word 0x49d4
  302f44:	00 02       	stc	sr,r0
  302f46:	b5 60       	bsr	303a0a <_dtext_opt+0x20e>
  302f48:	1f ff       	mov.l	r15,@(60,r15)
  302f4a:	ff ff       	.word 0xffff
  302f4c:	a0 00       	bra	302f50 <_dvram_init+0x48>
  302f4e:	00 00       	.word 0x0000
  302f50:	08 10       	.word 0x0810
  302f52:	16 70       	mov.l	r7,@(0,r6)
  302f54:	08 10       	.word 0x0810
  302f56:	16 6c       	mov.l	r6,@(48,r6)
  302f58:	08 10       	.word 0x0810
  302f5a:	16 68       	mov.l	r6,@(32,r6)

00302f5c <_dsetvram>:
  302f5c:	61 43       	mov	r4,r1
  302f5e:	21 5b       	or	r5,r1
  302f60:	21 18       	tst	r1,r1
  302f62:	8d 0e       	bt.s	302f82 <_dsetvram+0x26>
  302f64:	24 48       	tst	r4,r4
  302f66:	8d 0e       	bt.s	302f86 <_dsetvram+0x2a>
  302f68:	25 58       	tst	r5,r5
  302f6a:	8b 00       	bf	302f6e <_dsetvram+0x12>
  302f6c:	65 43       	mov	r4,r5
  302f6e:	d1 09       	mov.l	302f94 <_dsetvram+0x38>,r1	! 8101668 <_gint_vram>
  302f70:	d3 09       	mov.l	302f98 <_dsetvram+0x3c>,r3	! 8101670 <_vram_1>
  302f72:	67 12       	mov.l	@r1,r7
  302f74:	62 32       	mov.l	@r3,r2
  302f76:	37 20       	cmp/eq	r2,r7
  302f78:	d2 08       	mov.l	302f9c <_dsetvram+0x40>,r2	! 810166c <_vram_2>
  302f7a:	8b 06       	bf	302f8a <_dsetvram+0x2e>
  302f7c:	21 42       	mov.l	r4,@r1
  302f7e:	23 42       	mov.l	r4,@r3
  302f80:	22 52       	mov.l	r5,@r2
  302f82:	00 0b       	rts	
  302f84:	00 09       	nop	
  302f86:	af f2       	bra	302f6e <_dsetvram+0x12>
  302f88:	64 53       	mov	r5,r4
  302f8a:	66 22       	mov.l	@r2,r6
  302f8c:	37 60       	cmp/eq	r6,r7
  302f8e:	8b f6       	bf	302f7e <_dsetvram+0x22>
  302f90:	af f5       	bra	302f7e <_dsetvram+0x22>
  302f92:	21 52       	mov.l	r5,@r1
  302f94:	08 10       	.word 0x0810
  302f96:	16 68       	mov.l	r6,@(32,r6)
  302f98:	08 10       	.word 0x0810
  302f9a:	16 70       	mov.l	r7,@(0,r6)
  302f9c:	08 10       	.word 0x0810
  302f9e:	16 6c       	mov.l	r6,@(48,r6)

00302fa0 <_dgetvram>:
  302fa0:	24 48       	tst	r4,r4
  302fa2:	8d 03       	bt.s	302fac <_dgetvram+0xc>
  302fa4:	25 58       	tst	r5,r5
  302fa6:	d1 04       	mov.l	302fb8 <_dgetvram+0x18>,r1	! 8101670 <_vram_1>
  302fa8:	61 12       	mov.l	@r1,r1
  302faa:	24 12       	mov.l	r1,@r4
  302fac:	89 02       	bt	302fb4 <_dgetvram+0x14>
  302fae:	d1 03       	mov.l	302fbc <_dgetvram+0x1c>,r1	! 810166c <_vram_2>
  302fb0:	61 12       	mov.l	@r1,r1
  302fb2:	25 12       	mov.l	r1,@r5
  302fb4:	00 0b       	rts	
  302fb6:	00 09       	nop	
  302fb8:	08 10       	.word 0x0810
  302fba:	16 70       	mov.l	r7,@(0,r6)
  302fbc:	08 10       	.word 0x0810
  302fbe:	16 6c       	mov.l	r6,@(48,r6)

00302fc0 <_dvram_switch>:
  302fc0:	d1 04       	mov.l	302fd4 <_dvram_switch+0x14>,r1	! 8101670 <_vram_1>
  302fc2:	d2 05       	mov.l	302fd8 <_dvram_switch+0x18>,r2	! 8101668 <_gint_vram>
  302fc4:	61 12       	mov.l	@r1,r1
  302fc6:	63 22       	mov.l	@r2,r3
  302fc8:	33 10       	cmp/eq	r1,r3
  302fca:	8b 01       	bf	302fd0 <_dvram_switch+0x10>
  302fcc:	d1 03       	mov.l	302fdc <_dvram_switch+0x1c>,r1	! 810166c <_vram_2>
  302fce:	61 12       	mov.l	@r1,r1
  302fd0:	00 0b       	rts	
  302fd2:	22 12       	mov.l	r1,@r2
  302fd4:	08 10       	.word 0x0810
  302fd6:	16 70       	mov.l	r7,@(0,r6)
  302fd8:	08 10       	.word 0x0810
  302fda:	16 68       	mov.l	r6,@(32,r6)
  302fdc:	08 10       	.word 0x0810
  302fde:	16 6c       	mov.l	r6,@(48,r6)

00302fe0 <_configure>:
  302fe0:	d1 0b       	mov.l	303010 <_configure+0x30>,r1	! 3018d0 <_cpu_setVBR>
  302fe2:	2f 86       	mov.l	r8,@-r15
  302fe4:	d8 0b       	mov.l	303014 <_configure+0x34>,r8	! 8101674 <_configure_VBR>
  302fe6:	4f 22       	sts.l	pr,@-r15
  302fe8:	41 0b       	jsr	@r1
  302fea:	64 82       	mov.l	@r8,r4
  302fec:	d0 0a       	mov.l	303018 <_configure+0x38>,r0	! 3018ee <_cpu_getCPUOPM>
  302fee:	e1 00       	mov	#0,r1
  302ff0:	40 0b       	jsr	@r0
  302ff2:	28 12       	mov.l	r1,@r8
  302ff4:	d1 09       	mov.l	30301c <_configure+0x3c>,r1	! 3018dc <_cpu_setCPUOPM>
  302ff6:	e4 08       	mov	#8,r4
  302ff8:	41 0b       	jsr	@r1
  302ffa:	24 0b       	or	r0,r4
  302ffc:	d0 08       	mov.l	303020 <_configure+0x40>,r0	! 301904 <_cpu_getSR>
  302ffe:	40 0b       	jsr	@r0
  303000:	00 09       	nop	
  303002:	94 04       	mov.w	30300e <_configure+0x2e>,r4	! 1000
  303004:	d1 07       	mov.l	303024 <_configure+0x44>,r1	! 30190a <_cpu_setSR>
  303006:	24 0b       	or	r0,r4
  303008:	4f 26       	lds.l	@r15+,pr
  30300a:	41 2b       	jmp	@r1
  30300c:	68 f6       	mov.l	@r15+,r8
  30300e:	10 00       	mov.l	r0,@(0,r0)
  303010:	00 30       	.word 0x0030
  303012:	18 d0       	mov.l	r13,@(0,r8)
  303014:	08 10       	.word 0x0810
  303016:	16 74       	mov.l	r7,@(16,r6)
  303018:	00 30       	.word 0x0030
  30301a:	18 ee       	mov.l	r14,@(56,r8)
  30301c:	00 30       	.word 0x0030
  30301e:	18 dc       	mov.l	r13,@(48,r8)
  303020:	00 30       	.word 0x0030
  303022:	19 04       	mov.l	r0,@(16,r9)
  303024:	00 30       	.word 0x0030
  303026:	19 0a       	mov.l	r0,@(40,r9)

00303028 <_hrestore>:
  303028:	2f 86       	mov.l	r8,@-r15
  30302a:	68 43       	mov	r4,r8
  30302c:	d1 05       	mov.l	303044 <_hrestore+0x1c>,r1	! 3018d0 <_cpu_setVBR>
  30302e:	4f 22       	sts.l	pr,@-r15
  303030:	41 0b       	jsr	@r1
  303032:	54 41       	mov.l	@(4,r4),r4
  303034:	d1 04       	mov.l	303048 <_hrestore+0x20>,r1	! 3018dc <_cpu_setCPUOPM>
  303036:	41 0b       	jsr	@r1
  303038:	54 82       	mov.l	@(8,r8),r4
  30303a:	64 82       	mov.l	@r8,r4
  30303c:	d1 03       	mov.l	30304c <_hrestore+0x24>,r1	! 30190a <_cpu_setSR>
  30303e:	4f 26       	lds.l	@r15+,pr
  303040:	41 2b       	jmp	@r1
  303042:	68 f6       	mov.l	@r15+,r8
  303044:	00 30       	.word 0x0030
  303046:	18 d0       	mov.l	r13,@(0,r8)
  303048:	00 30       	.word 0x0030
  30304a:	18 dc       	mov.l	r13,@(48,r8)
  30304c:	00 30       	.word 0x0030
  30304e:	19 0a       	mov.l	r0,@(40,r9)

00303050 <_hsave>:
  303050:	d0 08       	mov.l	303074 <_hsave+0x24>,r0	! 3018d6 <_cpu_getVBR>
  303052:	2f 86       	mov.l	r8,@-r15
  303054:	4f 22       	sts.l	pr,@-r15
  303056:	40 0b       	jsr	@r0
  303058:	68 43       	mov	r4,r8
  30305a:	18 01       	mov.l	r0,@(4,r8)
  30305c:	d0 06       	mov.l	303078 <_hsave+0x28>,r0	! 3018ee <_cpu_getCPUOPM>
  30305e:	40 0b       	jsr	@r0
  303060:	00 09       	nop	
  303062:	18 02       	mov.l	r0,@(8,r8)
  303064:	d0 05       	mov.l	30307c <_hsave+0x2c>,r0	! 301904 <_cpu_getSR>
  303066:	40 0b       	jsr	@r0
  303068:	00 09       	nop	
  30306a:	28 02       	mov.l	r0,@r8
  30306c:	4f 26       	lds.l	@r15+,pr
  30306e:	00 0b       	rts	
  303070:	68 f6       	mov.l	@r15+,r8
  303072:	00 09       	nop	
  303074:	00 30       	.word 0x0030
  303076:	18 d6       	mov.l	r13,@(24,r8)
  303078:	00 30       	.word 0x0030
  30307a:	18 ee       	mov.l	r14,@(56,r8)
  30307c:	00 30       	.word 0x0030
  30307e:	19 04       	mov.l	r0,@(16,r9)

00303080 <_cpu_configure_VBR>:
  303080:	d1 01       	mov.l	303088 <_cpu_configure_VBR+0x8>,r1	! 8101674 <_configure_VBR>
  303082:	00 0b       	rts	
  303084:	21 42       	mov.l	r4,@r1
  303086:	00 09       	nop	
  303088:	08 10       	.word 0x0810
  30308a:	16 74       	mov.l	r7,@(16,r6)

0030308c <_gint_default_panic>:
  30308c:	2f 86       	mov.l	r8,@-r15
  30308e:	68 43       	mov	r4,r8
  303090:	2f 96       	mov.l	r9,@-r15
  303092:	e4 00       	mov	#0,r4
  303094:	2f a6       	mov.l	r10,@-r15
  303096:	2f b6       	mov.l	r11,@-r15
  303098:	2f c6       	mov.l	r12,@-r15
  30309a:	2f d6       	mov.l	r13,@-r15
  30309c:	d0 7b       	mov.l	30328c <_gint_default_panic+0x200>,r0	! 3034ac <_dfont>
  30309e:	4f 22       	sts.l	pr,@-r15
  3030a0:	0a 42       	stc	spc,r10
  3030a2:	d1 7b       	mov.l	303290 <_gint_default_panic+0x204>,r1	! ff00000c
  3030a4:	7f f0       	add	#-16,r15
  3030a6:	d9 7b       	mov.l	303294 <_gint_default_panic+0x208>,r9	! 303488 <_dtext>
  3030a8:	6d 12       	mov.l	@r1,r13
  3030aa:	5c 15       	mov.l	@(20,r1),r12
  3030ac:	40 0b       	jsr	@r0
  3030ae:	4c 09       	shlr2	r12
  3030b0:	d1 79       	mov.l	303298 <_gint_default_panic+0x20c>,r1	! 303780 <_dclear>
  3030b2:	d4 7a       	mov.l	30329c <_gint_default_panic+0x210>,r4	! ffff
  3030b4:	41 0b       	jsr	@r1
  3030b6:	00 09       	nop	
  3030b8:	d7 79       	mov.l	3032a0 <_gint_default_panic+0x214>,r7	! 306ed4
  3030ba:	e6 00       	mov	#0,r6
  3030bc:	e5 03       	mov	#3,r5
  3030be:	49 0b       	jsr	@r9
  3030c0:	e4 06       	mov	#6,r4
  3030c2:	d1 78       	mov.l	3032a4 <_gint_default_panic+0x218>,r1	! 8101668 <_gint_vram>
  3030c4:	63 12       	mov.l	@r1,r3
  3030c6:	91 cf       	mov.w	303268 <_gint_default_panic+0x1dc>,r1	! c60
  3030c8:	62 36       	mov.l	@r3+,r2
  3030ca:	67 33       	mov	r3,r7
  3030cc:	77 c0       	add	#-64,r7
  3030ce:	62 27       	not	r2,r2
  3030d0:	41 10       	dt	r1
  3030d2:	8f f9       	bf.s	3030c8 <_gint_default_panic+0x3c>
  3030d4:	17 2f       	mov.l	r2,@(60,r7)
  3030d6:	60 83       	mov	r8,r0
  3030d8:	88 40       	cmp/eq	#64,r0
  3030da:	8f 02       	bf.s	3030e2 <_gint_default_panic+0x56>
  3030dc:	88 60       	cmp/eq	#96,r0
  3030de:	a0 ae       	bra	30323e <_gint_default_panic+0x1b2>
  3030e0:	00 09       	nop	
  3030e2:	d1 71       	mov.l	3032a8 <_gint_default_panic+0x21c>,r1	! 306d90
  3030e4:	89 0c       	bt	303100 <_gint_default_panic+0x74>
  3030e6:	91 c0       	mov.w	30326a <_gint_default_panic+0x1de>,r1	! e0
  3030e8:	38 10       	cmp/eq	r1,r8
  3030ea:	d1 70       	mov.l	3032ac <_gint_default_panic+0x220>,r1	! 306db8
  3030ec:	89 0d       	bt	30310a <_gint_default_panic+0x7e>
  3030ee:	91 bd       	mov.w	30326c <_gint_default_panic+0x1e0>,r1	! 100
  3030f0:	38 10       	cmp/eq	r1,r8
  3030f2:	d1 6f       	mov.l	3032b0 <_gint_default_panic+0x224>,r1	! 306de0
  3030f4:	89 0e       	bt	303114 <_gint_default_panic+0x88>
  3030f6:	91 ba       	mov.w	30326e <_gint_default_panic+0x1e2>,r1	! 160
  3030f8:	38 10       	cmp/eq	r1,r8
  3030fa:	d1 6e       	mov.l	3032b4 <_gint_default_panic+0x228>,r1	! 306e0c
  3030fc:	89 14       	bt	303128 <_gint_default_panic+0x9c>
  3030fe:	d1 6e       	mov.l	3032b8 <_gint_default_panic+0x22c>,r1	! 306ef8
  303100:	92 b6       	mov.w	303270 <_gint_default_panic+0x1e4>,r2	! 180
  303102:	38 20       	cmp/eq	r2,r8
  303104:	8b 01       	bf	30310a <_gint_default_panic+0x7e>
  303106:	a0 9d       	bra	303244 <_gint_default_panic+0x1b8>
  303108:	00 09       	nop	
  30310a:	92 b2       	mov.w	303272 <_gint_default_panic+0x1e6>,r2	! 1a0
  30310c:	38 20       	cmp/eq	r2,r8
  30310e:	8b 01       	bf	303114 <_gint_default_panic+0x88>
  303110:	a0 9b       	bra	30324a <_gint_default_panic+0x1be>
  303112:	00 09       	nop	
  303114:	92 ae       	mov.w	303274 <_gint_default_panic+0x1e8>,r2	! 1020
  303116:	38 20       	cmp/eq	r2,r8
  303118:	8b 01       	bf	30311e <_gint_default_panic+0x92>
  30311a:	a0 99       	bra	303250 <_gint_default_panic+0x1c4>
  30311c:	00 09       	nop	
  30311e:	72 20       	add	#32,r2
  303120:	38 20       	cmp/eq	r2,r8
  303122:	8b 01       	bf	303128 <_gint_default_panic+0x9c>
  303124:	a0 97       	bra	303256 <_gint_default_panic+0x1ca>
  303126:	00 09       	nop	
  303128:	92 a5       	mov.w	303276 <_gint_default_panic+0x1ea>,r2	! 1060
  30312a:	38 20       	cmp/eq	r2,r8
  30312c:	8b 01       	bf	303132 <_gint_default_panic+0xa6>
  30312e:	a0 95       	bra	30325c <_gint_default_panic+0x1d0>
  303130:	00 09       	nop	
  303132:	92 a1       	mov.w	303278 <_gint_default_panic+0x1ec>,r2	! 1080
  303134:	38 20       	cmp/eq	r2,r8
  303136:	8b 01       	bf	30313c <_gint_default_panic+0xb0>
  303138:	a0 93       	bra	303262 <_gint_default_panic+0x1d6>
  30313a:	00 09       	nop	
  30313c:	db 5f       	mov.l	3032bc <_gint_default_panic+0x230>,r11	! 303438 <_dprint>
  30313e:	e6 00       	mov	#0,r6
  303140:	1f 11       	mov.l	r1,@(4,r15)
  303142:	e5 19       	mov	#25,r5
  303144:	d7 5e       	mov.l	3032c0 <_gint_default_panic+0x234>,r7	! 306efc
  303146:	e4 06       	mov	#6,r4
  303148:	4b 0b       	jsr	@r11
  30314a:	2f 82       	mov.l	r8,@r15
  30314c:	d7 5d       	mov.l	3032c4 <_gint_default_panic+0x238>,r7	! 306f04
  30314e:	e6 00       	mov	#0,r6
  303150:	e5 2d       	mov	#45,r5
  303152:	49 0b       	jsr	@r9
  303154:	e4 06       	mov	#6,r4
  303156:	d7 5c       	mov.l	3032c8 <_gint_default_panic+0x23c>,r7	! 306f08
  303158:	e6 00       	mov	#0,r6
  30315a:	e5 2d       	mov	#45,r5
  30315c:	2f a2       	mov.l	r10,@r15
  30315e:	4b 0b       	jsr	@r11
  303160:	e4 26       	mov	#38,r4
  303162:	d7 5a       	mov.l	3032cc <_gint_default_panic+0x240>,r7	! 306f10
  303164:	e6 00       	mov	#0,r6
  303166:	94 88       	mov.w	30327a <_gint_default_panic+0x1ee>,r4	! 105
  303168:	49 0b       	jsr	@r9
  30316a:	e5 2d       	mov	#45,r5
  30316c:	d7 58       	mov.l	3032d0 <_gint_default_panic+0x244>,r7	! 306f24
  30316e:	e6 00       	mov	#0,r6
  303170:	e5 3c       	mov	#60,r5
  303172:	49 0b       	jsr	@r9
  303174:	e4 06       	mov	#6,r4
  303176:	d7 54       	mov.l	3032c8 <_gint_default_panic+0x23c>,r7	! 306f08
  303178:	e6 00       	mov	#0,r6
  30317a:	e5 3c       	mov	#60,r5
  30317c:	2f d2       	mov.l	r13,@r15
  30317e:	4b 0b       	jsr	@r11
  303180:	e4 26       	mov	#38,r4
  303182:	d7 54       	mov.l	3032d4 <_gint_default_panic+0x248>,r7	! 306f28
  303184:	e6 00       	mov	#0,r6
  303186:	94 79       	mov.w	30327c <_gint_default_panic+0x1f0>,r4	! ea
  303188:	49 0b       	jsr	@r9
  30318a:	e5 3c       	mov	#60,r5
  30318c:	d7 52       	mov.l	3032d8 <_gint_default_panic+0x24c>,r7	! 306f3c
  30318e:	e6 00       	mov	#0,r6
  303190:	e5 4b       	mov	#75,r5
  303192:	49 0b       	jsr	@r9
  303194:	e4 06       	mov	#6,r4
  303196:	d7 51       	mov.l	3032dc <_gint_default_panic+0x250>,r7	! 306f40
  303198:	e6 00       	mov	#0,r6
  30319a:	e5 4b       	mov	#75,r5
  30319c:	2f c2       	mov.l	r12,@r15
  30319e:	4b 0b       	jsr	@r11
  3031a0:	e4 26       	mov	#38,r4
  3031a2:	d7 4f       	mov.l	3032e0 <_gint_default_panic+0x254>,r7	! 306f48
  3031a4:	e6 00       	mov	#0,r6
  3031a6:	94 6a       	mov.w	30327e <_gint_default_panic+0x1f2>,r4	! 119
  3031a8:	49 0b       	jsr	@r9
  3031aa:	e5 4b       	mov	#75,r5
  3031ac:	d7 4d       	mov.l	3032e4 <_gint_default_panic+0x258>,r7	! 306f58
  3031ae:	e6 00       	mov	#0,r6
  3031b0:	e5 5f       	mov	#95,r5
  3031b2:	49 0b       	jsr	@r9
  3031b4:	e4 06       	mov	#6,r4
  3031b6:	d7 4c       	mov.l	3032e8 <_gint_default_panic+0x25c>,r7	! 306f88
  3031b8:	e6 00       	mov	#0,r6
  3031ba:	e5 6c       	mov	#108,r5
  3031bc:	49 0b       	jsr	@r9
  3031be:	e4 06       	mov	#6,r4
  3031c0:	d7 4a       	mov.l	3032ec <_gint_default_panic+0x260>,r7	! 306fb8
  3031c2:	e6 00       	mov	#0,r6
  3031c4:	e5 79       	mov	#121,r5
  3031c6:	49 0b       	jsr	@r9
  3031c8:	e4 06       	mov	#6,r4
  3031ca:	91 53       	mov.w	303274 <_gint_default_panic+0x1e8>,r1	! 1020
  3031cc:	38 10       	cmp/eq	r1,r8
  3031ce:	89 01       	bt	3031d4 <_gint_default_panic+0x148>
  3031d0:	a0 ae       	bra	303330 <_gint_default_panic+0x2a4>
  3031d2:	00 09       	nop	
  3031d4:	d8 46       	mov.l	3032f0 <_gint_default_panic+0x264>,r8	! fe008020
  3031d6:	e6 00       	mov	#0,r6
  3031d8:	d7 46       	mov.l	3032f4 <_gint_default_panic+0x268>,r7	! 306fc4
  3031da:	e4 06       	mov	#6,r4
  3031dc:	61 82       	mov.l	@r8,r1
  3031de:	52 81       	mov.l	@(4,r8),r2
  3031e0:	53 82       	mov.l	@(8,r8),r3
  3031e2:	95 4d       	mov.w	303280 <_gint_default_panic+0x1f4>,r5	! 8d
  3031e4:	1f 32       	mov.l	r3,@(8,r15)
  3031e6:	1f 21       	mov.l	r2,@(4,r15)
  3031e8:	4b 0b       	jsr	@r11
  3031ea:	2f 12       	mov.l	r1,@r15
  3031ec:	51 83       	mov.l	@(12,r8),r1
  3031ee:	e6 00       	mov	#0,r6
  3031f0:	d7 41       	mov.l	3032f8 <_gint_default_panic+0x26c>,r7	! 306fec
  3031f2:	e4 06       	mov	#6,r4
  3031f4:	95 45       	mov.w	303282 <_gint_default_panic+0x1f6>,r5	! 9a
  3031f6:	4b 0b       	jsr	@r11
  3031f8:	2f 12       	mov.l	r1,@r15
  3031fa:	51 84       	mov.l	@(16,r8),r1
  3031fc:	e6 00       	mov	#0,r6
  3031fe:	52 85       	mov.l	@(20,r8),r2
  303200:	e4 06       	mov	#6,r4
  303202:	53 86       	mov.l	@(24,r8),r3
  303204:	d7 3d       	mov.l	3032fc <_gint_default_panic+0x270>,r7	! 306ff8
  303206:	95 3d       	mov.w	303284 <_gint_default_panic+0x1f8>,r5	! a7
  303208:	1f 32       	mov.l	r3,@(8,r15)
  30320a:	1f 21       	mov.l	r2,@(4,r15)
  30320c:	4b 0b       	jsr	@r11
  30320e:	2f 12       	mov.l	r1,@r15
  303210:	51 87       	mov.l	@(28,r8),r1
  303212:	e6 00       	mov	#0,r6
  303214:	d7 3a       	mov.l	303300 <_gint_default_panic+0x274>,r7	! 307020
  303216:	e4 06       	mov	#6,r4
  303218:	95 35       	mov.w	303286 <_gint_default_panic+0x1fa>,r5	! b4
  30321a:	4b 0b       	jsr	@r11
  30321c:	2f 12       	mov.l	r1,@r15
  30321e:	d0 39       	mov.l	303304 <_gint_default_panic+0x278>,r0	! fe008060
  303220:	e6 00       	mov	#0,r6
  303222:	d7 39       	mov.l	303308 <_gint_default_panic+0x27c>,r7	! 30702c
  303224:	e4 06       	mov	#6,r4
  303226:	85 00       	mov.w	@(0,r0),r0
  303228:	95 2e       	mov.w	303288 <_gint_default_panic+0x1fc>,r5	! c1
  30322a:	4b 0b       	jsr	@r11
  30322c:	81 f1       	mov.w	r0,@(2,r15)
  30322e:	d1 37       	mov.l	30330c <_gint_default_panic+0x280>,r1	! 30379c <_dupdate>
  303230:	d8 37       	mov.l	303310 <_gint_default_panic+0x284>,r8	! 301930 <_sleep>
  303232:	41 0b       	jsr	@r1
  303234:	00 09       	nop	
  303236:	48 0b       	jsr	@r8
  303238:	00 09       	nop	
  30323a:	af fc       	bra	303236 <_gint_default_panic+0x1aa>
  30323c:	00 09       	nop	
  30323e:	d1 35       	mov.l	303314 <_gint_default_panic+0x288>,r1	! 306d68
  303240:	af 5e       	bra	303100 <_gint_default_panic+0x74>
  303242:	00 09       	nop	
  303244:	d1 34       	mov.l	303318 <_gint_default_panic+0x28c>,r1	! 306e20
  303246:	af 74       	bra	303132 <_gint_default_panic+0xa6>
  303248:	00 09       	nop	
  30324a:	d1 34       	mov.l	30331c <_gint_default_panic+0x290>,r1	! 306e34
  30324c:	af 76       	bra	30313c <_gint_default_panic+0xb0>
  30324e:	00 09       	nop	
  303250:	d1 33       	mov.l	303320 <_gint_default_panic+0x294>,r1	! 306ec0
  303252:	af 73       	bra	30313c <_gint_default_panic+0xb0>
  303254:	00 09       	nop	
  303256:	d1 33       	mov.l	303324 <_gint_default_panic+0x298>,r1	! 306e9c
  303258:	af 70       	bra	30313c <_gint_default_panic+0xb0>
  30325a:	00 09       	nop	
  30325c:	d1 32       	mov.l	303328 <_gint_default_panic+0x29c>,r1	! 306e54
  30325e:	af 6d       	bra	30313c <_gint_default_panic+0xb0>
  303260:	00 09       	nop	
  303262:	d1 32       	mov.l	30332c <_gint_default_panic+0x2a0>,r1	! 306e78
  303264:	af 6a       	bra	30313c <_gint_default_panic+0xb0>
  303266:	00 09       	nop	
  303268:	0c 60       	.word 0x0c60
  30326a:	00 e0       	.word 0x00e0
  30326c:	01 00       	.word 0x0100
  30326e:	01 60       	.word 0x0160
  303270:	01 80       	.word 0x0180
  303272:	01 a0       	.word 0x01a0
  303274:	10 20       	mov.l	r2,@(0,r0)
  303276:	10 60       	mov.l	r6,@(0,r0)
  303278:	10 80       	mov.l	r8,@(0,r0)
  30327a:	01 05       	mov.w	r0,@(r0,r1)
  30327c:	00 ea       	.word 0x00ea
  30327e:	01 19       	.word 0x0119
  303280:	00 8d       	mov.w	@(r0,r8),r0
  303282:	00 9a       	sts	x1,r0
  303284:	00 a7       	mul.l	r10,r0
  303286:	00 b4       	mov.b	r11,@(r0,r0)
  303288:	00 c1       	.word 0x00c1
  30328a:	00 09       	nop	
  30328c:	00 30       	.word 0x0030
  30328e:	34 ac       	add	r10,r4
  303290:	ff 00       	.word 0xff00
  303292:	00 0c       	mov.b	@(r0,r0),r0
  303294:	00 30       	.word 0x0030
  303296:	34 88       	sub	r8,r4
  303298:	00 30       	.word 0x0030
  30329a:	37 80       	cmp/eq	r8,r7
  30329c:	00 00       	.word 0x0000
  30329e:	ff ff       	.word 0xffff
  3032a0:	00 30       	.word 0x0030
  3032a2:	6e d4       	mov.b	@r13+,r14
  3032a4:	08 10       	.word 0x0810
  3032a6:	16 68       	mov.l	r6,@(32,r6)
  3032a8:	00 30       	.word 0x0030
  3032aa:	6d 90       	mov.b	@r9,r13
  3032ac:	00 30       	.word 0x0030
  3032ae:	6d b8       	swap.b	r11,r13
  3032b0:	00 30       	.word 0x0030
  3032b2:	6d e0       	mov.b	@r14,r13
  3032b4:	00 30       	.word 0x0030
  3032b6:	6e 0c       	extu.b	r0,r14
  3032b8:	00 30       	.word 0x0030
  3032ba:	6e f8       	swap.b	r15,r14
  3032bc:	00 30       	.word 0x0030
  3032be:	34 38       	sub	r3,r4
  3032c0:	00 30       	.word 0x0030
  3032c2:	6e fc       	extu.b	r15,r14
  3032c4:	00 30       	.word 0x0030
  3032c6:	6f 04       	mov.b	@r0+,r15
  3032c8:	00 30       	.word 0x0030
  3032ca:	6f 08       	swap.b	r0,r15
  3032cc:	00 30       	.word 0x0030
  3032ce:	6f 10       	mov.b	@r1,r15
  3032d0:	00 30       	.word 0x0030
  3032d2:	6f 24       	mov.b	@r2+,r15
  3032d4:	00 30       	.word 0x0030
  3032d6:	6f 28       	swap.b	r2,r15
  3032d8:	00 30       	.word 0x0030
  3032da:	6f 3c       	extu.b	r3,r15
  3032dc:	00 30       	.word 0x0030
  3032de:	6f 40       	mov.b	@r4,r15
  3032e0:	00 30       	.word 0x0030
  3032e2:	6f 48       	swap.b	r4,r15
  3032e4:	00 30       	.word 0x0030
  3032e6:	6f 58       	swap.b	r5,r15
  3032e8:	00 30       	.word 0x0030
  3032ea:	6f 88       	swap.b	r8,r15
  3032ec:	00 30       	.word 0x0030
  3032ee:	6f b8       	swap.b	r11,r15
  3032f0:	fe 00       	.word 0xfe00
  3032f2:	80 20       	mov.b	r0,@(0,r2)
  3032f4:	00 30       	.word 0x0030
  3032f6:	6f c4       	mov.b	@r12+,r15
  3032f8:	00 30       	.word 0x0030
  3032fa:	6f ec       	extu.b	r14,r15
  3032fc:	00 30       	.word 0x0030
  3032fe:	6f f8       	swap.b	r15,r15
  303300:	00 30       	.word 0x0030
  303302:	70 20       	add	#32,r0
  303304:	fe 00       	.word 0xfe00
  303306:	80 60       	mov.b	r0,@(0,r6)
  303308:	00 30       	.word 0x0030
  30330a:	70 2c       	add	#44,r0
  30330c:	00 30       	.word 0x0030
  30330e:	37 9c       	add	r9,r7
  303310:	00 30       	.word 0x0030
  303312:	19 30       	mov.l	r3,@(0,r9)
  303314:	00 30       	.word 0x0030
  303316:	6d 68       	swap.b	r6,r13
  303318:	00 30       	.word 0x0030
  30331a:	6e 20       	mov.b	@r2,r14
  30331c:	00 30       	.word 0x0030
  30331e:	6e 34       	mov.b	@r3+,r14
  303320:	00 30       	.word 0x0030
  303322:	6e c0       	mov.b	@r12,r14
  303324:	00 30       	.word 0x0030
  303326:	6e 9c       	extu.b	r9,r14
  303328:	00 30       	.word 0x0030
  30332a:	6e 54       	mov.b	@r5+,r14
  30332c:	00 30       	.word 0x0030
  30332e:	6e 78       	swap.b	r7,r14
  303330:	91 15       	mov.w	30335e <_gint_default_panic+0x2d2>,r1	! 180
  303332:	38 10       	cmp/eq	r1,r8
  303334:	8f 11       	bf.s	30335a <_gint_default_panic+0x2ce>
  303336:	e6 00       	mov	#0,r6
  303338:	85 a1       	mov.w	@(2,r10),r0
  30333a:	d7 0a       	mov.l	303364 <_gint_default_panic+0x2d8>,r7	! 307038
  30333c:	e4 06       	mov	#6,r4
  30333e:	60 0d       	extu.w	r0,r0
  303340:	95 0e       	mov.w	303360 <_gint_default_panic+0x2d4>,r5	! 8d
  303342:	1f 03       	mov.l	r0,@(12,r15)
  303344:	61 a1       	mov.w	@r10,r1
  303346:	7a e0       	add	#-32,r10
  303348:	61 1d       	extu.w	r1,r1
  30334a:	1f 12       	mov.l	r1,@(8,r15)
  30334c:	85 af       	mov.w	@(30,r10),r0
  30334e:	60 0d       	extu.w	r0,r0
  303350:	1f 01       	mov.l	r0,@(4,r15)
  303352:	85 ae       	mov.w	@(28,r10),r0
  303354:	6a 0d       	extu.w	r0,r10
  303356:	4b 0b       	jsr	@r11
  303358:	2f a2       	mov.l	r10,@r15
  30335a:	af 68       	bra	30322e <_gint_default_panic+0x1a2>
  30335c:	00 09       	nop	
  30335e:	01 80       	.word 0x0180
  303360:	00 8d       	mov.w	@(r0,r8),r0
  303362:	00 09       	nop	
  303364:	00 30       	.word 0x0030
  303366:	70 38       	add	#56,r0

00303368 <_gint_panic>:
  303368:	d1 02       	mov.l	303374 <_gint_panic+0xc>,r1	! 8101a74 <_gint_exc_panic>
  30336a:	4f 22       	sts.l	pr,@-r15
  30336c:	61 12       	mov.l	@r1,r1
  30336e:	41 0b       	jsr	@r1
  303370:	00 09       	nop	
  303372:	00 09       	nop	
  303374:	08 10       	.word 0x0810
  303376:	1a 74       	mov.l	r7,@(16,r10)

00303378 <_gint_panic_set>:
  303378:	24 48       	tst	r4,r4
  30337a:	8b 00       	bf	30337e <_gint_panic_set+0x6>
  30337c:	d4 01       	mov.l	303384 <_gint_panic_set+0xc>,r4	! 30308c <_gint_default_panic>
  30337e:	d1 02       	mov.l	303388 <_gint_panic_set+0x10>,r1	! 8101a74 <_gint_exc_panic>
  303380:	00 0b       	rts	
  303382:	21 42       	mov.l	r4,@r1
  303384:	00 30       	.word 0x0030
  303386:	30 8c       	add	r8,r0
  303388:	08 10       	.word 0x0810
  30338a:	1a 74       	mov.l	r7,@(16,r10)

0030338c <_gint_exc_catch>:
  30338c:	d1 01       	mov.l	303394 <_gint_exc_catch+0x8>,r1	! 8101678 <_gint_exc_catcher>
  30338e:	00 0b       	rts	
  303390:	21 42       	mov.l	r4,@r1
  303392:	00 09       	nop	
  303394:	08 10       	.word 0x0810
  303396:	16 78       	mov.l	r7,@(32,r6)

00303398 <_gint_exc_skip>:
  303398:	34 4c       	add	r4,r4
  30339a:	01 42       	stc	spc,r1
  30339c:	34 1c       	add	r1,r4
  30339e:	44 4e       	ldc	r4,spc
  3033a0:	00 0b       	rts	
  3033a2:	00 09       	nop	

003033a4 <_osheap_free>:
  3033a4:	d1 01       	mov.l	3033ac <_osheap_free+0x8>,r1	! 301ef4 <___free>
  3033a6:	41 2b       	jmp	@r1
  3033a8:	00 09       	nop	
  3033aa:	00 09       	nop	
  3033ac:	00 30       	.word 0x0030
  3033ae:	1e f4       	mov.l	r15,@(16,r14)

003033b0 <_osheap_realloc>:
  3033b0:	d0 01       	mov.l	3033b8 <_osheap_realloc+0x8>,r0	! 301f04 <___realloc>
  3033b2:	40 2b       	jmp	@r0
  3033b4:	00 09       	nop	
  3033b6:	00 09       	nop	
  3033b8:	00 30       	.word 0x0030
  3033ba:	1f 04       	mov.l	r0,@(16,r15)

003033bc <_osheap_malloc>:
  3033bc:	d0 01       	mov.l	3033c4 <_osheap_malloc+0x8>,r0	! 301ee0 <___malloc>
  3033be:	40 2b       	jmp	@r0
  3033c0:	00 09       	nop	
  3033c2:	00 09       	nop	
  3033c4:	00 30       	.word 0x0030
  3033c6:	1e e0       	mov.l	r14,@(0,r14)

003033c8 <_dprint_opt>:
  3033c8:	2f 86       	mov.l	r8,@-r15
  3033ca:	68 43       	mov	r4,r8
  3033cc:	2f 96       	mov.l	r9,@-r15
  3033ce:	69 53       	mov	r5,r9
  3033d0:	2f a6       	mov.l	r10,@-r15
  3033d2:	6a 63       	mov	r6,r10
  3033d4:	2f b6       	mov.l	r11,@-r15
  3033d6:	6b 73       	mov	r7,r11
  3033d8:	2f c6       	mov.l	r12,@-r15
  3033da:	4f 22       	sts.l	pr,@-r15
  3033dc:	91 23       	mov.w	303426 <_dprint_opt+0x5e>,r1	! 214
  3033de:	90 23       	mov.w	303428 <_dprint_opt+0x60>,r0	! 234
  3033e0:	3f 18       	sub	r1,r15
  3033e2:	97 22       	mov.w	30342a <_dprint_opt+0x62>,r7	! 238
  3033e4:	06 fe       	mov.l	@(r0,r15),r6
  3033e6:	6c f3       	mov	r15,r12
  3033e8:	d0 11       	mov.l	303430 <_dprint_opt+0x68>,r0	! 304740 <_vsnprintf>
  3033ea:	37 fc       	add	r15,r7
  3033ec:	7c 14       	add	#20,r12
  3033ee:	1f 74       	mov.l	r7,@(16,r15)
  3033f0:	95 1c       	mov.w	30342c <_dprint_opt+0x64>,r5	! 200
  3033f2:	40 0b       	jsr	@r0
  3033f4:	64 c3       	mov	r12,r4
  3033f6:	92 1a       	mov.w	30342e <_dprint_opt+0x66>,r2	! 1fc
  3033f8:	e1 ff       	mov	#-1,r1
  3033fa:	1f 13       	mov.l	r1,@(12,r15)
  3033fc:	67 b3       	mov	r11,r7
  3033fe:	1f c2       	mov.l	r12,@(8,r15)
  303400:	32 fc       	add	r15,r2
  303402:	51 2d       	mov.l	@(52,r2),r1
  303404:	66 a3       	mov	r10,r6
  303406:	65 93       	mov	r9,r5
  303408:	1f 11       	mov.l	r1,@(4,r15)
  30340a:	51 2c       	mov.l	@(48,r2),r1
  30340c:	2f 12       	mov.l	r1,@r15
  30340e:	d1 09       	mov.l	303434 <_dprint_opt+0x6c>,r1	! 3037fc <_dtext_opt>
  303410:	41 0b       	jsr	@r1
  303412:	64 83       	mov	r8,r4
  303414:	97 07       	mov.w	303426 <_dprint_opt+0x5e>,r7	! 214
  303416:	3f 7c       	add	r7,r15
  303418:	4f 26       	lds.l	@r15+,pr
  30341a:	6c f6       	mov.l	@r15+,r12
  30341c:	6b f6       	mov.l	@r15+,r11
  30341e:	6a f6       	mov.l	@r15+,r10
  303420:	69 f6       	mov.l	@r15+,r9
  303422:	00 0b       	rts	
  303424:	68 f6       	mov.l	@r15+,r8
  303426:	02 14       	mov.b	r1,@(r0,r2)
  303428:	02 34       	mov.b	r3,@(r0,r2)
  30342a:	02 38       	.word 0x0238
  30342c:	02 00       	.word 0x0200
  30342e:	01 fc       	mov.b	@(r0,r15),r1
  303430:	00 30       	.word 0x0030
  303432:	47 40       	.word 0x4740
  303434:	00 30       	.word 0x0030
  303436:	37 fc       	add	r15,r7

00303438 <_dprint>:
  303438:	2f 86       	mov.l	r8,@-r15
  30343a:	68 43       	mov	r4,r8
  30343c:	2f 96       	mov.l	r9,@-r15
  30343e:	69 53       	mov	r5,r9
  303440:	2f a6       	mov.l	r10,@-r15
  303442:	6a 63       	mov	r6,r10
  303444:	4f 22       	sts.l	pr,@-r15
  303446:	91 18       	mov.w	30347a <_dprint+0x42>,r1	! 204
  303448:	66 73       	mov	r7,r6
  30344a:	d0 0d       	mov.l	303480 <_dprint+0x48>,r0	! 304740 <_vsnprintf>
  30344c:	3f 18       	sub	r1,r15
  30344e:	91 15       	mov.w	30347c <_dprint+0x44>,r1	! 214
  303450:	95 15       	mov.w	30347e <_dprint+0x46>,r5	! 200
  303452:	64 f3       	mov	r15,r4
  303454:	31 fc       	add	r15,r1
  303456:	2f 12       	mov.l	r1,@r15
  303458:	67 13       	mov	r1,r7
  30345a:	40 0b       	jsr	@r0
  30345c:	74 04       	add	#4,r4
  30345e:	d1 09       	mov.l	303484 <_dprint+0x4c>,r1	! 303488 <_dtext>
  303460:	67 f3       	mov	r15,r7
  303462:	66 a3       	mov	r10,r6
  303464:	77 04       	add	#4,r7
  303466:	65 93       	mov	r9,r5
  303468:	41 0b       	jsr	@r1
  30346a:	64 83       	mov	r8,r4
  30346c:	97 05       	mov.w	30347a <_dprint+0x42>,r7	! 204
  30346e:	3f 7c       	add	r7,r15
  303470:	4f 26       	lds.l	@r15+,pr
  303472:	6a f6       	mov.l	@r15+,r10
  303474:	69 f6       	mov.l	@r15+,r9
  303476:	00 0b       	rts	
  303478:	68 f6       	mov.l	@r15+,r8
  30347a:	02 04       	mov.b	r0,@(r0,r2)
  30347c:	02 14       	mov.b	r1,@(r0,r2)
  30347e:	02 00       	.word 0x0200
  303480:	00 30       	.word 0x0030
  303482:	47 40       	.word 0x4740
  303484:	00 30       	.word 0x0030
  303486:	34 88       	sub	r8,r4

00303488 <_dtext>:
  303488:	4f 22       	sts.l	pr,@-r15
  30348a:	e1 ff       	mov	#-1,r1
  30348c:	7f f0       	add	#-16,r15
  30348e:	1f 13       	mov.l	r1,@(12,r15)
  303490:	e1 00       	mov	#0,r1
  303492:	1f 11       	mov.l	r1,@(4,r15)
  303494:	2f 12       	mov.l	r1,@r15
  303496:	d1 04       	mov.l	3034a8 <_dtext+0x20>,r1	! 3037fc <_dtext_opt>
  303498:	1f 72       	mov.l	r7,@(8,r15)
  30349a:	41 0b       	jsr	@r1
  30349c:	e7 ff       	mov	#-1,r7
  30349e:	7f 10       	add	#16,r15
  3034a0:	4f 26       	lds.l	@r15+,pr
  3034a2:	00 0b       	rts	
  3034a4:	00 09       	nop	
  3034a6:	00 09       	nop	
  3034a8:	00 30       	.word 0x0030
  3034aa:	37 fc       	add	r15,r7

003034ac <_dfont>:
  3034ac:	d1 03       	mov.l	3034bc <_dfont+0x10>,r1	! 8101aac <_topti_font>
  3034ae:	24 48       	tst	r4,r4
  3034b0:	8f 02       	bf.s	3034b8 <_dfont+0xc>
  3034b2:	60 12       	mov.l	@r1,r0
  3034b4:	d2 02       	mov.l	3034c0 <_dfont+0x14>,r2	! 8101ab0 <_gint_default_font>
  3034b6:	64 22       	mov.l	@r2,r4
  3034b8:	00 0b       	rts	
  3034ba:	21 42       	mov.l	r4,@r1
  3034bc:	08 10       	.word 0x0810
  3034be:	1a ac       	mov.l	r10,@(48,r10)
  3034c0:	08 10       	.word 0x0810
  3034c2:	1a b0       	mov.l	r11,@(0,r10)

003034c4 <_dfont_default>:
  3034c4:	d1 01       	mov.l	3034cc <_dfont_default+0x8>,r1	! 8101ab0 <_gint_default_font>
  3034c6:	00 0b       	rts	
  3034c8:	60 12       	mov.l	@r1,r0
  3034ca:	00 09       	nop	
  3034cc:	08 10       	.word 0x0810
  3034ce:	1a b0       	mov.l	r11,@(0,r10)

003034d0 <_topti_glyph_index>:
  3034d0:	84 47       	mov.b	@(7,r4),r0
  3034d2:	e3 00       	mov	#0,r3
  3034d4:	96 20       	mov.w	303518 <_topti_glyph_index+0x48>,r6	! fff
  3034d6:	2f 86       	mov.l	r8,@-r15
  3034d8:	61 0c       	extu.b	r0,r1
  3034da:	2f 96       	mov.l	r9,@-r15
  3034dc:	71 01       	add	#1,r1
  3034de:	e9 00       	mov	#0,r9
  3034e0:	41 10       	dt	r1
  3034e2:	8d 13       	bt.s	30350c <_topti_glyph_index+0x3c>
  3034e4:	e0 ff       	mov	#-1,r0
  3034e6:	57 44       	mov.l	@(16,r4),r7
  3034e8:	62 33       	mov	r3,r2
  3034ea:	42 08       	shll2	r2
  3034ec:	60 23       	mov	r2,r0
  3034ee:	02 7e       	mov.l	@(r0,r7),r2
  3034f0:	e7 f4       	mov	#-12,r7
  3034f2:	68 23       	mov	r2,r8
  3034f4:	48 7d       	shld	r7,r8
  3034f6:	67 53       	mov	r5,r7
  3034f8:	37 88       	sub	r8,r7
  3034fa:	47 11       	cmp/pz	r7
  3034fc:	8f 09       	bf.s	303512 <_topti_glyph_index+0x42>
  3034fe:	22 69       	and	r6,r2
  303500:	32 77       	cmp/gt	r7,r2
  303502:	8f 07       	bf.s	303514 <_topti_glyph_index+0x44>
  303504:	39 2c       	add	r2,r9
  303506:	39 28       	sub	r2,r9
  303508:	60 93       	mov	r9,r0
  30350a:	30 7c       	add	r7,r0
  30350c:	69 f6       	mov.l	@r15+,r9
  30350e:	00 0b       	rts	
  303510:	68 f6       	mov.l	@r15+,r8
  303512:	39 2c       	add	r2,r9
  303514:	af e4       	bra	3034e0 <_topti_glyph_index+0x10>
  303516:	73 01       	add	#1,r3
  303518:	0f ff       	mac.l	@r15+,@r15+

0030351a <_topti_offset>:
  30351a:	84 44       	mov.b	@(4,r4),r0
  30351c:	c8 01       	tst	#1,r0
  30351e:	8f 07       	bf.s	303530 <_topti_offset+0x16>
  303520:	2f 86       	mov.l	r8,@-r15
  303522:	85 4d       	mov.w	@(26,r4),r0
  303524:	60 0d       	extu.w	r0,r0
  303526:	00 57       	mul.l	r5,r0
  303528:	02 1a       	sts	macl,r2
  30352a:	60 23       	mov	r2,r0
  30352c:	00 0b       	rts	
  30352e:	68 f6       	mov.l	@r15+,r8
  303530:	e1 f8       	mov	#-8,r1
  303532:	52 46       	mov.l	@(24,r4),r2
  303534:	21 59       	and	r5,r1
  303536:	63 53       	mov	r5,r3
  303538:	60 13       	mov	r1,r0
  30353a:	40 09       	shlr2	r0
  30353c:	02 2d       	mov.w	@(r0,r2),r2
  30353e:	33 18       	sub	r1,r3
  303540:	31 56       	cmp/hi	r5,r1
  303542:	56 47       	mov.l	@(28,r4),r6
  303544:	62 2d       	extu.w	r2,r2
  303546:	e8 fb       	mov	#-5,r8
  303548:	8d 03       	bt.s	303552 <_topti_offset+0x38>
  30354a:	73 01       	add	#1,r3
  30354c:	25 58       	tst	r5,r5
  30354e:	8f 02       	bf.s	303556 <_topti_offset+0x3c>
  303550:	43 10       	dt	r3
  303552:	e3 01       	mov	#1,r3
  303554:	43 10       	dt	r3
  303556:	8d e9       	bt.s	30352c <_topti_offset+0x12>
  303558:	60 23       	mov	r2,r0
  30355a:	60 13       	mov	r1,r0
  30355c:	07 6c       	mov.b	@(r0,r6),r7
  30355e:	84 46       	mov.b	@(6,r4),r0
  303560:	71 01       	add	#1,r1
  303562:	67 7c       	extu.b	r7,r7
  303564:	60 0c       	extu.b	r0,r0
  303566:	27 0e       	mulu.w	r0,r7
  303568:	07 1a       	sts	macl,r7
  30356a:	77 1f       	add	#31,r7
  30356c:	47 8c       	shad	r8,r7
  30356e:	af f1       	bra	303554 <_topti_offset+0x3a>
  303570:	32 7c       	add	r7,r2

00303572 <_topti_utf8_next>:
  303572:	66 42       	mov.l	@r4,r6
  303574:	e5 41       	mov	#65,r5
  303576:	97 46       	mov.w	303606 <_topti_utf8_next+0x94>,r7	! fd
  303578:	61 64       	mov.b	@r6+,r1
  30357a:	61 1c       	extu.b	r1,r1
  30357c:	60 13       	mov	r1,r0
  30357e:	ca 80       	xor	#128,r0
  303580:	30 56       	cmp/hi	r5,r0
  303582:	8f 08       	bf.s	303596 <_topti_utf8_next+0x24>
  303584:	31 76       	cmp/hi	r7,r1
  303586:	8d 06       	bt.s	303596 <_topti_utf8_next+0x24>
  303588:	62 1e       	exts.b	r1,r2
  30358a:	42 11       	cmp/pz	r2
  30358c:	8f 09       	bf.s	3035a2 <_topti_utf8_next+0x30>
  30358e:	60 13       	mov	r1,r0
  303590:	63 63       	mov	r6,r3
  303592:	00 0b       	rts	
  303594:	24 32       	mov.l	r3,@r4
  303596:	76 01       	add	#1,r6
  303598:	61 63       	mov	r6,r1
  30359a:	71 f0       	add	#-16,r1
  30359c:	84 1f       	mov.b	@(15,r1),r0
  30359e:	af ed       	bra	30357c <_topti_utf8_next+0xa>
  3035a0:	61 0c       	extu.b	r0,r1
  3035a2:	93 31       	mov.w	303608 <_topti_utf8_next+0x96>,r3	! df
  3035a4:	e0 3f       	mov	#63,r0
  3035a6:	62 60       	mov.b	@r6,r2
  3035a8:	31 36       	cmp/hi	r3,r1
  3035aa:	8d 08       	bt.s	3035be <_topti_utf8_next+0x4c>
  3035ac:	22 09       	and	r0,r2
  3035ae:	60 13       	mov	r1,r0
  3035b0:	c9 1f       	and	#31,r0
  3035b2:	40 18       	shll8	r0
  3035b4:	63 63       	mov	r6,r3
  3035b6:	40 09       	shlr2	r0
  3035b8:	73 01       	add	#1,r3
  3035ba:	af ea       	bra	303592 <_topti_utf8_next+0x20>
  3035bc:	20 2b       	or	r2,r0
  3035be:	93 24       	mov.w	30360a <_topti_utf8_next+0x98>,r3	! ef
  3035c0:	e7 3f       	mov	#63,r7
  3035c2:	84 61       	mov.b	@(1,r6),r0
  3035c4:	31 36       	cmp/hi	r3,r1
  3035c6:	27 09       	and	r0,r7
  3035c8:	8d 08       	bt.s	3035dc <_topti_utf8_next+0x6a>
  3035ca:	63 63       	mov	r6,r3
  3035cc:	e6 0c       	mov	#12,r6
  3035ce:	41 6d       	shld	r6,r1
  3035d0:	60 1d       	extu.w	r1,r0
  3035d2:	e1 06       	mov	#6,r1
  3035d4:	73 02       	add	#2,r3
  3035d6:	20 7b       	or	r7,r0
  3035d8:	af ef       	bra	3035ba <_topti_utf8_next+0x48>
  3035da:	42 1d       	shld	r1,r2
  3035dc:	95 16       	mov.w	30360c <_topti_utf8_next+0x9a>,r5	! f7
  3035de:	73 03       	add	#3,r3
  3035e0:	31 56       	cmp/hi	r5,r1
  3035e2:	8d d6       	bt.s	303592 <_topti_utf8_next+0x20>
  3035e4:	e0 20       	mov	#32,r0
  3035e6:	60 13       	mov	r1,r0
  3035e8:	c9 07       	and	#7,r0
  3035ea:	40 28       	shll16	r0
  3035ec:	40 08       	shll2	r0
  3035ee:	61 03       	mov	r0,r1
  3035f0:	84 62       	mov.b	@(2,r6),r0
  3035f2:	e6 0c       	mov	#12,r6
  3035f4:	c9 3f       	and	#63,r0
  3035f6:	21 0b       	or	r0,r1
  3035f8:	60 73       	mov	r7,r0
  3035fa:	42 6d       	shld	r6,r2
  3035fc:	21 2b       	or	r2,r1
  3035fe:	e2 06       	mov	#6,r2
  303600:	40 2d       	shld	r2,r0
  303602:	af c6       	bra	303592 <_topti_utf8_next+0x20>
  303604:	20 1b       	or	r1,r0
  303606:	00 fd       	mov.w	@(r0,r15),r0
  303608:	00 df       	mac.l	@r13+,@r0+
  30360a:	00 ef       	mac.l	@r14+,@r0+
  30360c:	00 f7       	mul.l	r15,r0

0030360e <_dnsize>:
  30360e:	2f 86       	mov.l	r8,@-r15
  303610:	26 68       	tst	r6,r6
  303612:	2f 96       	mov.l	r9,@-r15
  303614:	68 63       	mov	r6,r8
  303616:	2f a6       	mov.l	r10,@-r15
  303618:	6a 53       	mov	r5,r10
  30361a:	2f b6       	mov.l	r11,@-r15
  30361c:	6b 73       	mov	r7,r11
  30361e:	2f c6       	mov.l	r12,@-r15
  303620:	6c 43       	mov	r4,r12
  303622:	2f d6       	mov.l	r13,@-r15
  303624:	2f e6       	mov.l	r14,@-r15
  303626:	4f 22       	sts.l	pr,@-r15
  303628:	7f fc       	add	#-4,r15
  30362a:	2f 42       	mov.l	r4,@r15
  30362c:	8f 02       	bf.s	303634 <_dnsize+0x26>
  30362e:	51 f9       	mov.l	@(36,r15),r1
  303630:	d2 25       	mov.l	3036c8 <_dnsize+0xba>,r2	! 8101aac <_topti_font>
  303632:	68 22       	mov.l	@r2,r8
  303634:	21 18       	tst	r1,r1
  303636:	8d 03       	bt.s	303640 <_dnsize+0x32>
  303638:	2b b8       	tst	r11,r11
  30363a:	84 85       	mov.b	@(5,r8),r0
  30363c:	60 0c       	extu.b	r0,r0
  30363e:	21 02       	mov.l	r0,@r1
  303640:	89 1a       	bt	303678 <_dnsize+0x6a>
  303642:	84 84       	mov.b	@(4,r8),r0
  303644:	dd 21       	mov.l	3036cc <_dnsize+0xbe>,r13	! 303572 <_topti_utf8_next>
  303646:	c8 01       	tst	#1,r0
  303648:	8f 20       	bf.s	30368c <_dnsize+0x7e>
  30364a:	ee 00       	mov	#0,r14
  30364c:	e9 00       	mov	#0,r9
  30364e:	4d 0b       	jsr	@r13
  303650:	64 f3       	mov	r15,r4
  303652:	20 08       	tst	r0,r0
  303654:	8d 07       	bt.s	303666 <_dnsize+0x58>
  303656:	4a 11       	cmp/pz	r10
  303658:	8f 03       	bf.s	303662 <_dnsize+0x54>
  30365a:	61 f2       	mov.l	@r15,r1
  30365c:	31 c8       	sub	r12,r1
  30365e:	31 a7       	cmp/gt	r10,r1
  303660:	89 01       	bt	303666 <_dnsize+0x58>
  303662:	af f4       	bra	30364e <_dnsize+0x40>
  303664:	79 01       	add	#1,r9
  303666:	84 8c       	mov.b	@(12,r8),r0
  303668:	61 0c       	extu.b	r0,r1
  30366a:	85 8c       	mov.w	@(24,r8),r0
  30366c:	68 0d       	extu.w	r0,r8
  30366e:	38 1c       	add	r1,r8
  303670:	08 97       	mul.l	r9,r8
  303672:	02 1a       	sts	macl,r2
  303674:	32 18       	sub	r1,r2
  303676:	2b 22       	mov.l	r2,@r11
  303678:	7f 04       	add	#4,r15
  30367a:	4f 26       	lds.l	@r15+,pr
  30367c:	6e f6       	mov.l	@r15+,r14
  30367e:	6d f6       	mov.l	@r15+,r13
  303680:	6c f6       	mov.l	@r15+,r12
  303682:	6b f6       	mov.l	@r15+,r11
  303684:	6a f6       	mov.l	@r15+,r10
  303686:	69 f6       	mov.l	@r15+,r9
  303688:	00 0b       	rts	
  30368a:	68 f6       	mov.l	@r15+,r8
  30368c:	4d 0b       	jsr	@r13
  30368e:	64 f3       	mov	r15,r4
  303690:	20 08       	tst	r0,r0
  303692:	65 03       	mov	r0,r5
  303694:	84 8c       	mov.b	@(12,r8),r0
  303696:	8d 12       	bt.s	3036be <_dnsize+0xb0>
  303698:	69 03       	mov	r0,r9
  30369a:	4a 11       	cmp/pz	r10
  30369c:	8f 03       	bf.s	3036a6 <_dnsize+0x98>
  30369e:	62 f2       	mov.l	@r15,r2
  3036a0:	32 c8       	sub	r12,r2
  3036a2:	32 a7       	cmp/gt	r10,r2
  3036a4:	89 0b       	bt	3036be <_dnsize+0xb0>
  3036a6:	d1 0a       	mov.l	3036d0 <_dnsize+0xc2>,r1	! 3034d0 <_topti_glyph_index>
  3036a8:	41 0b       	jsr	@r1
  3036aa:	64 83       	mov	r8,r4
  3036ac:	40 11       	cmp/pz	r0
  3036ae:	8f ed       	bf.s	30368c <_dnsize+0x7e>
  3036b0:	62 9c       	extu.b	r9,r2
  3036b2:	53 87       	mov.l	@(28,r8),r3
  3036b4:	09 3c       	mov.b	@(r0,r3),r9
  3036b6:	69 9c       	extu.b	r9,r9
  3036b8:	39 2c       	add	r2,r9
  3036ba:	af e7       	bra	30368c <_dnsize+0x7e>
  3036bc:	3e 9c       	add	r9,r14
  3036be:	69 9c       	extu.b	r9,r9
  3036c0:	61 e3       	mov	r14,r1
  3036c2:	31 98       	sub	r9,r1
  3036c4:	af d8       	bra	303678 <_dnsize+0x6a>
  3036c6:	2b 12       	mov.l	r1,@r11
  3036c8:	08 10       	.word 0x0810
  3036ca:	1a ac       	mov.l	r10,@(48,r10)
  3036cc:	00 30       	.word 0x0030
  3036ce:	35 72       	cmp/hs	r7,r5
  3036d0:	00 30       	.word 0x0030
  3036d2:	34 d0       	cmp/eq	r13,r4

003036d4 <_dsize>:
  3036d4:	4f 22       	sts.l	pr,@-r15
  3036d6:	d1 05       	mov.l	3036ec <_dsize+0x18>,r1	! 30360e <_dnsize>
  3036d8:	7f fc       	add	#-4,r15
  3036da:	2f 72       	mov.l	r7,@r15
  3036dc:	67 63       	mov	r6,r7
  3036de:	66 53       	mov	r5,r6
  3036e0:	41 0b       	jsr	@r1
  3036e2:	e5 ff       	mov	#-1,r5
  3036e4:	7f 04       	add	#4,r15
  3036e6:	4f 26       	lds.l	@r15+,pr
  3036e8:	00 0b       	rts	
  3036ea:	00 09       	nop	
  3036ec:	00 30       	.word 0x0030
  3036ee:	36 0e       	addc	r0,r6

003036f0 <_drsize>:
  3036f0:	2f 86       	mov.l	r8,@-r15
  3036f2:	25 58       	tst	r5,r5
  3036f4:	2f 96       	mov.l	r9,@-r15
  3036f6:	69 53       	mov	r5,r9
  3036f8:	2f a6       	mov.l	r10,@-r15
  3036fa:	6a 43       	mov	r4,r10
  3036fc:	2f b6       	mov.l	r11,@-r15
  3036fe:	6b 73       	mov	r7,r11
  303700:	2f c6       	mov.l	r12,@-r15
  303702:	6c 63       	mov	r6,r12
  303704:	2f d6       	mov.l	r13,@-r15
  303706:	2f e6       	mov.l	r14,@-r15
  303708:	4f 22       	sts.l	pr,@-r15
  30370a:	7f fc       	add	#-4,r15
  30370c:	8f 02       	bf.s	303714 <_drsize+0x24>
  30370e:	2f 42       	mov.l	r4,@r15
  303710:	d1 18       	mov.l	303774 <_drsize+0x84>,r1	! 8101aac <_topti_font>
  303712:	69 12       	mov.l	@r1,r9
  303714:	dd 18       	mov.l	303778 <_drsize+0x88>,r13	! 303572 <_topti_utf8_next>
  303716:	de 19       	mov.l	30377c <_drsize+0x8c>,r14	! 3034d0 <_topti_glyph_index>
  303718:	a0 11       	bra	30373e <_drsize+0x4e>
  30371a:	e8 00       	mov	#0,r8
  30371c:	6a f2       	mov.l	@r15,r10
  30371e:	4d 0b       	jsr	@r13
  303720:	64 f3       	mov	r15,r4
  303722:	20 08       	tst	r0,r0
  303724:	8d 0d       	bt.s	303742 <_drsize+0x52>
  303726:	65 03       	mov	r0,r5
  303728:	48 15       	cmp/pl	r8
  30372a:	8b 02       	bf	303732 <_drsize+0x42>
  30372c:	84 9c       	mov.b	@(12,r9),r0
  30372e:	60 0c       	extu.b	r0,r0
  303730:	38 0c       	add	r0,r8
  303732:	84 94       	mov.b	@(4,r9),r0
  303734:	c8 01       	tst	#1,r0
  303736:	8b 12       	bf	30375e <_drsize+0x6e>
  303738:	85 9c       	mov.w	@(24,r9),r0
  30373a:	60 0d       	extu.w	r0,r0
  30373c:	38 0c       	add	r0,r8
  30373e:	38 c3       	cmp/ge	r12,r8
  303740:	8b ec       	bf	30371c <_drsize+0x2c>
  303742:	2b b8       	tst	r11,r11
  303744:	89 00       	bt	303748 <_drsize+0x58>
  303746:	2b 82       	mov.l	r8,@r11
  303748:	60 a3       	mov	r10,r0
  30374a:	7f 04       	add	#4,r15
  30374c:	4f 26       	lds.l	@r15+,pr
  30374e:	6e f6       	mov.l	@r15+,r14
  303750:	6d f6       	mov.l	@r15+,r13
  303752:	6c f6       	mov.l	@r15+,r12
  303754:	6b f6       	mov.l	@r15+,r11
  303756:	6a f6       	mov.l	@r15+,r10
  303758:	69 f6       	mov.l	@r15+,r9
  30375a:	00 0b       	rts	
  30375c:	68 f6       	mov.l	@r15+,r8
  30375e:	4e 0b       	jsr	@r14
  303760:	64 93       	mov	r9,r4
  303762:	40 11       	cmp/pz	r0
  303764:	8f ec       	bf.s	303740 <_drsize+0x50>
  303766:	38 c3       	cmp/ge	r12,r8
  303768:	51 97       	mov.l	@(28,r9),r1
  30376a:	01 1c       	mov.b	@(r0,r1),r1
  30376c:	61 1c       	extu.b	r1,r1
  30376e:	af e6       	bra	30373e <_drsize+0x4e>
  303770:	38 1c       	add	r1,r8
  303772:	00 09       	nop	
  303774:	08 10       	.word 0x0810
  303776:	1a ac       	mov.l	r10,@(48,r10)
  303778:	00 30       	.word 0x0030
  30377a:	35 72       	cmp/hs	r7,r5
  30377c:	00 30       	.word 0x0030
  30377e:	34 d0       	cmp/eq	r13,r4

00303780 <_dclear>:
  303780:	d1 03       	mov.l	303790 <_dclear+0x10>,r1	! 8101668 <_gint_vram>
  303782:	65 4d       	extu.w	r4,r5
  303784:	d0 03       	mov.l	303794 <_dclear+0x14>,r0	! 303a14 <_dma_memset>
  303786:	44 28       	shll16	r4
  303788:	25 4b       	or	r4,r5
  30378a:	d6 03       	mov.l	303798 <_dclear+0x18>,r6	! 2b500
  30378c:	40 2b       	jmp	@r0
  30378e:	64 12       	mov.l	@r1,r4
  303790:	08 10       	.word 0x0810
  303792:	16 68       	mov.l	r6,@(32,r6)
  303794:	00 30       	.word 0x0030
  303796:	3a 14       	div1	r1,r10
  303798:	00 02       	stc	sr,r0
  30379a:	b5 00       	bsr	30419e <_dma_setup+0x13e>

0030379c <_dupdate>:
  30379c:	4f 22       	sts.l	pr,@-r15
  30379e:	d1 12       	mov.l	3037e8 <_dupdate+0x4c>,r1	! 302fa0 <_dgetvram>
  3037a0:	7f e4       	add	#-28,r15
  3037a2:	64 f3       	mov	r15,r4
  3037a4:	65 f3       	mov	r15,r5
  3037a6:	41 0b       	jsr	@r1
  3037a8:	75 04       	add	#4,r5
  3037aa:	62 f2       	mov.l	@r15,r2
  3037ac:	e5 00       	mov	#0,r5
  3037ae:	51 f1       	mov.l	@(4,r15),r1
  3037b0:	96 18       	mov.w	3037e4 <_dupdate+0x48>,r6	! e0
  3037b2:	32 10       	cmp/eq	r1,r2
  3037b4:	d1 0d       	mov.l	3037ec <_dupdate+0x50>,r1	! 8101668 <_gint_vram>
  3037b6:	64 12       	mov.l	@r1,r4
  3037b8:	d1 0d       	mov.l	3037f0 <_dupdate+0x54>,r1	! 303cbc <_r61524_display>
  3037ba:	41 0b       	jsr	@r1
  3037bc:	07 29       	movt	r7
  3037be:	d1 0d       	mov.l	3037f4 <_dupdate+0x58>,r1	! 303a98 <_dupdate_get_hook>
  3037c0:	62 f3       	mov	r15,r2
  3037c2:	41 0b       	jsr	@r1
  3037c4:	72 08       	add	#8,r2
  3037c6:	50 f2       	mov.l	@(8,r15),r0
  3037c8:	20 08       	tst	r0,r0
  3037ca:	8d 04       	bt.s	3037d6 <_dupdate+0x3a>
  3037cc:	57 f6       	mov.l	@(24,r15),r7
  3037ce:	56 f5       	mov.l	@(20,r15),r6
  3037d0:	55 f4       	mov.l	@(16,r15),r5
  3037d2:	40 0b       	jsr	@r0
  3037d4:	54 f3       	mov.l	@(12,r15),r4
  3037d6:	d1 08       	mov.l	3037f8 <_dupdate+0x5c>,r1	! 302fc0 <_dvram_switch>
  3037d8:	41 0b       	jsr	@r1
  3037da:	00 09       	nop	
  3037dc:	7f 1c       	add	#28,r15
  3037de:	4f 26       	lds.l	@r15+,pr
  3037e0:	00 0b       	rts	
  3037e2:	00 09       	nop	
  3037e4:	00 e0       	.word 0x00e0
  3037e6:	00 09       	nop	
  3037e8:	00 30       	.word 0x0030
  3037ea:	2f a0       	mov.b	r10,@r15
  3037ec:	08 10       	.word 0x0810
  3037ee:	16 68       	mov.l	r6,@(32,r6)
  3037f0:	00 30       	.word 0x0030
  3037f2:	3c bc       	add	r11,r12
  3037f4:	00 30       	.word 0x0030
  3037f6:	3a 98       	sub	r9,r10
  3037f8:	00 30       	.word 0x0030
  3037fa:	2f c0       	mov.b	r12,@r15

003037fc <_dtext_opt>:
  3037fc:	2f 86       	mov.l	r8,@-r15
  3037fe:	e0 40       	mov	#64,r0
  303800:	2f 96       	mov.l	r9,@-r15
  303802:	2f a6       	mov.l	r10,@-r15
  303804:	6a 73       	mov	r7,r10
  303806:	2f b6       	mov.l	r11,@-r15
  303808:	6b 43       	mov	r4,r11
  30380a:	2f c6       	mov.l	r12,@-r15
  30380c:	2f d6       	mov.l	r13,@-r15
  30380e:	2f e6       	mov.l	r14,@-r15
  303810:	4f 22       	sts.l	pr,@-r15
  303812:	7f cc       	add	#-52,r15
  303814:	d9 70       	mov.l	3039d8 <_dtext_opt+0x1dc>,r9	! 8101aac <_topti_font>
  303816:	30 fc       	add	r15,r0
  303818:	1f 64       	mov.l	r6,@(16,r15)
  30381a:	5d 05       	mov.l	@(20,r0),r13
  30381c:	58 06       	mov.l	@(24,r0),r8
  30381e:	63 d3       	mov	r13,r3
  303820:	23 8b       	or	r8,r3
  303822:	23 38       	tst	r3,r3
  303824:	8d 1a       	bt.s	30385c <_dtext_opt+0x60>
  303826:	6c 53       	mov	r5,r12
  303828:	63 f3       	mov	r15,r3
  30382a:	73 30       	add	#48,r3
  30382c:	2f 32       	mov.l	r3,@r15
  30382e:	67 f3       	mov	r15,r7
  303830:	d3 6a       	mov.l	3039dc <_dtext_opt+0x1e0>,r3	! 30360e <_dnsize>
  303832:	77 2c       	add	#44,r7
  303834:	55 08       	mov.l	@(32,r0),r5
  303836:	54 07       	mov.l	@(28,r0),r4
  303838:	43 0b       	jsr	@r3
  30383a:	66 92       	mov.l	@r9,r6
  30383c:	60 d3       	mov	r13,r0
  30383e:	88 02       	cmp/eq	#2,r0
  303840:	89 01       	bt	303846 <_dtext_opt+0x4a>
  303842:	a0 80       	bra	303946 <_dtext_opt+0x14a>
  303844:	88 01       	cmp/eq	#1,r0
  303846:	53 fb       	mov.l	@(44,r15),r3
  303848:	3b 38       	sub	r3,r11
  30384a:	7b 01       	add	#1,r11
  30384c:	60 83       	mov	r8,r0
  30384e:	88 02       	cmp/eq	#2,r0
  303850:	89 01       	bt	303856 <_dtext_opt+0x5a>
  303852:	a0 7e       	bra	303952 <_dtext_opt+0x156>
  303854:	88 01       	cmp/eq	#1,r0
  303856:	53 fc       	mov.l	@(48,r15),r3
  303858:	3c 38       	sub	r3,r12
  30385a:	7c 01       	add	#1,r12
  30385c:	e0 5c       	mov	#92,r0
  30385e:	93 b6       	mov.w	3039ce <_dtext_opt+0x1d2>,r3	! 18b
  303860:	01 fe       	mov.l	@(r0,r15),r1
  303862:	3b 37       	cmp/gt	r3,r11
  303864:	69 92       	mov.l	@r9,r9
  303866:	8d 3b       	bt.s	3038e0 <_dtext_opt+0xe4>
  303868:	1f 1c       	mov.l	r1,@(48,r15)
  30386a:	93 b1       	mov.w	3039d0 <_dtext_opt+0x1d4>,r3	! df
  30386c:	3c 37       	cmp/gt	r3,r12
  30386e:	89 37       	bt	3038e0 <_dtext_opt+0xe4>
  303870:	84 96       	mov.b	@(6,r9),r0
  303872:	67 c3       	mov	r12,r7
  303874:	68 0c       	extu.b	r0,r8
  303876:	37 8c       	add	r8,r7
  303878:	47 15       	cmp/pl	r7
  30387a:	8b 31       	bf	3038e0 <_dtext_opt+0xe4>
  30387c:	73 01       	add	#1,r3
  30387e:	37 37       	cmp/gt	r3,r7
  303880:	8f 02       	bf.s	303888 <_dtext_opt+0x8c>
  303882:	e2 00       	mov	#0,r2
  303884:	68 33       	mov	r3,r8
  303886:	38 c8       	sub	r12,r8
  303888:	4c 11       	cmp/pz	r12
  30388a:	8d 04       	bt.s	303896 <_dtext_opt+0x9a>
  30388c:	1f 25       	mov.l	r2,@(20,r15)
  30388e:	61 cb       	neg	r12,r1
  303890:	38 cc       	add	r12,r8
  303892:	1f 15       	mov.l	r1,@(20,r15)
  303894:	ec 00       	mov	#0,r12
  303896:	d3 52       	mov.l	3039e0 <_dtext_opt+0x1e4>,r3	! 8101668 <_gint_vram>
  303898:	4a 11       	cmp/pz	r10
  30389a:	52 95       	mov.l	@(20,r9),r2
  30389c:	63 32       	mov.l	@r3,r3
  30389e:	1f 26       	mov.l	r2,@(24,r15)
  3038a0:	02 29       	movt	r2
  3038a2:	1f 37       	mov.l	r3,@(28,r15)
  3038a4:	93 95       	mov.w	3039d2 <_dtext_opt+0x1d6>,r3	! 318
  3038a6:	1f 2a       	mov.l	r2,@(40,r15)
  3038a8:	0c 37       	mul.l	r3,r12
  3038aa:	53 f4       	mov.l	@(16,r15),r3
  3038ac:	01 1a       	sts	macl,r1
  3038ae:	43 28       	shll16	r3
  3038b0:	23 ab       	or	r10,r3
  3038b2:	1f 18       	mov.l	r1,@(32,r15)
  3038b4:	e1 00       	mov	#0,r1
  3038b6:	1f 39       	mov.l	r3,@(36,r15)
  3038b8:	de 4a       	mov.l	3039e4 <_dtext_opt+0x1e8>,r14	! 303572 <_topti_utf8_next>
  3038ba:	dd 4b       	mov.l	3039e8 <_dtext_opt+0x1ec>,r13	! 3034d0 <_topti_glyph_index>
  3038bc:	1f 13       	mov.l	r1,@(12,r15)
  3038be:	64 f3       	mov	r15,r4
  3038c0:	4e 0b       	jsr	@r14
  3038c2:	74 30       	add	#48,r4
  3038c4:	20 08       	tst	r0,r0
  3038c6:	51 f3       	mov.l	@(12,r15),r1
  3038c8:	8d 0a       	bt.s	3038e0 <_dtext_opt+0xe4>
  3038ca:	65 03       	mov	r0,r5
  3038cc:	e0 60       	mov	#96,r0
  3038ce:	02 fe       	mov.l	@(r0,r15),r2
  3038d0:	42 11       	cmp/pz	r2
  3038d2:	8f 07       	bf.s	3038e4 <_dtext_opt+0xe8>
  3038d4:	e0 5c       	mov	#92,r0
  3038d6:	53 fc       	mov.l	@(48,r15),r3
  3038d8:	00 fe       	mov.l	@(r0,r15),r0
  3038da:	33 08       	sub	r0,r3
  3038dc:	32 33       	cmp/ge	r3,r2
  3038de:	89 01       	bt	3038e4 <_dtext_opt+0xe8>
  3038e0:	a0 8e       	bra	303a00 <_dtext_opt+0x204>
  3038e2:	00 09       	nop	
  3038e4:	1f 13       	mov.l	r1,@(12,r15)
  3038e6:	4d 0b       	jsr	@r13
  3038e8:	64 93       	mov	r9,r4
  3038ea:	40 11       	cmp/pz	r0
  3038ec:	51 f3       	mov.l	@(12,r15),r1
  3038ee:	8f e5       	bf.s	3038bc <_dtext_opt+0xc0>
  3038f0:	63 03       	mov	r0,r3
  3038f2:	84 94       	mov.b	@(4,r9),r0
  3038f4:	c8 01       	tst	#1,r0
  3038f6:	8d 32       	bt.s	30395e <_dtext_opt+0x162>
  3038f8:	60 33       	mov	r3,r0
  3038fa:	56 97       	mov.l	@(28,r9),r6
  3038fc:	0e 6c       	mov.b	@(r0,r6),r14
  3038fe:	6e ec       	extu.b	r14,r14
  303900:	21 18       	tst	r1,r1
  303902:	6d 13       	mov	r1,r13
  303904:	8d 10       	bt.s	303928 <_dtext_opt+0x12c>
  303906:	3d bc       	add	r11,r13
  303908:	51 fa       	mov.l	@(40,r15),r1
  30390a:	67 1c       	extu.b	r1,r7
  30390c:	27 78       	tst	r7,r7
  30390e:	8d 0b       	bt.s	303928 <_dtext_opt+0x12c>
  303910:	67 c3       	mov	r12,r7
  303912:	d2 36       	mov.l	3039ec <_dtext_opt+0x1f0>,r2	! 303e34 <_drect>
  303914:	37 8c       	add	r8,r7
  303916:	1f 33       	mov.l	r3,@(12,r15)
  303918:	2f a2       	mov.l	r10,@r15
  30391a:	77 ff       	add	#-1,r7
  30391c:	66 d3       	mov	r13,r6
  30391e:	65 c3       	mov	r12,r5
  303920:	76 ff       	add	#-1,r6
  303922:	42 0b       	jsr	@r2
  303924:	64 b3       	mov	r11,r4
  303926:	53 f3       	mov.l	@(12,r15),r3
  303928:	92 51       	mov.w	3039ce <_dtext_opt+0x1d2>,r2	! 18b
  30392a:	3d 27       	cmp/gt	r2,r13
  30392c:	8d 68       	bt.s	303a00 <_dtext_opt+0x204>
  30392e:	65 33       	mov	r3,r5
  303930:	d0 2f       	mov.l	3039f0 <_dtext_opt+0x1f4>,r0	! 30351a <_topti_offset>
  303932:	64 93       	mov	r9,r4
  303934:	6b e3       	mov	r14,r11
  303936:	40 0b       	jsr	@r0
  303938:	3b dc       	add	r13,r11
  30393a:	4b 15       	cmp/pl	r11
  30393c:	8d 12       	bt.s	303964 <_dtext_opt+0x168>
  30393e:	65 03       	mov	r0,r5
  303940:	84 9c       	mov.b	@(12,r9),r0
  303942:	af b9       	bra	3038b8 <_dtext_opt+0xbc>
  303944:	61 0c       	extu.b	r0,r1
  303946:	8b 02       	bf	30394e <_dtext_opt+0x152>
  303948:	53 fb       	mov.l	@(44,r15),r3
  30394a:	43 21       	shar	r3
  30394c:	3b 38       	sub	r3,r11
  30394e:	af 7e       	bra	30384e <_dtext_opt+0x52>
  303950:	60 83       	mov	r8,r0
  303952:	8f 02       	bf.s	30395a <_dtext_opt+0x15e>
  303954:	53 fc       	mov.l	@(48,r15),r3
  303956:	43 21       	shar	r3
  303958:	3c 38       	sub	r3,r12
  30395a:	af 80       	bra	30385e <_dtext_opt+0x62>
  30395c:	e0 5c       	mov	#92,r0
  30395e:	85 9c       	mov.w	@(24,r9),r0
  303960:	af ce       	bra	303900 <_dtext_opt+0x104>
  303962:	6e 0d       	extu.w	r0,r14
  303964:	4d 11       	cmp/pz	r13
  303966:	8d 24       	bt.s	3039b2 <_dtext_opt+0x1b6>
  303968:	e6 00       	mov	#0,r6
  30396a:	66 db       	neg	r13,r6
  30396c:	63 b3       	mov	r11,r3
  30396e:	97 31       	mov.w	3039d4 <_dtext_opt+0x1d8>,r7	! 18c
  303970:	64 33       	mov	r3,r4
  303972:	34 dc       	add	r13,r4
  303974:	34 77       	cmp/gt	r7,r4
  303976:	8f 02       	bf.s	30397e <_dtext_opt+0x182>
  303978:	52 f5       	mov.l	@(20,r15),r2
  30397a:	63 73       	mov	r7,r3
  30397c:	33 d8       	sub	r13,r3
  30397e:	45 08       	shll2	r5
  303980:	51 f6       	mov.l	@(24,r15),r1
  303982:	3d dc       	add	r13,r13
  303984:	0e 27       	mul.l	r2,r14
  303986:	35 1c       	add	r1,r5
  303988:	51 f8       	mov.l	@(32,r15),r1
  30398a:	54 f7       	mov.l	@(28,r15),r4
  30398c:	4a 11       	cmp/pz	r10
  30398e:	07 1a       	sts	macl,r7
  303990:	3d 1c       	add	r1,r13
  303992:	3e 38       	sub	r3,r14
  303994:	37 6c       	add	r6,r7
  303996:	36 6c       	add	r6,r6
  303998:	3d 6c       	add	r6,r13
  30399a:	8d 0c       	bt.s	3039b6 <_dtext_opt+0x1ba>
  30399c:	34 dc       	add	r13,r4
  30399e:	2f 32       	mov.l	r3,@r15
  3039a0:	56 f4       	mov.l	@(16,r15),r6
  3039a2:	d3 14       	mov.l	3039f4 <_dtext_opt+0x1f8>,r3	! 303f7e <_topti_glyph_fg>
  3039a4:	1f e1       	mov.l	r14,@(4,r15)
  3039a6:	1f 72       	mov.l	r7,@(8,r15)
  3039a8:	67 83       	mov	r8,r7
  3039aa:	43 0b       	jsr	@r3
  3039ac:	00 09       	nop	
  3039ae:	af c8       	bra	303942 <_dtext_opt+0x146>
  3039b0:	84 9c       	mov.b	@(12,r9),r0
  3039b2:	af dc       	bra	30396e <_dtext_opt+0x172>
  3039b4:	63 e3       	mov	r14,r3
  3039b6:	52 f4       	mov.l	@(16,r15),r2
  3039b8:	1f 72       	mov.l	r7,@(8,r15)
  3039ba:	67 83       	mov	r8,r7
  3039bc:	2f 32       	mov.l	r3,@r15
  3039be:	42 11       	cmp/pz	r2
  3039c0:	1f e1       	mov.l	r14,@(4,r15)
  3039c2:	d3 0d       	mov.l	3039f8 <_dtext_opt+0x1fc>,r3	! 303f40 <_topti_glyph_fg_bg>
  3039c4:	8d f1       	bt.s	3039aa <_dtext_opt+0x1ae>
  3039c6:	56 f9       	mov.l	@(36,r15),r6
  3039c8:	d3 0c       	mov.l	3039fc <_dtext_opt+0x200>,r3	! 303fb8 <_topti_glyph_bg>
  3039ca:	af ee       	bra	3039aa <_dtext_opt+0x1ae>
  3039cc:	66 a3       	mov	r10,r6
  3039ce:	01 8b       	.word 0x018b
  3039d0:	00 df       	mac.l	@r13+,@r0+
  3039d2:	03 18       	.word 0x0318
  3039d4:	01 8c       	mov.b	@(r0,r8),r1
  3039d6:	00 09       	nop	
  3039d8:	08 10       	.word 0x0810
  3039da:	1a ac       	mov.l	r10,@(48,r10)
  3039dc:	00 30       	.word 0x0030
  3039de:	36 0e       	addc	r0,r6
  3039e0:	08 10       	.word 0x0810
  3039e2:	16 68       	mov.l	r6,@(32,r6)
  3039e4:	00 30       	.word 0x0030
  3039e6:	35 72       	cmp/hs	r7,r5
  3039e8:	00 30       	.word 0x0030
  3039ea:	34 d0       	cmp/eq	r13,r4
  3039ec:	00 30       	.word 0x0030
  3039ee:	3e 34       	div1	r3,r14
  3039f0:	00 30       	.word 0x0030
  3039f2:	35 1a       	subc	r1,r5
  3039f4:	00 30       	.word 0x0030
  3039f6:	3f 7e       	addc	r7,r15
  3039f8:	00 30       	.word 0x0030
  3039fa:	3f 40       	cmp/eq	r4,r15
  3039fc:	00 30       	.word 0x0030
  3039fe:	3f b8       	sub	r11,r15
  303a00:	7f 34       	add	#52,r15
  303a02:	4f 26       	lds.l	@r15+,pr
  303a04:	6e f6       	mov.l	@r15+,r14
  303a06:	6d f6       	mov.l	@r15+,r13
  303a08:	6c f6       	mov.l	@r15+,r12
  303a0a:	6b f6       	mov.l	@r15+,r11
  303a0c:	6a f6       	mov.l	@r15+,r10
  303a0e:	69 f6       	mov.l	@r15+,r9
  303a10:	00 0b       	rts	
  303a12:	68 f6       	mov.l	@r15+,r8

00303a14 <_dma_memset>:
  303a14:	2f 86       	mov.l	r8,@-r15
  303a16:	68 43       	mov	r4,r8
  303a18:	d1 11       	mov.l	303a60 <_dma_memset+0x4c>,r1	! e5200000 <_ILbuf>
  303a1a:	4f 22       	sts.l	pr,@-r15
  303a1c:	d2 11       	mov.l	303a64 <_dma_memset+0x50>,r2	! 1e00000
  303a1e:	21 52       	mov.l	r5,@r1
  303a20:	11 51       	mov.l	r5,@(4,r1)
  303a22:	32 4c       	add	r4,r2
  303a24:	11 52       	mov.l	r5,@(8,r1)
  303a26:	11 53       	mov.l	r5,@(12,r1)
  303a28:	11 54       	mov.l	r5,@(16,r1)
  303a2a:	11 55       	mov.l	r5,@(20,r1)
  303a2c:	11 56       	mov.l	r5,@(24,r1)
  303a2e:	11 57       	mov.l	r5,@(28,r1)
  303a30:	d1 0d       	mov.l	303a68 <_dma_memset+0x54>,r1	! 1fffff
  303a32:	32 16       	cmp/hi	r1,r2
  303a34:	8f 11       	bf.s	303a5a <_dma_memset+0x46>
  303a36:	7f f4       	add	#-12,r15
  303a38:	e1 fb       	mov	#-5,r1
  303a3a:	46 1d       	shld	r1,r6
  303a3c:	e5 04       	mov	#4,r5
  303a3e:	d0 0b       	mov.l	303a6c <_dma_memset+0x58>,r0	! 304584 <_dma_transfer_sync>
  303a40:	e1 01       	mov	#1,r1
  303a42:	1f 12       	mov.l	r1,@(8,r15)
  303a44:	e1 00       	mov	#0,r1
  303a46:	d7 06       	mov.l	303a60 <_dma_memset+0x4c>,r7	! e5200000 <_ILbuf>
  303a48:	e4 01       	mov	#1,r4
  303a4a:	1f 81       	mov.l	r8,@(4,r15)
  303a4c:	40 0b       	jsr	@r0
  303a4e:	2f 12       	mov.l	r1,@r15
  303a50:	60 83       	mov	r8,r0
  303a52:	7f 0c       	add	#12,r15
  303a54:	4f 26       	lds.l	@r15+,pr
  303a56:	00 0b       	rts	
  303a58:	68 f6       	mov.l	@r15+,r8
  303a5a:	46 09       	shlr2	r6
  303a5c:	af ef       	bra	303a3e <_dma_memset+0x2a>
  303a5e:	e5 02       	mov	#2,r5
  303a60:	e5 20       	mov	#32,r5
  303a62:	00 00       	.word 0x0000
  303a64:	01 e0       	.word 0x01e0
  303a66:	00 00       	.word 0x0000
  303a68:	00 1f       	mac.l	@r1+,@r0+
  303a6a:	ff ff       	.word 0xffff
  303a6c:	00 30       	.word 0x0030
  303a6e:	45 84       	.word 0x4584

00303a70 <_dupdate_set_hook>:
  303a70:	7f f0       	add	#-16,r15
  303a72:	d0 07       	mov.l	303a90 <_dupdate_set_hook+0x20>,r0	! 3048b0 <_memcpy>
  303a74:	4f 22       	sts.l	pr,@-r15
  303a76:	1f 41       	mov.l	r4,@(4,r15)
  303a78:	1f 52       	mov.l	r5,@(8,r15)
  303a7a:	65 f3       	mov	r15,r5
  303a7c:	1f 63       	mov.l	r6,@(12,r15)
  303a7e:	75 04       	add	#4,r5
  303a80:	d4 04       	mov.l	303a94 <_dupdate_set_hook+0x24>,r4	! 810167c <_hook>
  303a82:	e6 14       	mov	#20,r6
  303a84:	40 0b       	jsr	@r0
  303a86:	1f 74       	mov.l	r7,@(16,r15)
  303a88:	4f 26       	lds.l	@r15+,pr
  303a8a:	00 0b       	rts	
  303a8c:	7f 10       	add	#16,r15
  303a8e:	00 09       	nop	
  303a90:	00 30       	.word 0x0030
  303a92:	48 b0       	.word 0x48b0
  303a94:	08 10       	.word 0x0810
  303a96:	16 7c       	mov.l	r7,@(48,r6)

00303a98 <_dupdate_get_hook>:
  303a98:	d0 04       	mov.l	303aac <_dupdate_get_hook+0x14>,r0	! 3048b0 <_memcpy>
  303a9a:	e6 14       	mov	#20,r6
  303a9c:	4f 22       	sts.l	pr,@-r15
  303a9e:	d5 04       	mov.l	303ab0 <_dupdate_get_hook+0x18>,r5	! 810167c <_hook>
  303aa0:	40 0b       	jsr	@r0
  303aa2:	64 23       	mov	r2,r4
  303aa4:	4f 26       	lds.l	@r15+,pr
  303aa6:	00 0b       	rts	
  303aa8:	00 09       	nop	
  303aaa:	00 09       	nop	
  303aac:	00 30       	.word 0x0030
  303aae:	48 b0       	.word 0x48b0
  303ab0:	08 10       	.word 0x0810
  303ab2:	16 7c       	mov.l	r7,@(48,r6)

00303ab4 <_r61524_get>:
  303ab4:	d1 07       	mov.l	303ad4 <_r61524_get+0x20>,r1	! a405013c
  303ab6:	64 4d       	extu.w	r4,r4
  303ab8:	60 10       	mov.b	@r1,r0
  303aba:	c9 ef       	and	#239,r0
  303abc:	21 00       	mov.b	r0,@r1
  303abe:	00 ab       	synco	
  303ac0:	d2 05       	mov.l	303ad8 <_r61524_get+0x24>,r2	! b4000000
  303ac2:	22 41       	mov.w	r4,@r2
  303ac4:	00 ab       	synco	
  303ac6:	60 10       	mov.b	@r1,r0
  303ac8:	cb 10       	or	#16,r0
  303aca:	21 00       	mov.b	r0,@r1
  303acc:	00 ab       	synco	
  303ace:	60 21       	mov.w	@r2,r0
  303ad0:	00 0b       	rts	
  303ad2:	60 0d       	extu.w	r0,r0
  303ad4:	a4 05       	bra	3042e2 <_dma_channel_wait+0x32>
  303ad6:	01 3c       	mov.b	@(r0,r3),r1
  303ad8:	b4 00       	bsr	3042dc <_dma_channel_wait+0x2c>
	...

00303adc <_r61524_set>:
  303adc:	d1 08       	mov.l	303b00 <_r61524_set+0x24>,r1	! a405013c
  303ade:	65 5d       	extu.w	r5,r5
  303ae0:	64 4d       	extu.w	r4,r4
  303ae2:	60 10       	mov.b	@r1,r0
  303ae4:	c9 ef       	and	#239,r0
  303ae6:	21 00       	mov.b	r0,@r1
  303ae8:	00 ab       	synco	
  303aea:	d2 06       	mov.l	303b04 <_r61524_set+0x28>,r2	! b4000000
  303aec:	22 41       	mov.w	r4,@r2
  303aee:	00 ab       	synco	
  303af0:	60 10       	mov.b	@r1,r0
  303af2:	cb 10       	or	#16,r0
  303af4:	21 00       	mov.b	r0,@r1
  303af6:	00 ab       	synco	
  303af8:	22 51       	mov.w	r5,@r2
  303afa:	00 0b       	rts	
  303afc:	00 09       	nop	
  303afe:	00 09       	nop	
  303b00:	a4 05       	bra	30430e <_dma_channel_wait+0x5e>
  303b02:	01 3c       	mov.b	@(r0,r3),r1
  303b04:	b4 00       	bsr	304308 <_dma_channel_wait+0x58>
	...

00303b08 <_r61524_win_get>:
  303b08:	d1 1d       	mov.l	303b80 <_r61524_win_get+0x78>,r1	! a405013c
  303b0a:	e3 ef       	mov	#-17,r3
  303b0c:	60 10       	mov.b	@r1,r0
  303b0e:	c9 ef       	and	#239,r0
  303b10:	21 00       	mov.b	r0,@r1
  303b12:	00 ab       	synco	
  303b14:	d2 1b       	mov.l	303b84 <_r61524_win_get+0x7c>,r2	! b4000000
  303b16:	90 2f       	mov.w	303b78 <_r61524_win_get+0x70>,r0	! 210
  303b18:	22 01       	mov.w	r0,@r2
  303b1a:	00 ab       	synco	
  303b1c:	60 10       	mov.b	@r1,r0
  303b1e:	cb 10       	or	#16,r0
  303b20:	21 00       	mov.b	r0,@r1
  303b22:	00 ab       	synco	
  303b24:	60 21       	mov.w	@r2,r0
  303b26:	24 01       	mov.w	r0,@r4
  303b28:	64 10       	mov.b	@r1,r4
  303b2a:	24 39       	and	r3,r4
  303b2c:	21 40       	mov.b	r4,@r1
  303b2e:	00 ab       	synco	
  303b30:	94 23       	mov.w	303b7a <_r61524_win_get+0x72>,r4	! 211
  303b32:	22 41       	mov.w	r4,@r2
  303b34:	00 ab       	synco	
  303b36:	60 10       	mov.b	@r1,r0
  303b38:	cb 10       	or	#16,r0
  303b3a:	21 00       	mov.b	r0,@r1
  303b3c:	00 ab       	synco	
  303b3e:	64 21       	mov.w	@r2,r4
  303b40:	25 41       	mov.w	r4,@r5
  303b42:	65 10       	mov.b	@r1,r5
  303b44:	25 39       	and	r3,r5
  303b46:	21 50       	mov.b	r5,@r1
  303b48:	00 ab       	synco	
  303b4a:	95 17       	mov.w	303b7c <_r61524_win_get+0x74>,r5	! 212
  303b4c:	22 51       	mov.w	r5,@r2
  303b4e:	00 ab       	synco	
  303b50:	60 10       	mov.b	@r1,r0
  303b52:	cb 10       	or	#16,r0
  303b54:	21 00       	mov.b	r0,@r1
  303b56:	00 ab       	synco	
  303b58:	65 21       	mov.w	@r2,r5
  303b5a:	26 51       	mov.w	r5,@r6
  303b5c:	66 10       	mov.b	@r1,r6
  303b5e:	23 69       	and	r6,r3
  303b60:	21 30       	mov.b	r3,@r1
  303b62:	00 ab       	synco	
  303b64:	93 0b       	mov.w	303b7e <_r61524_win_get+0x76>,r3	! 213
  303b66:	22 31       	mov.w	r3,@r2
  303b68:	00 ab       	synco	
  303b6a:	60 10       	mov.b	@r1,r0
  303b6c:	cb 10       	or	#16,r0
  303b6e:	21 00       	mov.b	r0,@r1
  303b70:	00 ab       	synco	
  303b72:	61 21       	mov.w	@r2,r1
  303b74:	00 0b       	rts	
  303b76:	27 11       	mov.w	r1,@r7
  303b78:	02 10       	.word 0x0210
  303b7a:	02 11       	.word 0x0211
  303b7c:	02 12       	stc	gbr,r2
  303b7e:	02 13       	.word 0x0213
  303b80:	a4 05       	bra	30438e <_configure+0x1a>
  303b82:	01 3c       	mov.b	@(r0,r3),r1
  303b84:	b4 00       	bsr	304388 <_configure+0x14>
	...

00303b88 <_hsave>:
  303b88:	d1 03       	mov.l	303b98 <_hsave+0x10>,r1	! 303b08 <_r61524_win_get>
  303b8a:	67 43       	mov	r4,r7
  303b8c:	66 43       	mov	r4,r6
  303b8e:	65 43       	mov	r4,r5
  303b90:	77 06       	add	#6,r7
  303b92:	76 04       	add	#4,r6
  303b94:	41 2b       	jmp	@r1
  303b96:	75 02       	add	#2,r5
  303b98:	00 30       	.word 0x0030
  303b9a:	3b 08       	sub	r0,r11

00303b9c <_r61524_win_set>:
  303b9c:	d1 1e       	mov.l	303c18 <_r61524_win_set+0x7c>,r1	! a405013c
  303b9e:	64 4d       	extu.w	r4,r4
  303ba0:	65 5d       	extu.w	r5,r5
  303ba2:	60 10       	mov.b	@r1,r0
  303ba4:	66 6d       	extu.w	r6,r6
  303ba6:	67 7d       	extu.w	r7,r7
  303ba8:	c9 ef       	and	#239,r0
  303baa:	e3 ef       	mov	#-17,r3
  303bac:	21 00       	mov.b	r0,@r1
  303bae:	00 ab       	synco	
  303bb0:	d2 1a       	mov.l	303c1c <_r61524_win_set+0x80>,r2	! b4000000
  303bb2:	90 2c       	mov.w	303c0e <_r61524_win_set+0x72>,r0	! 210
  303bb4:	22 01       	mov.w	r0,@r2
  303bb6:	00 ab       	synco	
  303bb8:	60 10       	mov.b	@r1,r0
  303bba:	cb 10       	or	#16,r0
  303bbc:	21 00       	mov.b	r0,@r1
  303bbe:	00 ab       	synco	
  303bc0:	22 41       	mov.w	r4,@r2
  303bc2:	64 10       	mov.b	@r1,r4
  303bc4:	24 39       	and	r3,r4
  303bc6:	21 40       	mov.b	r4,@r1
  303bc8:	00 ab       	synco	
  303bca:	94 21       	mov.w	303c10 <_r61524_win_set+0x74>,r4	! 211
  303bcc:	22 41       	mov.w	r4,@r2
  303bce:	00 ab       	synco	
  303bd0:	60 10       	mov.b	@r1,r0
  303bd2:	cb 10       	or	#16,r0
  303bd4:	21 00       	mov.b	r0,@r1
  303bd6:	00 ab       	synco	
  303bd8:	22 51       	mov.w	r5,@r2
  303bda:	65 10       	mov.b	@r1,r5
  303bdc:	25 39       	and	r3,r5
  303bde:	21 50       	mov.b	r5,@r1
  303be0:	00 ab       	synco	
  303be2:	95 16       	mov.w	303c12 <_r61524_win_set+0x76>,r5	! 212
  303be4:	22 51       	mov.w	r5,@r2
  303be6:	00 ab       	synco	
  303be8:	60 10       	mov.b	@r1,r0
  303bea:	cb 10       	or	#16,r0
  303bec:	21 00       	mov.b	r0,@r1
  303bee:	00 ab       	synco	
  303bf0:	22 61       	mov.w	r6,@r2
  303bf2:	66 10       	mov.b	@r1,r6
  303bf4:	23 69       	and	r6,r3
  303bf6:	21 30       	mov.b	r3,@r1
  303bf8:	00 ab       	synco	
  303bfa:	93 0b       	mov.w	303c14 <_r61524_win_set+0x78>,r3	! 213
  303bfc:	22 31       	mov.w	r3,@r2
  303bfe:	00 ab       	synco	
  303c00:	60 10       	mov.b	@r1,r0
  303c02:	cb 10       	or	#16,r0
  303c04:	21 00       	mov.b	r0,@r1
  303c06:	00 ab       	synco	
  303c08:	22 71       	mov.w	r7,@r2
  303c0a:	00 0b       	rts	
  303c0c:	00 09       	nop	
  303c0e:	02 10       	.word 0x0210
  303c10:	02 11       	.word 0x0211
  303c12:	02 12       	stc	gbr,r2
  303c14:	02 13       	.word 0x0213
  303c16:	00 09       	nop	
  303c18:	a4 05       	bra	304426 <_configure+0xb2>
  303c1a:	01 3c       	mov.b	@(r0,r3),r1
  303c1c:	b4 00       	bsr	304420 <_configure+0xac>
	...

00303c20 <_hrestore>:
  303c20:	85 43       	mov.w	@(6,r4),r0
  303c22:	d1 05       	mov.l	303c38 <_hrestore+0x18>,r1	! 303b9c <_r61524_win_set>
  303c24:	67 03       	mov	r0,r7
  303c26:	85 42       	mov.w	@(4,r4),r0
  303c28:	67 7d       	extu.w	r7,r7
  303c2a:	66 03       	mov	r0,r6
  303c2c:	85 41       	mov.w	@(2,r4),r0
  303c2e:	64 41       	mov.w	@r4,r4
  303c30:	66 6d       	extu.w	r6,r6
  303c32:	65 0d       	extu.w	r0,r5
  303c34:	41 2b       	jmp	@r1
  303c36:	64 4d       	extu.w	r4,r4
  303c38:	00 30       	.word 0x0030
  303c3a:	3b 9c       	add	r9,r11

00303c3c <_r61524_start_frame>:
  303c3c:	91 33       	mov.w	303ca6 <_r61524_start_frame+0x6a>,r1	! 18b
  303c3e:	67 7d       	extu.w	r7,r7
  303c40:	4f 22       	sts.l	pr,@-r15
  303c42:	62 13       	mov	r1,r2
  303c44:	31 58       	sub	r5,r1
  303c46:	32 48       	sub	r4,r2
  303c48:	64 1d       	extu.w	r1,r4
  303c4a:	d1 19       	mov.l	303cb0 <_r61524_start_frame+0x74>,r1	! 303b9c <_r61524_win_set>
  303c4c:	66 6d       	extu.w	r6,r6
  303c4e:	41 0b       	jsr	@r1
  303c50:	65 2d       	extu.w	r2,r5
  303c52:	d1 18       	mov.l	303cb4 <_r61524_start_frame+0x78>,r1	! a405013c
  303c54:	e3 ef       	mov	#-17,r3
  303c56:	60 10       	mov.b	@r1,r0
  303c58:	c9 ef       	and	#239,r0
  303c5a:	21 00       	mov.b	r0,@r1
  303c5c:	00 ab       	synco	
  303c5e:	d2 16       	mov.l	303cb8 <_r61524_start_frame+0x7c>,r2	! b4000000
  303c60:	97 22       	mov.w	303ca8 <_r61524_start_frame+0x6c>,r7	! 200
  303c62:	22 71       	mov.w	r7,@r2
  303c64:	00 ab       	synco	
  303c66:	60 10       	mov.b	@r1,r0
  303c68:	cb 10       	or	#16,r0
  303c6a:	21 00       	mov.b	r0,@r1
  303c6c:	00 ab       	synco	
  303c6e:	e6 00       	mov	#0,r6
  303c70:	22 61       	mov.w	r6,@r2
  303c72:	67 10       	mov.b	@r1,r7
  303c74:	27 39       	and	r3,r7
  303c76:	21 70       	mov.b	r7,@r1
  303c78:	00 ab       	synco	
  303c7a:	97 16       	mov.w	303caa <_r61524_start_frame+0x6e>,r7	! 201
  303c7c:	22 71       	mov.w	r7,@r2
  303c7e:	00 ab       	synco	
  303c80:	60 10       	mov.b	@r1,r0
  303c82:	cb 10       	or	#16,r0
  303c84:	21 00       	mov.b	r0,@r1
  303c86:	00 ab       	synco	
  303c88:	22 61       	mov.w	r6,@r2
  303c8a:	67 10       	mov.b	@r1,r7
  303c8c:	23 79       	and	r7,r3
  303c8e:	21 30       	mov.b	r3,@r1
  303c90:	00 ab       	synco	
  303c92:	93 0b       	mov.w	303cac <_r61524_start_frame+0x70>,r3	! 202
  303c94:	22 31       	mov.w	r3,@r2
  303c96:	00 ab       	synco	
  303c98:	60 10       	mov.b	@r1,r0
  303c9a:	cb 10       	or	#16,r0
  303c9c:	21 00       	mov.b	r0,@r1
  303c9e:	00 ab       	synco	
  303ca0:	4f 26       	lds.l	@r15+,pr
  303ca2:	00 0b       	rts	
  303ca4:	00 09       	nop	
  303ca6:	01 8b       	.word 0x018b
  303ca8:	02 00       	.word 0x0200
  303caa:	02 01       	.word 0x0201
  303cac:	02 02       	stc	sr,r2
  303cae:	00 09       	nop	
  303cb0:	00 30       	.word 0x0030
  303cb2:	3b 9c       	add	r9,r11
  303cb4:	a4 05       	bra	3044c2 <_dma_interrupt_transfer_ended+0x62>
  303cb6:	01 3c       	mov.b	@(r0,r3),r1
  303cb8:	b4 00       	bsr	3044bc <_dma_interrupt_transfer_ended+0x5c>
	...

00303cbc <_r61524_display>:
  303cbc:	2f 86       	mov.l	r8,@-r15
  303cbe:	68 63       	mov	r6,r8
  303cc0:	2f 96       	mov.l	r9,@-r15
  303cc2:	69 53       	mov	r5,r9
  303cc4:	2f a6       	mov.l	r10,@-r15
  303cc6:	6a 43       	mov	r4,r10
  303cc8:	2f b6       	mov.l	r11,@-r15
  303cca:	e4 00       	mov	#0,r4
  303ccc:	d1 2f       	mov.l	303d8c <_r61524_display+0xd0>,r1	! 304578 <_dma_transfer_wait>
  303cce:	6b 73       	mov	r7,r11
  303cd0:	4f 22       	sts.l	pr,@-r15
  303cd2:	41 0b       	jsr	@r1
  303cd4:	7f cc       	add	#-52,r15
  303cd6:	d1 2e       	mov.l	303d90 <_r61524_display+0xd4>,r1	! 303c3c <_r61524_start_frame>
  303cd8:	67 93       	mov	r9,r7
  303cda:	37 8c       	add	r8,r7
  303cdc:	95 52       	mov.w	303d84 <_r61524_display+0xc8>,r5	! 18b
  303cde:	77 ff       	add	#-1,r7
  303ce0:	66 93       	mov	r9,r6
  303ce2:	41 0b       	jsr	@r1
  303ce4:	e4 00       	mov	#0,r4
  303ce6:	60 b3       	mov	r11,r0
  303ce8:	88 02       	cmp/eq	#2,r0
  303cea:	91 4c       	mov.w	303d86 <_r61524_display+0xca>,r1	! 318
  303cec:	8f 19       	bf.s	303d22 <_r61524_display+0x66>
  303cee:	09 17       	mul.l	r1,r9
  303cf0:	92 4a       	mov.w	303d88 <_r61524_display+0xcc>,r2	! 18c
  303cf2:	d7 28       	mov.l	303d94 <_r61524_display+0xd8>,r7	! b4000000
  303cf4:	08 27       	mul.l	r2,r8
  303cf6:	03 1a       	sts	macl,r3
  303cf8:	09 17       	mul.l	r1,r9
  303cfa:	43 11       	cmp/pz	r3
  303cfc:	61 33       	mov	r3,r1
  303cfe:	71 01       	add	#1,r1
  303d00:	02 1a       	sts	macl,r2
  303d02:	32 ac       	add	r10,r2
  303d04:	89 00       	bt	303d08 <_r61524_display+0x4c>
  303d06:	e1 01       	mov	#1,r1
  303d08:	41 10       	dt	r1
  303d0a:	8b 06       	bf	303d1a <_r61524_display+0x5e>
  303d0c:	7f 34       	add	#52,r15
  303d0e:	4f 26       	lds.l	@r15+,pr
  303d10:	6b f6       	mov.l	@r15+,r11
  303d12:	6a f6       	mov.l	@r15+,r10
  303d14:	69 f6       	mov.l	@r15+,r9
  303d16:	00 0b       	rts	
  303d18:	68 f6       	mov.l	@r15+,r8
  303d1a:	63 25       	mov.w	@r2+,r3
  303d1c:	27 31       	mov.w	r3,@r7
  303d1e:	af f4       	bra	303d0a <_r61524_display+0x4e>
  303d20:	41 10       	dt	r1
  303d22:	48 21       	shar	r8
  303d24:	48 21       	shar	r8
  303d26:	01 1a       	sts	macl,r1
  303d28:	2b b8       	tst	r11,r11
  303d2a:	3a 1c       	add	r1,r10
  303d2c:	e1 63       	mov	#99,r1
  303d2e:	08 17       	mul.l	r1,r8
  303d30:	8f 1a       	bf.s	303d68 <_r61524_display+0xac>
  303d32:	08 1a       	sts	macl,r8
  303d34:	d0 18       	mov.l	303d98 <_r61524_display+0xdc>,r0	! 304970 <_memset>
  303d36:	e6 14       	mov	#20,r6
  303d38:	e5 00       	mov	#0,r5
  303d3a:	64 f3       	mov	r15,r4
  303d3c:	40 0b       	jsr	@r0
  303d3e:	74 20       	add	#32,r4
  303d40:	d0 16       	mov.l	303d9c <_r61524_display+0xe0>,r0	! 3048b0 <_memcpy>
  303d42:	e6 14       	mov	#20,r6
  303d44:	65 f3       	mov	r15,r5
  303d46:	64 f3       	mov	r15,r4
  303d48:	75 20       	add	#32,r5
  303d4a:	40 0b       	jsr	@r0
  303d4c:	74 0c       	add	#12,r4
  303d4e:	d1 11       	mov.l	303d94 <_r61524_display+0xd8>,r1	! b4000000
  303d50:	e5 04       	mov	#4,r5
  303d52:	d0 13       	mov.l	303da0 <_r61524_display+0xe4>,r0	! 304500 <_dma_transfer_async>
  303d54:	e4 00       	mov	#0,r4
  303d56:	1f 11       	mov.l	r1,@(4,r15)
  303d58:	e1 01       	mov	#1,r1
  303d5a:	1f b2       	mov.l	r11,@(8,r15)
  303d5c:	67 a3       	mov	r10,r7
  303d5e:	2f 12       	mov.l	r1,@r15
  303d60:	40 0b       	jsr	@r0
  303d62:	66 83       	mov	r8,r6
  303d64:	af d2       	bra	303d0c <_r61524_display+0x50>
  303d66:	00 09       	nop	
  303d68:	e1 00       	mov	#0,r1
  303d6a:	67 a3       	mov	r10,r7
  303d6c:	1f 12       	mov.l	r1,@(8,r15)
  303d6e:	e5 04       	mov	#4,r5
  303d70:	d1 08       	mov.l	303d94 <_r61524_display+0xd8>,r1	! b4000000
  303d72:	e4 00       	mov	#0,r4
  303d74:	1f 11       	mov.l	r1,@(4,r15)
  303d76:	e1 01       	mov	#1,r1
  303d78:	2f 12       	mov.l	r1,@r15
  303d7a:	d1 0a       	mov.l	303da4 <_r61524_display+0xe8>,r1	! 3045fc <_dma_transfer_atomic>
  303d7c:	41 0b       	jsr	@r1
  303d7e:	06 1a       	sts	macl,r6
  303d80:	af c4       	bra	303d0c <_r61524_display+0x50>
  303d82:	00 09       	nop	
  303d84:	01 8b       	.word 0x018b
  303d86:	03 18       	.word 0x0318
  303d88:	01 8c       	mov.b	@(r0,r8),r1
  303d8a:	00 09       	nop	
  303d8c:	00 30       	.word 0x0030
  303d8e:	45 78       	.word 0x4578
  303d90:	00 30       	.word 0x0030
  303d92:	3c 3c       	add	r3,r12
  303d94:	b4 00       	bsr	304598 <_dma_transfer_sync+0x14>
  303d96:	00 00       	.word 0x0000
  303d98:	00 30       	.word 0x0030
  303d9a:	49 70       	.word 0x4970
  303d9c:	00 30       	.word 0x0030
  303d9e:	48 b0       	.word 0x48b0
  303da0:	00 30       	.word 0x0030
  303da2:	45 00       	shll	r5
  303da4:	00 30       	.word 0x0030
  303da6:	45 fc       	shad	r15,r5

00303da8 <_r61524_display_rect>:
  303da8:	2f 86       	mov.l	r8,@-r15
  303daa:	68 43       	mov	r4,r8
  303dac:	2f 96       	mov.l	r9,@-r15
  303dae:	e4 00       	mov	#0,r4
  303db0:	2f a6       	mov.l	r10,@-r15
  303db2:	69 63       	mov	r6,r9
  303db4:	2f b6       	mov.l	r11,@-r15
  303db6:	6b 53       	mov	r5,r11
  303db8:	2f c6       	mov.l	r12,@-r15
  303dba:	6c 73       	mov	r7,r12
  303dbc:	d1 1a       	mov.l	303e28 <_r61524_display_rect+0x80>,r1	! 304578 <_dma_transfer_wait>
  303dbe:	4f 22       	sts.l	pr,@-r15
  303dc0:	41 0b       	jsr	@r1
  303dc2:	5a f6       	mov.l	@(24,r15),r10
  303dc4:	d1 19       	mov.l	303e2c <_r61524_display_rect+0x84>,r1	! 303c3c <_r61524_start_frame>
  303dc6:	67 a3       	mov	r10,r7
  303dc8:	65 93       	mov	r9,r5
  303dca:	64 b3       	mov	r11,r4
  303dcc:	66 c3       	mov	r12,r6
  303dce:	41 0b       	jsr	@r1
  303dd0:	39 b8       	sub	r11,r9
  303dd2:	91 27       	mov.w	303e24 <_r61524_display_rect+0x7c>,r1	! 18c
  303dd4:	64 83       	mov	r8,r4
  303dd6:	d7 16       	mov.l	303e30 <_r61524_display_rect+0x88>,r7	! b4000000
  303dd8:	0c 17       	mul.l	r1,r12
  303dda:	01 1a       	sts	macl,r1
  303ddc:	31 bc       	add	r11,r1
  303dde:	31 1c       	add	r1,r1
  303de0:	34 1c       	add	r1,r4
  303de2:	61 a3       	mov	r10,r1
  303de4:	31 c8       	sub	r12,r1
  303de6:	62 13       	mov	r1,r2
  303de8:	71 01       	add	#1,r1
  303dea:	41 11       	cmp/pz	r1
  303dec:	72 02       	add	#2,r2
  303dee:	89 00       	bt	303df2 <_r61524_display_rect+0x4a>
  303df0:	e2 01       	mov	#1,r2
  303df2:	42 10       	dt	r2
  303df4:	8d 0f       	bt.s	303e16 <_r61524_display_rect+0x6e>
  303df6:	66 93       	mov	r9,r6
  303df8:	76 01       	add	#1,r6
  303dfa:	46 11       	cmp/pz	r6
  303dfc:	61 93       	mov	r9,r1
  303dfe:	63 43       	mov	r4,r3
  303e00:	8d 04       	bt.s	303e0c <_r61524_display_rect+0x64>
  303e02:	71 02       	add	#2,r1
  303e04:	a0 02       	bra	303e0c <_r61524_display_rect+0x64>
  303e06:	e1 01       	mov	#1,r1
  303e08:	66 35       	mov.w	@r3+,r6
  303e0a:	27 61       	mov.w	r6,@r7
  303e0c:	41 10       	dt	r1
  303e0e:	8b fb       	bf	303e08 <_r61524_display_rect+0x60>
  303e10:	96 09       	mov.w	303e26 <_r61524_display_rect+0x7e>,r6	! 318
  303e12:	af ee       	bra	303df2 <_r61524_display_rect+0x4a>
  303e14:	34 6c       	add	r6,r4
  303e16:	4f 26       	lds.l	@r15+,pr
  303e18:	6c f6       	mov.l	@r15+,r12
  303e1a:	6b f6       	mov.l	@r15+,r11
  303e1c:	6a f6       	mov.l	@r15+,r10
  303e1e:	69 f6       	mov.l	@r15+,r9
  303e20:	00 0b       	rts	
  303e22:	68 f6       	mov.l	@r15+,r8
  303e24:	01 8c       	mov.b	@(r0,r8),r1
  303e26:	03 18       	.word 0x0318
  303e28:	00 30       	.word 0x0030
  303e2a:	45 78       	.word 0x4578
  303e2c:	00 30       	.word 0x0030
  303e2e:	3c 3c       	add	r3,r12
  303e30:	b4 00       	bsr	304634 <_dma_transfer_atomic+0x38>
	...

00303e34 <_drect>:
  303e34:	2f 86       	mov.l	r8,@-r15
  303e36:	2f 96       	mov.l	r9,@-r15
  303e38:	2f a6       	mov.l	r10,@-r15
  303e3a:	50 f3       	mov.l	@(12,r15),r0
  303e3c:	88 ff       	cmp/eq	#-1,r0
  303e3e:	8d 3e       	bt.s	303ebe <_drect+0x8a>
  303e40:	34 67       	cmp/gt	r6,r4
  303e42:	8f 03       	bf.s	303e4c <_drect+0x18>
  303e44:	35 77       	cmp/gt	r7,r5
  303e46:	61 43       	mov	r4,r1
  303e48:	64 63       	mov	r6,r4
  303e4a:	66 13       	mov	r1,r6
  303e4c:	8f 02       	bf.s	303e54 <_drect+0x20>
  303e4e:	61 53       	mov	r5,r1
  303e50:	65 73       	mov	r7,r5
  303e52:	67 13       	mov	r1,r7
  303e54:	91 6a       	mov.w	303f2c <_drect+0xf8>,r1	! 18b
  303e56:	34 17       	cmp/gt	r1,r4
  303e58:	89 31       	bt	303ebe <_drect+0x8a>
  303e5a:	61 63       	mov	r6,r1
  303e5c:	21 7b       	or	r7,r1
  303e5e:	41 11       	cmp/pz	r1
  303e60:	8b 2d       	bf	303ebe <_drect+0x8a>
  303e62:	91 64       	mov.w	303f2e <_drect+0xfa>,r1	! df
  303e64:	35 17       	cmp/gt	r1,r5
  303e66:	8d 2a       	bt.s	303ebe <_drect+0x8a>
  303e68:	44 11       	cmp/pz	r4
  303e6a:	89 00       	bt	303e6e <_drect+0x3a>
  303e6c:	e4 00       	mov	#0,r4
  303e6e:	91 5d       	mov.w	303f2c <_drect+0xf8>,r1	! 18b
  303e70:	36 17       	cmp/gt	r1,r6
  303e72:	8b 00       	bf	303e76 <_drect+0x42>
  303e74:	66 13       	mov	r1,r6
  303e76:	45 11       	cmp/pz	r5
  303e78:	89 00       	bt	303e7c <_drect+0x48>
  303e7a:	e5 00       	mov	#0,r5
  303e7c:	91 58       	mov.w	303f30 <_drect+0xfc>,r1	! 318
  303e7e:	05 17       	mul.l	r1,r5
  303e80:	d1 2c       	mov.l	303f34 <_drect+0x100>,r1	! 8101668 <_gint_vram>
  303e82:	02 1a       	sts	macl,r2
  303e84:	61 12       	mov.l	@r1,r1
  303e86:	31 2c       	add	r2,r1
  303e88:	92 51       	mov.w	303f2e <_drect+0xfa>,r2	! df
  303e8a:	37 27       	cmp/gt	r2,r7
  303e8c:	8b 00       	bf	303e90 <_drect+0x5c>
  303e8e:	67 23       	mov	r2,r7
  303e90:	37 58       	sub	r5,r7
  303e92:	62 43       	mov	r4,r2
  303e94:	e5 fe       	mov	#-2,r5
  303e96:	68 63       	mov	r6,r8
  303e98:	72 01       	add	#1,r2
  303e9a:	25 29       	and	r2,r5
  303e9c:	78 01       	add	#1,r8
  303e9e:	63 53       	mov	r5,r3
  303ea0:	e2 fe       	mov	#-2,r2
  303ea2:	22 89       	and	r8,r2
  303ea4:	32 58       	sub	r5,r2
  303ea6:	42 21       	shar	r2
  303ea8:	33 3c       	add	r3,r3
  303eaa:	88 fe       	cmp/eq	#-2,r0
  303eac:	77 01       	add	#1,r7
  303eae:	33 1c       	add	r1,r3
  303eb0:	34 4c       	add	r4,r4
  303eb2:	8f 08       	bf.s	303ec6 <_drect+0x92>
  303eb4:	36 6c       	add	r6,r6
  303eb6:	77 01       	add	#1,r7
  303eb8:	47 10       	dt	r7
  303eba:	8f 1b       	bf.s	303ef4 <_drect+0xc0>
  303ebc:	42 11       	cmp/pz	r2
  303ebe:	6a f6       	mov.l	@r15+,r10
  303ec0:	69 f6       	mov.l	@r15+,r9
  303ec2:	00 0b       	rts	
  303ec4:	68 f6       	mov.l	@r15+,r8
  303ec6:	68 03       	mov	r0,r8
  303ec8:	48 28       	shll16	r8
  303eca:	28 0b       	or	r0,r8
  303ecc:	6a 0d       	extu.w	r0,r10
  303ece:	77 01       	add	#1,r7
  303ed0:	47 10       	dt	r7
  303ed2:	8d f4       	bt.s	303ebe <_drect+0x8a>
  303ed4:	42 11       	cmp/pz	r2
  303ed6:	60 43       	mov	r4,r0
  303ed8:	01 a5       	mov.w	r10,@(r0,r1)
  303eda:	60 63       	mov	r6,r0
  303edc:	01 a5       	mov.w	r10,@(r0,r1)
  303ede:	65 23       	mov	r2,r5
  303ee0:	69 33       	mov	r3,r9
  303ee2:	75 01       	add	#1,r5
  303ee4:	89 00       	bt	303ee8 <_drect+0xb4>
  303ee6:	e5 01       	mov	#1,r5
  303ee8:	45 10       	dt	r5
  303eea:	8b 1c       	bf	303f26 <_drect+0xf2>
  303eec:	95 20       	mov.w	303f30 <_drect+0xfc>,r5	! 318
  303eee:	33 5c       	add	r5,r3
  303ef0:	af ee       	bra	303ed0 <_drect+0x9c>
  303ef2:	31 5c       	add	r5,r1
  303ef4:	60 43       	mov	r4,r0
  303ef6:	05 1d       	mov.w	@(r0,r1),r5
  303ef8:	65 57       	not	r5,r5
  303efa:	01 55       	mov.w	r5,@(r0,r1)
  303efc:	60 63       	mov	r6,r0
  303efe:	05 1d       	mov.w	@(r0,r1),r5
  303f00:	65 57       	not	r5,r5
  303f02:	01 55       	mov.w	r5,@(r0,r1)
  303f04:	65 23       	mov	r2,r5
  303f06:	60 33       	mov	r3,r0
  303f08:	75 01       	add	#1,r5
  303f0a:	89 00       	bt	303f0e <_drect+0xda>
  303f0c:	e5 01       	mov	#1,r5
  303f0e:	45 10       	dt	r5
  303f10:	8b 03       	bf	303f1a <_drect+0xe6>
  303f12:	90 0d       	mov.w	303f30 <_drect+0xfc>,r0	! 318
  303f14:	33 0c       	add	r0,r3
  303f16:	af cf       	bra	303eb8 <_drect+0x84>
  303f18:	31 0c       	add	r0,r1
  303f1a:	68 06       	mov.l	@r0+,r8
  303f1c:	69 03       	mov	r0,r9
  303f1e:	79 c0       	add	#-64,r9
  303f20:	68 87       	not	r8,r8
  303f22:	af f4       	bra	303f0e <_drect+0xda>
  303f24:	19 8f       	mov.l	r8,@(60,r9)
  303f26:	29 82       	mov.l	r8,@r9
  303f28:	af de       	bra	303ee8 <_drect+0xb4>
  303f2a:	79 04       	add	#4,r9
  303f2c:	01 8b       	.word 0x018b
  303f2e:	00 df       	mac.l	@r13+,@r0+
  303f30:	03 18       	.word 0x0318
  303f32:	00 09       	nop	
  303f34:	08 10       	.word 0x0810
  303f36:	16 68       	mov.l	r6,@(32,r6)
	...

00303f40 <_topti_glyph_fg_bg>:
  303f40:	2f 86       	mov.l	r8,@-r15
  303f42:	d8 2f       	mov.l	304000 <.bg_next+0x24>,r8	! 318
  303f44:	53 f1       	mov.l	@(4,r15),r3
  303f46:	43 00       	shll	r3
  303f48:	38 38       	sub	r3,r8
  303f4a:	53 f3       	mov.l	@(12,r15),r3

00303f4c <.fg_bg_y>:
  303f4c:	52 f1       	mov.l	@(4,r15),r2

00303f4e <.fg_bg_x>:
  303f4e:	60 33       	mov	r3,r0
  303f50:	e1 fb       	mov	#-5,r1
  303f52:	40 1d       	shld	r1,r0
  303f54:	40 08       	shll2	r0
  303f56:	01 5e       	mov.l	@(r0,r5),r1
  303f58:	60 33       	mov	r3,r0
  303f5a:	c9 1f       	and	#31,r0
  303f5c:	41 0d       	shld	r0,r1
  303f5e:	41 00       	shll	r1
  303f60:	8f 01       	bf.s	303f66 <.fg_bg_zero>
  303f62:	61 63       	mov	r6,r1
  303f64:	61 69       	swap.w	r6,r1

00303f66 <.fg_bg_zero>:
  303f66:	24 11       	mov.w	r1,@r4
  303f68:	74 02       	add	#2,r4
  303f6a:	42 10       	dt	r2
  303f6c:	8f ef       	bf.s	303f4e <.fg_bg_x>
  303f6e:	73 01       	add	#1,r3
  303f70:	47 10       	dt	r7
  303f72:	50 f2       	mov.l	@(8,r15),r0
  303f74:	33 0c       	add	r0,r3
  303f76:	8f e9       	bf.s	303f4c <.fg_bg_y>
  303f78:	34 8c       	add	r8,r4
  303f7a:	00 0b       	rts	
  303f7c:	68 f6       	mov.l	@r15+,r8

00303f7e <_topti_glyph_fg>:
  303f7e:	2f 86       	mov.l	r8,@-r15
  303f80:	d8 1f       	mov.l	304000 <.bg_next+0x24>,r8	! 318
  303f82:	53 f1       	mov.l	@(4,r15),r3
  303f84:	43 00       	shll	r3
  303f86:	38 38       	sub	r3,r8
  303f88:	53 f3       	mov.l	@(12,r15),r3

00303f8a <.fg_y>:
  303f8a:	52 f1       	mov.l	@(4,r15),r2

00303f8c <.fg_x>:
  303f8c:	60 33       	mov	r3,r0
  303f8e:	e1 fb       	mov	#-5,r1
  303f90:	40 1d       	shld	r1,r0
  303f92:	40 08       	shll2	r0
  303f94:	01 5e       	mov.l	@(r0,r5),r1
  303f96:	60 33       	mov	r3,r0
  303f98:	c9 1f       	and	#31,r0
  303f9a:	41 0d       	shld	r0,r1
  303f9c:	41 00       	shll	r1
  303f9e:	8b 00       	bf	303fa2 <.fg_next>
  303fa0:	24 61       	mov.w	r6,@r4

00303fa2 <.fg_next>:
  303fa2:	74 02       	add	#2,r4
  303fa4:	42 10       	dt	r2
  303fa6:	8f f1       	bf.s	303f8c <.fg_x>
  303fa8:	73 01       	add	#1,r3
  303faa:	47 10       	dt	r7
  303fac:	50 f2       	mov.l	@(8,r15),r0
  303fae:	33 0c       	add	r0,r3
  303fb0:	8f eb       	bf.s	303f8a <.fg_y>
  303fb2:	34 8c       	add	r8,r4
  303fb4:	00 0b       	rts	
  303fb6:	68 f6       	mov.l	@r15+,r8

00303fb8 <_topti_glyph_bg>:
  303fb8:	2f 86       	mov.l	r8,@-r15
  303fba:	d8 11       	mov.l	304000 <.bg_next+0x24>,r8	! 318
  303fbc:	53 f1       	mov.l	@(4,r15),r3
  303fbe:	43 00       	shll	r3
  303fc0:	38 38       	sub	r3,r8
  303fc2:	53 f3       	mov.l	@(12,r15),r3

00303fc4 <.bg_y>:
  303fc4:	52 f1       	mov.l	@(4,r15),r2

00303fc6 <.bg_x>:
  303fc6:	60 33       	mov	r3,r0
  303fc8:	e1 fb       	mov	#-5,r1
  303fca:	40 1d       	shld	r1,r0
  303fcc:	40 08       	shll2	r0
  303fce:	01 5e       	mov.l	@(r0,r5),r1
  303fd0:	60 33       	mov	r3,r0
  303fd2:	c9 1f       	and	#31,r0
  303fd4:	41 0d       	shld	r0,r1
  303fd6:	41 00       	shll	r1
  303fd8:	89 00       	bt	303fdc <.bg_next>
  303fda:	24 61       	mov.w	r6,@r4

00303fdc <.bg_next>:
  303fdc:	74 02       	add	#2,r4
  303fde:	42 10       	dt	r2
  303fe0:	8f f1       	bf.s	303fc6 <.bg_x>
  303fe2:	73 01       	add	#1,r3
  303fe4:	47 10       	dt	r7
  303fe6:	50 f2       	mov.l	@(8,r15),r0
  303fe8:	33 0c       	add	r0,r3
  303fea:	8f eb       	bf.s	303fc4 <.bg_y>
  303fec:	34 8c       	add	r8,r4
  303fee:	00 0b       	rts	
  303ff0:	68 f6       	mov.l	@r15+,r8
  303ff2:	00 09       	nop	
  303ff4:	00 09       	nop	
  303ff6:	00 09       	nop	
  303ff8:	00 09       	nop	
  303ffa:	00 09       	nop	
  303ffc:	00 09       	nop	
  303ffe:	00 09       	nop	
  304000:	00 00       	.word 0x0000
  304002:	03 18       	.word 0x0318
  304004:	00 09       	nop	
  304006:	00 09       	nop	
  304008:	00 09       	nop	
  30400a:	00 09       	nop	
  30400c:	00 09       	nop	
  30400e:	00 09       	nop	

00304010 <_dma_channel>:
  304010:	2f 86       	mov.l	r8,@-r15
  304012:	e6 18       	mov	#24,r6
  304014:	4f 22       	sts.l	pr,@-r15
  304016:	d0 08       	mov.l	304038 <_dma_channel+0x28>,r0	! 3048b0 <_memcpy>
  304018:	7f e8       	add	#-24,r15
  30401a:	68 43       	mov	r4,r8
  30401c:	d5 07       	mov.l	30403c <_dma_channel+0x2c>,r5	! 30751c
  30401e:	40 0b       	jsr	@r0
  304020:	64 f3       	mov	r15,r4
  304022:	e1 05       	mov	#5,r1
  304024:	38 16       	cmp/hi	r1,r8
  304026:	8d 03       	bt.s	304030 <_dma_channel+0x20>
  304028:	e0 00       	mov	#0,r0
  30402a:	60 83       	mov	r8,r0
  30402c:	40 08       	shll2	r0
  30402e:	00 fe       	mov.l	@(r0,r15),r0
  304030:	7f 18       	add	#24,r15
  304032:	4f 26       	lds.l	@r15+,pr
  304034:	00 0b       	rts	
  304036:	68 f6       	mov.l	@r15+,r8
  304038:	00 30       	.word 0x0030
  30403a:	48 b0       	.word 0x48b0
  30403c:	00 30       	.word 0x0030
  30403e:	75 1c       	add	#28,r5

00304040 <_dma_translate>:
  304040:	d2 04       	mov.l	304054 <_dma_translate+0x14>,r2	! 80000000
  304042:	d1 05       	mov.l	304058 <_dma_translate+0x18>,r1	! 3fffffff
  304044:	32 4c       	add	r4,r2
  304046:	32 16       	cmp/hi	r1,r2
  304048:	8d 02       	bt.s	304050 <_dma_translate+0x10>
  30404a:	60 43       	mov	r4,r0
  30404c:	d1 03       	mov.l	30405c <_dma_translate+0x1c>,r1	! 1fffffff
  30404e:	20 19       	and	r1,r0
  304050:	00 0b       	rts	
  304052:	00 09       	nop	
  304054:	80 00       	mov.b	r0,@(0,r0)
  304056:	00 00       	.word 0x0000
  304058:	3f ff       	addv	r15,r15
  30405a:	ff ff       	.word 0xffff
  30405c:	1f ff       	mov.l	r15,@(60,r15)
  30405e:	ff ff       	.word 0xffff

00304060 <_dma_setup>:
  304060:	2f 86       	mov.l	r8,@-r15
  304062:	2f 96       	mov.l	r9,@-r15
  304064:	69 53       	mov	r5,r9
  304066:	2f a6       	mov.l	r10,@-r15
  304068:	6a 43       	mov	r4,r10
  30406a:	2f b6       	mov.l	r11,@-r15
  30406c:	2f c6       	mov.l	r12,@-r15
  30406e:	2f d6       	mov.l	r13,@-r15
  304070:	6d 63       	mov	r6,r13
  304072:	2f e6       	mov.l	r14,@-r15
  304074:	6e 73       	mov	r7,r14
  304076:	d0 4b       	mov.l	3041a4 <_dma_setup+0x144>,r0	! 304010 <_dma_channel>
  304078:	4f 22       	sts.l	pr,@-r15
  30407a:	40 0b       	jsr	@r0
  30407c:	7f fc       	add	#-4,r15
  30407e:	20 08       	tst	r0,r0
  304080:	e7 01       	mov	#1,r7
  304082:	8f 02       	bf.s	30408a <_dma_setup+0x2a>
  304084:	68 03       	mov	r0,r8
  304086:	a0 80       	bra	30418a <_dma_setup+0x12a>
  304088:	00 09       	nop	
  30408a:	51 03       	mov.l	@(12,r0),r1
  30408c:	60 13       	mov	r1,r0
  30408e:	c9 01       	and	#1,r0
  304090:	2f 02       	mov.l	r0,@r15
  304092:	60 13       	mov	r1,r0
  304094:	c8 01       	tst	#1,r0
  304096:	8f 79       	bf.s	30418c <_dma_setup+0x12c>
  304098:	60 73       	mov	r7,r0
  30409a:	51 83       	mov.l	@(12,r8),r1
  30409c:	e2 fe       	mov	#-2,r2
  30409e:	db 42       	mov.l	3041a8 <_dma_setup+0x148>,r11	! fe008060
  3040a0:	64 e3       	mov	r14,r4
  3040a2:	21 29       	and	r2,r1
  3040a4:	dc 41       	mov.l	3041ac <_dma_setup+0x14c>,r12	! 304040 <_dma_translate>
  3040a6:	18 13       	mov.l	r1,@(12,r8)
  3040a8:	61 b1       	mov.w	@r11,r1
  3040aa:	21 29       	and	r2,r1
  3040ac:	2b 11       	mov.w	r1,@r11
  3040ae:	4c 0b       	jsr	@r12
  3040b0:	00 09       	nop	
  3040b2:	54 fa       	mov.l	@(40,r15),r4
  3040b4:	28 02       	mov.l	r0,@r8
  3040b6:	4c 0b       	jsr	@r12
  3040b8:	00 09       	nop	
  3040ba:	91 71       	mov.w	3041a0 <_dma_setup+0x140>,r1	! 400
  3040bc:	18 01       	mov.l	r0,@(4,r8)
  3040be:	60 93       	mov	r9,r0
  3040c0:	18 d2       	mov.l	r13,@(8,r8)
  3040c2:	c9 0c       	and	#12,r0
  3040c4:	18 13       	mov.l	r1,@(12,r8)
  3040c6:	40 28       	shll16	r0
  3040c8:	51 83       	mov.l	@(12,r8),r1
  3040ca:	40 08       	shll2	r0
  3040cc:	d2 38       	mov.l	3041b0 <_dma_setup+0x150>,r2	! ffcfffff
  3040ce:	21 29       	and	r2,r1
  3040d0:	21 0b       	or	r0,r1
  3040d2:	60 93       	mov	r9,r0
  3040d4:	18 13       	mov.l	r1,@(12,r8)
  3040d6:	c9 03       	and	#3,r0
  3040d8:	51 83       	mov.l	@(12,r8),r1
  3040da:	e2 e7       	mov	#-25,r2
  3040dc:	40 08       	shll2	r0
  3040de:	30 0c       	add	r0,r0
  3040e0:	21 29       	and	r2,r1
  3040e2:	21 0b       	or	r0,r1
  3040e4:	18 13       	mov.l	r1,@(12,r8)
  3040e6:	e2 0e       	mov	#14,r2
  3040e8:	50 fb       	mov.l	@(44,r15),r0
  3040ea:	51 83       	mov.l	@(12,r8),r1
  3040ec:	c9 03       	and	#3,r0
  3040ee:	40 2d       	shld	r2,r0
  3040f0:	d2 30       	mov.l	3041b4 <_dma_setup+0x154>,r2	! ffff3fff
  3040f2:	21 29       	and	r2,r1
  3040f4:	21 0b       	or	r0,r1
  3040f6:	18 13       	mov.l	r1,@(12,r8)
  3040f8:	e2 0c       	mov	#12,r2
  3040fa:	50 f9       	mov.l	@(36,r15),r0
  3040fc:	51 83       	mov.l	@(12,r8),r1
  3040fe:	c9 03       	and	#3,r0
  304100:	40 2d       	shld	r2,r0
  304102:	92 4e       	mov.w	3041a2 <_dma_setup+0x142>,r2	! cfff
  304104:	21 29       	and	r2,r1
  304106:	21 0b       	or	r0,r1
  304108:	18 13       	mov.l	r1,@(12,r8)
  30410a:	e2 fb       	mov	#-5,r2
  30410c:	50 fc       	mov.l	@(48,r15),r0
  30410e:	51 83       	mov.l	@(12,r8),r1
  304110:	c9 01       	and	#1,r0
  304112:	40 08       	shll2	r0
  304114:	21 29       	and	r2,r1
  304116:	21 0b       	or	r0,r1
  304118:	18 13       	mov.l	r1,@(12,r8)
  30411a:	85 b0       	mov.w	@(0,r11),r0
  30411c:	cb 01       	or	#1,r0
  30411e:	81 b0       	mov.w	r0,@(0,r11)
  304120:	60 a3       	mov	r10,r0
  304122:	61 b1       	mov.w	@r11,r1
  304124:	21 29       	and	r2,r1
  304126:	2b 11       	mov.w	r1,@r11
  304128:	e2 fd       	mov	#-3,r2
  30412a:	61 b1       	mov.w	@r11,r1
  30412c:	21 29       	and	r2,r1
  30412e:	2b 11       	mov.w	r1,@r11
  304130:	62 f2       	mov.l	@r15,r2
  304132:	d1 21       	mov.l	3041b8 <_dma_setup+0x158>,r1	! 81016a8 <_dma_sleep_blocking>
  304134:	63 82       	mov.l	@r8,r3
  304136:	01 24       	mov.b	r2,@(r0,r1)
  304138:	d2 20       	mov.l	3041bc <_dma_setup+0x15c>,r2	! e5006fff
  30413a:	33 26       	cmp/hi	r2,r3
  30413c:	8b 05       	bf	30414a <_dma_setup+0xea>
  30413e:	67 82       	mov.l	@r8,r7
  304140:	d3 1f       	mov.l	3041c0 <_dma_setup+0x160>,r3	! e5204000
  304142:	37 36       	cmp/hi	r3,r7
  304144:	8d 01       	bt.s	30414a <_dma_setup+0xea>
  304146:	e3 01       	mov	#1,r3
  304148:	01 34       	mov.b	r3,@(r0,r1)
  30414a:	53 81       	mov.l	@(4,r8),r3
  30414c:	33 26       	cmp/hi	r2,r3
  30414e:	8b 06       	bf	30415e <_dma_setup+0xfe>
  304150:	53 81       	mov.l	@(4,r8),r3
  304152:	d2 1b       	mov.l	3041c0 <_dma_setup+0x160>,r2	! e5204000
  304154:	33 26       	cmp/hi	r2,r3
  304156:	8d 02       	bt.s	30415e <_dma_setup+0xfe>
  304158:	e2 01       	mov	#1,r2
  30415a:	60 a3       	mov	r10,r0
  30415c:	01 24       	mov.b	r2,@(r0,r1)
  30415e:	63 82       	mov.l	@r8,r3
  304160:	d2 18       	mov.l	3041c4 <_dma_setup+0x164>,r2	! fe1fffff
  304162:	33 26       	cmp/hi	r2,r3
  304164:	8b 06       	bf	304174 <_dma_setup+0x114>
  304166:	67 82       	mov.l	@r8,r7
  304168:	d3 17       	mov.l	3041c8 <_dma_setup+0x168>,r3	! fe3fffff
  30416a:	37 36       	cmp/hi	r3,r7
  30416c:	8d 02       	bt.s	304174 <_dma_setup+0x114>
  30416e:	e3 01       	mov	#1,r3
  304170:	60 a3       	mov	r10,r0
  304172:	01 34       	mov.b	r3,@(r0,r1)
  304174:	53 81       	mov.l	@(4,r8),r3
  304176:	33 26       	cmp/hi	r2,r3
  304178:	8f 07       	bf.s	30418a <_dma_setup+0x12a>
  30417a:	e7 00       	mov	#0,r7
  30417c:	53 81       	mov.l	@(4,r8),r3
  30417e:	d2 12       	mov.l	3041c8 <_dma_setup+0x168>,r2	! fe3fffff
  304180:	33 26       	cmp/hi	r2,r3
  304182:	8d 02       	bt.s	30418a <_dma_setup+0x12a>
  304184:	e2 01       	mov	#1,r2
  304186:	60 a3       	mov	r10,r0
  304188:	01 24       	mov.b	r2,@(r0,r1)
  30418a:	60 73       	mov	r7,r0
  30418c:	7f 04       	add	#4,r15
  30418e:	4f 26       	lds.l	@r15+,pr
  304190:	6e f6       	mov.l	@r15+,r14
  304192:	6d f6       	mov.l	@r15+,r13
  304194:	6c f6       	mov.l	@r15+,r12
  304196:	6b f6       	mov.l	@r15+,r11
  304198:	6a f6       	mov.l	@r15+,r10
  30419a:	69 f6       	mov.l	@r15+,r9
  30419c:	00 0b       	rts	
  30419e:	68 f6       	mov.l	@r15+,r8
  3041a0:	04 00       	.word 0x0400
  3041a2:	cf ff       	or.b	#255,@(r0,gbr)
  3041a4:	00 30       	.word 0x0030
  3041a6:	40 10       	dt	r0
  3041a8:	fe 00       	.word 0xfe00
  3041aa:	80 60       	mov.b	r0,@(0,r6)
  3041ac:	00 30       	.word 0x0030
  3041ae:	40 40       	.word 0x4040
  3041b0:	ff cf       	.word 0xffcf
  3041b2:	ff ff       	.word 0xffff
  3041b4:	ff ff       	.word 0xffff
  3041b6:	3f ff       	addv	r15,r15
  3041b8:	08 10       	.word 0x0810
  3041ba:	16 a8       	mov.l	r10,@(32,r6)
  3041bc:	e5 00       	mov	#0,r5
  3041be:	6f ff       	exts.w	r15,r15
  3041c0:	e5 20       	mov	#32,r5
  3041c2:	40 00       	shll	r0
  3041c4:	fe 1f       	.word 0xfe1f
  3041c6:	ff ff       	.word 0xffff
  3041c8:	fe 3f       	.word 0xfe3f
  3041ca:	ff ff       	.word 0xffff

003041cc <_hpowered>:
  3041cc:	d1 02       	mov.l	3041d8 <_hpowered+0xc>,r1	! a4150020
  3041ce:	50 14       	mov.l	@(16,r1),r0
  3041d0:	60 09       	swap.w	r0,r0
  3041d2:	c8 20       	tst	#32,r0
  3041d4:	00 0b       	rts	
  3041d6:	00 29       	movt	r0
  3041d8:	a4 15       	bra	304a06 <_raise+0x12>
  3041da:	00 20       	.word 0x0020

003041dc <_hpoweron>:
  3041dc:	d2 03       	mov.l	3041ec <_hpoweron+0x10>,r2	! a4150020
  3041de:	d3 04       	mov.l	3041f0 <_hpoweron+0x14>,r3	! ffdfffff
  3041e0:	51 24       	mov.l	@(16,r2),r1
  3041e2:	21 39       	and	r3,r1
  3041e4:	12 14       	mov.l	r1,@(16,r2)
  3041e6:	00 0b       	rts	
  3041e8:	00 09       	nop	
  3041ea:	00 09       	nop	
  3041ec:	a4 15       	bra	304a1a <_raise+0x26>
  3041ee:	00 20       	.word 0x0020
  3041f0:	ff df       	.word 0xffdf
  3041f2:	ff ff       	.word 0xffff

003041f4 <_hpoweroff>:
  3041f4:	d2 03       	mov.l	304204 <_hpoweroff+0x10>,r2	! a4150020
  3041f6:	d3 04       	mov.l	304208 <_hpoweroff+0x14>,r3	! 200000
  3041f8:	51 24       	mov.l	@(16,r2),r1
  3041fa:	21 3b       	or	r3,r1
  3041fc:	12 14       	mov.l	r1,@(16,r2)
  3041fe:	00 0b       	rts	
  304200:	00 09       	nop	
  304202:	00 09       	nop	
  304204:	a4 15       	bra	304a32 <_raise+0x3e>
  304206:	00 20       	.word 0x0020
  304208:	00 20       	.word 0x0020
	...

0030420c <_hsave>:
  30420c:	2f 86       	mov.l	r8,@-r15
  30420e:	68 43       	mov	r4,r8
  304210:	2f 96       	mov.l	r9,@-r15
  304212:	e9 00       	mov	#0,r9
  304214:	2f a6       	mov.l	r10,@-r15
  304216:	da 0e       	mov.l	304250 <_hsave+0x44>,r10	! 304010 <_dma_channel>
  304218:	4f 22       	sts.l	pr,@-r15
  30421a:	4a 0b       	jsr	@r10
  30421c:	64 93       	mov	r9,r4
  30421e:	61 93       	mov	r9,r1
  304220:	41 08       	shll2	r1
  304222:	62 02       	mov.l	@r0,r2
  304224:	41 08       	shll2	r1
  304226:	31 8c       	add	r8,r1
  304228:	21 22       	mov.l	r2,@r1
  30422a:	79 01       	add	#1,r9
  30422c:	52 01       	mov.l	@(4,r0),r2
  30422e:	11 21       	mov.l	r2,@(4,r1)
  304230:	52 02       	mov.l	@(8,r0),r2
  304232:	11 22       	mov.l	r2,@(8,r1)
  304234:	52 03       	mov.l	@(12,r0),r2
  304236:	60 93       	mov	r9,r0
  304238:	88 06       	cmp/eq	#6,r0
  30423a:	11 23       	mov.l	r2,@(12,r1)
  30423c:	8b ed       	bf	30421a <_hsave+0xe>
  30423e:	d1 05       	mov.l	304254 <_hsave+0x48>,r1	! fe008060
  304240:	78 60       	add	#96,r8
  304242:	61 11       	mov.w	@r1,r1
  304244:	28 11       	mov.w	r1,@r8
  304246:	4f 26       	lds.l	@r15+,pr
  304248:	6a f6       	mov.l	@r15+,r10
  30424a:	69 f6       	mov.l	@r15+,r9
  30424c:	00 0b       	rts	
  30424e:	68 f6       	mov.l	@r15+,r8
  304250:	00 30       	.word 0x0030
  304252:	40 10       	dt	r0
  304254:	fe 00       	.word 0xfe00
  304256:	80 60       	mov.b	r0,@(0,r6)

00304258 <_hrestore>:
  304258:	2f 86       	mov.l	r8,@-r15
  30425a:	e3 fe       	mov	#-2,r3
  30425c:	2f 96       	mov.l	r9,@-r15
  30425e:	e9 00       	mov	#0,r9
  304260:	2f a6       	mov.l	r10,@-r15
  304262:	68 43       	mov	r4,r8
  304264:	d2 10       	mov.l	3042a8 <_hrestore+0x50>,r2	! fe008060
  304266:	4f 22       	sts.l	pr,@-r15
  304268:	61 21       	mov.w	@r2,r1
  30426a:	da 10       	mov.l	3042ac <_hrestore+0x54>,r10	! 304010 <_dma_channel>
  30426c:	21 39       	and	r3,r1
  30426e:	22 11       	mov.w	r1,@r2
  304270:	4a 0b       	jsr	@r10
  304272:	64 93       	mov	r9,r4
  304274:	61 93       	mov	r9,r1
  304276:	41 08       	shll2	r1
  304278:	41 08       	shll2	r1
  30427a:	31 8c       	add	r8,r1
  30427c:	62 12       	mov.l	@r1,r2
  30427e:	79 01       	add	#1,r9
  304280:	20 22       	mov.l	r2,@r0
  304282:	52 11       	mov.l	@(4,r1),r2
  304284:	10 21       	mov.l	r2,@(4,r0)
  304286:	52 12       	mov.l	@(8,r1),r2
  304288:	10 22       	mov.l	r2,@(8,r0)
  30428a:	51 13       	mov.l	@(12,r1),r1
  30428c:	10 13       	mov.l	r1,@(12,r0)
  30428e:	60 93       	mov	r9,r0
  304290:	88 06       	cmp/eq	#6,r0
  304292:	8b ed       	bf	304270 <_hrestore+0x18>
  304294:	78 60       	add	#96,r8
  304296:	d1 04       	mov.l	3042a8 <_hrestore+0x50>,r1	! fe008060
  304298:	68 81       	mov.w	@r8,r8
  30429a:	21 81       	mov.w	r8,@r1
  30429c:	4f 26       	lds.l	@r15+,pr
  30429e:	6a f6       	mov.l	@r15+,r10
  3042a0:	69 f6       	mov.l	@r15+,r9
  3042a2:	00 0b       	rts	
  3042a4:	68 f6       	mov.l	@r15+,r8
  3042a6:	00 09       	nop	
  3042a8:	fe 00       	.word 0xfe00
  3042aa:	80 60       	mov.b	r0,@(0,r6)
  3042ac:	00 30       	.word 0x0030
  3042ae:	40 10       	dt	r0

003042b0 <_dma_channel_wait>:
  3042b0:	2f 86       	mov.l	r8,@-r15
  3042b2:	2f 96       	mov.l	r9,@-r15
  3042b4:	69 43       	mov	r4,r9
  3042b6:	2f a6       	mov.l	r10,@-r15
  3042b8:	6a 53       	mov	r5,r10
  3042ba:	d0 16       	mov.l	304314 <_dma_channel_wait+0x64>,r0	! 304010 <_dma_channel>
  3042bc:	4f 22       	sts.l	pr,@-r15
  3042be:	40 0b       	jsr	@r0
  3042c0:	7f ec       	add	#-20,r15
  3042c2:	20 08       	tst	r0,r0
  3042c4:	8d 0c       	bt.s	3042e0 <_dma_channel_wait+0x30>
  3042c6:	68 03       	mov	r0,r8
  3042c8:	50 03       	mov.l	@(12,r0),r0
  3042ca:	c8 04       	tst	#4,r0
  3042cc:	8d 02       	bt.s	3042d4 <_dma_channel_wait+0x24>
  3042ce:	2a a8       	tst	r10,r10
  3042d0:	8d 0c       	bt.s	3042ec <_dma_channel_wait+0x3c>
  3042d2:	64 f3       	mov	r15,r4
  3042d4:	50 83       	mov.l	@(12,r8),r0
  3042d6:	c8 01       	tst	#1,r0
  3042d8:	89 02       	bt	3042e0 <_dma_channel_wait+0x30>
  3042da:	50 83       	mov.l	@(12,r8),r0
  3042dc:	c8 02       	tst	#2,r0
  3042de:	89 f9       	bt	3042d4 <_dma_channel_wait+0x24>
  3042e0:	7f 14       	add	#20,r15
  3042e2:	4f 26       	lds.l	@r15+,pr
  3042e4:	6a f6       	mov.l	@r15+,r10
  3042e6:	69 f6       	mov.l	@r15+,r9
  3042e8:	00 0b       	rts	
  3042ea:	68 f6       	mov.l	@r15+,r8
  3042ec:	d1 0a       	mov.l	304318 <_dma_channel_wait+0x68>,r1	! 3046d0 <_cpu_csleep_init>
  3042ee:	da 0b       	mov.l	30431c <_dma_channel_wait+0x6c>,r10	! 8101690 <_dma_wait_ics>
  3042f0:	41 0b       	jsr	@r1
  3042f2:	49 08       	shll2	r9
  3042f4:	60 93       	mov	r9,r0
  3042f6:	61 f3       	mov	r15,r1
  3042f8:	0a 16       	mov.l	r1,@(r0,r10)
  3042fa:	50 83       	mov.l	@(12,r8),r0
  3042fc:	c8 01       	tst	#1,r0
  3042fe:	89 05       	bt	30430c <_dma_channel_wait+0x5c>
  304300:	50 83       	mov.l	@(12,r8),r0
  304302:	c8 02       	tst	#2,r0
  304304:	8b 02       	bf	30430c <_dma_channel_wait+0x5c>
  304306:	d1 06       	mov.l	304320 <_dma_channel_wait+0x70>,r1	! 3046e4 <_cpu_csleep>
  304308:	41 0b       	jsr	@r1
  30430a:	64 f3       	mov	r15,r4
  30430c:	3a 9c       	add	r9,r10
  30430e:	e1 00       	mov	#0,r1
  304310:	af e6       	bra	3042e0 <_dma_channel_wait+0x30>
  304312:	2a 12       	mov.l	r1,@r10
  304314:	00 30       	.word 0x0030
  304316:	40 10       	dt	r0
  304318:	00 30       	.word 0x0030
  30431a:	46 d0       	.word 0x46d0
  30431c:	08 10       	.word 0x0810
  30431e:	16 90       	mov.l	r9,@(0,r6)
  304320:	00 30       	.word 0x0030
  304322:	46 e4       	.word 0x46e4

00304324 <_unbind>:
  304324:	2f 86       	mov.l	r8,@-r15
  304326:	e8 00       	mov	#0,r8
  304328:	2f 96       	mov.l	r9,@-r15
  30432a:	d9 07       	mov.l	304348 <_unbind+0x24>,r9	! 3042b0 <_dma_channel_wait>
  30432c:	4f 22       	sts.l	pr,@-r15
  30432e:	64 83       	mov	r8,r4
  304330:	49 0b       	jsr	@r9
  304332:	e5 00       	mov	#0,r5
  304334:	78 01       	add	#1,r8
  304336:	60 83       	mov	r8,r0
  304338:	88 06       	cmp/eq	#6,r0
  30433a:	8f f9       	bf.s	304330 <_unbind+0xc>
  30433c:	64 83       	mov	r8,r4
  30433e:	4f 26       	lds.l	@r15+,pr
  304340:	69 f6       	mov.l	@r15+,r9
  304342:	00 0b       	rts	
  304344:	68 f6       	mov.l	@r15+,r8
  304346:	00 09       	nop	
  304348:	00 30       	.word 0x0030
  30434a:	42 b0       	.word 0x42b0

0030434c <_funbind>:
  30434c:	2f 86       	mov.l	r8,@-r15
  30434e:	e8 00       	mov	#0,r8
  304350:	2f 96       	mov.l	r9,@-r15
  304352:	d9 07       	mov.l	304370 <_funbind+0x24>,r9	! 3042b0 <_dma_channel_wait>
  304354:	4f 22       	sts.l	pr,@-r15
  304356:	64 83       	mov	r8,r4
  304358:	49 0b       	jsr	@r9
  30435a:	e5 01       	mov	#1,r5
  30435c:	78 01       	add	#1,r8
  30435e:	60 83       	mov	r8,r0
  304360:	88 06       	cmp/eq	#6,r0
  304362:	8f f9       	bf.s	304358 <_funbind+0xc>
  304364:	64 83       	mov	r8,r4
  304366:	4f 26       	lds.l	@r15+,pr
  304368:	69 f6       	mov.l	@r15+,r9
  30436a:	00 0b       	rts	
  30436c:	68 f6       	mov.l	@r15+,r8
  30436e:	00 09       	nop	
  304370:	00 30       	.word 0x0030
  304372:	42 b0       	.word 0x42b0

00304374 <_configure>:
  304374:	2f 86       	mov.l	r8,@-r15
  304376:	e6 18       	mov	#24,r6
  304378:	2f 96       	mov.l	r9,@-r15
  30437a:	e8 00       	mov	#0,r8
  30437c:	2f a6       	mov.l	r10,@-r15
  30437e:	2f b6       	mov.l	r11,@-r15
  304380:	2f c6       	mov.l	r12,@-r15
  304382:	2f d6       	mov.l	r13,@-r15
  304384:	4f 22       	sts.l	pr,@-r15
  304386:	da 2c       	mov.l	304438 <_configure+0xc4>,r10	! 3048b0 <_memcpy>
  304388:	7f cc       	add	#-52,r15
  30438a:	d5 2c       	mov.l	30443c <_configure+0xc8>,r5	! 307534
  30438c:	64 f3       	mov	r15,r4
  30438e:	dc 2c       	mov.l	304440 <_configure+0xcc>,r12	! 304970 <_memset>
  304390:	4a 0b       	jsr	@r10
  304392:	74 1c       	add	#28,r4
  304394:	db 2b       	mov.l	304444 <_configure+0xd0>,r11	! 304460 <_dma_interrupt_transfer_ended>
  304396:	69 f3       	mov	r15,r9
  304398:	79 1c       	add	#28,r9
  30439a:	6d 96       	mov.l	@r9+,r13
  30439c:	e6 0c       	mov	#12,r6
  30439e:	e5 00       	mov	#0,r5
  3043a0:	64 f3       	mov	r15,r4
  3043a2:	4c 0b       	jsr	@r12
  3043a4:	74 10       	add	#16,r4
  3043a6:	1f 83       	mov.l	r8,@(12,r15)
  3043a8:	e6 08       	mov	#8,r6
  3043aa:	64 f3       	mov	r15,r4
  3043ac:	1f b2       	mov.l	r11,@(8,r15)
  3043ae:	65 f3       	mov	r15,r5
  3043b0:	4a 0b       	jsr	@r10
  3043b2:	75 14       	add	#20,r5
  3043b4:	d0 24       	mov.l	304448 <_configure+0xd4>,r0	! 301ad4 <_intc_handler_function>
  3043b6:	64 d3       	mov	r13,r4
  3043b8:	55 f2       	mov.l	@(8,r15),r5
  3043ba:	56 f3       	mov.l	@(12,r15),r6
  3043bc:	40 0b       	jsr	@r0
  3043be:	57 f4       	mov.l	@(16,r15),r7
  3043c0:	d0 22       	mov.l	30444c <_configure+0xd8>,r0	! 304010 <_dma_channel>
  3043c2:	64 83       	mov	r8,r4
  3043c4:	40 0b       	jsr	@r0
  3043c6:	78 01       	add	#1,r8
  3043c8:	51 03       	mov.l	@(12,r0),r1
  3043ca:	e2 fe       	mov	#-2,r2
  3043cc:	21 29       	and	r2,r1
  3043ce:	10 13       	mov.l	r1,@(12,r0)
  3043d0:	60 83       	mov	r8,r0
  3043d2:	88 06       	cmp/eq	#6,r0
  3043d4:	8b e1       	bf	30439a <_configure+0x26>
  3043d6:	d0 1e       	mov.l	304450 <_configure+0xdc>,r0	! 301a7c <_intc_handler>
  3043d8:	d5 1e       	mov.l	304454 <_configure+0xe0>,r5	! 306690 <_inth_dma_ae>
  3043da:	94 2c       	mov.w	304436 <_configure+0xc2>,r4	! bc0
  3043dc:	40 0b       	jsr	@r0
  3043de:	e6 20       	mov	#32,r6
  3043e0:	d8 1d       	mov.l	304458 <_configure+0xe4>,r8	! 301a08 <_intc_priority>
  3043e2:	e5 03       	mov	#3,r5
  3043e4:	48 0b       	jsr	@r8
  3043e6:	e4 09       	mov	#9,r4
  3043e8:	e5 03       	mov	#3,r5
  3043ea:	48 0b       	jsr	@r8
  3043ec:	e4 0a       	mov	#10,r4
  3043ee:	e5 03       	mov	#3,r5
  3043f0:	48 0b       	jsr	@r8
  3043f2:	e4 0b       	mov	#11,r4
  3043f4:	e5 09       	mov	#9,r5
  3043f6:	48 0b       	jsr	@r8
  3043f8:	e4 0c       	mov	#12,r4
  3043fa:	e5 09       	mov	#9,r5
  3043fc:	48 0b       	jsr	@r8
  3043fe:	e4 0d       	mov	#13,r4
  304400:	e5 03       	mov	#3,r5
  304402:	48 0b       	jsr	@r8
  304404:	e4 0e       	mov	#14,r4
  304406:	e5 03       	mov	#3,r5
  304408:	48 0b       	jsr	@r8
  30440a:	e4 0f       	mov	#15,r4
  30440c:	d1 13       	mov.l	30445c <_configure+0xe8>,r1	! fe008060
  30440e:	e3 fb       	mov	#-5,r3
  304410:	62 11       	mov.w	@r1,r2
  304412:	22 39       	and	r3,r2
  304414:	21 21       	mov.w	r2,@r1
  304416:	e3 fd       	mov	#-3,r3
  304418:	62 11       	mov.w	@r1,r2
  30441a:	22 39       	and	r3,r2
  30441c:	21 21       	mov.w	r2,@r1
  30441e:	85 10       	mov.w	@(0,r1),r0
  304420:	cb 01       	or	#1,r0
  304422:	81 10       	mov.w	r0,@(0,r1)
  304424:	7f 34       	add	#52,r15
  304426:	4f 26       	lds.l	@r15+,pr
  304428:	6d f6       	mov.l	@r15+,r13
  30442a:	6c f6       	mov.l	@r15+,r12
  30442c:	6b f6       	mov.l	@r15+,r11
  30442e:	6a f6       	mov.l	@r15+,r10
  304430:	69 f6       	mov.l	@r15+,r9
  304432:	00 0b       	rts	
  304434:	68 f6       	mov.l	@r15+,r8
  304436:	0b c0       	.word 0x0bc0
  304438:	00 30       	.word 0x0030
  30443a:	48 b0       	.word 0x48b0
  30443c:	00 30       	.word 0x0030
  30443e:	75 34       	add	#52,r5
  304440:	00 30       	.word 0x0030
  304442:	49 70       	.word 0x4970
  304444:	00 30       	.word 0x0030
  304446:	44 60       	.word 0x4460
  304448:	00 30       	.word 0x0030
  30444a:	1a d4       	mov.l	r13,@(16,r10)
  30444c:	00 30       	.word 0x0030
  30444e:	40 10       	dt	r0
  304450:	00 30       	.word 0x0030
  304452:	1a 7c       	mov.l	r7,@(48,r10)
  304454:	00 30       	.word 0x0030
  304456:	66 90       	mov.b	@r9,r6
  304458:	00 30       	.word 0x0030
  30445a:	1a 08       	mov.l	r0,@(32,r10)
  30445c:	fe 00       	.word 0xfe00
  30445e:	80 60       	mov.b	r0,@(0,r6)

00304460 <_dma_interrupt_transfer_ended>:
  304460:	d0 1f       	mov.l	3044e0 <_dma_interrupt_transfer_ended+0x80>,r0	! 304010 <_dma_channel>
  304462:	2f 86       	mov.l	r8,@-r15
  304464:	4f 22       	sts.l	pr,@-r15
  304466:	40 0b       	jsr	@r0
  304468:	68 43       	mov	r4,r8
  30446a:	51 03       	mov.l	@(12,r0),r1
  30446c:	e7 fb       	mov	#-5,r7
  30446e:	e2 fe       	mov	#-2,r2
  304470:	21 79       	and	r7,r1
  304472:	10 13       	mov.l	r1,@(12,r0)
  304474:	e3 fd       	mov	#-3,r3
  304476:	51 03       	mov.l	@(12,r0),r1
  304478:	21 29       	and	r2,r1
  30447a:	10 13       	mov.l	r1,@(12,r0)
  30447c:	51 03       	mov.l	@(12,r0),r1
  30447e:	21 39       	and	r3,r1
  304480:	10 13       	mov.l	r1,@(12,r0)
  304482:	60 83       	mov	r8,r0
  304484:	d1 17       	mov.l	3044e4 <_dma_interrupt_transfer_ended+0x84>,r1	! fe008060
  304486:	62 11       	mov.w	@r1,r2
  304488:	22 79       	and	r7,r2
  30448a:	21 21       	mov.w	r2,@r1
  30448c:	62 11       	mov.w	@r1,r2
  30448e:	22 39       	and	r3,r2
  304490:	21 21       	mov.w	r2,@r1
  304492:	d1 15       	mov.l	3044e8 <_dma_interrupt_transfer_ended+0x88>,r1	! 81016a8 <_dma_sleep_blocking>
  304494:	01 1c       	mov.b	@(r0,r1),r1
  304496:	21 18       	tst	r1,r1
  304498:	89 02       	bt	3044a0 <_dma_interrupt_transfer_ended+0x40>
  30449a:	d1 14       	mov.l	3044ec <_dma_interrupt_transfer_ended+0x8c>,r1	! 301968 <_sleep_unblock>
  30449c:	41 0b       	jsr	@r1
  30449e:	00 09       	nop	
  3044a0:	d1 13       	mov.l	3044f0 <_dma_interrupt_transfer_ended+0x90>,r1	! 8101690 <_dma_wait_ics>
  3044a2:	60 83       	mov	r8,r0
  3044a4:	40 08       	shll2	r0
  3044a6:	04 1e       	mov.l	@(r0,r1),r4
  3044a8:	24 48       	tst	r4,r4
  3044aa:	8d 04       	bt.s	3044b6 <_dma_interrupt_transfer_ended+0x56>
  3044ac:	e1 14       	mov	#20,r1
  3044ae:	d1 11       	mov.l	3044f4 <_dma_interrupt_transfer_ended+0x94>,r1	! 304708 <_cpu_csleep_cancel>
  3044b0:	41 0b       	jsr	@r1
  3044b2:	00 09       	nop	
  3044b4:	e1 14       	mov	#20,r1
  3044b6:	08 17       	mul.l	r1,r8
  3044b8:	d8 0f       	mov.l	3044f8 <_dma_interrupt_transfer_ended+0x98>,r8	! 81016b0 <_dma_callbacks>
  3044ba:	01 1a       	sts	macl,r1
  3044bc:	38 1c       	add	r1,r8
  3044be:	60 82       	mov.l	@r8,r0
  3044c0:	20 08       	tst	r0,r0
  3044c2:	89 09       	bt	3044d8 <_dma_interrupt_transfer_ended+0x78>
  3044c4:	56 83       	mov.l	@(12,r8),r6
  3044c6:	55 82       	mov.l	@(8,r8),r5
  3044c8:	54 81       	mov.l	@(4,r8),r4
  3044ca:	40 0b       	jsr	@r0
  3044cc:	57 84       	mov.l	@(16,r8),r7
  3044ce:	d0 0b       	mov.l	3044fc <_dma_interrupt_transfer_ended+0x9c>,r0	! 304970 <_memset>
  3044d0:	e6 14       	mov	#20,r6
  3044d2:	e5 00       	mov	#0,r5
  3044d4:	40 0b       	jsr	@r0
  3044d6:	64 83       	mov	r8,r4
  3044d8:	4f 26       	lds.l	@r15+,pr
  3044da:	00 0b       	rts	
  3044dc:	68 f6       	mov.l	@r15+,r8
  3044de:	00 09       	nop	
  3044e0:	00 30       	.word 0x0030
  3044e2:	40 10       	dt	r0
  3044e4:	fe 00       	.word 0xfe00
  3044e6:	80 60       	mov.b	r0,@(0,r6)
  3044e8:	08 10       	.word 0x0810
  3044ea:	16 a8       	mov.l	r10,@(32,r6)
  3044ec:	00 30       	.word 0x0030
  3044ee:	19 68       	mov.l	r6,@(32,r9)
  3044f0:	08 10       	.word 0x0810
  3044f2:	16 90       	mov.l	r9,@(0,r6)
  3044f4:	00 30       	.word 0x0030
  3044f6:	47 08       	shll2	r7
  3044f8:	08 10       	.word 0x0810
  3044fa:	16 b0       	mov.l	r11,@(0,r6)
  3044fc:	00 30       	.word 0x0030
  3044fe:	49 70       	.word 0x4970

00304500 <_dma_transfer_async>:
  304500:	2f 86       	mov.l	r8,@-r15
  304502:	e1 01       	mov	#1,r1
  304504:	4f 22       	sts.l	pr,@-r15
  304506:	7f f0       	add	#-16,r15
  304508:	d0 15       	mov.l	304560 <_dma_transfer_async+0x60>,r0	! 304060 <_dma_setup>
  30450a:	1f 13       	mov.l	r1,@(12,r15)
  30450c:	68 43       	mov	r4,r8
  30450e:	51 f8       	mov.l	@(32,r15),r1
  304510:	1f 12       	mov.l	r1,@(8,r15)
  304512:	51 f7       	mov.l	@(28,r15),r1
  304514:	1f 11       	mov.l	r1,@(4,r15)
  304516:	51 f6       	mov.l	@(24,r15),r1
  304518:	40 0b       	jsr	@r0
  30451a:	2f 12       	mov.l	r1,@r15
  30451c:	20 08       	tst	r0,r0
  30451e:	8f 1a       	bf.s	304556 <_dma_transfer_async+0x56>
  304520:	e0 00       	mov	#0,r0
  304522:	e1 14       	mov	#20,r1
  304524:	d0 0f       	mov.l	304564 <_dma_transfer_async+0x64>,r0	! 3048b0 <_memcpy>
  304526:	08 17       	mul.l	r1,r8
  304528:	d4 0f       	mov.l	304568 <_dma_transfer_async+0x68>,r4	! 81016b0 <_dma_callbacks>
  30452a:	e6 14       	mov	#20,r6
  30452c:	65 f3       	mov	r15,r5
  30452e:	75 24       	add	#36,r5
  304530:	01 1a       	sts	macl,r1
  304532:	40 0b       	jsr	@r0
  304534:	34 1c       	add	r1,r4
  304536:	d1 0d       	mov.l	30456c <_dma_transfer_async+0x6c>,r1	! 81016a8 <_dma_sleep_blocking>
  304538:	60 83       	mov	r8,r0
  30453a:	01 1c       	mov.b	@(r0,r1),r1
  30453c:	21 18       	tst	r1,r1
  30453e:	89 02       	bt	304546 <_dma_transfer_async+0x46>
  304540:	d1 0b       	mov.l	304570 <_dma_transfer_async+0x70>,r1	! 301944 <_sleep_block>
  304542:	41 0b       	jsr	@r1
  304544:	00 09       	nop	
  304546:	d0 0b       	mov.l	304574 <_dma_transfer_async+0x74>,r0	! 304010 <_dma_channel>
  304548:	40 0b       	jsr	@r0
  30454a:	64 83       	mov	r8,r4
  30454c:	61 03       	mov	r0,r1
  30454e:	50 03       	mov.l	@(12,r0),r0
  304550:	cb 01       	or	#1,r0
  304552:	11 03       	mov.l	r0,@(12,r1)
  304554:	e0 01       	mov	#1,r0
  304556:	7f 10       	add	#16,r15
  304558:	4f 26       	lds.l	@r15+,pr
  30455a:	00 0b       	rts	
  30455c:	68 f6       	mov.l	@r15+,r8
  30455e:	00 09       	nop	
  304560:	00 30       	.word 0x0030
  304562:	40 60       	.word 0x4060
  304564:	00 30       	.word 0x0030
  304566:	48 b0       	.word 0x48b0
  304568:	08 10       	.word 0x0810
  30456a:	16 b0       	mov.l	r11,@(0,r6)
  30456c:	08 10       	.word 0x0810
  30456e:	16 a8       	mov.l	r10,@(32,r6)
  304570:	00 30       	.word 0x0030
  304572:	19 44       	mov.l	r4,@(16,r9)
  304574:	00 30       	.word 0x0030
  304576:	40 10       	dt	r0

00304578 <_dma_transfer_wait>:
  304578:	d1 01       	mov.l	304580 <_dma_transfer_wait+0x8>,r1	! 3042b0 <_dma_channel_wait>
  30457a:	41 2b       	jmp	@r1
  30457c:	e5 00       	mov	#0,r5
  30457e:	00 09       	nop	
  304580:	00 30       	.word 0x0030
  304582:	42 b0       	.word 0x42b0

00304584 <_dma_transfer_sync>:
  304584:	2f 86       	mov.l	r8,@-r15
  304586:	68 53       	mov	r5,r8
  304588:	2f 96       	mov.l	r9,@-r15
  30458a:	e5 00       	mov	#0,r5
  30458c:	2f a6       	mov.l	r10,@-r15
  30458e:	69 43       	mov	r4,r9
  304590:	2f b6       	mov.l	r11,@-r15
  304592:	6a 63       	mov	r6,r10
  304594:	4f 22       	sts.l	pr,@-r15
  304596:	d0 15       	mov.l	3045ec <_dma_transfer_sync+0x68>,r0	! 304970 <_memset>
  304598:	7f cc       	add	#-52,r15
  30459a:	6b 73       	mov	r7,r11
  30459c:	e6 14       	mov	#20,r6
  30459e:	64 f3       	mov	r15,r4
  3045a0:	40 0b       	jsr	@r0
  3045a2:	74 20       	add	#32,r4
  3045a4:	d0 12       	mov.l	3045f0 <_dma_transfer_sync+0x6c>,r0	! 3048b0 <_memcpy>
  3045a6:	e6 14       	mov	#20,r6
  3045a8:	65 f3       	mov	r15,r5
  3045aa:	64 f3       	mov	r15,r4
  3045ac:	75 20       	add	#32,r5
  3045ae:	40 0b       	jsr	@r0
  3045b0:	74 0c       	add	#12,r4
  3045b2:	e2 40       	mov	#64,r2
  3045b4:	d0 0f       	mov.l	3045f4 <_dma_transfer_sync+0x70>,r0	! 304500 <_dma_transfer_async>
  3045b6:	32 fc       	add	r15,r2
  3045b8:	65 83       	mov	r8,r5
  3045ba:	51 24       	mov.l	@(16,r2),r1
  3045bc:	67 b3       	mov	r11,r7
  3045be:	66 a3       	mov	r10,r6
  3045c0:	64 93       	mov	r9,r4
  3045c2:	1f 12       	mov.l	r1,@(8,r15)
  3045c4:	51 23       	mov.l	@(12,r2),r1
  3045c6:	1f 11       	mov.l	r1,@(4,r15)
  3045c8:	51 22       	mov.l	@(8,r2),r1
  3045ca:	40 0b       	jsr	@r0
  3045cc:	2f 12       	mov.l	r1,@r15
  3045ce:	20 08       	tst	r0,r0
  3045d0:	8d 03       	bt.s	3045da <_dma_transfer_sync+0x56>
  3045d2:	68 03       	mov	r0,r8
  3045d4:	d1 08       	mov.l	3045f8 <_dma_transfer_sync+0x74>,r1	! 304578 <_dma_transfer_wait>
  3045d6:	41 0b       	jsr	@r1
  3045d8:	64 93       	mov	r9,r4
  3045da:	60 83       	mov	r8,r0
  3045dc:	7f 34       	add	#52,r15
  3045de:	4f 26       	lds.l	@r15+,pr
  3045e0:	6b f6       	mov.l	@r15+,r11
  3045e2:	6a f6       	mov.l	@r15+,r10
  3045e4:	69 f6       	mov.l	@r15+,r9
  3045e6:	00 0b       	rts	
  3045e8:	68 f6       	mov.l	@r15+,r8
  3045ea:	00 09       	nop	
  3045ec:	00 30       	.word 0x0030
  3045ee:	49 70       	.word 0x4970
  3045f0:	00 30       	.word 0x0030
  3045f2:	48 b0       	.word 0x48b0
  3045f4:	00 30       	.word 0x0030
  3045f6:	45 00       	shll	r5
  3045f8:	00 30       	.word 0x0030
  3045fa:	45 78       	.word 0x4578

003045fc <_dma_transfer_atomic>:
  3045fc:	2f 86       	mov.l	r8,@-r15
  3045fe:	e1 00       	mov	#0,r1
  304600:	4f 22       	sts.l	pr,@-r15
  304602:	7f f0       	add	#-16,r15
  304604:	d0 14       	mov.l	304658 <_dma_transfer_atomic+0x5c>,r0	! 304060 <_dma_setup>
  304606:	1f 13       	mov.l	r1,@(12,r15)
  304608:	68 43       	mov	r4,r8
  30460a:	51 f8       	mov.l	@(32,r15),r1
  30460c:	1f 12       	mov.l	r1,@(8,r15)
  30460e:	51 f7       	mov.l	@(28,r15),r1
  304610:	1f 11       	mov.l	r1,@(4,r15)
  304612:	51 f6       	mov.l	@(24,r15),r1
  304614:	40 0b       	jsr	@r0
  304616:	2f 12       	mov.l	r1,@r15
  304618:	20 08       	tst	r0,r0
  30461a:	8b 19       	bf	304650 <_dma_transfer_atomic+0x54>
  30461c:	d0 0f       	mov.l	30465c <_dma_transfer_atomic+0x60>,r0	! 304010 <_dma_channel>
  30461e:	40 0b       	jsr	@r0
  304620:	64 83       	mov	r8,r4
  304622:	61 03       	mov	r0,r1
  304624:	50 03       	mov.l	@(12,r0),r0
  304626:	cb 01       	or	#1,r0
  304628:	11 03       	mov.l	r0,@(12,r1)
  30462a:	50 13       	mov.l	@(12,r1),r0
  30462c:	c8 02       	tst	#2,r0
  30462e:	89 fc       	bt	30462a <_dma_transfer_atomic+0x2e>
  304630:	52 13       	mov.l	@(12,r1),r2
  304632:	e3 fe       	mov	#-2,r3
  304634:	e7 fb       	mov	#-5,r7
  304636:	22 39       	and	r3,r2
  304638:	11 23       	mov.l	r2,@(12,r1)
  30463a:	e3 fd       	mov	#-3,r3
  30463c:	52 13       	mov.l	@(12,r1),r2
  30463e:	22 39       	and	r3,r2
  304640:	11 23       	mov.l	r2,@(12,r1)
  304642:	d1 07       	mov.l	304660 <_dma_transfer_atomic+0x64>,r1	! fe008060
  304644:	62 11       	mov.w	@r1,r2
  304646:	22 79       	and	r7,r2
  304648:	21 21       	mov.w	r2,@r1
  30464a:	62 11       	mov.w	@r1,r2
  30464c:	22 39       	and	r3,r2
  30464e:	21 21       	mov.w	r2,@r1
  304650:	7f 10       	add	#16,r15
  304652:	4f 26       	lds.l	@r15+,pr
  304654:	00 0b       	rts	
  304656:	68 f6       	mov.l	@r15+,r8
  304658:	00 30       	.word 0x0030
  30465a:	40 60       	.word 0x4060
  30465c:	00 30       	.word 0x0030
  30465e:	40 10       	dt	r0
  304660:	fe 00       	.word 0xfe00
  304662:	80 60       	mov.b	r0,@(0,r6)

00304664 <_dma_transfer>:
  304664:	2f 86       	mov.l	r8,@-r15
  304666:	68 43       	mov	r4,r8
  304668:	2f 96       	mov.l	r9,@-r15
  30466a:	69 53       	mov	r5,r9
  30466c:	2f a6       	mov.l	r10,@-r15
  30466e:	e5 00       	mov	#0,r5
  304670:	2f b6       	mov.l	r11,@-r15
  304672:	6a 63       	mov	r6,r10
  304674:	4f 22       	sts.l	pr,@-r15
  304676:	d0 11       	mov.l	3046bc <_dma_transfer+0x58>,r0	! 304970 <_memset>
  304678:	7f cc       	add	#-52,r15
  30467a:	6b 73       	mov	r7,r11
  30467c:	e6 14       	mov	#20,r6
  30467e:	64 f3       	mov	r15,r4
  304680:	40 0b       	jsr	@r0
  304682:	74 20       	add	#32,r4
  304684:	d0 0e       	mov.l	3046c0 <_dma_transfer+0x5c>,r0	! 3048b0 <_memcpy>
  304686:	e6 14       	mov	#20,r6
  304688:	65 f3       	mov	r15,r5
  30468a:	64 f3       	mov	r15,r4
  30468c:	75 20       	add	#32,r5
  30468e:	40 0b       	jsr	@r0
  304690:	74 0c       	add	#12,r4
  304692:	e2 40       	mov	#64,r2
  304694:	d0 0b       	mov.l	3046c4 <_dma_transfer+0x60>,r0	! 304500 <_dma_transfer_async>
  304696:	32 fc       	add	r15,r2
  304698:	67 b3       	mov	r11,r7
  30469a:	51 24       	mov.l	@(16,r2),r1
  30469c:	66 a3       	mov	r10,r6
  30469e:	65 93       	mov	r9,r5
  3046a0:	64 83       	mov	r8,r4
  3046a2:	1f 12       	mov.l	r1,@(8,r15)
  3046a4:	51 23       	mov.l	@(12,r2),r1
  3046a6:	1f 11       	mov.l	r1,@(4,r15)
  3046a8:	51 22       	mov.l	@(8,r2),r1
  3046aa:	40 0b       	jsr	@r0
  3046ac:	2f 12       	mov.l	r1,@r15
  3046ae:	7f 34       	add	#52,r15
  3046b0:	4f 26       	lds.l	@r15+,pr
  3046b2:	6b f6       	mov.l	@r15+,r11
  3046b4:	6a f6       	mov.l	@r15+,r10
  3046b6:	69 f6       	mov.l	@r15+,r9
  3046b8:	00 0b       	rts	
  3046ba:	68 f6       	mov.l	@r15+,r8
  3046bc:	00 30       	.word 0x0030
  3046be:	49 70       	.word 0x4970
  3046c0:	00 30       	.word 0x0030
  3046c2:	48 b0       	.word 0x48b0
  3046c4:	00 30       	.word 0x0030
  3046c6:	45 00       	shll	r5
	...

003046d0 <_cpu_csleep_init>:
  3046d0:	d1 03       	mov.l	3046e0 <.memcpy>,r1	! 3048b0 <_memcpy>
  3046d2:	c7 13       	mova	304720 <sleep>,r0
  3046d4:	65 03       	mov	r0,r5
  3046d6:	41 2b       	jmp	@r1
  3046d8:	e6 14       	mov	#20,r6
  3046da:	00 09       	nop	
  3046dc:	00 09       	nop	
  3046de:	00 09       	nop	

003046e0 <.memcpy>:
  3046e0:	00 30       	.word 0x0030
  3046e2:	48 b0       	.word 0x48b0

003046e4 <_cpu_csleep>:
  3046e4:	2f 86       	mov.l	r8,@-r15
  3046e6:	4f 22       	sts.l	pr,@-r15
  3046e8:	68 43       	mov	r4,r8
  3046ea:	85 84       	mov.w	@(8,r8),r0
  3046ec:	60 0d       	extu.w	r0,r0
  3046ee:	88 1b       	cmp/eq	#27,r0
  3046f0:	8b 07       	bf	304702 <_cpu_csleep+0x1e>
  3046f2:	60 83       	mov	r8,r0
  3046f4:	00 e3       	icbi	@r0
  3046f6:	70 12       	add	#18,r0
  3046f8:	00 e3       	icbi	@r0
  3046fa:	48 0b       	jsr	@r8
  3046fc:	00 09       	nop	
  3046fe:	af f4       	bra	3046ea <_cpu_csleep+0x6>
  304700:	00 09       	nop	
  304702:	4f 26       	lds.l	@r15+,pr
  304704:	00 0b       	rts	
  304706:	68 f6       	mov.l	@r15+,r8

00304708 <_cpu_csleep_cancel>:
  304708:	e0 09       	mov	#9,r0
  30470a:	74 08       	add	#8,r4
  30470c:	24 01       	mov.w	r0,@r4
  30470e:	04 e3       	icbi	@r4
  304710:	00 0b       	rts	
  304712:	00 09       	nop	
  304714:	00 09       	nop	
  304716:	00 09       	nop	
  304718:	00 09       	nop	
  30471a:	00 09       	nop	
  30471c:	00 09       	nop	
  30471e:	00 09       	nop	

00304720 <sleep>:
  304720:	d0 03       	mov.l	304730 <sleep+0x10>,r0	! 81015c8 <_cpu_sleep_block_counter>
  304722:	60 02       	mov.l	@r0,r0
  304724:	40 15       	cmp/pl	r0
  304726:	89 00       	bt	30472a <sleep+0xa>
  304728:	00 1b       	sleep	
  30472a:	00 0b       	rts	
  30472c:	00 09       	nop	
  30472e:	00 09       	nop	
  304730:	08 10       	.word 0x0810
  304732:	15 c8       	mov.l	r12,@(32,r5)

00304734 <sleep_end>:
  304734:	00 09       	nop	
  304736:	00 09       	nop	
  304738:	00 09       	nop	
  30473a:	00 09       	nop	
  30473c:	00 09       	nop	
  30473e:	00 09       	nop	

00304740 <_vsnprintf>:
  304740:	2f 86       	mov.l	r8,@-r15
  304742:	68 63       	mov	r6,r8
  304744:	2f 96       	mov.l	r9,@-r15
  304746:	e6 1c       	mov	#28,r6
  304748:	2f a6       	mov.l	r10,@-r15
  30474a:	6a 43       	mov	r4,r10
  30474c:	4f 22       	sts.l	pr,@-r15
  30474e:	69 53       	mov	r5,r9
  304750:	d0 0a       	mov.l	30477c <_vsnprintf+0x3c>,r0	! 304970 <_memset>
  304752:	7f dc       	add	#-36,r15
  304754:	64 f3       	mov	r15,r4
  304756:	2f 72       	mov.l	r7,@r15
  304758:	e5 00       	mov	#0,r5
  30475a:	40 0b       	jsr	@r0
  30475c:	74 08       	add	#8,r4
  30475e:	d0 08       	mov.l	304780 <_vsnprintf+0x40>,r0	! 304b18 <___printf>
  304760:	64 f3       	mov	r15,r4
  304762:	1f a1       	mov.l	r10,@(4,r15)
  304764:	66 f3       	mov	r15,r6
  304766:	1f 94       	mov.l	r9,@(16,r15)
  304768:	65 83       	mov	r8,r5
  30476a:	40 0b       	jsr	@r0
  30476c:	74 04       	add	#4,r4
  30476e:	7f 24       	add	#36,r15
  304770:	4f 26       	lds.l	@r15+,pr
  304772:	6a f6       	mov.l	@r15+,r10
  304774:	69 f6       	mov.l	@r15+,r9
  304776:	00 0b       	rts	
  304778:	68 f6       	mov.l	@r15+,r8
  30477a:	00 09       	nop	
  30477c:	00 30       	.word 0x0030
  30477e:	49 70       	.word 0x4970
  304780:	00 30       	.word 0x0030
  304782:	4b 18       	shll8	r11

00304784 <_abort>:
  304784:	d0 03       	mov.l	304794 <_abort+0x10>,r0	! 3049f4 <_raise>
  304786:	4f 22       	sts.l	pr,@-r15
  304788:	40 0b       	jsr	@r0
  30478a:	e4 06       	mov	#6,r4
  30478c:	d1 02       	mov.l	304798 <_abort+0x14>,r1	! 300448 <__Exit>
  30478e:	41 0b       	jsr	@r1
  304790:	e4 00       	mov	#0,r4
  304792:	00 09       	nop	
  304794:	00 30       	.word 0x0030
  304796:	49 f4       	.word 0x49f4
  304798:	00 30       	.word 0x0030
  30479a:	04 48       	.word 0x0448

0030479c <_exit>:
  30479c:	d1 01       	mov.l	3047a4 <_exit+0x8>,r1	! 300448 <__Exit>
  30479e:	4f 22       	sts.l	pr,@-r15
  3047a0:	41 0b       	jsr	@r1
  3047a2:	00 09       	nop	
  3047a4:	00 30       	.word 0x0030
  3047a6:	04 48       	.word 0x0448

003047a8 <_strcmp>:
  3047a8:	60 44       	mov.b	@r4+,r0
  3047aa:	20 08       	tst	r0,r0
  3047ac:	8d 04       	bt.s	3047b8 <_strcmp+0x10>
  3047ae:	61 54       	mov.b	@r5+,r1
  3047b0:	30 10       	cmp/eq	r1,r0
  3047b2:	8f 01       	bf.s	3047b8 <_strcmp+0x10>
  3047b4:	21 18       	tst	r1,r1
  3047b6:	8b f7       	bf	3047a8 <_strcmp>
  3047b8:	61 1c       	extu.b	r1,r1
  3047ba:	60 0c       	extu.b	r0,r0
  3047bc:	00 0b       	rts	
  3047be:	30 18       	sub	r1,r0

003047c0 <_setjmp>:
  3047c0:	03 02       	stc	sr,r3
  3047c2:	74 34       	add	#52,r4
  3047c4:	44 22       	sts.l	pr,@-r4
  3047c6:	44 02       	sts.l	mach,@-r4
  3047c8:	44 12       	sts.l	macl,@-r4
  3047ca:	44 13       	stc.l	gbr,@-r4
  3047cc:	24 f6       	mov.l	r15,@-r4
  3047ce:	24 e6       	mov.l	r14,@-r4
  3047d0:	24 d6       	mov.l	r13,@-r4
  3047d2:	24 c6       	mov.l	r12,@-r4
  3047d4:	24 b6       	mov.l	r11,@-r4
  3047d6:	24 a6       	mov.l	r10,@-r4
  3047d8:	24 96       	mov.l	r9,@-r4
  3047da:	24 86       	mov.l	r8,@-r4
  3047dc:	24 36       	mov.l	r3,@-r4
  3047de:	00 0b       	rts	
  3047e0:	e0 00       	mov	#0,r0
  3047e2:	00 09       	nop	

003047e4 <_longjmp>:
  3047e4:	68 43       	mov	r4,r8
  3047e6:	25 58       	tst	r5,r5
  3047e8:	09 29       	movt	r9
  3047ea:	39 5c       	add	r5,r9

003047ec <context_switch>:
  3047ec:	48 07       	ldc.l	@r8+,sr
  3047ee:	64 83       	mov	r8,r4
  3047f0:	60 93       	mov	r9,r0
  3047f2:	68 46       	mov.l	@r4+,r8
  3047f4:	69 46       	mov.l	@r4+,r9
  3047f6:	6a 46       	mov.l	@r4+,r10
  3047f8:	6b 46       	mov.l	@r4+,r11
  3047fa:	6c 46       	mov.l	@r4+,r12
  3047fc:	6d 46       	mov.l	@r4+,r13
  3047fe:	6e 46       	mov.l	@r4+,r14
  304800:	6f 46       	mov.l	@r4+,r15
  304802:	44 17       	ldc.l	@r4+,gbr
  304804:	44 16       	lds.l	@r4+,macl
  304806:	44 06       	lds.l	@r4+,mach
  304808:	44 26       	lds.l	@r4+,pr
  30480a:	00 0b       	rts	
  30480c:	00 09       	nop	
  30480e:	00 09       	nop	

00304810 <_memcmp>:
  304810:	26 68       	tst	r6,r6
  304812:	89 41       	bt	304898 <.zero>
  304814:	e0 40       	mov	#64,r0
  304816:	30 63       	cmp/ge	r6,r0
  304818:	89 34       	bt	304884 <_naive_memcmp>
  30481a:	e2 04       	mov	#4,r2
  30481c:	e3 03       	mov	#3,r3

0030481e <_memcmp_align_rhs>:
  30481e:	60 44       	mov.b	@r4+,r0
  304820:	61 54       	mov.b	@r5+,r1
  304822:	31 00       	cmp/eq	r0,r1
  304824:	8f 34       	bf.s	304890 <.end>
  304826:	46 10       	dt	r6
  304828:	25 38       	tst	r3,r5
  30482a:	8b f8       	bf	30481e <_memcmp_align_rhs>
  30482c:	24 38       	tst	r3,r4
  30482e:	89 08       	bt	304842 <.aligned4>
  304830:	d0 1b       	mov.l	3048a0 <.___cpucap>,r0	! 8101728 <___cpucap>
  304832:	60 02       	mov.l	@r0,r0
  304834:	c8 01       	tst	#1,r0
  304836:	8b 0d       	bf	304854 <.unaligned4>
  304838:	60 43       	mov	r4,r0
  30483a:	c8 01       	tst	#1,r0
  30483c:	89 13       	bt	304866 <.aligned2>
  30483e:	a0 21       	bra	304884 <_naive_memcmp>
  304840:	00 09       	nop	

00304842 <.aligned4>:
  304842:	60 46       	mov.l	@r4+,r0
  304844:	61 56       	mov.l	@r5+,r1
  304846:	31 00       	cmp/eq	r0,r1
  304848:	8f 19       	bf.s	30487e <_fail>
  30484a:	76 fc       	add	#-4,r6
  30484c:	32 63       	cmp/ge	r6,r2
  30484e:	8b f8       	bf	304842 <.aligned4>
  304850:	a0 18       	bra	304884 <_naive_memcmp>
  304852:	00 09       	nop	

00304854 <.unaligned4>:
  304854:	44 e9       	movua.l	@r4+,r0
  304856:	61 56       	mov.l	@r5+,r1
  304858:	31 00       	cmp/eq	r0,r1
  30485a:	8f 10       	bf.s	30487e <_fail>
  30485c:	76 fc       	add	#-4,r6
  30485e:	32 63       	cmp/ge	r6,r2
  304860:	8b f8       	bf	304854 <.unaligned4>
  304862:	a0 0f       	bra	304884 <_naive_memcmp>
  304864:	00 09       	nop	

00304866 <.aligned2>:
  304866:	60 45       	mov.w	@r4+,r0
  304868:	61 56       	mov.l	@r5+,r1
  30486a:	62 45       	mov.w	@r4+,r2
  30486c:	40 28       	shll16	r0
  30486e:	20 2b       	or	r2,r0
  304870:	31 00       	cmp/eq	r0,r1
  304872:	8f 04       	bf.s	30487e <_fail>
  304874:	76 fc       	add	#-4,r6
  304876:	32 63       	cmp/ge	r6,r2
  304878:	8b f5       	bf	304866 <.aligned2>
  30487a:	a0 03       	bra	304884 <_naive_memcmp>
  30487c:	00 09       	nop	

0030487e <_fail>:
  30487e:	74 fc       	add	#-4,r4
  304880:	75 fc       	add	#-4,r5
  304882:	76 04       	add	#4,r6

00304884 <_naive_memcmp>:
  304884:	60 44       	mov.b	@r4+,r0
  304886:	61 54       	mov.b	@r5+,r1
  304888:	31 00       	cmp/eq	r0,r1
  30488a:	8f 01       	bf.s	304890 <.end>
  30488c:	46 10       	dt	r6
  30488e:	8b f9       	bf	304884 <_naive_memcmp>

00304890 <.end>:
  304890:	60 0c       	extu.b	r0,r0
  304892:	61 1c       	extu.b	r1,r1
  304894:	00 0b       	rts	
  304896:	30 18       	sub	r1,r0

00304898 <.zero>:
  304898:	00 0b       	rts	
  30489a:	e0 00       	mov	#0,r0
  30489c:	00 09       	nop	
  30489e:	00 09       	nop	

003048a0 <.___cpucap>:
  3048a0:	08 10       	.word 0x0810
  3048a2:	17 28       	mov.l	r2,@(32,r7)
  3048a4:	00 09       	nop	
  3048a6:	00 09       	nop	
  3048a8:	00 09       	nop	
  3048aa:	00 09       	nop	
  3048ac:	00 09       	nop	
  3048ae:	00 09       	nop	

003048b0 <_memcpy>:
  3048b0:	26 68       	tst	r6,r6
  3048b2:	89 4d       	bt	304950 <.zero>
  3048b4:	63 43       	mov	r4,r3
  3048b6:	e2 03       	mov	#3,r2
  3048b8:	e0 40       	mov	#64,r0
  3048ba:	30 63       	cmp/ge	r6,r0
  3048bc:	89 41       	bt	304942 <_naive_memcpy>

003048be <_memcpy_align_dst>:
  3048be:	60 54       	mov.b	@r5+,r0
  3048c0:	24 00       	mov.b	r0,@r4
  3048c2:	74 01       	add	#1,r4
  3048c4:	24 28       	tst	r2,r4
  3048c6:	8f fa       	bf.s	3048be <_memcpy_align_dst>
  3048c8:	46 10       	dt	r6
  3048ca:	25 28       	tst	r2,r5
  3048cc:	8d 09       	bt.s	3048e2 <.aligned4_32>
  3048ce:	e2 04       	mov	#4,r2
  3048d0:	d0 23       	mov.l	304960 <.___cpucap>,r0	! 8101728 <___cpucap>
  3048d2:	60 02       	mov.l	@r0,r0
  3048d4:	c8 01       	tst	#1,r0
  3048d6:	8b 22       	bf	30491e <.unaligned4>
  3048d8:	60 53       	mov	r5,r0
  3048da:	c8 01       	tst	#1,r0
  3048dc:	89 27       	bt	30492e <.aligned2>
  3048de:	a0 30       	bra	304942 <_naive_memcpy>
  3048e0:	00 09       	nop	

003048e2 <.aligned4_32>:
  3048e2:	e2 24       	mov	#36,r2
  3048e4:	60 56       	mov.l	@r5+,r0
  3048e6:	61 56       	mov.l	@r5+,r1
  3048e8:	67 56       	mov.l	@r5+,r7
  3048ea:	24 02       	mov.l	r0,@r4
  3048ec:	14 11       	mov.l	r1,@(4,r4)
  3048ee:	14 72       	mov.l	r7,@(8,r4)
  3048f0:	60 56       	mov.l	@r5+,r0
  3048f2:	61 56       	mov.l	@r5+,r1
  3048f4:	67 56       	mov.l	@r5+,r7
  3048f6:	14 03       	mov.l	r0,@(12,r4)
  3048f8:	14 14       	mov.l	r1,@(16,r4)
  3048fa:	14 75       	mov.l	r7,@(20,r4)
  3048fc:	60 56       	mov.l	@r5+,r0
  3048fe:	61 56       	mov.l	@r5+,r1
  304900:	76 e0       	add	#-32,r6
  304902:	14 06       	mov.l	r0,@(24,r4)
  304904:	14 17       	mov.l	r1,@(28,r4)
  304906:	32 63       	cmp/ge	r6,r2
  304908:	8f eb       	bf.s	3048e2 <.aligned4_32>
  30490a:	74 20       	add	#32,r4

0030490c <.aligned4_4>:
  30490c:	e2 04       	mov	#4,r2
  30490e:	60 56       	mov.l	@r5+,r0
  304910:	24 02       	mov.l	r0,@r4
  304912:	76 fc       	add	#-4,r6
  304914:	32 63       	cmp/ge	r6,r2
  304916:	8f f9       	bf.s	30490c <.aligned4_4>
  304918:	74 04       	add	#4,r4
  30491a:	a0 12       	bra	304942 <_naive_memcpy>
  30491c:	00 09       	nop	

0030491e <.unaligned4>:
  30491e:	45 e9       	movua.l	@r5+,r0
  304920:	24 02       	mov.l	r0,@r4
  304922:	76 fc       	add	#-4,r6
  304924:	32 63       	cmp/ge	r6,r2
  304926:	8f fa       	bf.s	30491e <.unaligned4>
  304928:	74 04       	add	#4,r4
  30492a:	a0 0a       	bra	304942 <_naive_memcpy>
  30492c:	00 09       	nop	

0030492e <.aligned2>:
  30492e:	60 55       	mov.w	@r5+,r0
  304930:	24 01       	mov.w	r0,@r4
  304932:	60 55       	mov.w	@r5+,r0
  304934:	81 41       	mov.w	r0,@(2,r4)
  304936:	76 fc       	add	#-4,r6
  304938:	32 63       	cmp/ge	r6,r2
  30493a:	8f f8       	bf.s	30492e <.aligned2>
  30493c:	74 04       	add	#4,r4
  30493e:	a0 00       	bra	304942 <_naive_memcpy>
  304940:	00 09       	nop	

00304942 <_naive_memcpy>:
  304942:	60 54       	mov.b	@r5+,r0
  304944:	46 10       	dt	r6
  304946:	24 00       	mov.b	r0,@r4
  304948:	8f fb       	bf.s	304942 <_naive_memcpy>
  30494a:	74 01       	add	#1,r4
  30494c:	00 0b       	rts	
  30494e:	60 33       	mov	r3,r0

00304950 <.zero>:
  304950:	00 0b       	rts	
  304952:	60 43       	mov	r4,r0
  304954:	00 09       	nop	
  304956:	00 09       	nop	
  304958:	00 09       	nop	
  30495a:	00 09       	nop	
  30495c:	00 09       	nop	
  30495e:	00 09       	nop	

00304960 <.___cpucap>:
  304960:	08 10       	.word 0x0810
  304962:	17 28       	mov.l	r2,@(32,r7)
  304964:	00 09       	nop	
  304966:	00 09       	nop	
  304968:	00 09       	nop	
  30496a:	00 09       	nop	
  30496c:	00 09       	nop	
  30496e:	00 09       	nop	

00304970 <_memset>:
  304970:	26 68       	tst	r6,r6
  304972:	89 26       	bt	3049c2 <.zero>
  304974:	63 43       	mov	r4,r3
  304976:	34 6c       	add	r6,r4
  304978:	e0 40       	mov	#64,r0
  30497a:	30 63       	cmp/ge	r6,r0
  30497c:	8d 1c       	bt.s	3049b8 <_naive_memset>
  30497e:	60 53       	mov	r5,r0
  304980:	e2 03       	mov	#3,r2
  304982:	45 18       	shll8	r5
  304984:	20 5b       	or	r5,r0
  304986:	65 03       	mov	r0,r5
  304988:	45 28       	shll16	r5
  30498a:	20 5b       	or	r5,r0

0030498c <_memset_align>:
  30498c:	24 04       	mov.b	r0,@-r4
  30498e:	24 28       	tst	r2,r4
  304990:	8f fc       	bf.s	30498c <_memset_align>
  304992:	46 10       	dt	r6
  304994:	e2 28       	mov	#40,r2

00304996 <.aligned4_32>:
  304996:	74 e0       	add	#-32,r4
  304998:	76 e0       	add	#-32,r6
  30499a:	14 07       	mov.l	r0,@(28,r4)
  30499c:	14 06       	mov.l	r0,@(24,r4)
  30499e:	14 05       	mov.l	r0,@(20,r4)
  3049a0:	14 04       	mov.l	r0,@(16,r4)
  3049a2:	14 03       	mov.l	r0,@(12,r4)
  3049a4:	14 02       	mov.l	r0,@(8,r4)
  3049a6:	14 01       	mov.l	r0,@(4,r4)
  3049a8:	32 63       	cmp/ge	r6,r2
  3049aa:	8f f4       	bf.s	304996 <.aligned4_32>
  3049ac:	24 02       	mov.l	r0,@r4
  3049ae:	e2 08       	mov	#8,r2

003049b0 <.aligned4_4>:
  3049b0:	24 06       	mov.l	r0,@-r4
  3049b2:	32 63       	cmp/ge	r6,r2
  3049b4:	8f fc       	bf.s	3049b0 <.aligned4_4>
  3049b6:	76 fc       	add	#-4,r6

003049b8 <_naive_memset>:
  3049b8:	46 10       	dt	r6
  3049ba:	8f fd       	bf.s	3049b8 <_naive_memset>
  3049bc:	24 04       	mov.b	r0,@-r4

003049be <.end>:
  3049be:	00 0b       	rts	
  3049c0:	60 33       	mov	r3,r0

003049c2 <.zero>:
  3049c2:	00 0b       	rts	
  3049c4:	60 43       	mov	r4,r0
	...

003049c8 <_free>:
  3049c8:	d1 01       	mov.l	3049d0 <_free+0x8>,r1	! 302c20 <_kfree>
  3049ca:	41 2b       	jmp	@r1
  3049cc:	00 09       	nop	
  3049ce:	00 09       	nop	
  3049d0:	00 30       	.word 0x0030
  3049d2:	2c 20       	mov.b	r2,@r12

003049d4 <_malloc>:
  3049d4:	d0 05       	mov.l	3049ec <_malloc+0x18>,r0	! 302b8c <_kmalloc>
  3049d6:	4f 22       	sts.l	pr,@-r15
  3049d8:	40 0b       	jsr	@r0
  3049da:	e5 00       	mov	#0,r5
  3049dc:	20 08       	tst	r0,r0
  3049de:	8f 02       	bf.s	3049e6 <_malloc+0x12>
  3049e0:	e2 09       	mov	#9,r2
  3049e2:	d1 03       	mov.l	3049f0 <_malloc+0x1c>,r1	! 810172c <_errno>
  3049e4:	21 22       	mov.l	r2,@r1
  3049e6:	4f 26       	lds.l	@r15+,pr
  3049e8:	00 0b       	rts	
  3049ea:	00 09       	nop	
  3049ec:	00 30       	.word 0x0030
  3049ee:	2b 8c       	cmp/str	r8,r11
  3049f0:	08 10       	.word 0x0810
  3049f2:	17 2c       	mov.l	r2,@(48,r7)

003049f4 <_raise>:
  3049f4:	2f 86       	mov.l	r8,@-r15
  3049f6:	e1 0f       	mov	#15,r1
  3049f8:	2f 96       	mov.l	r9,@-r15
  3049fa:	34 16       	cmp/hi	r1,r4
  3049fc:	2f a6       	mov.l	r10,@-r15
  3049fe:	68 43       	mov	r4,r8
  304a00:	2f b6       	mov.l	r11,@-r15
  304a02:	e9 01       	mov	#1,r9
  304a04:	8d 20       	bt.s	304a48 <_raise+0x54>
  304a06:	4f 22       	sts.l	pr,@-r15
  304a08:	db 14       	mov.l	304a5c <_raise+0x68>,r11	! 304dec <_signal>
  304a0a:	4b 0b       	jsr	@r11
  304a0c:	e5 00       	mov	#0,r5
  304a0e:	20 08       	tst	r0,r0
  304a10:	8f 11       	bf.s	304a36 <_raise+0x42>
  304a12:	6a 03       	mov	r0,r10
  304a14:	90 1f       	mov.w	304a56 <_raise+0x62>,r0	! 950
  304a16:	49 8d       	shld	r8,r9
  304a18:	29 08       	tst	r0,r9
  304a1a:	8b 08       	bf	304a2e <_raise+0x3a>
  304a1c:	d1 10       	mov.l	304a60 <_raise+0x6c>,r1	! 8004
  304a1e:	29 18       	tst	r1,r9
  304a20:	8d 0f       	bt.s	304a42 <_raise+0x4e>
  304a22:	65 a3       	mov	r10,r5
  304a24:	94 18       	mov.w	304a58 <_raise+0x64>,r4	! 80
  304a26:	d1 0f       	mov.l	304a64 <_raise+0x70>,r1	! 30479c <_exit>
  304a28:	34 8c       	add	r8,r4
  304a2a:	41 0b       	jsr	@r1
  304a2c:	00 09       	nop	
  304a2e:	94 13       	mov.w	304a58 <_raise+0x64>,r4	! 80
  304a30:	d1 0d       	mov.l	304a68 <_raise+0x74>,r1	! 300448 <__Exit>
  304a32:	af fa       	bra	304a2a <_raise+0x36>
  304a34:	34 8c       	add	r8,r4
  304a36:	88 01       	cmp/eq	#1,r0
  304a38:	8d 03       	bt.s	304a42 <_raise+0x4e>
  304a3a:	65 a3       	mov	r10,r5
  304a3c:	40 0b       	jsr	@r0
  304a3e:	64 83       	mov	r8,r4
  304a40:	65 a3       	mov	r10,r5
  304a42:	64 83       	mov	r8,r4
  304a44:	4b 0b       	jsr	@r11
  304a46:	e9 00       	mov	#0,r9
  304a48:	60 93       	mov	r9,r0
  304a4a:	4f 26       	lds.l	@r15+,pr
  304a4c:	6b f6       	mov.l	@r15+,r11
  304a4e:	6a f6       	mov.l	@r15+,r10
  304a50:	69 f6       	mov.l	@r15+,r9
  304a52:	00 0b       	rts	
  304a54:	68 f6       	mov.l	@r15+,r8
  304a56:	09 50       	.word 0x0950
  304a58:	00 80       	.word 0x0080
  304a5a:	00 09       	nop	
  304a5c:	00 30       	.word 0x0030
  304a5e:	4d ec       	shad	r14,r13
  304a60:	00 00       	.word 0x0000
  304a62:	80 04       	mov.b	r0,@(4,r0)
  304a64:	00 30       	.word 0x0030
  304a66:	47 9c       	shad	r9,r7
  304a68:	00 30       	.word 0x0030
  304a6a:	04 48       	.word 0x0448

00304a6c <___printf_register>:
  304a6c:	62 43       	mov	r4,r2
  304a6e:	72 bf       	add	#-65,r2
  304a70:	e1 19       	mov	#25,r1
  304a72:	32 16       	cmp/hi	r1,r2
  304a74:	89 0c       	bt	304a90 <___printf_register+0x24>
  304a76:	64 23       	mov	r2,r4
  304a78:	d1 09       	mov.l	304aa0 <___printf_register+0x34>,r1	! 8101ab4 <___printf_formatters>
  304a7a:	44 08       	shll2	r4
  304a7c:	31 4c       	add	r4,r1
  304a7e:	60 12       	mov.l	@r1,r0
  304a80:	88 01       	cmp/eq	#1,r0
  304a82:	8d 03       	bt.s	304a8c <___printf_register+0x20>
  304a84:	60 53       	mov	r5,r0
  304a86:	88 01       	cmp/eq	#1,r0
  304a88:	89 00       	bt	304a8c <___printf_register+0x20>
  304a8a:	21 52       	mov.l	r5,@r1
  304a8c:	00 0b       	rts	
  304a8e:	00 09       	nop	
  304a90:	62 43       	mov	r4,r2
  304a92:	72 9f       	add	#-97,r2
  304a94:	32 16       	cmp/hi	r1,r2
  304a96:	8d f9       	bt.s	304a8c <___printf_register+0x20>
  304a98:	74 b9       	add	#-71,r4
  304a9a:	af ed       	bra	304a78 <___printf_register+0xc>
  304a9c:	00 09       	nop	
  304a9e:	00 09       	nop	
  304aa0:	08 10       	.word 0x0810
  304aa2:	1a b4       	mov.l	r11,@(16,r10)

00304aa4 <___printf_flush>:
  304aa4:	2f 86       	mov.l	r8,@-r15
  304aa6:	2f 96       	mov.l	r9,@-r15
  304aa8:	4f 22       	sts.l	pr,@-r15
  304aaa:	52 45       	mov.l	@(20,r4),r2
  304aac:	51 44       	mov.l	@(16,r4),r1
  304aae:	66 23       	mov	r2,r6
  304ab0:	53 47       	mov.l	@(28,r4),r3
  304ab2:	36 18       	sub	r1,r6
  304ab4:	d9 14       	mov.l	304b08 <___printf_flush+0x64>,r9	! 8101730 <___printf_buffer>
  304ab6:	33 6c       	add	r6,r3
  304ab8:	14 37       	mov.l	r3,@(28,r4)
  304aba:	63 42       	mov.l	@r4,r3
  304abc:	23 38       	tst	r3,r3
  304abe:	8d 11       	bt.s	304ae4 <___printf_flush+0x40>
  304ac0:	68 43       	mov	r4,r8
  304ac2:	33 90       	cmp/eq	r9,r3
  304ac4:	89 0e       	bt	304ae4 <___printf_flush+0x40>
  304ac6:	51 46       	mov.l	@(24,r4),r1
  304ac8:	71 ff       	add	#-1,r1
  304aca:	32 12       	cmp/hs	r1,r2
  304acc:	89 00       	bt	304ad0 <___printf_flush+0x2c>
  304ace:	61 23       	mov	r2,r1
  304ad0:	e2 00       	mov	#0,r2
  304ad2:	21 20       	mov.b	r2,@r1
  304ad4:	d1 0d       	mov.l	304b0c <___printf_flush+0x68>,r1	! 8101770 <___signal_handlers>
  304ad6:	18 94       	mov.l	r9,@(16,r8)
  304ad8:	18 16       	mov.l	r1,@(24,r8)
  304ada:	18 95       	mov.l	r9,@(20,r8)
  304adc:	4f 26       	lds.l	@r15+,pr
  304ade:	69 f6       	mov.l	@r15+,r9
  304ae0:	00 0b       	rts	
  304ae2:	68 f6       	mov.l	@r15+,r8
  304ae4:	57 81       	mov.l	@(4,r8),r7
  304ae6:	27 78       	tst	r7,r7
  304ae8:	8d 05       	bt.s	304af6 <___printf_flush+0x52>
  304aea:	e5 01       	mov	#1,r5
  304aec:	d0 08       	mov.l	304b10 <___printf_flush+0x6c>,r0	! 304e08 <_fwrite>
  304aee:	40 0b       	jsr	@r0
  304af0:	64 13       	mov	r1,r4
  304af2:	af ef       	bra	304ad4 <___printf_flush+0x30>
  304af4:	00 09       	nop	
  304af6:	54 82       	mov.l	@(8,r8),r4
  304af8:	24 48       	tst	r4,r4
  304afa:	89 eb       	bt	304ad4 <___printf_flush+0x30>
  304afc:	d0 05       	mov.l	304b14 <___printf_flush+0x70>,r0	! 305f64 <_write>
  304afe:	40 0b       	jsr	@r0
  304b00:	65 13       	mov	r1,r5
  304b02:	af e7       	bra	304ad4 <___printf_flush+0x30>
  304b04:	00 09       	nop	
  304b06:	00 09       	nop	
  304b08:	08 10       	.word 0x0810
  304b0a:	17 30       	mov.l	r3,@(0,r7)
  304b0c:	08 10       	.word 0x0810
  304b0e:	17 70       	mov.l	r7,@(0,r7)
  304b10:	00 30       	.word 0x0030
  304b12:	4e 08       	shll2	r14
  304b14:	00 30       	.word 0x0030
  304b16:	5f 64       	mov.l	@(16,r6),r15

00304b18 <___printf>:
  304b18:	2f 86       	mov.l	r8,@-r15
  304b1a:	68 53       	mov	r5,r8
  304b1c:	2f 96       	mov.l	r9,@-r15
  304b1e:	69 43       	mov	r4,r9
  304b20:	2f a6       	mov.l	r10,@-r15
  304b22:	2f b6       	mov.l	r11,@-r15
  304b24:	2f c6       	mov.l	r12,@-r15
  304b26:	2f d6       	mov.l	r13,@-r15
  304b28:	2f e6       	mov.l	r14,@-r15
  304b2a:	4f 22       	sts.l	pr,@-r15
  304b2c:	51 41       	mov.l	@(4,r4),r1
  304b2e:	7f d0       	add	#-48,r15
  304b30:	21 18       	tst	r1,r1
  304b32:	8f 03       	bf.s	304b3c <___printf+0x24>
  304b34:	1f 65       	mov.l	r6,@(20,r15)
  304b36:	51 42       	mov.l	@(8,r4),r1
  304b38:	21 18       	tst	r1,r1
  304b3a:	89 19       	bt	304b70 <___printf+0x58>
  304b3c:	d1 9f       	mov.l	304dbc <___printf+0x2a4>,r1	! 8101730 <___printf_buffer>
  304b3e:	19 14       	mov.l	r1,@(16,r9)
  304b40:	71 40       	add	#64,r1
  304b42:	19 16       	mov.l	r1,@(24,r9)
  304b44:	51 94       	mov.l	@(16,r9),r1
  304b46:	19 15       	mov.l	r1,@(20,r9)
  304b48:	e1 00       	mov	#0,r1
  304b4a:	19 17       	mov.l	r1,@(28,r9)
  304b4c:	6a 83       	mov	r8,r10
  304b4e:	6b a4       	mov.b	@r10+,r11
  304b50:	2b b8       	tst	r11,r11
  304b52:	8b 12       	bf	304b7a <___printf+0x62>
  304b54:	d1 9a       	mov.l	304dc0 <___printf+0x2a8>,r1	! 304aa4 <___printf_flush>
  304b56:	41 0b       	jsr	@r1
  304b58:	64 93       	mov	r9,r4
  304b5a:	50 97       	mov.l	@(28,r9),r0
  304b5c:	7f 30       	add	#48,r15
  304b5e:	4f 26       	lds.l	@r15+,pr
  304b60:	6e f6       	mov.l	@r15+,r14
  304b62:	6d f6       	mov.l	@r15+,r13
  304b64:	6c f6       	mov.l	@r15+,r12
  304b66:	6b f6       	mov.l	@r15+,r11
  304b68:	6a f6       	mov.l	@r15+,r10
  304b6a:	69 f6       	mov.l	@r15+,r9
  304b6c:	00 0b       	rts	
  304b6e:	68 f6       	mov.l	@r15+,r8
  304b70:	61 42       	mov.l	@r4,r1
  304b72:	52 43       	mov.l	@(12,r4),r2
  304b74:	14 14       	mov.l	r1,@(16,r4)
  304b76:	af e4       	bra	304b42 <___printf+0x2a>
  304b78:	31 2c       	add	r2,r1
  304b7a:	60 b3       	mov	r11,r0
  304b7c:	88 25       	cmp/eq	#37,r0
  304b7e:	89 0d       	bt	304b9c <___printf+0x84>
  304b80:	52 95       	mov.l	@(20,r9),r2
  304b82:	51 96       	mov.l	@(24,r9),r1
  304b84:	32 12       	cmp/hs	r1,r2
  304b86:	8b 02       	bf	304b8e <___printf+0x76>
  304b88:	d1 8d       	mov.l	304dc0 <___printf+0x2a8>,r1	! 304aa4 <___printf_flush>
  304b8a:	41 0b       	jsr	@r1
  304b8c:	64 93       	mov	r9,r4
  304b8e:	51 95       	mov.l	@(20,r9),r1
  304b90:	62 13       	mov	r1,r2
  304b92:	72 01       	add	#1,r2
  304b94:	19 25       	mov.l	r2,@(20,r9)
  304b96:	21 b0       	mov.b	r11,@r1
  304b98:	af d8       	bra	304b4c <___printf+0x34>
  304b9a:	68 a3       	mov	r10,r8
  304b9c:	84 81       	mov.b	@(1,r8),r0
  304b9e:	20 08       	tst	r0,r0
  304ba0:	8d d8       	bt.s	304b54 <___printf+0x3c>
  304ba2:	88 25       	cmp/eq	#37,r0
  304ba4:	8f 10       	bf.s	304bc8 <___printf+0xb0>
  304ba6:	e1 00       	mov	#0,r1
  304ba8:	52 95       	mov.l	@(20,r9),r2
  304baa:	51 96       	mov.l	@(24,r9),r1
  304bac:	32 12       	cmp/hs	r1,r2
  304bae:	8b 02       	bf	304bb6 <___printf+0x9e>
  304bb0:	d1 83       	mov.l	304dc0 <___printf+0x2a8>,r1	! 304aa4 <___printf_flush>
  304bb2:	41 0b       	jsr	@r1
  304bb4:	64 93       	mov	r9,r4
  304bb6:	51 95       	mov.l	@(20,r9),r1
  304bb8:	6a 83       	mov	r8,r10
  304bba:	7a 02       	add	#2,r10
  304bbc:	62 13       	mov	r1,r2
  304bbe:	72 01       	add	#1,r2
  304bc0:	19 25       	mov.l	r2,@(20,r9)
  304bc2:	e2 25       	mov	#37,r2
  304bc4:	af e8       	bra	304b98 <___printf+0x80>
  304bc6:	21 20       	mov.b	r2,@r1
  304bc8:	e0 00       	mov	#0,r0
  304bca:	1f 18       	mov.l	r1,@(32,r15)
  304bcc:	e3 00       	mov	#0,r3
  304bce:	1f 19       	mov.l	r1,@(36,r15)
  304bd0:	e7 00       	mov	#0,r7
  304bd2:	1f 04       	mov.l	r0,@(16,r15)
  304bd4:	e6 00       	mov	#0,r6
  304bd6:	eb 00       	mov	#0,r11
  304bd8:	ec ff       	mov	#-1,r12
  304bda:	ee 00       	mov	#0,r14
  304bdc:	e2 00       	mov	#0,r2
  304bde:	68 a0       	mov.b	@r10,r8
  304be0:	28 88       	tst	r8,r8
  304be2:	8f 41       	bf.s	304c68 <___printf+0x150>
  304be4:	6d 83       	mov	r8,r13
  304be6:	65 f3       	mov	r15,r5
  304be8:	75 20       	add	#32,r5
  304bea:	60 c3       	mov	r12,r0
  304bec:	81 51       	mov.w	r0,@(2,r5)
  304bee:	60 b3       	mov	r11,r0
  304bf0:	80 54       	mov.b	r0,@(4,r5)
  304bf2:	46 18       	shll8	r6
  304bf4:	84 55       	mov.b	@(5,r5),r0
  304bf6:	46 01       	shlr	r6
  304bf8:	47 18       	shll8	r7
  304bfa:	c9 3f       	and	#63,r0
  304bfc:	47 09       	shlr2	r7
  304bfe:	20 6b       	or	r6,r0
  304c00:	43 08       	shll2	r3
  304c02:	e1 df       	mov	#-33,r1
  304c04:	20 7b       	or	r7,r0
  304c06:	33 3c       	add	r3,r3
  304c08:	20 19       	and	r1,r0
  304c0a:	43 08       	shll2	r3
  304c0c:	20 3b       	or	r3,r0
  304c0e:	80 55       	mov.b	r0,@(5,r5)
  304c10:	64 f3       	mov	r15,r4
  304c12:	50 f4       	mov.l	@(16,r15),r0
  304c14:	61 f3       	mov	r15,r1
  304c16:	d2 6b       	mov.l	304dc4 <___printf+0x2ac>,r2	! 306014 <___movmemSI8>
  304c18:	74 28       	add	#40,r4
  304c1a:	71 18       	add	#24,r1
  304c1c:	80 56       	mov.b	r0,@(6,r5)
  304c1e:	2b b8       	tst	r11,r11
  304c20:	42 0b       	jsr	@r2
  304c22:	25 e1       	mov.w	r14,@r5
  304c24:	64 13       	mov	r1,r4
  304c26:	42 0b       	jsr	@r2
  304c28:	75 08       	add	#8,r5
  304c2a:	60 83       	mov	r8,r0
  304c2c:	80 17       	mov.b	r0,@(7,r1)
  304c2e:	8f 06       	bf.s	304c3e <___printf+0x126>
  304c30:	7a 01       	add	#1,r10
  304c32:	60 83       	mov	r8,r0
  304c34:	88 63       	cmp/eq	#99,r0
  304c36:	8d 01       	bt.s	304c3c <___printf+0x124>
  304c38:	e0 01       	mov	#1,r0
  304c3a:	e0 04       	mov	#4,r0
  304c3c:	80 14       	mov.b	r0,@(4,r1)
  304c3e:	63 83       	mov	r8,r3
  304c40:	73 bf       	add	#-65,r3
  304c42:	e2 19       	mov	#25,r2
  304c44:	33 26       	cmp/hi	r2,r3
  304c46:	8b 01       	bf	304c4c <___printf+0x134>
  304c48:	a0 b1       	bra	304dae <___printf+0x296>
  304c4a:	63 83       	mov	r8,r3
  304c4c:	68 33       	mov	r3,r8
  304c4e:	d2 5e       	mov.l	304dc8 <___printf+0x2b0>,r2	! 8101ab4 <___printf_formatters>
  304c50:	48 08       	shll2	r8
  304c52:	60 83       	mov	r8,r0
  304c54:	02 2e       	mov.l	@(r0,r2),r2
  304c56:	e3 01       	mov	#1,r3
  304c58:	32 36       	cmp/hi	r3,r2
  304c5a:	8f 9d       	bf.s	304b98 <___printf+0x80>
  304c5c:	65 13       	mov	r1,r5
  304c5e:	56 f5       	mov.l	@(20,r15),r6
  304c60:	42 0b       	jsr	@r2
  304c62:	64 93       	mov	r9,r4
  304c64:	af 98       	bra	304b98 <___printf+0x80>
  304c66:	00 09       	nop	
  304c68:	60 83       	mov	r8,r0
  304c6a:	70 bf       	add	#-65,r0
  304c6c:	e5 19       	mov	#25,r5
  304c6e:	30 56       	cmp/hi	r5,r0
  304c70:	8f 07       	bf.s	304c82 <___printf+0x16a>
  304c72:	40 11       	cmp/pz	r0
  304c74:	64 83       	mov	r8,r4
  304c76:	74 9f       	add	#-97,r4
  304c78:	34 56       	cmp/hi	r5,r4
  304c7a:	8d 09       	bt.s	304c90 <___printf+0x178>
  304c7c:	60 83       	mov	r8,r0
  304c7e:	70 b9       	add	#-71,r0
  304c80:	40 11       	cmp/pz	r0
  304c82:	8f 05       	bf.s	304c90 <___printf+0x178>
  304c84:	40 08       	shll2	r0
  304c86:	d5 50       	mov.l	304dc8 <___printf+0x2b0>,r5	! 8101ab4 <___printf_formatters>
  304c88:	00 5e       	mov.l	@(r0,r5),r0
  304c8a:	88 01       	cmp/eq	#1,r0
  304c8c:	8f ac       	bf.s	304be8 <___printf+0xd0>
  304c8e:	65 f3       	mov	r15,r5
  304c90:	60 83       	mov	r8,r0
  304c92:	88 2e       	cmp/eq	#46,r0
  304c94:	8f 02       	bf.s	304c9c <___printf+0x184>
  304c96:	60 13       	mov	r1,r0
  304c98:	a0 23       	bra	304ce2 <___printf+0x1ca>
  304c9a:	ec 00       	mov	#0,r12
  304c9c:	88 01       	cmp/eq	#1,r0
  304c9e:	8f 10       	bf.s	304cc2 <___printf+0x1aa>
  304ca0:	64 8c       	extu.b	r8,r4
  304ca2:	e5 2f       	mov	#47,r5
  304ca4:	38 57       	cmp/gt	r5,r8
  304ca6:	8b 0c       	bf	304cc2 <___printf+0x1aa>
  304ca8:	e1 39       	mov	#57,r1
  304caa:	38 17       	cmp/gt	r1,r8
  304cac:	8d 21       	bt.s	304cf2 <___printf+0x1da>
  304cae:	60 83       	mov	r8,r0
  304cb0:	e1 0a       	mov	#10,r1
  304cb2:	2e 1e       	mulu.w	r1,r14
  304cb4:	0e 1a       	sts	macl,r14
  304cb6:	7e d0       	add	#-48,r14
  304cb8:	3e 8c       	add	r8,r14
  304cba:	6e ed       	extu.w	r14,r14
  304cbc:	e1 01       	mov	#1,r1
  304cbe:	af 8e       	bra	304bde <___printf+0xc6>
  304cc0:	7a 01       	add	#1,r10
  304cc2:	65 43       	mov	r4,r5
  304cc4:	75 d0       	add	#-48,r5
  304cc6:	65 5c       	extu.b	r5,r5
  304cc8:	e0 09       	mov	#9,r0
  304cca:	35 06       	cmp/hi	r0,r5
  304ccc:	8d 0b       	bt.s	304ce6 <___printf+0x1ce>
  304cce:	60 13       	mov	r1,r0
  304cd0:	88 02       	cmp/eq	#2,r0
  304cd2:	8f 09       	bf.s	304ce8 <___printf+0x1d0>
  304cd4:	60 83       	mov	r8,r0
  304cd6:	e1 0a       	mov	#10,r1
  304cd8:	2c 1e       	mulu.w	r1,r12
  304cda:	0c 1a       	sts	macl,r12
  304cdc:	3c 8c       	add	r8,r12
  304cde:	7c d0       	add	#-48,r12
  304ce0:	6c cf       	exts.w	r12,r12
  304ce2:	af ec       	bra	304cbe <___printf+0x1a6>
  304ce4:	e1 02       	mov	#2,r1
  304ce6:	60 83       	mov	r8,r0
  304ce8:	88 23       	cmp/eq	#35,r0
  304cea:	8d 37       	bt.s	304d5c <___printf+0x244>
  304cec:	88 20       	cmp/eq	#32,r0
  304cee:	8d 3c       	bt.s	304d6a <___printf+0x252>
  304cf0:	60 83       	mov	r8,r0
  304cf2:	88 2b       	cmp/eq	#43,r0
  304cf4:	8d 3b       	bt.s	304d6e <___printf+0x256>
  304cf6:	88 2d       	cmp/eq	#45,r0
  304cf8:	8d 32       	bt.s	304d60 <___printf+0x248>
  304cfa:	88 30       	cmp/eq	#48,r0
  304cfc:	8d 31       	bt.s	304d62 <___printf+0x24a>
  304cfe:	50 f4       	mov.l	@(16,r15),r0
  304d00:	d1 32       	mov.l	304dcc <___printf+0x2b4>,r1	! 304dd4 <_strchr>
  304d02:	65 83       	mov	r8,r5
  304d04:	1f 23       	mov.l	r2,@(12,r15)
  304d06:	2f 32       	mov.l	r3,@r15
  304d08:	1f 62       	mov.l	r6,@(8,r15)
  304d0a:	d4 31       	mov.l	304dd0 <___printf+0x2b8>,r4	! 307550
  304d0c:	41 0b       	jsr	@r1
  304d0e:	1f 71       	mov.l	r7,@(4,r15)
  304d10:	20 08       	tst	r0,r0
  304d12:	52 f3       	mov.l	@(12,r15),r2
  304d14:	63 f2       	mov.l	@r15,r3
  304d16:	56 f2       	mov.l	@(8,r15),r6
  304d18:	8d 31       	bt.s	304d7e <___printf+0x266>
  304d1a:	57 f1       	mov.l	@(4,r15),r7
  304d1c:	60 83       	mov	r8,r0
  304d1e:	88 68       	cmp/eq	#104,r0
  304d20:	8f 02       	bf.s	304d28 <___printf+0x210>
  304d22:	60 23       	mov	r2,r0
  304d24:	88 68       	cmp/eq	#104,r0
  304d26:	89 2c       	bt	304d82 <___printf+0x26a>
  304d28:	60 83       	mov	r8,r0
  304d2a:	88 68       	cmp/eq	#104,r0
  304d2c:	8d 2c       	bt.s	304d88 <___printf+0x270>
  304d2e:	88 6c       	cmp/eq	#108,r0
  304d30:	8f 02       	bf.s	304d38 <___printf+0x220>
  304d32:	60 23       	mov	r2,r0
  304d34:	88 6c       	cmp/eq	#108,r0
  304d36:	89 29       	bt	304d8c <___printf+0x274>
  304d38:	60 83       	mov	r8,r0
  304d3a:	88 6c       	cmp/eq	#108,r0
  304d3c:	8d 29       	bt.s	304d92 <___printf+0x27a>
  304d3e:	e1 6c       	mov	#108,r1
  304d40:	38 17       	cmp/gt	r1,r8
  304d42:	8d 16       	bt.s	304d72 <___printf+0x25a>
  304d44:	88 74       	cmp/eq	#116,r0
  304d46:	88 4c       	cmp/eq	#76,r0
  304d48:	8d 25       	bt.s	304d96 <___printf+0x27e>
  304d4a:	88 6a       	cmp/eq	#106,r0
  304d4c:	89 26       	bt	304d9c <___printf+0x284>
  304d4e:	78 cf       	add	#-49,r8
  304d50:	e1 08       	mov	#8,r1
  304d52:	38 16       	cmp/hi	r1,r8
  304d54:	89 28       	bt	304da8 <___printf+0x290>
  304d56:	7a ff       	add	#-1,r10
  304d58:	af b0       	bra	304cbc <___printf+0x1a4>
  304d5a:	62 d3       	mov	r13,r2
  304d5c:	af d0       	bra	304d00 <___printf+0x1e8>
  304d5e:	e6 01       	mov	#1,r6
  304d60:	50 f4       	mov.l	@(16,r15),r0
  304d62:	88 30       	cmp/eq	#48,r0
  304d64:	89 cc       	bt	304d00 <___printf+0x1e8>
  304d66:	af cb       	bra	304d00 <___printf+0x1e8>
  304d68:	1f 44       	mov.l	r4,@(16,r15)
  304d6a:	af c9       	bra	304d00 <___printf+0x1e8>
  304d6c:	e7 01       	mov	#1,r7
  304d6e:	af c7       	bra	304d00 <___printf+0x1e8>
  304d70:	e3 01       	mov	#1,r3
  304d72:	8d 16       	bt.s	304da2 <___printf+0x28a>
  304d74:	88 7a       	cmp/eq	#122,r0
  304d76:	8b ea       	bf	304d4e <___printf+0x236>
  304d78:	eb 04       	mov	#4,r11
  304d7a:	af e8       	bra	304d4e <___printf+0x236>
  304d7c:	ed 7a       	mov	#122,r13
  304d7e:	af e6       	bra	304d4e <___printf+0x236>
  304d80:	6d 23       	mov	r2,r13
  304d82:	eb 01       	mov	#1,r11
  304d84:	af e3       	bra	304d4e <___printf+0x236>
  304d86:	ed 68       	mov	#104,r13
  304d88:	af e1       	bra	304d4e <___printf+0x236>
  304d8a:	eb 02       	mov	#2,r11
  304d8c:	eb 08       	mov	#8,r11
  304d8e:	af de       	bra	304d4e <___printf+0x236>
  304d90:	ed 6c       	mov	#108,r13
  304d92:	af fc       	bra	304d8e <___printf+0x276>
  304d94:	eb 04       	mov	#4,r11
  304d96:	eb 08       	mov	#8,r11
  304d98:	af d9       	bra	304d4e <___printf+0x236>
  304d9a:	ed 4c       	mov	#76,r13
  304d9c:	eb 08       	mov	#8,r11
  304d9e:	af d6       	bra	304d4e <___printf+0x236>
  304da0:	ed 6a       	mov	#106,r13
  304da2:	eb 04       	mov	#4,r11
  304da4:	af d3       	bra	304d4e <___printf+0x236>
  304da6:	ed 74       	mov	#116,r13
  304da8:	62 d3       	mov	r13,r2
  304daa:	af 88       	bra	304cbe <___printf+0x1a6>
  304dac:	e1 00       	mov	#0,r1
  304dae:	73 9f       	add	#-97,r3
  304db0:	33 26       	cmp/hi	r2,r3
  304db2:	8b 01       	bf	304db8 <___printf+0x2a0>
  304db4:	ae f0       	bra	304b98 <___printf+0x80>
  304db6:	00 09       	nop	
  304db8:	af 49       	bra	304c4e <___printf+0x136>
  304dba:	78 b9       	add	#-71,r8
  304dbc:	08 10       	.word 0x0810
  304dbe:	17 30       	mov.l	r3,@(0,r7)
  304dc0:	00 30       	.word 0x0030
  304dc2:	4a a4       	.word 0x4aa4
  304dc4:	00 30       	.word 0x0030
  304dc6:	60 14       	mov.b	@r1+,r0
  304dc8:	08 10       	.word 0x0810
  304dca:	1a b4       	mov.l	r11,@(16,r10)
  304dcc:	00 30       	.word 0x0030
  304dce:	4d d4       	.word 0x4dd4
  304dd0:	00 30       	.word 0x0030
  304dd2:	75 50       	add	#80,r5

00304dd4 <_strchr>:
  304dd4:	61 40       	mov.b	@r4,r1
  304dd6:	60 43       	mov	r4,r0
  304dd8:	21 18       	tst	r1,r1
  304dda:	8f 02       	bf.s	304de2 <_strchr+0xe>
  304ddc:	74 01       	add	#1,r4
  304dde:	a0 02       	bra	304de6 <_strchr+0x12>
  304de0:	e0 00       	mov	#0,r0
  304de2:	31 50       	cmp/eq	r5,r1
  304de4:	8b f6       	bf	304dd4 <_strchr>
  304de6:	00 0b       	rts	
  304de8:	00 09       	nop	
	...

00304dec <_signal>:
  304dec:	e1 0f       	mov	#15,r1
  304dee:	34 16       	cmp/hi	r1,r4
  304df0:	8d 05       	bt.s	304dfe <_signal+0x12>
  304df2:	e0 ff       	mov	#-1,r0
  304df4:	d1 03       	mov.l	304e04 <_signal+0x18>,r1	! 8101770 <___signal_handlers>
  304df6:	44 08       	shll2	r4
  304df8:	31 4c       	add	r4,r1
  304dfa:	60 12       	mov.l	@r1,r0
  304dfc:	21 52       	mov.l	r5,@r1
  304dfe:	00 0b       	rts	
  304e00:	00 09       	nop	
  304e02:	00 09       	nop	
  304e04:	08 10       	.word 0x0810
  304e06:	17 70       	mov.l	r7,@(0,r7)

00304e08 <_fwrite>:
  304e08:	2f 86       	mov.l	r8,@-r15
  304e0a:	68 73       	mov	r7,r8
  304e0c:	2f 96       	mov.l	r9,@-r15
  304e0e:	2f a6       	mov.l	r10,@-r15
  304e10:	2f b6       	mov.l	r11,@-r15
  304e12:	6b 43       	mov	r4,r11
  304e14:	2f c6       	mov.l	r12,@-r15
  304e16:	2f d6       	mov.l	r13,@-r15
  304e18:	85 7e       	mov.w	@(28,r7),r0
  304e1a:	2f e6       	mov.l	r14,@-r15
  304e1c:	61 0d       	extu.w	r0,r1
  304e1e:	4f 22       	sts.l	pr,@-r15
  304e20:	60 08       	swap.b	r0,r0
  304e22:	c8 04       	tst	#4,r0
  304e24:	8f 0f       	bf.s	304e46 <_fwrite+0x3e>
  304e26:	7f fc       	add	#-4,r15
  304e28:	85 8e       	mov.w	@(28,r8),r0
  304e2a:	e9 00       	mov	#0,r9
  304e2c:	cb 40       	or	#64,r0
  304e2e:	81 8e       	mov.w	r0,@(28,r8)
  304e30:	60 93       	mov	r9,r0
  304e32:	7f 04       	add	#4,r15
  304e34:	4f 26       	lds.l	@r15+,pr
  304e36:	6e f6       	mov.l	@r15+,r14
  304e38:	6d f6       	mov.l	@r15+,r13
  304e3a:	6c f6       	mov.l	@r15+,r12
  304e3c:	6b f6       	mov.l	@r15+,r11
  304e3e:	6a f6       	mov.l	@r15+,r10
  304e40:	69 f6       	mov.l	@r15+,r9
  304e42:	00 0b       	rts	
  304e44:	68 f6       	mov.l	@r15+,r8
  304e46:	35 65       	dmulu.l	r6,r5
  304e48:	02 0a       	sts	mach,r2
  304e4a:	22 28       	tst	r2,r2
  304e4c:	00 29       	movt	r0
  304e4e:	ca 01       	xor	#1,r0
  304e50:	0a 1a       	sts	macl,r10
  304e52:	8f e9       	bf.s	304e28 <_fwrite+0x20>
  304e54:	69 03       	mov	r0,r9
  304e56:	60 18       	swap.b	r1,r0
  304e58:	c8 02       	tst	#2,r0
  304e5a:	8d 06       	bt.s	304e6a <_fwrite+0x62>
  304e5c:	e6 02       	mov	#2,r6
  304e5e:	d0 2d       	mov.l	304f14 <_fwrite+0x10c>,r0	! 305b78 <_fseek>
  304e60:	e5 00       	mov	#0,r5
  304e62:	40 0b       	jsr	@r0
  304e64:	64 73       	mov	r7,r4
  304e66:	88 ff       	cmp/eq	#-1,r0
  304e68:	89 de       	bt	304e28 <_fwrite+0x20>
  304e6a:	51 82       	mov.l	@(8,r8),r1
  304e6c:	21 18       	tst	r1,r1
  304e6e:	8f 0a       	bf.s	304e86 <_fwrite+0x7e>
  304e70:	6c a3       	mov	r10,r12
  304e72:	d0 29       	mov.l	304f18 <_fwrite+0x110>,r0	! 305a80 <___fp_write>
  304e74:	66 a3       	mov	r10,r6
  304e76:	65 b3       	mov	r11,r5
  304e78:	40 0b       	jsr	@r0
  304e7a:	64 83       	mov	r8,r4
  304e7c:	88 ff       	cmp/eq	#-1,r0
  304e7e:	8b 00       	bf	304e82 <_fwrite+0x7a>
  304e80:	e0 00       	mov	#0,r0
  304e82:	af d5       	bra	304e30 <_fwrite+0x28>
  304e84:	69 03       	mov	r0,r9
  304e86:	d1 25       	mov.l	304f1c <_fwrite+0x114>,r1	! 305824 <___fp_buffer_mode_write>
  304e88:	9d 42       	mov.w	304f10 <_fwrite+0x108>,r13	! c000
  304e8a:	41 0b       	jsr	@r1
  304e8c:	64 83       	mov	r8,r4
  304e8e:	9e 40       	mov.w	304f12 <_fwrite+0x10a>,r14	! 4000
  304e90:	3c 96       	cmp/hi	r9,r12
  304e92:	8f ce       	bf.s	304e32 <_fwrite+0x2a>
  304e94:	60 93       	mov	r9,r0
  304e96:	52 83       	mov.l	@(12,r8),r2
  304e98:	6a c3       	mov	r12,r10
  304e9a:	51 85       	mov.l	@(20,r8),r1
  304e9c:	3a 98       	sub	r9,r10
  304e9e:	31 28       	sub	r2,r1
  304ea0:	3a 16       	cmp/hi	r1,r10
  304ea2:	62 b3       	mov	r11,r2
  304ea4:	8d 31       	bt.s	304f0a <_fwrite+0x102>
  304ea6:	32 9c       	add	r9,r2
  304ea8:	85 8e       	mov.w	@(28,r8),r0
  304eaa:	20 d9       	and	r13,r0
  304eac:	60 0d       	extu.w	r0,r0
  304eae:	30 e0       	cmp/eq	r14,r0
  304eb0:	8f 0d       	bf.s	304ece <_fwrite+0xc6>
  304eb2:	e1 00       	mov	#0,r1
  304eb4:	d0 1a       	mov.l	304f20 <_fwrite+0x118>,r0	! 30567c <_memrchr>
  304eb6:	64 23       	mov	r2,r4
  304eb8:	2f 22       	mov.l	r2,@r15
  304eba:	66 a3       	mov	r10,r6
  304ebc:	40 0b       	jsr	@r0
  304ebe:	e5 0a       	mov	#10,r5
  304ec0:	20 08       	tst	r0,r0
  304ec2:	62 f2       	mov.l	@r15,r2
  304ec4:	8d 03       	bt.s	304ece <_fwrite+0xc6>
  304ec6:	61 03       	mov	r0,r1
  304ec8:	6a 03       	mov	r0,r10
  304eca:	3a 28       	sub	r2,r10
  304ecc:	7a 01       	add	#1,r10
  304ece:	54 82       	mov.l	@(8,r8),r4
  304ed0:	66 a3       	mov	r10,r6
  304ed2:	53 83       	mov.l	@(12,r8),r3
  304ed4:	65 23       	mov	r2,r5
  304ed6:	d0 13       	mov.l	304f24 <_fwrite+0x11c>,r0	! 3048b0 <_memcpy>
  304ed8:	34 3c       	add	r3,r4
  304eda:	40 0b       	jsr	@r0
  304edc:	2f 12       	mov.l	r1,@r15
  304ede:	52 83       	mov.l	@(12,r8),r2
  304ee0:	66 a3       	mov	r10,r6
  304ee2:	61 f2       	mov.l	@r15,r1
  304ee4:	36 2c       	add	r2,r6
  304ee6:	52 85       	mov.l	@(20,r8),r2
  304ee8:	39 ac       	add	r10,r9
  304eea:	36 22       	cmp/hs	r2,r6
  304eec:	8d 03       	bt.s	304ef6 <_fwrite+0xee>
  304eee:	18 63       	mov.l	r6,@(12,r8)
  304ef0:	21 18       	tst	r1,r1
  304ef2:	8d ce       	bt.s	304e92 <_fwrite+0x8a>
  304ef4:	3c 96       	cmp/hi	r9,r12
  304ef6:	d0 08       	mov.l	304f18 <_fwrite+0x110>,r0	! 305a80 <___fp_write>
  304ef8:	64 83       	mov	r8,r4
  304efa:	40 0b       	jsr	@r0
  304efc:	55 82       	mov.l	@(8,r8),r5
  304efe:	40 15       	cmp/pl	r0
  304f00:	8f 97       	bf.s	304e32 <_fwrite+0x2a>
  304f02:	60 93       	mov	r9,r0
  304f04:	e1 00       	mov	#0,r1
  304f06:	af c3       	bra	304e90 <_fwrite+0x88>
  304f08:	18 13       	mov.l	r1,@(12,r8)
  304f0a:	6a 13       	mov	r1,r10
  304f0c:	af df       	bra	304ece <_fwrite+0xc6>
  304f0e:	e1 00       	mov	#0,r1
  304f10:	c0 00       	mov.b	r0,@(0,gbr)
  304f12:	40 00       	shll	r0
  304f14:	00 30       	.word 0x0030
  304f16:	5b 78       	mov.l	@(32,r7),r11
  304f18:	00 30       	.word 0x0030
  304f1a:	5a 80       	mov.l	@(0,r8),r10
  304f1c:	00 30       	.word 0x0030
  304f1e:	58 24       	mov.l	@(16,r2),r8
  304f20:	00 30       	.word 0x0030
  304f22:	56 7c       	mov.l	@(48,r7),r6
  304f24:	00 30       	.word 0x0030
  304f26:	48 b0       	.word 0x48b0

00304f28 <___printf_out>:
  304f28:	2f 86       	mov.l	r8,@-r15
  304f2a:	68 43       	mov	r4,r8
  304f2c:	52 45       	mov.l	@(20,r4),r2
  304f2e:	51 46       	mov.l	@(24,r4),r1
  304f30:	2f 96       	mov.l	r9,@-r15
  304f32:	32 12       	cmp/hs	r1,r2
  304f34:	4f 22       	sts.l	pr,@-r15
  304f36:	8f 03       	bf.s	304f40 <___printf_out+0x18>
  304f38:	69 53       	mov	r5,r9
  304f3a:	d1 06       	mov.l	304f54 <___printf_out+0x2c>,r1	! 304aa4 <___printf_flush>
  304f3c:	41 0b       	jsr	@r1
  304f3e:	00 09       	nop	
  304f40:	51 85       	mov.l	@(20,r8),r1
  304f42:	62 13       	mov	r1,r2
  304f44:	72 01       	add	#1,r2
  304f46:	18 25       	mov.l	r2,@(20,r8)
  304f48:	21 90       	mov.b	r9,@r1
  304f4a:	4f 26       	lds.l	@r15+,pr
  304f4c:	69 f6       	mov.l	@r15+,r9
  304f4e:	00 0b       	rts	
  304f50:	68 f6       	mov.l	@r15+,r8
  304f52:	00 09       	nop	
  304f54:	00 30       	.word 0x0030
  304f56:	4a a4       	.word 0x4aa4

00304f58 <___printf_outn>:
  304f58:	2f 86       	mov.l	r8,@-r15
  304f5a:	68 63       	mov	r6,r8
  304f5c:	2f 96       	mov.l	r9,@-r15
  304f5e:	69 43       	mov	r4,r9
  304f60:	2f a6       	mov.l	r10,@-r15
  304f62:	6a 53       	mov	r5,r10
  304f64:	2f b6       	mov.l	r11,@-r15
  304f66:	db 08       	mov.l	304f88 <___printf_outn+0x30>,r11	! 304f28 <___printf_out>
  304f68:	4f 22       	sts.l	pr,@-r15
  304f6a:	48 15       	cmp/pl	r8
  304f6c:	8d 06       	bt.s	304f7c <___printf_outn+0x24>
  304f6e:	65 a3       	mov	r10,r5
  304f70:	4f 26       	lds.l	@r15+,pr
  304f72:	6b f6       	mov.l	@r15+,r11
  304f74:	6a f6       	mov.l	@r15+,r10
  304f76:	69 f6       	mov.l	@r15+,r9
  304f78:	00 0b       	rts	
  304f7a:	68 f6       	mov.l	@r15+,r8
  304f7c:	64 93       	mov	r9,r4
  304f7e:	4b 0b       	jsr	@r11
  304f80:	78 ff       	add	#-1,r8
  304f82:	af f3       	bra	304f6c <___printf_outn+0x14>
  304f84:	48 15       	cmp/pl	r8
  304f86:	00 09       	nop	
  304f88:	00 30       	.word 0x0030
  304f8a:	4f 28       	shll16	r15

00304f8c <___printf_format_c>:
  304f8c:	2f 86       	mov.l	r8,@-r15
  304f8e:	68 43       	mov	r4,r8
  304f90:	2f 96       	mov.l	r9,@-r15
  304f92:	69 53       	mov	r5,r9
  304f94:	2f a6       	mov.l	r10,@-r15
  304f96:	e5 00       	mov	#0,r5
  304f98:	2f b6       	mov.l	r11,@-r15
  304f9a:	2f c6       	mov.l	r12,@-r15
  304f9c:	2f d6       	mov.l	r13,@-r15
  304f9e:	2f e6       	mov.l	r14,@-r15
  304fa0:	4f 22       	sts.l	pr,@-r15
  304fa2:	61 62       	mov.l	@r6,r1
  304fa4:	7f ec       	add	#-20,r15
  304fa6:	d0 31       	mov.l	30506c <___printf_format_c+0xe0>,r0	! 304970 <_memset>
  304fa8:	62 13       	mov	r1,r2
  304faa:	6b f3       	mov	r15,r11
  304fac:	72 04       	add	#4,r2
  304fae:	7b 04       	add	#4,r11
  304fb0:	26 22       	mov.l	r2,@r6
  304fb2:	64 b3       	mov	r11,r4
  304fb4:	e6 10       	mov	#16,r6
  304fb6:	40 0b       	jsr	@r0
  304fb8:	6a 12       	mov.l	@r1,r10
  304fba:	d1 2d       	mov.l	305070 <___printf_format_c+0xe4>,r1	! 305470 <___printf_compute_geometry>
  304fbc:	e0 01       	mov	#1,r0
  304fbe:	81 b3       	mov.w	r0,@(6,r11)
  304fc0:	64 93       	mov	r9,r4
  304fc2:	de 2c       	mov.l	305074 <___printf_format_c+0xe8>,r14	! 304f58 <___printf_outn>
  304fc4:	41 0b       	jsr	@r1
  304fc6:	65 b3       	mov	r11,r5
  304fc8:	66 b1       	mov.w	@r11,r6
  304fca:	e5 20       	mov	#32,r5
  304fcc:	66 6d       	extu.w	r6,r6
  304fce:	4e 0b       	jsr	@r14
  304fd0:	64 83       	mov	r8,r4
  304fd2:	84 94       	mov.b	@(4,r9),r0
  304fd4:	88 04       	cmp/eq	#4,r0
  304fd6:	d9 28       	mov.l	305078 <___printf_format_c+0xec>,r9	! 304f28 <___printf_out>
  304fd8:	8f 03       	bf.s	304fe2 <___printf_format_c+0x56>
  304fda:	e1 7f       	mov	#127,r1
  304fdc:	3a 17       	cmp/gt	r1,r10
  304fde:	8d 12       	bt.s	305006 <___printf_format_c+0x7a>
  304fe0:	e1 fa       	mov	#-6,r1
  304fe2:	65 a3       	mov	r10,r5
  304fe4:	49 0b       	jsr	@r9
  304fe6:	64 83       	mov	r8,r4
  304fe8:	85 b4       	mov.w	@(8,r11),r0
  304fea:	e5 20       	mov	#32,r5
  304fec:	66 0d       	extu.w	r0,r6
  304fee:	4e 0b       	jsr	@r14
  304ff0:	64 83       	mov	r8,r4
  304ff2:	7f 14       	add	#20,r15
  304ff4:	4f 26       	lds.l	@r15+,pr
  304ff6:	6e f6       	mov.l	@r15+,r14
  304ff8:	6d f6       	mov.l	@r15+,r13
  304ffa:	6c f6       	mov.l	@r15+,r12
  304ffc:	6b f6       	mov.l	@r15+,r11
  304ffe:	6a f6       	mov.l	@r15+,r10
  305000:	69 f6       	mov.l	@r15+,r9
  305002:	00 0b       	rts	
  305004:	68 f6       	mov.l	@r15+,r8
  305006:	65 a3       	mov	r10,r5
  305008:	45 1c       	shad	r1,r5
  30500a:	91 29       	mov.w	305060 <___printf_format_c+0xd4>,r1	! 7ff
  30500c:	60 a3       	mov	r10,r0
  30500e:	9d 28       	mov.w	305062 <___printf_format_c+0xd6>,r13	! 80
  305010:	c9 3f       	and	#63,r0
  305012:	3a 17       	cmp/gt	r1,r10
  305014:	8d 06       	bt.s	305024 <___printf_format_c+0x98>
  305016:	2d 0b       	or	r0,r13
  305018:	91 24       	mov.w	305064 <___printf_format_c+0xd8>,r1	! c0
  30501a:	25 1b       	or	r1,r5
  30501c:	49 0b       	jsr	@r9
  30501e:	64 83       	mov	r8,r4
  305020:	af e0       	bra	304fe4 <___printf_format_c+0x58>
  305022:	65 d3       	mov	r13,r5
  305024:	e2 f4       	mov	#-12,r2
  305026:	61 a3       	mov	r10,r1
  305028:	41 2c       	shad	r2,r1
  30502a:	d2 14       	mov.l	30507c <___printf_format_c+0xf0>,r2	! ffff
  30502c:	60 53       	mov	r5,r0
  30502e:	9c 18       	mov.w	305062 <___printf_format_c+0xd6>,r12	! 80
  305030:	c9 3f       	and	#63,r0
  305032:	3a 27       	cmp/gt	r2,r10
  305034:	8d 06       	bt.s	305044 <___printf_format_c+0xb8>
  305036:	2c 0b       	or	r0,r12
  305038:	95 15       	mov.w	305066 <___printf_format_c+0xda>,r5	! e0
  30503a:	25 1b       	or	r1,r5
  30503c:	49 0b       	jsr	@r9
  30503e:	64 83       	mov	r8,r4
  305040:	af ec       	bra	30501c <___printf_format_c+0x90>
  305042:	65 c3       	mov	r12,r5
  305044:	e2 ee       	mov	#-18,r2
  305046:	65 a3       	mov	r10,r5
  305048:	45 2c       	shad	r2,r5
  30504a:	92 0d       	mov.w	305068 <___printf_format_c+0xdc>,r2	! f0
  30504c:	64 83       	mov	r8,r4
  30504e:	2f 12       	mov.l	r1,@r15
  305050:	49 0b       	jsr	@r9
  305052:	25 2b       	or	r2,r5
  305054:	61 f2       	mov.l	@r15,r1
  305056:	e5 3f       	mov	#63,r5
  305058:	25 19       	and	r1,r5
  30505a:	91 02       	mov.w	305062 <___printf_format_c+0xd6>,r1	! 80
  30505c:	af ee       	bra	30503c <___printf_format_c+0xb0>
  30505e:	25 1b       	or	r1,r5
  305060:	07 ff       	mac.l	@r15+,@r7+
  305062:	00 80       	.word 0x0080
  305064:	00 c0       	.word 0x00c0
  305066:	00 e0       	.word 0x00e0
  305068:	00 f0       	.word 0x00f0
  30506a:	00 09       	nop	
  30506c:	00 30       	.word 0x0030
  30506e:	49 70       	.word 0x4970
  305070:	00 30       	.word 0x0030
  305072:	54 70       	mov.l	@(0,r7),r4
  305074:	00 30       	.word 0x0030
  305076:	4f 58       	.word 0x4f58
  305078:	00 30       	.word 0x0030
  30507a:	4f 28       	shll16	r15
  30507c:	00 00       	.word 0x0000
  30507e:	ff ff       	.word 0xffff

00305080 <___printf_format_s>:
  305080:	2f 86       	mov.l	r8,@-r15
  305082:	2f 96       	mov.l	r9,@-r15
  305084:	2f a6       	mov.l	r10,@-r15
  305086:	2f b6       	mov.l	r11,@-r15
  305088:	6b 43       	mov	r4,r11
  30508a:	2f c6       	mov.l	r12,@-r15
  30508c:	6c 53       	mov	r5,r12
  30508e:	2f d6       	mov.l	r13,@-r15
  305090:	4f 22       	sts.l	pr,@-r15
  305092:	61 62       	mov.l	@r6,r1
  305094:	7f f0       	add	#-16,r15
  305096:	85 51       	mov.w	@(2,r5),r0
  305098:	62 13       	mov	r1,r2
  30509a:	72 04       	add	#4,r2
  30509c:	26 22       	mov.l	r2,@r6
  30509e:	20 08       	tst	r0,r0
  3050a0:	6a 12       	mov.l	@r1,r10
  3050a2:	8d 01       	bt.s	3050a8 <___printf_format_s+0x28>
  3050a4:	e2 ff       	mov	#-1,r2
  3050a6:	62 03       	mov	r0,r2
  3050a8:	e8 00       	mov	#0,r8
  3050aa:	60 83       	mov	r8,r0
  3050ac:	01 ac       	mov.b	@(r0,r10),r1
  3050ae:	21 18       	tst	r1,r1
  3050b0:	8d 01       	bt.s	3050b6 <___printf_format_s+0x36>
  3050b2:	32 86       	cmp/hi	r8,r2
  3050b4:	89 23       	bt	3050fe <___printf_format_s+0x7e>
  3050b6:	d0 15       	mov.l	30510c <___printf_format_s+0x8c>,r0	! 304970 <_memset>
  3050b8:	e6 10       	mov	#16,r6
  3050ba:	e5 00       	mov	#0,r5
  3050bc:	40 0b       	jsr	@r0
  3050be:	64 f3       	mov	r15,r4
  3050c0:	d1 13       	mov.l	305110 <___printf_format_s+0x90>,r1	! 305470 <___printf_compute_geometry>
  3050c2:	60 83       	mov	r8,r0
  3050c4:	69 f3       	mov	r15,r9
  3050c6:	64 c3       	mov	r12,r4
  3050c8:	81 93       	mov.w	r0,@(6,r9)
  3050ca:	dc 12       	mov.l	305114 <___printf_format_s+0x94>,r12	! 304f58 <___printf_outn>
  3050cc:	41 0b       	jsr	@r1
  3050ce:	65 f3       	mov	r15,r5
  3050d0:	66 91       	mov.w	@r9,r6
  3050d2:	e5 20       	mov	#32,r5
  3050d4:	dd 10       	mov.l	305118 <___printf_format_s+0x98>,r13	! 304f28 <___printf_out>
  3050d6:	66 6d       	extu.w	r6,r6
  3050d8:	64 b3       	mov	r11,r4
  3050da:	4c 0b       	jsr	@r12
  3050dc:	38 ac       	add	r10,r8
  3050de:	38 a0       	cmp/eq	r10,r8
  3050e0:	8f 0f       	bf.s	305102 <___printf_format_s+0x82>
  3050e2:	e5 20       	mov	#32,r5
  3050e4:	85 94       	mov.w	@(8,r9),r0
  3050e6:	66 0d       	extu.w	r0,r6
  3050e8:	4c 0b       	jsr	@r12
  3050ea:	64 b3       	mov	r11,r4
  3050ec:	7f 10       	add	#16,r15
  3050ee:	4f 26       	lds.l	@r15+,pr
  3050f0:	6d f6       	mov.l	@r15+,r13
  3050f2:	6c f6       	mov.l	@r15+,r12
  3050f4:	6b f6       	mov.l	@r15+,r11
  3050f6:	6a f6       	mov.l	@r15+,r10
  3050f8:	69 f6       	mov.l	@r15+,r9
  3050fa:	00 0b       	rts	
  3050fc:	68 f6       	mov.l	@r15+,r8
  3050fe:	af d4       	bra	3050aa <___printf_format_s+0x2a>
  305100:	78 01       	add	#1,r8
  305102:	65 a4       	mov.b	@r10+,r5
  305104:	4d 0b       	jsr	@r13
  305106:	64 b3       	mov	r11,r4
  305108:	af ea       	bra	3050e0 <___printf_format_s+0x60>
  30510a:	38 a0       	cmp/eq	r10,r8
  30510c:	00 30       	.word 0x0030
  30510e:	49 70       	.word 0x4970
  305110:	00 30       	.word 0x0030
  305112:	54 70       	mov.l	@(0,r7),r4
  305114:	00 30       	.word 0x0030
  305116:	4f 58       	.word 0x4f58
  305118:	00 30       	.word 0x0030
  30511a:	4f 28       	shll16	r15

0030511c <___printf_format_di>:
  30511c:	2f 86       	mov.l	r8,@-r15
  30511e:	2f 96       	mov.l	r9,@-r15
  305120:	2f a6       	mov.l	r10,@-r15
  305122:	2f b6       	mov.l	r11,@-r15
  305124:	6b 43       	mov	r4,r11
  305126:	2f c6       	mov.l	r12,@-r15
  305128:	6c 53       	mov	r5,r12
  30512a:	2f d6       	mov.l	r13,@-r15
  30512c:	2f e6       	mov.l	r14,@-r15
  30512e:	4f 22       	sts.l	pr,@-r15
  305130:	84 54       	mov.b	@(4,r5),r0
  305132:	7f d0       	add	#-48,r15
  305134:	64 0c       	extu.b	r0,r4
  305136:	d0 31       	mov.l	3051fc <___printf_format_di+0xe0>,r0	! 305520 <___printf_load_i>
  305138:	65 63       	mov	r6,r5
  30513a:	40 0b       	jsr	@r0
  30513c:	6a f3       	mov	r15,r10
  30513e:	69 03       	mov	r0,r9
  305140:	d0 2f       	mov.l	305200 <___printf_format_di+0xe4>,r0	! 304970 <_memset>
  305142:	6e 13       	mov	r1,r14
  305144:	e6 0c       	mov	#12,r6
  305146:	e5 00       	mov	#0,r5
  305148:	40 0b       	jsr	@r0
  30514a:	64 f3       	mov	r15,r4
  30514c:	49 11       	cmp/pz	r9
  30514e:	8f 01       	bf.s	305154 <___printf_format_di+0x38>
  305150:	e0 2d       	mov	#45,r0
  305152:	e0 2b       	mov	#43,r0
  305154:	e1 01       	mov	#1,r1
  305156:	80 a2       	mov.b	r0,@(2,r10)
  305158:	49 11       	cmp/pz	r9
  30515a:	1a 13       	mov.l	r1,@(12,r10)
  30515c:	65 93       	mov	r9,r5
  30515e:	8d 02       	bt.s	305166 <___printf_format_di+0x4a>
  305160:	66 e3       	mov	r14,r6
  305162:	66 ea       	negc	r14,r6
  305164:	65 9a       	negc	r9,r5
  305166:	d0 27       	mov.l	305204 <___printf_format_di+0xe8>,r0	! 305596 <___printf_digits10>
  305168:	64 f3       	mov	r15,r4
  30516a:	40 0b       	jsr	@r0
  30516c:	74 10       	add	#16,r4
  30516e:	68 03       	mov	r0,r8
  305170:	85 c1       	mov.w	@(2,r12),r0
  305172:	20 08       	tst	r0,r0
  305174:	8f 04       	bf.s	305180 <___printf_format_di+0x64>
  305176:	29 eb       	or	r14,r9
  305178:	29 98       	tst	r9,r9
  30517a:	8f 02       	bf.s	305182 <___printf_format_di+0x66>
  30517c:	30 83       	cmp/ge	r8,r0
  30517e:	e8 00       	mov	#0,r8
  305180:	30 83       	cmp/ge	r8,r0
  305182:	8d 01       	bt.s	305188 <___printf_format_di+0x6c>
  305184:	6d 03       	mov	r0,r13
  305186:	6d 83       	mov	r8,r13
  305188:	d1 1f       	mov.l	305208 <___printf_format_di+0xec>,r1	! 305470 <___printf_compute_geometry>
  30518a:	60 d3       	mov	r13,r0
  30518c:	81 a3       	mov.w	r0,@(6,r10)
  30518e:	65 f3       	mov	r15,r5
  305190:	d9 1e       	mov.l	30520c <___printf_format_di+0xf0>,r9	! 304f58 <___printf_outn>
  305192:	41 0b       	jsr	@r1
  305194:	64 c3       	mov	r12,r4
  305196:	66 a1       	mov.w	@r10,r6
  305198:	e5 20       	mov	#32,r5
  30519a:	66 6d       	extu.w	r6,r6
  30519c:	49 0b       	jsr	@r9
  30519e:	64 b3       	mov	r11,r4
  3051a0:	84 a2       	mov.b	@(2,r10),r0
  3051a2:	20 08       	tst	r0,r0
  3051a4:	8d 03       	bt.s	3051ae <___printf_format_di+0x92>
  3051a6:	65 0c       	extu.b	r0,r5
  3051a8:	d1 19       	mov.l	305210 <___printf_format_di+0xf4>,r1	! 304f28 <___printf_out>
  3051aa:	41 0b       	jsr	@r1
  3051ac:	64 b3       	mov	r11,r4
  3051ae:	85 a2       	mov.w	@(4,r10),r0
  3051b0:	e5 30       	mov	#48,r5
  3051b2:	66 0d       	extu.w	r0,r6
  3051b4:	49 0b       	jsr	@r9
  3051b6:	64 b3       	mov	r11,r4
  3051b8:	66 d3       	mov	r13,r6
  3051ba:	dd 15       	mov.l	305210 <___printf_format_di+0xf4>,r13	! 304f28 <___printf_out>
  3051bc:	36 88       	sub	r8,r6
  3051be:	e5 30       	mov	#48,r5
  3051c0:	64 b3       	mov	r11,r4
  3051c2:	49 0b       	jsr	@r9
  3051c4:	78 ff       	add	#-1,r8
  3051c6:	48 11       	cmp/pz	r8
  3051c8:	8d 0f       	bt.s	3051ea <___printf_format_di+0xce>
  3051ca:	e1 10       	mov	#16,r1
  3051cc:	85 a4       	mov.w	@(8,r10),r0
  3051ce:	e5 20       	mov	#32,r5
  3051d0:	66 0d       	extu.w	r0,r6
  3051d2:	49 0b       	jsr	@r9
  3051d4:	64 b3       	mov	r11,r4
  3051d6:	7f 30       	add	#48,r15
  3051d8:	4f 26       	lds.l	@r15+,pr
  3051da:	6e f6       	mov.l	@r15+,r14
  3051dc:	6d f6       	mov.l	@r15+,r13
  3051de:	6c f6       	mov.l	@r15+,r12
  3051e0:	6b f6       	mov.l	@r15+,r11
  3051e2:	6a f6       	mov.l	@r15+,r10
  3051e4:	69 f6       	mov.l	@r15+,r9
  3051e6:	00 0b       	rts	
  3051e8:	68 f6       	mov.l	@r15+,r8
  3051ea:	60 83       	mov	r8,r0
  3051ec:	31 fc       	add	r15,r1
  3051ee:	05 1c       	mov.b	@(r0,r1),r5
  3051f0:	64 b3       	mov	r11,r4
  3051f2:	4d 0b       	jsr	@r13
  3051f4:	78 ff       	add	#-1,r8
  3051f6:	af e7       	bra	3051c8 <___printf_format_di+0xac>
  3051f8:	48 11       	cmp/pz	r8
  3051fa:	00 09       	nop	
  3051fc:	00 30       	.word 0x0030
  3051fe:	55 20       	mov.l	@(0,r2),r5
  305200:	00 30       	.word 0x0030
  305202:	49 70       	.word 0x4970
  305204:	00 30       	.word 0x0030
  305206:	55 96       	mov.l	@(24,r9),r5
  305208:	00 30       	.word 0x0030
  30520a:	54 70       	mov.l	@(0,r7),r4
  30520c:	00 30       	.word 0x0030
  30520e:	4f 58       	.word 0x4f58
  305210:	00 30       	.word 0x0030
  305212:	4f 28       	shll16	r15

00305214 <___printf_format_ouxX>:
  305214:	2f 86       	mov.l	r8,@-r15
  305216:	2f 96       	mov.l	r9,@-r15
  305218:	2f a6       	mov.l	r10,@-r15
  30521a:	6a 43       	mov	r4,r10
  30521c:	2f b6       	mov.l	r11,@-r15
  30521e:	6b 53       	mov	r5,r11
  305220:	2f c6       	mov.l	r12,@-r15
  305222:	2f d6       	mov.l	r13,@-r15
  305224:	ed 20       	mov	#32,r13
  305226:	2f e6       	mov.l	r14,@-r15
  305228:	4f 22       	sts.l	pr,@-r15
  30522a:	84 54       	mov.b	@(4,r5),r0
  30522c:	7f bc       	add	#-68,r15
  30522e:	64 0c       	extu.b	r0,r4
  305230:	d0 48       	mov.l	305354 <___printf_format_ouxX+0x140>,r0	! 30555c <___printf_load_u>
  305232:	40 0b       	jsr	@r0
  305234:	65 63       	mov	r6,r5
  305236:	69 03       	mov	r0,r9
  305238:	84 b7       	mov.b	@(7,r11),r0
  30523a:	6c 13       	mov	r1,r12
  30523c:	2d 0b       	or	r0,r13
  30523e:	61 03       	mov	r0,r1
  305240:	60 d3       	mov	r13,r0
  305242:	88 75       	cmp/eq	#117,r0
  305244:	8f 6a       	bf.s	30531c <___printf_format_ouxX+0x108>
  305246:	88 6f       	cmp/eq	#111,r0
  305248:	d0 43       	mov.l	305358 <___printf_format_ouxX+0x144>,r0	! 305596 <___printf_digits10>
  30524a:	64 f3       	mov	r15,r4
  30524c:	65 93       	mov	r9,r5
  30524e:	66 c3       	mov	r12,r6
  305250:	74 14       	add	#20,r4
  305252:	40 0b       	jsr	@r0
  305254:	00 09       	nop	
  305256:	68 03       	mov	r0,r8
  305258:	29 cb       	or	r12,r9
  30525a:	29 98       	tst	r9,r9
  30525c:	8f 04       	bf.s	305268 <___printf_format_ouxX+0x54>
  30525e:	85 b1       	mov.w	@(2,r11),r0
  305260:	20 08       	tst	r0,r0
  305262:	8f 02       	bf.s	30526a <___printf_format_ouxX+0x56>
  305264:	30 83       	cmp/ge	r8,r0
  305266:	e8 00       	mov	#0,r8
  305268:	30 83       	cmp/ge	r8,r0
  30526a:	8d 01       	bt.s	305270 <___printf_format_ouxX+0x5c>
  30526c:	6e 03       	mov	r0,r14
  30526e:	6e 83       	mov	r8,r14
  305270:	60 d3       	mov	r13,r0
  305272:	88 75       	cmp/eq	#117,r0
  305274:	e1 ff       	mov	#-1,r1
  305276:	84 b5       	mov.b	@(5,r11),r0
  305278:	61 1a       	negc	r1,r1
  30527a:	40 11       	cmp/pz	r0
  30527c:	8d 03       	bt.s	305286 <___printf_format_ouxX+0x72>
  30527e:	ec 00       	mov	#0,r12
  305280:	60 d3       	mov	r13,r0
  305282:	88 78       	cmp/eq	#120,r0
  305284:	3c 1e       	addc	r1,r12
  305286:	d0 35       	mov.l	30535c <___printf_format_ouxX+0x148>,r0	! 304970 <_memset>
  305288:	69 f3       	mov	r15,r9
  30528a:	79 04       	add	#4,r9
  30528c:	2f 12       	mov.l	r1,@r15
  30528e:	e6 0c       	mov	#12,r6
  305290:	e5 00       	mov	#0,r5
  305292:	40 0b       	jsr	@r0
  305294:	64 93       	mov	r9,r4
  305296:	e2 01       	mov	#1,r2
  305298:	19 23       	mov.l	r2,@(12,r9)
  30529a:	60 c3       	mov	r12,r0
  30529c:	d2 30       	mov.l	305360 <___printf_format_ouxX+0x14c>,r2	! 305470 <___printf_compute_geometry>
  30529e:	65 93       	mov	r9,r5
  3052a0:	80 93       	mov.b	r0,@(3,r9)
  3052a2:	60 e3       	mov	r14,r0
  3052a4:	81 93       	mov.w	r0,@(6,r9)
  3052a6:	dc 2f       	mov.l	305364 <___printf_format_ouxX+0x150>,r12	! 304f58 <___printf_outn>
  3052a8:	42 0b       	jsr	@r2
  3052aa:	64 b3       	mov	r11,r4
  3052ac:	66 91       	mov.w	@r9,r6
  3052ae:	e5 20       	mov	#32,r5
  3052b0:	66 6d       	extu.w	r6,r6
  3052b2:	4c 0b       	jsr	@r12
  3052b4:	64 a3       	mov	r10,r4
  3052b6:	84 b5       	mov.b	@(5,r11),r0
  3052b8:	40 11       	cmp/pz	r0
  3052ba:	8d 0f       	bt.s	3052dc <___printf_format_ouxX+0xc8>
  3052bc:	61 f2       	mov.l	@r15,r1
  3052be:	21 18       	tst	r1,r1
  3052c0:	8d 0c       	bt.s	3052dc <___printf_format_ouxX+0xc8>
  3052c2:	e5 30       	mov	#48,r5
  3052c4:	d1 28       	mov.l	305368 <___printf_format_ouxX+0x154>,r1	! 304f28 <___printf_out>
  3052c6:	64 a3       	mov	r10,r4
  3052c8:	41 0b       	jsr	@r1
  3052ca:	2f 12       	mov.l	r1,@r15
  3052cc:	60 d3       	mov	r13,r0
  3052ce:	88 78       	cmp/eq	#120,r0
  3052d0:	8f 04       	bf.s	3052dc <___printf_format_ouxX+0xc8>
  3052d2:	61 f2       	mov.l	@r15,r1
  3052d4:	84 b7       	mov.b	@(7,r11),r0
  3052d6:	64 a3       	mov	r10,r4
  3052d8:	41 0b       	jsr	@r1
  3052da:	65 03       	mov	r0,r5
  3052dc:	85 92       	mov.w	@(4,r9),r0
  3052de:	e5 30       	mov	#48,r5
  3052e0:	66 0d       	extu.w	r0,r6
  3052e2:	dd 21       	mov.l	305368 <___printf_format_ouxX+0x154>,r13	! 304f28 <___printf_out>
  3052e4:	4c 0b       	jsr	@r12
  3052e6:	64 a3       	mov	r10,r4
  3052e8:	66 e3       	mov	r14,r6
  3052ea:	6b f3       	mov	r15,r11
  3052ec:	36 88       	sub	r8,r6
  3052ee:	e5 30       	mov	#48,r5
  3052f0:	64 a3       	mov	r10,r4
  3052f2:	4c 0b       	jsr	@r12
  3052f4:	78 ff       	add	#-1,r8
  3052f6:	7b 14       	add	#20,r11
  3052f8:	48 11       	cmp/pz	r8
  3052fa:	8d 24       	bt.s	305346 <___printf_format_ouxX+0x132>
  3052fc:	60 83       	mov	r8,r0
  3052fe:	85 94       	mov.w	@(8,r9),r0
  305300:	e5 20       	mov	#32,r5
  305302:	66 0d       	extu.w	r0,r6
  305304:	4c 0b       	jsr	@r12
  305306:	64 a3       	mov	r10,r4
  305308:	7f 44       	add	#68,r15
  30530a:	4f 26       	lds.l	@r15+,pr
  30530c:	6e f6       	mov.l	@r15+,r14
  30530e:	6d f6       	mov.l	@r15+,r13
  305310:	6c f6       	mov.l	@r15+,r12
  305312:	6b f6       	mov.l	@r15+,r11
  305314:	6a f6       	mov.l	@r15+,r10
  305316:	69 f6       	mov.l	@r15+,r9
  305318:	00 0b       	rts	
  30531a:	68 f6       	mov.l	@r15+,r8
  30531c:	8d 0d       	bt.s	30533a <___printf_format_ouxX+0x126>
  30531e:	88 78       	cmp/eq	#120,r0
  305320:	8f 9a       	bf.s	305258 <___printf_format_ouxX+0x44>
  305322:	e8 00       	mov	#0,r8
  305324:	60 13       	mov	r1,r0
  305326:	88 58       	cmp/eq	#88,r0
  305328:	d0 10       	mov.l	30536c <___printf_format_ouxX+0x158>,r0	! 30560c <___printf_digits16>
  30532a:	64 f3       	mov	r15,r4
  30532c:	66 93       	mov	r9,r6
  30532e:	67 c3       	mov	r12,r7
  305330:	05 29       	movt	r5
  305332:	40 0b       	jsr	@r0
  305334:	74 14       	add	#20,r4
  305336:	af 8f       	bra	305258 <___printf_format_ouxX+0x44>
  305338:	68 03       	mov	r0,r8
  30533a:	64 f3       	mov	r15,r4
  30533c:	d0 0c       	mov.l	305370 <___printf_format_ouxX+0x15c>,r0	! 30564c <___printf_digits8>
  30533e:	65 93       	mov	r9,r5
  305340:	66 c3       	mov	r12,r6
  305342:	af 86       	bra	305252 <___printf_format_ouxX+0x3e>
  305344:	74 14       	add	#20,r4
  305346:	05 bc       	mov.b	@(r0,r11),r5
  305348:	64 a3       	mov	r10,r4
  30534a:	4d 0b       	jsr	@r13
  30534c:	78 ff       	add	#-1,r8
  30534e:	af d4       	bra	3052fa <___printf_format_ouxX+0xe6>
  305350:	48 11       	cmp/pz	r8
  305352:	00 09       	nop	
  305354:	00 30       	.word 0x0030
  305356:	55 5c       	mov.l	@(48,r5),r5
  305358:	00 30       	.word 0x0030
  30535a:	55 96       	mov.l	@(24,r9),r5
  30535c:	00 30       	.word 0x0030
  30535e:	49 70       	.word 0x4970
  305360:	00 30       	.word 0x0030
  305362:	54 70       	mov.l	@(0,r7),r4
  305364:	00 30       	.word 0x0030
  305366:	4f 58       	.word 0x4f58
  305368:	00 30       	.word 0x0030
  30536a:	4f 28       	shll16	r15
  30536c:	00 30       	.word 0x0030
  30536e:	56 0c       	mov.l	@(48,r0),r6
  305370:	00 30       	.word 0x0030
  305372:	56 4c       	mov.l	@(48,r4),r6

00305374 <___printf_format_p>:
  305374:	2f 86       	mov.l	r8,@-r15
  305376:	2f 96       	mov.l	r9,@-r15
  305378:	69 43       	mov	r4,r9
  30537a:	2f a6       	mov.l	r10,@-r15
  30537c:	ea 07       	mov	#7,r10
  30537e:	4f 22       	sts.l	pr,@-r15
  305380:	61 62       	mov.l	@r6,r1
  305382:	7f f4       	add	#-12,r15
  305384:	d0 11       	mov.l	3053cc <___printf_format_p+0x58>,r0	! 3048b0 <_memcpy>
  305386:	62 13       	mov	r1,r2
  305388:	72 04       	add	#4,r2
  30538a:	26 22       	mov.l	r2,@r6
  30538c:	64 f3       	mov	r15,r4
  30538e:	68 12       	mov.l	@r1,r8
  305390:	d5 0f       	mov.l	3053d0 <___printf_format_p+0x5c>,r5	! 307558
  305392:	40 0b       	jsr	@r0
  305394:	e6 09       	mov	#9,r6
  305396:	d0 0f       	mov.l	3053d4 <___printf_format_p+0x60>,r0	! 30560c <___printf_digits16>
  305398:	67 83       	mov	r8,r7
  30539a:	d8 0f       	mov.l	3053d8 <___printf_format_p+0x64>,r8	! 304f28 <___printf_out>
  30539c:	e6 00       	mov	#0,r6
  30539e:	e5 00       	mov	#0,r5
  3053a0:	40 0b       	jsr	@r0
  3053a2:	64 f3       	mov	r15,r4
  3053a4:	e5 30       	mov	#48,r5
  3053a6:	48 0b       	jsr	@r8
  3053a8:	64 93       	mov	r9,r4
  3053aa:	e5 78       	mov	#120,r5
  3053ac:	48 0b       	jsr	@r8
  3053ae:	64 93       	mov	r9,r4
  3053b0:	60 a3       	mov	r10,r0
  3053b2:	05 fc       	mov.b	@(r0,r15),r5
  3053b4:	64 93       	mov	r9,r4
  3053b6:	48 0b       	jsr	@r8
  3053b8:	7a ff       	add	#-1,r10
  3053ba:	60 a3       	mov	r10,r0
  3053bc:	88 ff       	cmp/eq	#-1,r0
  3053be:	8b f8       	bf	3053b2 <___printf_format_p+0x3e>
  3053c0:	7f 0c       	add	#12,r15
  3053c2:	4f 26       	lds.l	@r15+,pr
  3053c4:	6a f6       	mov.l	@r15+,r10
  3053c6:	69 f6       	mov.l	@r15+,r9
  3053c8:	00 0b       	rts	
  3053ca:	68 f6       	mov.l	@r15+,r8
  3053cc:	00 30       	.word 0x0030
  3053ce:	48 b0       	.word 0x48b0
  3053d0:	00 30       	.word 0x0030
  3053d2:	75 58       	add	#88,r5
  3053d4:	00 30       	.word 0x0030
  3053d6:	56 0c       	mov.l	@(48,r0),r6
  3053d8:	00 30       	.word 0x0030
  3053da:	4f 28       	shll16	r15

003053dc <___printf_format_m>:
  3053dc:	2f 86       	mov.l	r8,@-r15
  3053de:	2f 96       	mov.l	r9,@-r15
  3053e0:	2f a6       	mov.l	r10,@-r15
  3053e2:	2f b6       	mov.l	r11,@-r15
  3053e4:	6b 43       	mov	r4,r11
  3053e6:	2f c6       	mov.l	r12,@-r15
  3053e8:	d1 0d       	mov.l	305420 <___printf_format_m+0x44>,r1	! 810172c <_errno>
  3053ea:	4f 22       	sts.l	pr,@-r15
  3053ec:	d0 0d       	mov.l	305424 <___printf_format_m+0x48>,r0	! 3056a4 <_strerror>
  3053ee:	40 0b       	jsr	@r0
  3053f0:	64 12       	mov.l	@r1,r4
  3053f2:	68 03       	mov	r0,r8
  3053f4:	64 03       	mov	r0,r4
  3053f6:	d0 0c       	mov.l	305428 <___printf_format_m+0x4c>,r0	! 3056c0 <_strlen>
  3053f8:	dc 0c       	mov.l	30542c <___printf_format_m+0x50>,r12	! 304f28 <___printf_out>
  3053fa:	40 0b       	jsr	@r0
  3053fc:	6a 83       	mov	r8,r10
  3053fe:	69 03       	mov	r0,r9
  305400:	61 a3       	mov	r10,r1
  305402:	31 88       	sub	r8,r1
  305404:	39 17       	cmp/gt	r1,r9
  305406:	89 06       	bt	305416 <___printf_format_m+0x3a>
  305408:	4f 26       	lds.l	@r15+,pr
  30540a:	6c f6       	mov.l	@r15+,r12
  30540c:	6b f6       	mov.l	@r15+,r11
  30540e:	6a f6       	mov.l	@r15+,r10
  305410:	69 f6       	mov.l	@r15+,r9
  305412:	00 0b       	rts	
  305414:	68 f6       	mov.l	@r15+,r8
  305416:	65 a4       	mov.b	@r10+,r5
  305418:	4c 0b       	jsr	@r12
  30541a:	64 b3       	mov	r11,r4
  30541c:	af f1       	bra	305402 <___printf_format_m+0x26>
  30541e:	61 a3       	mov	r10,r1
  305420:	08 10       	.word 0x0810
  305422:	17 2c       	mov.l	r2,@(48,r7)
  305424:	00 30       	.word 0x0030
  305426:	56 a4       	mov.l	@(16,r10),r6
  305428:	00 30       	.word 0x0030
  30542a:	56 c0       	mov.l	@(0,r12),r6
  30542c:	00 30       	.word 0x0030
  30542e:	4f 28       	shll16	r15

00305430 <___printf_format_n>:
  305430:	61 62       	mov.l	@r6,r1
  305432:	62 13       	mov	r1,r2
  305434:	72 04       	add	#4,r2
  305436:	26 22       	mov.l	r2,@r6
  305438:	84 54       	mov.b	@(4,r5),r0
  30543a:	20 08       	tst	r0,r0
  30543c:	8f 02       	bf.s	305444 <___printf_format_n+0x14>
  30543e:	61 12       	mov.l	@r1,r1
  305440:	52 47       	mov.l	@(28,r4),r2
  305442:	21 20       	mov.b	r2,@r1
  305444:	84 54       	mov.b	@(4,r5),r0
  305446:	60 0c       	extu.b	r0,r0
  305448:	88 01       	cmp/eq	#1,r0
  30544a:	8b 02       	bf	305452 <___printf_format_n+0x22>
  30544c:	52 47       	mov.l	@(28,r4),r2
  30544e:	00 0b       	rts	
  305450:	21 21       	mov.w	r2,@r1
  305452:	88 02       	cmp/eq	#2,r0
  305454:	8d 05       	bt.s	305462 <___printf_format_n+0x32>
  305456:	88 03       	cmp/eq	#3,r0
  305458:	8d 03       	bt.s	305462 <___printf_format_n+0x32>
  30545a:	88 04       	cmp/eq	#4,r0
  30545c:	89 04       	bt	305468 <___printf_format_n+0x38>
  30545e:	00 0b       	rts	
  305460:	00 09       	nop	
  305462:	52 47       	mov.l	@(28,r4),r2
  305464:	00 0b       	rts	
  305466:	21 22       	mov.l	r2,@r1
  305468:	52 47       	mov.l	@(28,r4),r2
  30546a:	11 21       	mov.l	r2,@(4,r1)
  30546c:	af fa       	bra	305464 <___printf_format_n+0x34>
  30546e:	e2 00       	mov	#0,r2

00305470 <___printf_compute_geometry>:
  305470:	2f 86       	mov.l	r8,@-r15
  305472:	e1 01       	mov	#1,r1
  305474:	58 53       	mov.l	@(12,r5),r8
  305476:	e7 00       	mov	#0,r7
  305478:	62 83       	mov	r8,r2
  30547a:	72 ff       	add	#-1,r2
  30547c:	32 16       	cmp/hi	r1,r2
  30547e:	8d 05       	bt.s	30548c <___printf_compute_geometry+0x1c>
  305480:	2f 96       	mov.l	r9,@-r15
  305482:	84 52       	mov.b	@(2,r5),r0
  305484:	88 2b       	cmp/eq	#43,r0
  305486:	8d 37       	bt.s	3054f8 <___printf_compute_geometry+0x88>
  305488:	e7 01       	mov	#1,r7
  30548a:	e7 01       	mov	#1,r7
  30548c:	e0 00       	mov	#0,r0
  30548e:	81 52       	mov.w	r0,@(4,r5)
  305490:	85 41       	mov.w	@(2,r4),r0
  305492:	62 03       	mov	r0,r2
  305494:	85 53       	mov.w	@(6,r5),r0
  305496:	66 0d       	extu.w	r0,r6
  305498:	84 52       	mov.b	@(2,r5),r0
  30549a:	69 03       	mov	r0,r9
  30549c:	84 53       	mov.b	@(3,r5),r0
  30549e:	29 98       	tst	r9,r9
  3054a0:	61 41       	mov.w	@r4,r1
  3054a2:	63 0c       	extu.b	r0,r3
  3054a4:	63 37       	not	r3,r3
  3054a6:	61 1d       	extu.w	r1,r1
  3054a8:	31 3e       	addc	r3,r1
  3054aa:	32 63       	cmp/ge	r6,r2
  3054ac:	8d 01       	bt.s	3054b2 <___printf_compute_geometry+0x42>
  3054ae:	63 23       	mov	r2,r3
  3054b0:	63 63       	mov	r6,r3
  3054b2:	31 38       	sub	r3,r1
  3054b4:	41 11       	cmp/pz	r1
  3054b6:	89 00       	bt	3054ba <___printf_compute_geometry+0x4a>
  3054b8:	e1 00       	mov	#0,r1
  3054ba:	84 46       	mov.b	@(6,r4),r0
  3054bc:	63 0c       	extu.b	r0,r3
  3054be:	60 83       	mov	r8,r0
  3054c0:	88 01       	cmp/eq	#1,r0
  3054c2:	8f 0d       	bf.s	3054e0 <___printf_compute_geometry+0x70>
  3054c4:	60 23       	mov	r2,r0
  3054c6:	40 00       	shll	r0
  3054c8:	8d 0a       	bt.s	3054e0 <___printf_compute_geometry+0x70>
  3054ca:	60 33       	mov	r3,r0
  3054cc:	88 30       	cmp/eq	#48,r0
  3054ce:	8f 03       	bf.s	3054d8 <___printf_compute_geometry+0x68>
  3054d0:	60 23       	mov	r2,r0
  3054d2:	e0 00       	mov	#0,r0
  3054d4:	80 46       	mov.b	r0,@(6,r4)
  3054d6:	60 23       	mov	r2,r0
  3054d8:	30 68       	sub	r6,r0
  3054da:	40 15       	cmp/pl	r0
  3054dc:	8b 00       	bf	3054e0 <___printf_compute_geometry+0x70>
  3054de:	81 52       	mov.w	r0,@(4,r5)
  3054e0:	84 46       	mov.b	@(6,r4),r0
  3054e2:	60 0c       	extu.b	r0,r0
  3054e4:	88 30       	cmp/eq	#48,r0
  3054e6:	8f 14       	bf.s	305512 <___printf_compute_geometry+0xa2>
  3054e8:	61 1d       	extu.w	r1,r1
  3054ea:	27 78       	tst	r7,r7
  3054ec:	8d 16       	bt.s	30551c <___printf_compute_geometry+0xac>
  3054ee:	60 13       	mov	r1,r0
  3054f0:	81 52       	mov.w	r0,@(4,r5)
  3054f2:	69 f6       	mov.l	@r15+,r9
  3054f4:	00 0b       	rts	
  3054f6:	68 f6       	mov.l	@r15+,r8
  3054f8:	84 45       	mov.b	@(5,r4),r0
  3054fa:	c8 20       	tst	#32,r0
  3054fc:	8f c6       	bf.s	30548c <___printf_compute_geometry+0x1c>
  3054fe:	61 03       	mov	r0,r1
  305500:	60 13       	mov	r1,r0
  305502:	c8 40       	tst	#64,r0
  305504:	e0 ff       	mov	#-1,r0
  305506:	60 0a       	negc	r0,r0
  305508:	40 08       	shll2	r0
  30550a:	30 0c       	add	r0,r0
  30550c:	40 08       	shll2	r0
  30550e:	af bc       	bra	30548a <___printf_compute_geometry+0x1a>
  305510:	80 52       	mov.b	r0,@(2,r5)
  305512:	88 2d       	cmp/eq	#45,r0
  305514:	8f 02       	bf.s	30551c <___printf_compute_geometry+0xac>
  305516:	60 13       	mov	r1,r0
  305518:	af eb       	bra	3054f2 <___printf_compute_geometry+0x82>
  30551a:	81 54       	mov.w	r0,@(8,r5)
  30551c:	af e9       	bra	3054f2 <___printf_compute_geometry+0x82>
  30551e:	25 11       	mov.w	r1,@r5

00305520 <___printf_load_i>:
  305520:	61 52       	mov.l	@r5,r1
  305522:	60 43       	mov	r4,r0
  305524:	88 01       	cmp/eq	#1,r0
  305526:	8f 07       	bf.s	305538 <___printf_load_i+0x18>
  305528:	62 13       	mov	r1,r2
  30552a:	72 04       	add	#4,r2
  30552c:	25 22       	mov.l	r2,@r5
  30552e:	84 13       	mov.b	@(3,r1),r0
  305530:	61 03       	mov	r0,r1
  305532:	40 00       	shll	r0
  305534:	00 0b       	rts	
  305536:	30 0a       	subc	r0,r0
  305538:	88 02       	cmp/eq	#2,r0
  30553a:	8f 04       	bf.s	305546 <___printf_load_i+0x26>
  30553c:	88 08       	cmp/eq	#8,r0
  30553e:	72 04       	add	#4,r2
  305540:	25 22       	mov.l	r2,@r5
  305542:	af f5       	bra	305530 <___printf_load_i+0x10>
  305544:	85 11       	mov.w	@(2,r1),r0
  305546:	8b 04       	bf	305552 <___printf_load_i+0x32>
  305548:	72 08       	add	#8,r2
  30554a:	60 12       	mov.l	@r1,r0
  30554c:	25 22       	mov.l	r2,@r5
  30554e:	00 0b       	rts	
  305550:	51 11       	mov.l	@(4,r1),r1
  305552:	61 12       	mov.l	@r1,r1
  305554:	72 04       	add	#4,r2
  305556:	25 22       	mov.l	r2,@r5
  305558:	af eb       	bra	305532 <___printf_load_i+0x12>
  30555a:	60 13       	mov	r1,r0

0030555c <___printf_load_u>:
  30555c:	61 52       	mov.l	@r5,r1
  30555e:	60 43       	mov	r4,r0
  305560:	88 01       	cmp/eq	#1,r0
  305562:	8f 06       	bf.s	305572 <___printf_load_u+0x16>
  305564:	62 13       	mov	r1,r2
  305566:	61 12       	mov.l	@r1,r1
  305568:	72 04       	add	#4,r2
  30556a:	25 22       	mov.l	r2,@r5
  30556c:	61 1c       	extu.b	r1,r1
  30556e:	00 0b       	rts	
  305570:	e0 00       	mov	#0,r0
  305572:	88 02       	cmp/eq	#2,r0
  305574:	8f 05       	bf.s	305582 <___printf_load_u+0x26>
  305576:	88 08       	cmp/eq	#8,r0
  305578:	61 12       	mov.l	@r1,r1
  30557a:	72 04       	add	#4,r2
  30557c:	25 22       	mov.l	r2,@r5
  30557e:	af f6       	bra	30556e <___printf_load_u+0x12>
  305580:	61 1d       	extu.w	r1,r1
  305582:	8b 04       	bf	30558e <___printf_load_u+0x32>
  305584:	72 08       	add	#8,r2
  305586:	60 12       	mov.l	@r1,r0
  305588:	25 22       	mov.l	r2,@r5
  30558a:	00 0b       	rts	
  30558c:	51 11       	mov.l	@(4,r1),r1
  30558e:	72 04       	add	#4,r2
  305590:	61 12       	mov.l	@r1,r1
  305592:	af ec       	bra	30556e <___printf_load_u+0x12>
  305594:	25 22       	mov.l	r2,@r5

00305596 <___printf_digits10>:
  305596:	2f 86       	mov.l	r8,@-r15
  305598:	68 53       	mov	r5,r8
  30559a:	2f 96       	mov.l	r9,@-r15
  30559c:	69 63       	mov	r6,r9
  30559e:	2f a6       	mov.l	r10,@-r15
  3055a0:	6a 43       	mov	r4,r10
  3055a2:	2f b6       	mov.l	r11,@-r15
  3055a4:	6b 43       	mov	r4,r11
  3055a6:	2f c6       	mov.l	r12,@-r15
  3055a8:	2f d6       	mov.l	r13,@-r15
  3055aa:	2f e6       	mov.l	r14,@-r15
  3055ac:	d2 15       	mov.l	305604 <___printf_digits10+0x6e>,r2	! 30622c <___umoddi3>
  3055ae:	4f 22       	sts.l	pr,@-r15
  3055b0:	de 15       	mov.l	305608 <___printf_digits10+0x72>,r14	! 306020 <___udivdi3>
  3055b2:	7f f8       	add	#-8,r15
  3055b4:	2f 22       	mov.l	r2,@r15
  3055b6:	64 83       	mov	r8,r4
  3055b8:	65 93       	mov	r9,r5
  3055ba:	e6 00       	mov	#0,r6
  3055bc:	42 0b       	jsr	@r2
  3055be:	e7 0a       	mov	#10,r7
  3055c0:	71 30       	add	#48,r1
  3055c2:	2a 10       	mov.b	r1,@r10
  3055c4:	64 83       	mov	r8,r4
  3055c6:	1f 81       	mov.l	r8,@(4,r15)
  3055c8:	65 93       	mov	r9,r5
  3055ca:	e6 00       	mov	#0,r6
  3055cc:	4e 0b       	jsr	@r14
  3055ce:	e7 0a       	mov	#10,r7
  3055d0:	53 f1       	mov.l	@(4,r15),r3
  3055d2:	6c a3       	mov	r10,r12
  3055d4:	3c b8       	sub	r11,r12
  3055d6:	23 38       	tst	r3,r3
  3055d8:	6d 93       	mov	r9,r13
  3055da:	62 f2       	mov.l	@r15,r2
  3055dc:	7c 01       	add	#1,r12
  3055de:	7a 01       	add	#1,r10
  3055e0:	68 03       	mov	r0,r8
  3055e2:	8f e7       	bf.s	3055b4 <___printf_digits10+0x1e>
  3055e4:	69 13       	mov	r1,r9
  3055e6:	e1 09       	mov	#9,r1
  3055e8:	3d 16       	cmp/hi	r1,r13
  3055ea:	8d e3       	bt.s	3055b4 <___printf_digits10+0x1e>
  3055ec:	60 c3       	mov	r12,r0
  3055ee:	7f 08       	add	#8,r15
  3055f0:	4f 26       	lds.l	@r15+,pr
  3055f2:	6e f6       	mov.l	@r15+,r14
  3055f4:	6d f6       	mov.l	@r15+,r13
  3055f6:	6c f6       	mov.l	@r15+,r12
  3055f8:	6b f6       	mov.l	@r15+,r11
  3055fa:	6a f6       	mov.l	@r15+,r10
  3055fc:	69 f6       	mov.l	@r15+,r9
  3055fe:	00 0b       	rts	
  305600:	68 f6       	mov.l	@r15+,r8
  305602:	00 09       	nop	
  305604:	00 30       	.word 0x0030
  305606:	62 2c       	extu.b	r2,r2
  305608:	00 30       	.word 0x0030
  30560a:	60 20       	mov.b	@r2,r0

0030560c <___printf_digits16>:
  30560c:	25 58       	tst	r5,r5
  30560e:	d3 0d       	mov.l	305644 <___printf_digits16+0x38>,r3	! 307564
  305610:	8f 01       	bf.s	305616 <___printf_digits16+0xa>
  305612:	61 43       	mov	r4,r1
  305614:	d3 0c       	mov.l	305648 <___printf_digits16+0x3c>,r3	! 307578
  305616:	60 73       	mov	r7,r0
  305618:	c9 0f       	and	#15,r0
  30561a:	05 3c       	mov.b	@(r0,r3),r5
  30561c:	e0 1c       	mov	#28,r0
  30561e:	21 50       	mov.b	r5,@r1
  305620:	65 63       	mov	r6,r5
  305622:	46 09       	shlr2	r6
  305624:	62 13       	mov	r1,r2
  305626:	45 0d       	shld	r0,r5
  305628:	47 09       	shlr2	r7
  30562a:	46 09       	shlr2	r6
  30562c:	32 48       	sub	r4,r2
  30562e:	47 09       	shlr2	r7
  305630:	26 68       	tst	r6,r6
  305632:	72 01       	add	#1,r2
  305634:	71 01       	add	#1,r1
  305636:	8f ee       	bf.s	305616 <___printf_digits16+0xa>
  305638:	27 5b       	or	r5,r7
  30563a:	27 78       	tst	r7,r7
  30563c:	8f eb       	bf.s	305616 <___printf_digits16+0xa>
  30563e:	60 23       	mov	r2,r0
  305640:	00 0b       	rts	
  305642:	00 09       	nop	
  305644:	00 30       	.word 0x0030
  305646:	75 64       	add	#100,r5
  305648:	00 30       	.word 0x0030
  30564a:	75 78       	add	#120,r5

0030564c <___printf_digits8>:
  30564c:	61 43       	mov	r4,r1
  30564e:	60 63       	mov	r6,r0
  305650:	46 09       	shlr2	r6
  305652:	63 53       	mov	r5,r3
  305654:	46 01       	shlr	r6
  305656:	c9 07       	and	#7,r0
  305658:	e7 1d       	mov	#29,r7
  30565a:	45 09       	shlr2	r5
  30565c:	62 13       	mov	r1,r2
  30565e:	43 7d       	shld	r7,r3
  305660:	70 30       	add	#48,r0
  305662:	45 01       	shlr	r5
  305664:	21 00       	mov.b	r0,@r1
  305666:	32 48       	sub	r4,r2
  305668:	25 58       	tst	r5,r5
  30566a:	72 01       	add	#1,r2
  30566c:	71 01       	add	#1,r1
  30566e:	8f ee       	bf.s	30564e <___printf_digits8+0x2>
  305670:	26 3b       	or	r3,r6
  305672:	26 68       	tst	r6,r6
  305674:	8f eb       	bf.s	30564e <___printf_digits8+0x2>
  305676:	60 23       	mov	r2,r0
  305678:	00 0b       	rts	
  30567a:	00 09       	nop	

0030567c <_memrchr>:
  30567c:	60 63       	mov	r6,r0
  30567e:	70 ff       	add	#-1,r0
  305680:	e1 ff       	mov	#-1,r1
  305682:	30 13       	cmp/ge	r1,r0
  305684:	8d 01       	bt.s	30568a <_memrchr+0xe>
  305686:	76 01       	add	#1,r6
  305688:	e6 01       	mov	#1,r6
  30568a:	46 10       	dt	r6
  30568c:	8f 03       	bf.s	305696 <_memrchr+0x1a>
  30568e:	61 43       	mov	r4,r1
  305690:	e1 00       	mov	#0,r1
  305692:	00 0b       	rts	
  305694:	60 13       	mov	r1,r0
  305696:	02 4c       	mov.b	@(r0,r4),r2
  305698:	32 50       	cmp/eq	r5,r2
  30569a:	8d fa       	bt.s	305692 <_memrchr+0x16>
  30569c:	31 0c       	add	r0,r1
  30569e:	af f4       	bra	30568a <_memrchr+0xe>
  3056a0:	70 ff       	add	#-1,r0
	...

003056a4 <_strerror>:
  3056a4:	e1 17       	mov	#23,r1
  3056a6:	34 16       	cmp/hi	r1,r4
  3056a8:	d1 03       	mov.l	3056b8 <_strerror+0x14>,r1	! 30758c
  3056aa:	8d 03       	bt.s	3056b4 <_strerror+0x10>
  3056ac:	44 08       	shll2	r4
  3056ae:	d1 03       	mov.l	3056bc <_strerror+0x18>,r1	! 3077b4 <_errno_strings>
  3056b0:	60 43       	mov	r4,r0
  3056b2:	01 1e       	mov.l	@(r0,r1),r1
  3056b4:	00 0b       	rts	
  3056b6:	60 13       	mov	r1,r0
  3056b8:	00 30       	.word 0x0030
  3056ba:	75 8c       	add	#-116,r5
  3056bc:	00 30       	.word 0x0030
  3056be:	77 b4       	add	#-76,r7

003056c0 <_strlen>:
  3056c0:	60 43       	mov	r4,r0
  3056c2:	e2 00       	mov	#0,r2
  3056c4:	61 04       	mov.b	@r0+,r1
  3056c6:	21 18       	tst	r1,r1
  3056c8:	89 0e       	bt	3056e8 <.end>
  3056ca:	61 04       	mov.b	@r0+,r1
  3056cc:	21 18       	tst	r1,r1
  3056ce:	89 0b       	bt	3056e8 <.end>
  3056d0:	61 04       	mov.b	@r0+,r1
  3056d2:	21 18       	tst	r1,r1
  3056d4:	89 08       	bt	3056e8 <.end>
  3056d6:	cb 03       	or	#3,r0
  3056d8:	ca 03       	xor	#3,r0
  3056da:	61 06       	mov.l	@r0+,r1
  3056dc:	22 1c       	cmp/str	r1,r2
  3056de:	8b fc       	bf	3056da <_strlen+0x1a>
  3056e0:	70 fc       	add	#-4,r0
  3056e2:	61 04       	mov.b	@r0+,r1
  3056e4:	21 18       	tst	r1,r1
  3056e6:	8b fc       	bf	3056e2 <_strlen+0x22>

003056e8 <.end>:
  3056e8:	70 ff       	add	#-1,r0
  3056ea:	00 0b       	rts	
  3056ec:	30 48       	sub	r4,r0
	...

003056f0 <___fp_open>:
  3056f0:	66 6c       	extu.b	r6,r6
  3056f2:	e1 00       	mov	#0,r1
  3056f4:	4f 22       	sts.l	pr,@-r15
  3056f6:	26 68       	tst	r6,r6
  3056f8:	24 52       	mov.l	r5,@r4
  3056fa:	e0 00       	mov	#0,r0
  3056fc:	8d 08       	bt.s	305710 <___fp_open+0x20>
  3056fe:	14 11       	mov.l	r1,@(4,r4)
  305700:	d0 05       	mov.l	305718 <___fp_open+0x28>,r0	! 305bc0 <_setvbuf>
  305702:	e6 00       	mov	#0,r6
  305704:	97 07       	mov.w	305716 <___fp_open+0x26>,r7	! 200
  305706:	40 0b       	jsr	@r0
  305708:	e5 00       	mov	#0,r5
  30570a:	20 08       	tst	r0,r0
  30570c:	30 0a       	subc	r0,r0
  30570e:	60 07       	not	r0,r0
  305710:	4f 26       	lds.l	@r15+,pr
  305712:	00 0b       	rts	
  305714:	00 09       	nop	
  305716:	02 00       	.word 0x0200
  305718:	00 30       	.word 0x0030
  30571a:	5b c0       	mov.l	@(0,r12),r11

0030571c <___fp_close>:
  30571c:	2f 86       	mov.l	r8,@-r15
  30571e:	24 48       	tst	r4,r4
  305720:	2f 96       	mov.l	r9,@-r15
  305722:	68 43       	mov	r4,r8
  305724:	4f 22       	sts.l	pr,@-r15
  305726:	8d 19       	bt.s	30575c <___fp_close+0x40>
  305728:	69 5c       	extu.b	r5,r9
  30572a:	61 42       	mov.l	@r4,r1
  30572c:	41 11       	cmp/pz	r1
  30572e:	8b 05       	bf	30573c <___fp_close+0x20>
  305730:	d0 0c       	mov.l	305764 <___fp_close+0x48>,r0	! 305cf0 <_fflush>
  305732:	40 0b       	jsr	@r0
  305734:	00 09       	nop	
  305736:	d0 0c       	mov.l	305768 <___fp_close+0x4c>,r0	! 305d84 <_close>
  305738:	40 0b       	jsr	@r0
  30573a:	64 82       	mov.l	@r8,r4
  30573c:	85 8e       	mov.w	@(28,r8),r0
  30573e:	60 08       	swap.b	r0,r0
  305740:	c8 20       	tst	#32,r0
  305742:	8d 04       	bt.s	30574e <___fp_close+0x32>
  305744:	29 98       	tst	r9,r9
  305746:	d1 09       	mov.l	30576c <___fp_close+0x50>,r1	! 3049c8 <_free>
  305748:	41 0b       	jsr	@r1
  30574a:	54 82       	mov.l	@(8,r8),r4
  30574c:	29 98       	tst	r9,r9
  30574e:	8d 05       	bt.s	30575c <___fp_close+0x40>
  305750:	64 83       	mov	r8,r4
  305752:	d1 06       	mov.l	30576c <___fp_close+0x50>,r1	! 3049c8 <_free>
  305754:	4f 26       	lds.l	@r15+,pr
  305756:	69 f6       	mov.l	@r15+,r9
  305758:	41 2b       	jmp	@r1
  30575a:	68 f6       	mov.l	@r15+,r8
  30575c:	4f 26       	lds.l	@r15+,pr
  30575e:	69 f6       	mov.l	@r15+,r9
  305760:	00 0b       	rts	
  305762:	68 f6       	mov.l	@r15+,r8
  305764:	00 30       	.word 0x0030
  305766:	5c f0       	mov.l	@(0,r15),r12
  305768:	00 30       	.word 0x0030
  30576a:	5d 84       	mov.l	@(16,r8),r13
  30576c:	00 30       	.word 0x0030
  30576e:	49 c8       	.word 0x49c8

00305770 <___fp_remove_buffer>:
  305770:	2f 86       	mov.l	r8,@-r15
  305772:	4f 22       	sts.l	pr,@-r15
  305774:	85 4e       	mov.w	@(28,r4),r0
  305776:	60 08       	swap.b	r0,r0
  305778:	c8 20       	tst	#32,r0
  30577a:	8d 03       	bt.s	305784 <___fp_remove_buffer+0x14>
  30577c:	68 43       	mov	r4,r8
  30577e:	d1 07       	mov.l	30579c <___fp_remove_buffer+0x2c>,r1	! 3049c8 <_free>
  305780:	41 0b       	jsr	@r1
  305782:	54 42       	mov.l	@(8,r4),r4
  305784:	92 08       	mov.w	305798 <___fp_remove_buffer+0x28>,r2	! dfff
  305786:	e1 00       	mov	#0,r1
  305788:	85 8e       	mov.w	@(28,r8),r0
  30578a:	20 29       	and	r2,r0
  30578c:	18 12       	mov.l	r1,@(8,r8)
  30578e:	81 8e       	mov.w	r0,@(28,r8)
  305790:	18 15       	mov.l	r1,@(20,r8)
  305792:	4f 26       	lds.l	@r15+,pr
  305794:	00 0b       	rts	
  305796:	68 f6       	mov.l	@r15+,r8
  305798:	df ff       	mov.l	305b98 <_fseek+0x20>,r15	! b68f6
  30579a:	00 09       	nop	
  30579c:	00 30       	.word 0x0030
  30579e:	49 c8       	.word 0x49c8

003057a0 <___fp_set_buffer>:
  3057a0:	2f 86       	mov.l	r8,@-r15
  3057a2:	25 58       	tst	r5,r5
  3057a4:	2f 96       	mov.l	r9,@-r15
  3057a6:	68 43       	mov	r4,r8
  3057a8:	4f 22       	sts.l	pr,@-r15
  3057aa:	69 63       	mov	r6,r9
  3057ac:	8f 08       	bf.s	3057c0 <___fp_set_buffer+0x20>
  3057ae:	e1 00       	mov	#0,r1
  3057b0:	d0 0b       	mov.l	3057e0 <___fp_set_buffer+0x40>,r0	! 3049d4 <_malloc>
  3057b2:	40 0b       	jsr	@r0
  3057b4:	64 63       	mov	r6,r4
  3057b6:	20 08       	tst	r0,r0
  3057b8:	65 03       	mov	r0,r5
  3057ba:	8d 0c       	bt.s	3057d6 <___fp_set_buffer+0x36>
  3057bc:	e0 00       	mov	#0,r0
  3057be:	e1 01       	mov	#1,r1
  3057c0:	92 0d       	mov.w	3057de <___fp_set_buffer+0x3e>,r2	! dfff
  3057c2:	41 28       	shll16	r1
  3057c4:	85 8e       	mov.w	@(28,r8),r0
  3057c6:	41 09       	shlr2	r1
  3057c8:	41 01       	shlr	r1
  3057ca:	20 29       	and	r2,r0
  3057cc:	20 1b       	or	r1,r0
  3057ce:	18 52       	mov.l	r5,@(8,r8)
  3057d0:	18 95       	mov.l	r9,@(20,r8)
  3057d2:	81 8e       	mov.w	r0,@(28,r8)
  3057d4:	e0 01       	mov	#1,r0
  3057d6:	4f 26       	lds.l	@r15+,pr
  3057d8:	69 f6       	mov.l	@r15+,r9
  3057da:	00 0b       	rts	
  3057dc:	68 f6       	mov.l	@r15+,r8
  3057de:	df ff       	mov.l	305bdc <_setvbuf+0x1c>,r15	! 8f036b73
  3057e0:	00 30       	.word 0x0030
  3057e2:	49 d4       	.word 0x49d4

003057e4 <___fp_buffer_mode_read>:
  3057e4:	51 42       	mov.l	@(8,r4),r1
  3057e6:	2f 86       	mov.l	r8,@-r15
  3057e8:	21 18       	tst	r1,r1
  3057ea:	4f 22       	sts.l	pr,@-r15
  3057ec:	8d 08       	bt.s	305800 <___fp_buffer_mode_read+0x1c>
  3057ee:	68 43       	mov	r4,r8
  3057f0:	85 4e       	mov.w	@(28,r4),r0
  3057f2:	60 08       	swap.b	r0,r0
  3057f4:	c8 10       	tst	#16,r0
  3057f6:	8b 06       	bf	305806 <___fp_buffer_mode_read+0x22>
  3057f8:	91 10       	mov.w	30581c <___fp_buffer_mode_read+0x38>,r1	! efff
  3057fa:	85 8e       	mov.w	@(28,r8),r0
  3057fc:	20 19       	and	r1,r0
  3057fe:	81 8e       	mov.w	r0,@(28,r8)
  305800:	4f 26       	lds.l	@r15+,pr
  305802:	00 0b       	rts	
  305804:	68 f6       	mov.l	@r15+,r8
  305806:	51 43       	mov.l	@(12,r4),r1
  305808:	21 18       	tst	r1,r1
  30580a:	89 f5       	bt	3057f8 <___fp_buffer_mode_read+0x14>
  30580c:	d0 04       	mov.l	305820 <___fp_buffer_mode_read+0x3c>,r0	! 305cf0 <_fflush>
  30580e:	40 0b       	jsr	@r0
  305810:	00 09       	nop	
  305812:	51 82       	mov.l	@(8,r8),r1
  305814:	21 18       	tst	r1,r1
  305816:	8b ef       	bf	3057f8 <___fp_buffer_mode_read+0x14>
  305818:	af f2       	bra	305800 <___fp_buffer_mode_read+0x1c>
  30581a:	00 09       	nop	
  30581c:	ef ff       	mov	#-1,r15
  30581e:	00 09       	nop	
  305820:	00 30       	.word 0x0030
  305822:	5c f0       	mov.l	@(0,r15),r12

00305824 <___fp_buffer_mode_write>:
  305824:	2f 86       	mov.l	r8,@-r15
  305826:	68 43       	mov	r4,r8
  305828:	51 42       	mov.l	@(8,r4),r1
  30582a:	2f 96       	mov.l	r9,@-r15
  30582c:	21 18       	tst	r1,r1
  30582e:	8d 07       	bt.s	305840 <___fp_buffer_mode_write+0x1c>
  305830:	4f 22       	sts.l	pr,@-r15
  305832:	99 15       	mov.w	305860 <___fp_buffer_mode_write+0x3c>,r9	! 1000
  305834:	85 4e       	mov.w	@(28,r4),r0
  305836:	29 08       	tst	r0,r9
  305838:	89 06       	bt	305848 <___fp_buffer_mode_write+0x24>
  30583a:	85 8e       	mov.w	@(28,r8),r0
  30583c:	20 9b       	or	r9,r0
  30583e:	81 8e       	mov.w	r0,@(28,r8)
  305840:	4f 26       	lds.l	@r15+,pr
  305842:	69 f6       	mov.l	@r15+,r9
  305844:	00 0b       	rts	
  305846:	68 f6       	mov.l	@r15+,r8
  305848:	52 43       	mov.l	@(12,r4),r2
  30584a:	51 44       	mov.l	@(16,r4),r1
  30584c:	32 12       	cmp/hs	r1,r2
  30584e:	89 f4       	bt	30583a <___fp_buffer_mode_write+0x16>
  305850:	d0 04       	mov.l	305864 <___fp_buffer_mode_write+0x40>,r0	! 305cf0 <_fflush>
  305852:	40 0b       	jsr	@r0
  305854:	00 09       	nop	
  305856:	51 82       	mov.l	@(8,r8),r1
  305858:	21 18       	tst	r1,r1
  30585a:	8b ee       	bf	30583a <___fp_buffer_mode_write+0x16>
  30585c:	af f0       	bra	305840 <___fp_buffer_mode_write+0x1c>
  30585e:	00 09       	nop	
  305860:	10 00       	mov.l	r0,@(0,r0)
  305862:	00 09       	nop	
  305864:	00 30       	.word 0x0030
  305866:	5c f0       	mov.l	@(0,r15),r12

00305868 <___fp_buffered_read>:
  305868:	2f 86       	mov.l	r8,@-r15
  30586a:	68 43       	mov	r4,r8
  30586c:	2f 96       	mov.l	r9,@-r15
  30586e:	e9 ff       	mov	#-1,r9
  305870:	2f a6       	mov.l	r10,@-r15
  305872:	6a 53       	mov	r5,r10
  305874:	4f 22       	sts.l	pr,@-r15
  305876:	54 42       	mov.l	@(8,r4),r4
  305878:	24 48       	tst	r4,r4
  30587a:	8d 3e       	bt.s	3058fa <___fp_buffered_read+0x92>
  30587c:	65 73       	mov	r7,r5
  30587e:	85 8e       	mov.w	@(28,r8),r0
  305880:	60 08       	swap.b	r0,r0
  305882:	c8 10       	tst	#16,r0
  305884:	8d 03       	bt.s	30588e <___fp_buffered_read+0x26>
  305886:	51 83       	mov.l	@(12,r8),r1
  305888:	21 18       	tst	r1,r1
  30588a:	8f 37       	bf.s	3058fc <___fp_buffered_read+0x94>
  30588c:	60 93       	mov	r9,r0
  30588e:	59 84       	mov.l	@(16,r8),r9
  305890:	39 18       	sub	r1,r9
  305892:	39 67       	cmp/gt	r6,r9
  305894:	8f 02       	bf.s	30589c <___fp_buffered_read+0x34>
  305896:	49 15       	cmp/pl	r9
  305898:	69 63       	mov	r6,r9
  30589a:	49 15       	cmp/pl	r9
  30589c:	8f 33       	bf.s	305906 <___fp_buffered_read+0x9e>
  30589e:	45 11       	cmp/pz	r5
  3058a0:	8f 0b       	bf.s	3058ba <___fp_buffered_read+0x52>
  3058a2:	66 93       	mov	r9,r6
  3058a4:	d0 19       	mov.l	30590c <___fp_buffered_read+0xa4>,r0	! 305c50 <_memchr>
  3058a6:	40 0b       	jsr	@r0
  3058a8:	34 1c       	add	r1,r4
  3058aa:	20 08       	tst	r0,r0
  3058ac:	89 05       	bt	3058ba <___fp_buffered_read+0x52>
  3058ae:	51 82       	mov.l	@(8,r8),r1
  3058b0:	69 03       	mov	r0,r9
  3058b2:	52 83       	mov.l	@(12,r8),r2
  3058b4:	31 2c       	add	r2,r1
  3058b6:	39 18       	sub	r1,r9
  3058b8:	79 01       	add	#1,r9
  3058ba:	51 83       	mov.l	@(12,r8),r1
  3058bc:	66 93       	mov	r9,r6
  3058be:	55 82       	mov.l	@(8,r8),r5
  3058c0:	64 a3       	mov	r10,r4
  3058c2:	d0 13       	mov.l	305910 <___fp_buffered_read+0xa8>,r0	! 3048b0 <_memcpy>
  3058c4:	40 0b       	jsr	@r0
  3058c6:	35 1c       	add	r1,r5
  3058c8:	52 83       	mov.l	@(12,r8),r2
  3058ca:	51 86       	mov.l	@(24,r8),r1
  3058cc:	32 9c       	add	r9,r2
  3058ce:	31 98       	sub	r9,r1
  3058d0:	41 11       	cmp/pz	r1
  3058d2:	8d 01       	bt.s	3058d8 <___fp_buffered_read+0x70>
  3058d4:	18 23       	mov.l	r2,@(12,r8)
  3058d6:	e1 00       	mov	#0,r1
  3058d8:	18 16       	mov.l	r1,@(24,r8)
  3058da:	51 84       	mov.l	@(16,r8),r1
  3058dc:	32 12       	cmp/hs	r1,r2
  3058de:	8f 0d       	bf.s	3058fc <___fp_buffered_read+0x94>
  3058e0:	60 93       	mov	r9,r0
  3058e2:	e1 00       	mov	#0,r1
  3058e4:	18 14       	mov.l	r1,@(16,r8)
  3058e6:	18 13       	mov.l	r1,@(12,r8)
  3058e8:	d1 0a       	mov.l	305914 <___fp_buffered_read+0xac>,r1	! c000
  3058ea:	85 8e       	mov.w	@(28,r8),r0
  3058ec:	20 19       	and	r1,r0
  3058ee:	d1 0a       	mov.l	305918 <___fp_buffered_read+0xb0>,r1	! 8000
  3058f0:	30 10       	cmp/eq	r1,r0
  3058f2:	8b 02       	bf	3058fa <___fp_buffered_read+0x92>
  3058f4:	d1 09       	mov.l	30591c <___fp_buffered_read+0xb4>,r1	! 305770 <___fp_remove_buffer>
  3058f6:	41 0b       	jsr	@r1
  3058f8:	64 83       	mov	r8,r4
  3058fa:	60 93       	mov	r9,r0
  3058fc:	4f 26       	lds.l	@r15+,pr
  3058fe:	6a f6       	mov.l	@r15+,r10
  305900:	69 f6       	mov.l	@r15+,r9
  305902:	00 0b       	rts	
  305904:	68 f6       	mov.l	@r15+,r8
  305906:	af f8       	bra	3058fa <___fp_buffered_read+0x92>
  305908:	e9 00       	mov	#0,r9
  30590a:	00 09       	nop	
  30590c:	00 30       	.word 0x0030
  30590e:	5c 50       	mov.l	@(0,r5),r12
  305910:	00 30       	.word 0x0030
  305912:	48 b0       	.word 0x48b0
  305914:	00 00       	.word 0x0000
  305916:	c0 00       	mov.b	r0,@(0,gbr)
  305918:	00 00       	.word 0x0000
  30591a:	80 00       	mov.b	r0,@(0,r0)
  30591c:	00 30       	.word 0x0030
  30591e:	57 70       	mov.l	@(0,r7),r7

00305920 <___fp_read>:
  305920:	2f 86       	mov.l	r8,@-r15
  305922:	e8 00       	mov	#0,r8
  305924:	2f 96       	mov.l	r9,@-r15
  305926:	69 43       	mov	r4,r9
  305928:	2f a6       	mov.l	r10,@-r15
  30592a:	6a 63       	mov	r6,r10
  30592c:	2f b6       	mov.l	r11,@-r15
  30592e:	6b 53       	mov	r5,r11
  305930:	2f c6       	mov.l	r12,@-r15
  305932:	dc 11       	mov.l	305978 <___fp_read+0x58>,r12	! 305f20 <_read>
  305934:	4f 22       	sts.l	pr,@-r15
  305936:	38 a2       	cmp/hs	r10,r8
  305938:	8d 17       	bt.s	30596a <___fp_read+0x4a>
  30593a:	66 a3       	mov	r10,r6
  30593c:	65 b3       	mov	r11,r5
  30593e:	64 92       	mov.l	@r9,r4
  305940:	36 88       	sub	r8,r6
  305942:	4c 0b       	jsr	@r12
  305944:	35 8c       	add	r8,r5
  305946:	40 11       	cmp/pz	r0
  305948:	8d 0b       	bt.s	305962 <___fp_read+0x42>
  30594a:	20 08       	tst	r0,r0
  30594c:	85 9e       	mov.w	@(28,r9),r0
  30594e:	cb 40       	or	#64,r0
  305950:	81 9e       	mov.w	r0,@(28,r9)
  305952:	e0 ff       	mov	#-1,r0
  305954:	4f 26       	lds.l	@r15+,pr
  305956:	6c f6       	mov.l	@r15+,r12
  305958:	6b f6       	mov.l	@r15+,r11
  30595a:	6a f6       	mov.l	@r15+,r10
  30595c:	69 f6       	mov.l	@r15+,r9
  30595e:	00 0b       	rts	
  305960:	68 f6       	mov.l	@r15+,r8
  305962:	8b 04       	bf	30596e <___fp_read+0x4e>
  305964:	85 9e       	mov.w	@(28,r9),r0
  305966:	cb 80       	or	#128,r0
  305968:	81 9e       	mov.w	r0,@(28,r9)
  30596a:	af f3       	bra	305954 <___fp_read+0x34>
  30596c:	60 83       	mov	r8,r0
  30596e:	51 91       	mov.l	@(4,r9),r1
  305970:	38 0c       	add	r0,r8
  305972:	31 0c       	add	r0,r1
  305974:	af df       	bra	305936 <___fp_read+0x16>
  305976:	19 11       	mov.l	r1,@(4,r9)
  305978:	00 30       	.word 0x0030
  30597a:	5f 20       	mov.l	@(0,r2),r15

0030597c <___fp_fread2>:
  30597c:	2f 86       	mov.l	r8,@-r15
  30597e:	2f 96       	mov.l	r9,@-r15
  305980:	69 43       	mov	r4,r9
  305982:	2f a6       	mov.l	r10,@-r15
  305984:	6a 73       	mov	r7,r10
  305986:	2f b6       	mov.l	r11,@-r15
  305988:	6b 63       	mov	r6,r11
  30598a:	2f c6       	mov.l	r12,@-r15
  30598c:	6c 53       	mov	r5,r12
  30598e:	2f d6       	mov.l	r13,@-r15
  305990:	2f e6       	mov.l	r14,@-r15
  305992:	4f 22       	sts.l	pr,@-r15
  305994:	85 4e       	mov.w	@(28,r4),r0
  305996:	61 03       	mov	r0,r1
  305998:	60 08       	swap.b	r0,r0
  30599a:	c8 08       	tst	#8,r0
  30599c:	8f 0e       	bf.s	3059bc <___fp_fread2+0x40>
  30599e:	7f f4       	add	#-12,r15
  3059a0:	e0 40       	mov	#64,r0
  3059a2:	20 1b       	or	r1,r0
  3059a4:	81 4e       	mov.w	r0,@(28,r4)
  3059a6:	e0 ff       	mov	#-1,r0
  3059a8:	7f 0c       	add	#12,r15
  3059aa:	4f 26       	lds.l	@r15+,pr
  3059ac:	6e f6       	mov.l	@r15+,r14
  3059ae:	6d f6       	mov.l	@r15+,r13
  3059b0:	6c f6       	mov.l	@r15+,r12
  3059b2:	6b f6       	mov.l	@r15+,r11
  3059b4:	6a f6       	mov.l	@r15+,r10
  3059b6:	69 f6       	mov.l	@r15+,r9
  3059b8:	00 0b       	rts	
  3059ba:	68 f6       	mov.l	@r15+,r8
  3059bc:	d1 2d       	mov.l	305a74 <___fp_fread2+0xf8>,r1	! 3057e4 <___fp_buffer_mode_read>
  3059be:	e8 00       	mov	#0,r8
  3059c0:	41 0b       	jsr	@r1
  3059c2:	6d a7       	not	r10,r13
  3059c4:	4a 11       	cmp/pz	r10
  3059c6:	01 29       	movt	r1
  3059c8:	1f 11       	mov.l	r1,@(4,r15)
  3059ca:	38 b2       	cmp/hs	r11,r8
  3059cc:	8f 02       	bf.s	3059d4 <___fp_fread2+0x58>
  3059ce:	61 c3       	mov	r12,r1
  3059d0:	af ea       	bra	3059a8 <___fp_fread2+0x2c>
  3059d2:	60 83       	mov	r8,r0
  3059d4:	d0 28       	mov.l	305a78 <___fp_fread2+0xfc>,r0	! 305868 <___fp_buffered_read>
  3059d6:	6e b3       	mov	r11,r14
  3059d8:	31 8c       	add	r8,r1
  3059da:	3e 88       	sub	r8,r14
  3059dc:	2f 12       	mov.l	r1,@r15
  3059de:	67 a3       	mov	r10,r7
  3059e0:	65 13       	mov	r1,r5
  3059e2:	66 e3       	mov	r14,r6
  3059e4:	40 0b       	jsr	@r0
  3059e6:	64 93       	mov	r9,r4
  3059e8:	52 f1       	mov.l	@(4,r15),r2
  3059ea:	67 d3       	mov	r13,r7
  3059ec:	27 09       	and	r0,r7
  3059ee:	47 11       	cmp/pz	r7
  3059f0:	61 f2       	mov.l	@r15,r1
  3059f2:	8d 1a       	bt.s	305a2a <___fp_fread2+0xae>
  3059f4:	63 2c       	extu.b	r2,r3
  3059f6:	dd 21       	mov.l	305a7c <___fp_fread2+0x100>,r13	! 305920 <___fp_read>
  3059f8:	6c 13       	mov	r1,r12
  3059fa:	6b 83       	mov	r8,r11
  3059fc:	61 b3       	mov	r11,r1
  3059fe:	31 88       	sub	r8,r1
  305a00:	3e 17       	cmp/gt	r1,r14
  305a02:	8f 10       	bf.s	305a26 <___fp_fread2+0xaa>
  305a04:	65 f3       	mov	r15,r5
  305a06:	e6 01       	mov	#1,r6
  305a08:	75 0b       	add	#11,r5
  305a0a:	4d 0b       	jsr	@r13
  305a0c:	64 93       	mov	r9,r4
  305a0e:	88 01       	cmp/eq	#1,r0
  305a10:	8f ca       	bf.s	3059a8 <___fp_fread2+0x2c>
  305a12:	60 b3       	mov	r11,r0
  305a14:	60 f3       	mov	r15,r0
  305a16:	70 fc       	add	#-4,r0
  305a18:	84 0f       	mov.b	@(15,r0),r0
  305a1a:	7b 01       	add	#1,r11
  305a1c:	61 0c       	extu.b	r0,r1
  305a1e:	2c 00       	mov.b	r0,@r12
  305a20:	31 a0       	cmp/eq	r10,r1
  305a22:	8f eb       	bf.s	3059fc <___fp_fread2+0x80>
  305a24:	7c 01       	add	#1,r12
  305a26:	af bf       	bra	3059a8 <___fp_fread2+0x2c>
  305a28:	60 b3       	mov	r11,r0
  305a2a:	40 11       	cmp/pz	r0
  305a2c:	8d 0b       	bt.s	305a46 <___fp_fread2+0xca>
  305a2e:	38 0c       	add	r0,r8
  305a30:	38 08       	sub	r0,r8
  305a32:	d0 12       	mov.l	305a7c <___fp_fread2+0x100>,r0	! 305920 <___fp_read>
  305a34:	66 e3       	mov	r14,r6
  305a36:	65 13       	mov	r1,r5
  305a38:	40 0b       	jsr	@r0
  305a3a:	64 93       	mov	r9,r4
  305a3c:	88 ff       	cmp/eq	#-1,r0
  305a3e:	8b 00       	bf	305a42 <___fp_fread2+0xc6>
  305a40:	e0 00       	mov	#0,r0
  305a42:	af b1       	bra	3059a8 <___fp_fread2+0x2c>
  305a44:	30 8c       	add	r8,r0
  305a46:	3b 86       	cmp/hi	r8,r11
  305a48:	8f c2       	bf.s	3059d0 <___fp_fread2+0x54>
  305a4a:	28 88       	tst	r8,r8
  305a4c:	8d 07       	bt.s	305a5e <___fp_fread2+0xe2>
  305a4e:	23 38       	tst	r3,r3
  305a50:	8d 05       	bt.s	305a5e <___fp_fread2+0xe2>
  305a52:	61 c3       	mov	r12,r1
  305a54:	31 8c       	add	r8,r1
  305a56:	71 ff       	add	#-1,r1
  305a58:	61 10       	mov.b	@r1,r1
  305a5a:	31 a0       	cmp/eq	r10,r1
  305a5c:	89 b8       	bt	3059d0 <___fp_fread2+0x54>
  305a5e:	55 92       	mov.l	@(8,r9),r5
  305a60:	25 58       	tst	r5,r5
  305a62:	8d b2       	bt.s	3059ca <___fp_fread2+0x4e>
  305a64:	64 93       	mov	r9,r4
  305a66:	d0 05       	mov.l	305a7c <___fp_fread2+0x100>,r0	! 305920 <___fp_read>
  305a68:	40 0b       	jsr	@r0
  305a6a:	56 95       	mov.l	@(20,r9),r6
  305a6c:	40 15       	cmp/pl	r0
  305a6e:	8b af       	bf	3059d0 <___fp_fread2+0x54>
  305a70:	af ab       	bra	3059ca <___fp_fread2+0x4e>
  305a72:	19 04       	mov.l	r0,@(16,r9)
  305a74:	00 30       	.word 0x0030
  305a76:	57 e4       	mov.l	@(16,r14),r7
  305a78:	00 30       	.word 0x0030
  305a7a:	58 68       	mov.l	@(32,r6),r8
  305a7c:	00 30       	.word 0x0030
  305a7e:	59 20       	mov.l	@(0,r2),r9

00305a80 <___fp_write>:
  305a80:	2f 86       	mov.l	r8,@-r15
  305a82:	e8 00       	mov	#0,r8
  305a84:	2f 96       	mov.l	r9,@-r15
  305a86:	69 43       	mov	r4,r9
  305a88:	2f a6       	mov.l	r10,@-r15
  305a8a:	6a 63       	mov	r6,r10
  305a8c:	2f b6       	mov.l	r11,@-r15
  305a8e:	6b 53       	mov	r5,r11
  305a90:	2f c6       	mov.l	r12,@-r15
  305a92:	dc 10       	mov.l	305ad4 <___fp_write+0x54>,r12	! 305f64 <_write>
  305a94:	4f 22       	sts.l	pr,@-r15
  305a96:	38 a2       	cmp/hs	r10,r8
  305a98:	8d 14       	bt.s	305ac4 <___fp_write+0x44>
  305a9a:	66 a3       	mov	r10,r6
  305a9c:	65 b3       	mov	r11,r5
  305a9e:	64 92       	mov.l	@r9,r4
  305aa0:	36 88       	sub	r8,r6
  305aa2:	4c 0b       	jsr	@r12
  305aa4:	35 8c       	add	r8,r5
  305aa6:	40 11       	cmp/pz	r0
  305aa8:	8d 0b       	bt.s	305ac2 <___fp_write+0x42>
  305aaa:	20 08       	tst	r0,r0
  305aac:	85 9e       	mov.w	@(28,r9),r0
  305aae:	cb 40       	or	#64,r0
  305ab0:	81 9e       	mov.w	r0,@(28,r9)
  305ab2:	e0 ff       	mov	#-1,r0
  305ab4:	4f 26       	lds.l	@r15+,pr
  305ab6:	6c f6       	mov.l	@r15+,r12
  305ab8:	6b f6       	mov.l	@r15+,r11
  305aba:	6a f6       	mov.l	@r15+,r10
  305abc:	69 f6       	mov.l	@r15+,r9
  305abe:	00 0b       	rts	
  305ac0:	68 f6       	mov.l	@r15+,r8
  305ac2:	8b 01       	bf	305ac8 <___fp_write+0x48>
  305ac4:	af f6       	bra	305ab4 <___fp_write+0x34>
  305ac6:	60 83       	mov	r8,r0
  305ac8:	51 91       	mov.l	@(4,r9),r1
  305aca:	38 0c       	add	r0,r8
  305acc:	31 0c       	add	r0,r1
  305ace:	af e2       	bra	305a96 <___fp_write+0x16>
  305ad0:	19 11       	mov.l	r1,@(4,r9)
  305ad2:	00 09       	nop	
  305ad4:	00 30       	.word 0x0030
  305ad6:	5f 64       	mov.l	@(16,r6),r15

00305ad8 <___fp_parse_mode>:
  305ad8:	e2 00       	mov	#0,r2
  305ada:	e6 00       	mov	#0,r6
  305adc:	e3 00       	mov	#0,r3
  305ade:	e1 62       	mov	#98,r1
  305ae0:	60 44       	mov.b	@r4+,r0
  305ae2:	20 08       	tst	r0,r0
  305ae4:	8f 26       	bf.s	305b34 <___fp_parse_mode+0x5c>
  305ae6:	88 62       	cmp/eq	#98,r0
  305ae8:	23 38       	tst	r3,r3
  305aea:	8d 3e       	bt.s	305b6a <___fp_parse_mode+0x92>
  305aec:	25 58       	tst	r5,r5
  305aee:	8d 1a       	bt.s	305b26 <___fp_parse_mode+0x4e>
  305af0:	60 33       	mov	r3,r0
  305af2:	88 61       	cmp/eq	#97,r0
  305af4:	04 29       	movt	r4
  305af6:	88 77       	cmp/eq	#119,r0
  305af8:	01 29       	movt	r1
  305afa:	88 72       	cmp/eq	#114,r0
  305afc:	07 29       	movt	r7
  305afe:	21 4b       	or	r4,r1
  305b00:	27 2b       	or	r2,r7
  305b02:	21 2b       	or	r2,r1
  305b04:	47 08       	shll2	r7
  305b06:	37 7c       	add	r7,r7
  305b08:	41 08       	shll2	r1
  305b0a:	21 7b       	or	r7,r1
  305b0c:	34 4c       	add	r4,r4
  305b0e:	60 63       	mov	r6,r0
  305b10:	75 10       	add	#16,r5
  305b12:	ca 01       	xor	#1,r0
  305b14:	21 4b       	or	r4,r1
  305b16:	21 0b       	or	r0,r1
  305b18:	e7 0f       	mov	#15,r7
  305b1a:	84 5c       	mov.b	@(12,r5),r0
  305b1c:	21 79       	and	r7,r1
  305b1e:	e7 f0       	mov	#-16,r7
  305b20:	20 79       	and	r7,r0
  305b22:	20 1b       	or	r1,r0
  305b24:	80 5c       	mov.b	r0,@(12,r5)
  305b26:	60 33       	mov	r3,r0
  305b28:	88 72       	cmp/eq	#114,r0
  305b2a:	8f 18       	bf.s	305b5e <___fp_parse_mode+0x86>
  305b2c:	88 77       	cmp/eq	#119,r0
  305b2e:	32 2c       	add	r2,r2
  305b30:	00 0b       	rts	
  305b32:	60 23       	mov	r2,r0
  305b34:	8d 0f       	bt.s	305b56 <___fp_parse_mode+0x7e>
  305b36:	30 17       	cmp/gt	r1,r0
  305b38:	8d 08       	bt.s	305b4c <___fp_parse_mode+0x74>
  305b3a:	88 2b       	cmp/eq	#43,r0
  305b3c:	8d 0d       	bt.s	305b5a <___fp_parse_mode+0x82>
  305b3e:	88 61       	cmp/eq	#97,r0
  305b40:	8b ce       	bf	305ae0 <___fp_parse_mode+0x8>
  305b42:	23 38       	tst	r3,r3
  305b44:	8f 11       	bf.s	305b6a <___fp_parse_mode+0x92>
  305b46:	63 03       	mov	r0,r3
  305b48:	af cb       	bra	305ae2 <___fp_parse_mode+0xa>
  305b4a:	60 44       	mov.b	@r4+,r0
  305b4c:	88 72       	cmp/eq	#114,r0
  305b4e:	8d f8       	bt.s	305b42 <___fp_parse_mode+0x6a>
  305b50:	88 77       	cmp/eq	#119,r0
  305b52:	af f5       	bra	305b40 <___fp_parse_mode+0x68>
  305b54:	00 09       	nop	
  305b56:	af c3       	bra	305ae0 <___fp_parse_mode+0x8>
  305b58:	e6 01       	mov	#1,r6
  305b5a:	af c1       	bra	305ae0 <___fp_parse_mode+0x8>
  305b5c:	e2 01       	mov	#1,r2
  305b5e:	8f 02       	bf.s	305b66 <___fp_parse_mode+0x8e>
  305b60:	88 61       	cmp/eq	#97,r0
  305b62:	af e5       	bra	305b30 <___fp_parse_mode+0x58>
  305b64:	72 25       	add	#37,r2
  305b66:	8d e3       	bt.s	305b30 <___fp_parse_mode+0x58>
  305b68:	72 05       	add	#5,r2
  305b6a:	d1 02       	mov.l	305b74 <___fp_parse_mode+0x9c>,r1	! 810172c <_errno>
  305b6c:	e2 06       	mov	#6,r2
  305b6e:	21 22       	mov.l	r2,@r1
  305b70:	af de       	bra	305b30 <___fp_parse_mode+0x58>
  305b72:	e2 ff       	mov	#-1,r2
  305b74:	08 10       	.word 0x0810
  305b76:	17 2c       	mov.l	r2,@(48,r7)

00305b78 <_fseek>:
  305b78:	2f 86       	mov.l	r8,@-r15
  305b7a:	68 43       	mov	r4,r8
  305b7c:	2f 96       	mov.l	r9,@-r15
  305b7e:	69 53       	mov	r5,r9
  305b80:	d0 0d       	mov.l	305bb8 <_fseek+0x40>,r0	! 305cf0 <_fflush>
  305b82:	2f a6       	mov.l	r10,@-r15
  305b84:	4f 22       	sts.l	pr,@-r15
  305b86:	40 0b       	jsr	@r0
  305b88:	6a 63       	mov	r6,r10
  305b8a:	88 ff       	cmp/eq	#-1,r0
  305b8c:	8f 06       	bf.s	305b9c <_fseek+0x24>
  305b8e:	66 a3       	mov	r10,r6
  305b90:	e0 ff       	mov	#-1,r0
  305b92:	4f 26       	lds.l	@r15+,pr
  305b94:	6a f6       	mov.l	@r15+,r10
  305b96:	69 f6       	mov.l	@r15+,r9
  305b98:	00 0b       	rts	
  305b9a:	68 f6       	mov.l	@r15+,r8
  305b9c:	d0 07       	mov.l	305bbc <_fseek+0x44>,r0	! 305ec8 <_lseek>
  305b9e:	64 82       	mov.l	@r8,r4
  305ba0:	40 0b       	jsr	@r0
  305ba2:	65 93       	mov	r9,r5
  305ba4:	40 11       	cmp/pz	r0
  305ba6:	8b f3       	bf	305b90 <_fseek+0x18>
  305ba8:	91 05       	mov.w	305bb6 <_fseek+0x3e>,r1	! ff7f
  305baa:	18 01       	mov.l	r0,@(4,r8)
  305bac:	85 8e       	mov.w	@(28,r8),r0
  305bae:	20 19       	and	r1,r0
  305bb0:	81 8e       	mov.w	r0,@(28,r8)
  305bb2:	af ee       	bra	305b92 <_fseek+0x1a>
  305bb4:	e0 00       	mov	#0,r0
  305bb6:	ff 7f       	.word 0xff7f
  305bb8:	00 30       	.word 0x0030
  305bba:	5c f0       	mov.l	@(0,r15),r12
  305bbc:	00 30       	.word 0x0030
  305bbe:	5e c8       	mov.l	@(32,r12),r14

00305bc0 <_setvbuf>:
  305bc0:	2f 86       	mov.l	r8,@-r15
  305bc2:	68 43       	mov	r4,r8
  305bc4:	2f 96       	mov.l	r9,@-r15
  305bc6:	69 63       	mov	r6,r9
  305bc8:	2f a6       	mov.l	r10,@-r15
  305bca:	6a 53       	mov	r5,r10
  305bcc:	2f b6       	mov.l	r11,@-r15
  305bce:	2f c6       	mov.l	r12,@-r15
  305bd0:	4f 22       	sts.l	pr,@-r15
  305bd2:	d1 19       	mov.l	305c38 <_setvbuf+0x78>,r1	! c000
  305bd4:	85 4e       	mov.w	@(28,r4),r0
  305bd6:	20 19       	and	r1,r0
  305bd8:	d1 18       	mov.l	305c3c <_setvbuf+0x7c>,r1	! 8000
  305bda:	30 10       	cmp/eq	r1,r0
  305bdc:	8f 03       	bf.s	305be6 <_setvbuf+0x26>
  305bde:	6b 73       	mov	r7,r11
  305be0:	51 42       	mov.l	@(8,r4),r1
  305be2:	21 18       	tst	r1,r1
  305be4:	89 02       	bt	305bec <_setvbuf+0x2c>
  305be6:	d0 16       	mov.l	305c40 <_setvbuf+0x80>,r0	! 305cf0 <_fflush>
  305be8:	40 0b       	jsr	@r0
  305bea:	64 83       	mov	r8,r4
  305bec:	d1 15       	mov.l	305c44 <_setvbuf+0x84>,r1	! 305770 <___fp_remove_buffer>
  305bee:	9c 20       	mov.w	305c32 <_setvbuf+0x72>,r12	! 3fff
  305bf0:	41 0b       	jsr	@r1
  305bf2:	64 83       	mov	r8,r4
  305bf4:	85 8e       	mov.w	@(28,r8),r0
  305bf6:	91 1d       	mov.w	305c34 <_setvbuf+0x74>,r1	! 8000
  305bf8:	20 c9       	and	r12,r0
  305bfa:	20 1b       	or	r1,r0
  305bfc:	81 8e       	mov.w	r0,@(28,r8)
  305bfe:	60 93       	mov	r9,r0
  305c00:	88 02       	cmp/eq	#2,r0
  305c02:	8d 0f       	bt.s	305c24 <_setvbuf+0x64>
  305c04:	e0 00       	mov	#0,r0
  305c06:	d0 10       	mov.l	305c48 <_setvbuf+0x88>,r0	! 3057a0 <___fp_set_buffer>
  305c08:	66 b3       	mov	r11,r6
  305c0a:	65 a3       	mov	r10,r5
  305c0c:	40 0b       	jsr	@r0
  305c0e:	64 83       	mov	r8,r4
  305c10:	20 08       	tst	r0,r0
  305c12:	8d 07       	bt.s	305c24 <_setvbuf+0x64>
  305c14:	e0 ff       	mov	#-1,r0
  305c16:	85 8e       	mov.w	@(28,r8),r0
  305c18:	49 28       	shll16	r9
  305c1a:	49 09       	shlr2	r9
  305c1c:	20 c9       	and	r12,r0
  305c1e:	20 9b       	or	r9,r0
  305c20:	81 8e       	mov.w	r0,@(28,r8)
  305c22:	e0 00       	mov	#0,r0
  305c24:	4f 26       	lds.l	@r15+,pr
  305c26:	6c f6       	mov.l	@r15+,r12
  305c28:	6b f6       	mov.l	@r15+,r11
  305c2a:	6a f6       	mov.l	@r15+,r10
  305c2c:	69 f6       	mov.l	@r15+,r9
  305c2e:	00 0b       	rts	
  305c30:	68 f6       	mov.l	@r15+,r8
  305c32:	3f ff       	addv	r15,r15
  305c34:	80 00       	mov.b	r0,@(0,r0)
  305c36:	00 09       	nop	
  305c38:	00 00       	.word 0x0000
  305c3a:	c0 00       	mov.b	r0,@(0,gbr)
  305c3c:	00 00       	.word 0x0000
  305c3e:	80 00       	mov.b	r0,@(0,r0)
  305c40:	00 30       	.word 0x0030
  305c42:	5c f0       	mov.l	@(0,r15),r12
  305c44:	00 30       	.word 0x0030
  305c46:	57 70       	mov.l	@(0,r7),r7
  305c48:	00 30       	.word 0x0030
  305c4a:	57 a0       	mov.l	@(0,r10),r7
  305c4c:	00 00       	.word 0x0000
	...

00305c50 <_memchr>:
  305c50:	61 43       	mov	r4,r1
  305c52:	65 5e       	exts.b	r5,r5
  305c54:	e2 40       	mov	#64,r2
  305c56:	32 66       	cmp/hi	r6,r2
  305c58:	89 31       	bt	305cbe <.naive>
  305c5a:	63 5c       	extu.b	r5,r3
  305c5c:	62 38       	swap.b	r3,r2
  305c5e:	22 3b       	or	r3,r2
  305c60:	63 29       	swap.w	r2,r3
  305c62:	22 3b       	or	r3,r2
  305c64:	d0 1e       	mov.l	305ce0 <.___cpucap>,r0	! 8101728 <___cpucap>
  305c66:	60 02       	mov.l	@r0,r0
  305c68:	c8 01       	tst	#1,r0
  305c6a:	8b 17       	bf	305c9c <.sh4aldsp>

00305c6c <.sh3>:
  305c6c:	60 14       	mov.b	@r1+,r0
  305c6e:	35 00       	cmp/eq	r0,r5
  305c70:	89 31       	bt	305cd6 <.end>
  305c72:	60 14       	mov.b	@r1+,r0
  305c74:	35 00       	cmp/eq	r0,r5
  305c76:	89 2e       	bt	305cd6 <.end>
  305c78:	60 14       	mov.b	@r1+,r0
  305c7a:	35 00       	cmp/eq	r0,r5
  305c7c:	89 2b       	bt	305cd6 <.end>
  305c7e:	41 09       	shlr2	r1
  305c80:	41 08       	shll2	r1
  305c82:	36 4c       	add	r4,r6
  305c84:	36 18       	sub	r1,r6
  305c86:	67 63       	mov	r6,r7
  305c88:	47 09       	shlr2	r7
  305c8a:	e3 03       	mov	#3,r3
  305c8c:	26 39       	and	r3,r6
  305c8e:	60 16       	mov.l	@r1+,r0
  305c90:	22 0c       	cmp/str	r0,r2
  305c92:	89 1d       	bt	305cd0 <.found>
  305c94:	47 10       	dt	r7
  305c96:	8b fa       	bf	305c8e <.sh3+0x22>
  305c98:	a0 11       	bra	305cbe <.naive>
  305c9a:	00 09       	nop	

00305c9c <.sh4aldsp>:
  305c9c:	41 e9       	movua.l	@r1+,r0
  305c9e:	22 0c       	cmp/str	r0,r2
  305ca0:	89 16       	bt	305cd0 <.found>
  305ca2:	41 09       	shlr2	r1
  305ca4:	41 08       	shll2	r1
  305ca6:	36 4c       	add	r4,r6
  305ca8:	36 18       	sub	r1,r6
  305caa:	67 63       	mov	r6,r7
  305cac:	47 09       	shlr2	r7
  305cae:	8c 03       	ldrs	305cb8 <.sh4aldsp+0x1c>	! 6016
  305cb0:	8e 04       	ldre	305cbc <.sh4aldsp+0x20>	! 8908
  305cb2:	47 34       	ldrc	r7
  305cb4:	e3 03       	mov	#3,r3
  305cb6:	26 39       	and	r3,r6
  305cb8:	60 16       	mov.l	@r1+,r0
  305cba:	22 0c       	cmp/str	r0,r2
  305cbc:	89 08       	bt	305cd0 <.found>

00305cbe <.naive>:
  305cbe:	26 68       	tst	r6,r6
  305cc0:	89 04       	bt	305ccc <.none>
  305cc2:	60 14       	mov.b	@r1+,r0
  305cc4:	35 00       	cmp/eq	r0,r5
  305cc6:	89 06       	bt	305cd6 <.end>
  305cc8:	46 10       	dt	r6
  305cca:	8b fa       	bf	305cc2 <.naive+0x4>

00305ccc <.none>:
  305ccc:	00 0b       	rts	
  305cce:	e0 00       	mov	#0,r0

00305cd0 <.found>:
  305cd0:	71 fc       	add	#-4,r1
  305cd2:	af f6       	bra	305cc2 <.naive+0x4>
  305cd4:	e6 04       	mov	#4,r6

00305cd6 <.end>:
  305cd6:	60 13       	mov	r1,r0
  305cd8:	00 0b       	rts	
  305cda:	70 ff       	add	#-1,r0
  305cdc:	00 09       	nop	
  305cde:	00 09       	nop	

00305ce0 <.___cpucap>:
  305ce0:	08 10       	.word 0x0810
  305ce2:	17 28       	mov.l	r2,@(32,r7)
  305ce4:	00 09       	nop	
  305ce6:	00 09       	nop	
  305ce8:	00 09       	nop	
  305cea:	00 09       	nop	
  305cec:	00 09       	nop	
  305cee:	00 09       	nop	

00305cf0 <_fflush>:
  305cf0:	2f 86       	mov.l	r8,@-r15
  305cf2:	24 48       	tst	r4,r4
  305cf4:	2f 96       	mov.l	r9,@-r15
  305cf6:	68 43       	mov	r4,r8
  305cf8:	8f 09       	bf.s	305d0e <_fflush+0x1e>
  305cfa:	4f 22       	sts.l	pr,@-r15
  305cfc:	d1 1b       	mov.l	305d6c <_fflush+0x7c>,r1	! 810172c <_errno>
  305cfe:	e2 06       	mov	#6,r2
  305d00:	e9 ff       	mov	#-1,r9
  305d02:	21 22       	mov.l	r2,@r1
  305d04:	60 93       	mov	r9,r0
  305d06:	4f 26       	lds.l	@r15+,pr
  305d08:	69 f6       	mov.l	@r15+,r9
  305d0a:	00 0b       	rts	
  305d0c:	68 f6       	mov.l	@r15+,r8
  305d0e:	55 42       	mov.l	@(8,r4),r5
  305d10:	25 58       	tst	r5,r5
  305d12:	8d f7       	bt.s	305d04 <_fflush+0x14>
  305d14:	e9 00       	mov	#0,r9
  305d16:	85 4e       	mov.w	@(28,r4),r0
  305d18:	60 08       	swap.b	r0,r0
  305d1a:	c8 10       	tst	#16,r0
  305d1c:	8f 1b       	bf.s	305d56 <_fflush+0x66>
  305d1e:	56 43       	mov.l	@(12,r4),r6
  305d20:	51 44       	mov.l	@(16,r4),r1
  305d22:	31 66       	cmp/hi	r6,r1
  305d24:	8b 08       	bf	305d38 <_fflush+0x48>
  305d26:	52 41       	mov.l	@(4,r4),r2
  305d28:	d0 11       	mov.l	305d70 <_fflush+0x80>,r0	! 305ec8 <_lseek>
  305d2a:	36 2c       	add	r2,r6
  305d2c:	65 63       	mov	r6,r5
  305d2e:	35 18       	sub	r1,r5
  305d30:	14 51       	mov.l	r5,@(4,r4)
  305d32:	e6 03       	mov	#3,r6
  305d34:	40 0b       	jsr	@r0
  305d36:	64 42       	mov.l	@r4,r4
  305d38:	e1 00       	mov	#0,r1
  305d3a:	18 13       	mov.l	r1,@(12,r8)
  305d3c:	18 14       	mov.l	r1,@(16,r8)
  305d3e:	18 16       	mov.l	r1,@(24,r8)
  305d40:	d1 0c       	mov.l	305d74 <_fflush+0x84>,r1	! c000
  305d42:	85 8e       	mov.w	@(28,r8),r0
  305d44:	20 19       	and	r1,r0
  305d46:	d1 0c       	mov.l	305d78 <_fflush+0x88>,r1	! 8000
  305d48:	30 10       	cmp/eq	r1,r0
  305d4a:	8b db       	bf	305d04 <_fflush+0x14>
  305d4c:	d1 0b       	mov.l	305d7c <_fflush+0x8c>,r1	! 305770 <___fp_remove_buffer>
  305d4e:	41 0b       	jsr	@r1
  305d50:	64 83       	mov	r8,r4
  305d52:	af d8       	bra	305d06 <_fflush+0x16>
  305d54:	60 93       	mov	r9,r0
  305d56:	26 68       	tst	r6,r6
  305d58:	8d ee       	bt.s	305d38 <_fflush+0x48>
  305d5a:	e9 00       	mov	#0,r9
  305d5c:	d0 08       	mov.l	305d80 <_fflush+0x90>,r0	! 305a80 <___fp_write>
  305d5e:	40 0b       	jsr	@r0
  305d60:	00 09       	nop	
  305d62:	51 83       	mov.l	@(12,r8),r1
  305d64:	31 00       	cmp/eq	r0,r1
  305d66:	39 9a       	subc	r9,r9
  305d68:	af e6       	bra	305d38 <_fflush+0x48>
  305d6a:	69 97       	not	r9,r9
  305d6c:	08 10       	.word 0x0810
  305d6e:	17 2c       	mov.l	r2,@(48,r7)
  305d70:	00 30       	.word 0x0030
  305d72:	5e c8       	mov.l	@(32,r12),r14
  305d74:	00 00       	.word 0x0000
  305d76:	c0 00       	mov.b	r0,@(0,gbr)
  305d78:	00 00       	.word 0x0000
  305d7a:	80 00       	mov.b	r0,@(0,r0)
  305d7c:	00 30       	.word 0x0030
  305d7e:	57 70       	mov.l	@(0,r7),r7
  305d80:	00 30       	.word 0x0030
  305d82:	5a 80       	mov.l	@(0,r8),r10

00305d84 <_close>:
  305d84:	d0 0e       	mov.l	305dc0 <_close+0x3c>,r0	! 305dcc <_fs_get_descriptor>
  305d86:	2f 86       	mov.l	r8,@-r15
  305d88:	2f 96       	mov.l	r9,@-r15
  305d8a:	4f 22       	sts.l	pr,@-r15
  305d8c:	40 0b       	jsr	@r0
  305d8e:	69 43       	mov	r4,r9
  305d90:	20 08       	tst	r0,r0
  305d92:	8f 08       	bf.s	305da6 <_close+0x22>
  305d94:	e2 0d       	mov	#13,r2
  305d96:	d1 0b       	mov.l	305dc4 <_close+0x40>,r1	! 810172c <_errno>
  305d98:	e8 ff       	mov	#-1,r8
  305d9a:	21 22       	mov.l	r2,@r1
  305d9c:	60 83       	mov	r8,r0
  305d9e:	4f 26       	lds.l	@r15+,pr
  305da0:	69 f6       	mov.l	@r15+,r9
  305da2:	00 0b       	rts	
  305da4:	68 f6       	mov.l	@r15+,r8
  305da6:	61 02       	mov.l	@r0,r1
  305da8:	51 13       	mov.l	@(12,r1),r1
  305daa:	21 18       	tst	r1,r1
  305dac:	8d 03       	bt.s	305db6 <_close+0x32>
  305dae:	e8 00       	mov	#0,r8
  305db0:	41 0b       	jsr	@r1
  305db2:	54 01       	mov.l	@(4,r0),r4
  305db4:	68 03       	mov	r0,r8
  305db6:	d1 04       	mov.l	305dc8 <_close+0x44>,r1	! 305e28 <_fs_free_descriptor>
  305db8:	41 0b       	jsr	@r1
  305dba:	64 93       	mov	r9,r4
  305dbc:	af ef       	bra	305d9e <_close+0x1a>
  305dbe:	60 83       	mov	r8,r0
  305dc0:	00 30       	.word 0x0030
  305dc2:	5d cc       	mov.l	@(48,r12),r13
  305dc4:	08 10       	.word 0x0810
  305dc6:	17 2c       	mov.l	r2,@(48,r7)
  305dc8:	00 30       	.word 0x0030
  305dca:	5e 28       	mov.l	@(32,r2),r14

00305dcc <_fs_get_descriptor>:
  305dcc:	e1 1f       	mov	#31,r1
  305dce:	34 16       	cmp/hi	r1,r4
  305dd0:	8d 08       	bt.s	305de4 <_fs_get_descriptor+0x18>
  305dd2:	e0 00       	mov	#0,r0
  305dd4:	d1 04       	mov.l	305de8 <_fs_get_descriptor+0x1c>,r1	! 81017c0 <_fdtable>
  305dd6:	44 08       	shll2	r4
  305dd8:	34 4c       	add	r4,r4
  305dda:	31 4c       	add	r4,r1
  305ddc:	60 12       	mov.l	@r1,r0
  305dde:	20 08       	tst	r0,r0
  305de0:	89 00       	bt	305de4 <_fs_get_descriptor+0x18>
  305de2:	60 13       	mov	r1,r0
  305de4:	00 0b       	rts	
  305de6:	00 09       	nop	
  305de8:	08 10       	.word 0x0810
  305dea:	17 c0       	mov.l	r12,@(0,r7)

00305dec <_fs_create_descriptor>:
  305dec:	61 42       	mov.l	@r4,r1
  305dee:	21 18       	tst	r1,r1
  305df0:	8d 15       	bt.s	305e1e <_fs_create_descriptor+0x32>
  305df2:	e0 ff       	mov	#-1,r0
  305df4:	d1 0b       	mov.l	305e24 <_fs_create_descriptor+0x38>,r1	! 81017c0 <_fdtable>
  305df6:	e0 03       	mov	#3,r0
  305df8:	e2 1d       	mov	#29,r2
  305dfa:	63 13       	mov	r1,r3
  305dfc:	57 16       	mov.l	@(24,r1),r7
  305dfe:	27 78       	tst	r7,r7
  305e00:	8b 08       	bf	305e14 <_fs_create_descriptor+0x28>
  305e02:	61 03       	mov	r0,r1
  305e04:	41 08       	shll2	r1
  305e06:	66 42       	mov.l	@r4,r6
  305e08:	31 1c       	add	r1,r1
  305e0a:	57 41       	mov.l	@(4,r4),r7
  305e0c:	33 1c       	add	r1,r3
  305e0e:	23 62       	mov.l	r6,@r3
  305e10:	00 0b       	rts	
  305e12:	13 71       	mov.l	r7,@(4,r3)
  305e14:	42 10       	dt	r2
  305e16:	70 01       	add	#1,r0
  305e18:	8f f0       	bf.s	305dfc <_fs_create_descriptor+0x10>
  305e1a:	71 08       	add	#8,r1
  305e1c:	e0 ff       	mov	#-1,r0
  305e1e:	00 0b       	rts	
  305e20:	00 09       	nop	
  305e22:	00 09       	nop	
  305e24:	08 10       	.word 0x0810
  305e26:	17 c0       	mov.l	r12,@(0,r7)

00305e28 <_fs_free_descriptor>:
  305e28:	e1 1f       	mov	#31,r1
  305e2a:	34 16       	cmp/hi	r1,r4
  305e2c:	8d 06       	bt.s	305e3c <_fs_free_descriptor+0x14>
  305e2e:	44 08       	shll2	r4
  305e30:	d1 03       	mov.l	305e40 <_fs_free_descriptor+0x18>,r1	! 81017c0 <_fdtable>
  305e32:	34 4c       	add	r4,r4
  305e34:	31 4c       	add	r4,r1
  305e36:	e2 00       	mov	#0,r2
  305e38:	21 22       	mov.l	r2,@r1
  305e3a:	11 21       	mov.l	r2,@(4,r1)
  305e3c:	00 0b       	rts	
  305e3e:	00 09       	nop	
  305e40:	08 10       	.word 0x0810
  305e42:	17 c0       	mov.l	r12,@(0,r7)

00305e44 <_open_generic>:
  305e44:	4f 22       	sts.l	pr,@-r15
  305e46:	24 48       	tst	r4,r4
  305e48:	7f f8       	add	#-8,r15
  305e4a:	8f 08       	bf.s	305e5e <_open_generic+0x1a>
  305e4c:	60 63       	mov	r6,r0
  305e4e:	d1 14       	mov.l	305ea0 <_open_generic+0x5c>,r1	! 810172c <_errno>
  305e50:	e2 06       	mov	#6,r2
  305e52:	21 22       	mov.l	r2,@r1
  305e54:	e0 ff       	mov	#-1,r0
  305e56:	7f 08       	add	#8,r15
  305e58:	4f 26       	lds.l	@r15+,pr
  305e5a:	00 0b       	rts	
  305e5c:	00 09       	nop	
  305e5e:	2f 42       	mov.l	r4,@r15
  305e60:	46 11       	cmp/pz	r6
  305e62:	8f 17       	bf.s	305e94 <_open_generic+0x50>
  305e64:	1f 51       	mov.l	r5,@(4,r15)
  305e66:	e1 1f       	mov	#31,r1
  305e68:	36 17       	cmp/gt	r1,r6
  305e6a:	8f 03       	bf.s	305e74 <_open_generic+0x30>
  305e6c:	e2 0d       	mov	#13,r2
  305e6e:	d1 0c       	mov.l	305ea0 <_open_generic+0x5c>,r1	! 810172c <_errno>
  305e70:	af f0       	bra	305e54 <_open_generic+0x10>
  305e72:	21 22       	mov.l	r2,@r1
  305e74:	d2 0b       	mov.l	305ea4 <_open_generic+0x60>,r2	! 81017c0 <_fdtable>
  305e76:	61 63       	mov	r6,r1
  305e78:	41 08       	shll2	r1
  305e7a:	31 1c       	add	r1,r1
  305e7c:	31 2c       	add	r2,r1
  305e7e:	62 12       	mov.l	@r1,r2
  305e80:	22 28       	tst	r2,r2
  305e82:	8d 03       	bt.s	305e8c <_open_generic+0x48>
  305e84:	53 f1       	mov.l	@(4,r15),r3
  305e86:	d1 06       	mov.l	305ea0 <_open_generic+0x5c>,r1	! 810172c <_errno>
  305e88:	af e3       	bra	305e52 <_open_generic+0xe>
  305e8a:	e2 07       	mov	#7,r2
  305e8c:	62 f2       	mov.l	@r15,r2
  305e8e:	21 22       	mov.l	r2,@r1
  305e90:	af e1       	bra	305e56 <_open_generic+0x12>
  305e92:	11 31       	mov.l	r3,@(4,r1)
  305e94:	d0 04       	mov.l	305ea8 <_open_generic+0x64>,r0	! 305dec <_fs_create_descriptor>
  305e96:	40 0b       	jsr	@r0
  305e98:	64 f3       	mov	r15,r4
  305e9a:	af dc       	bra	305e56 <_open_generic+0x12>
  305e9c:	00 09       	nop	
  305e9e:	00 09       	nop	
  305ea0:	08 10       	.word 0x0810
  305ea2:	17 2c       	mov.l	r2,@(48,r7)
  305ea4:	08 10       	.word 0x0810
  305ea6:	17 c0       	mov.l	r12,@(0,r7)
  305ea8:	00 30       	.word 0x0030
  305eaa:	5d ec       	mov.l	@(48,r14),r13

00305eac <_init_standard_streams>:
  305eac:	d1 04       	mov.l	305ec0 <_init_standard_streams+0x14>,r1	! 81017c0 <_fdtable>
  305eae:	e2 00       	mov	#0,r2
  305eb0:	d3 04       	mov.l	305ec4 <_init_standard_streams+0x18>,r3	! 81017b0 <_devnull>
  305eb2:	11 21       	mov.l	r2,@(4,r1)
  305eb4:	21 32       	mov.l	r3,@r1
  305eb6:	11 32       	mov.l	r3,@(8,r1)
  305eb8:	11 23       	mov.l	r2,@(12,r1)
  305eba:	11 34       	mov.l	r3,@(16,r1)
  305ebc:	00 0b       	rts	
  305ebe:	11 25       	mov.l	r2,@(20,r1)
  305ec0:	08 10       	.word 0x0810
  305ec2:	17 c0       	mov.l	r12,@(0,r7)
  305ec4:	08 10       	.word 0x0810
  305ec6:	17 b0       	mov.l	r11,@(0,r7)

00305ec8 <_lseek>:
  305ec8:	2f 86       	mov.l	r8,@-r15
  305eca:	e1 02       	mov	#2,r1
  305ecc:	2f 96       	mov.l	r9,@-r15
  305ece:	62 63       	mov	r6,r2
  305ed0:	72 ff       	add	#-1,r2
  305ed2:	69 53       	mov	r5,r9
  305ed4:	4f 22       	sts.l	pr,@-r15
  305ed6:	32 16       	cmp/hi	r1,r2
  305ed8:	8f 08       	bf.s	305eec <_lseek+0x24>
  305eda:	68 63       	mov	r6,r8
  305edc:	d1 0e       	mov.l	305f18 <_lseek+0x50>,r1	! 810172c <_errno>
  305ede:	e2 06       	mov	#6,r2
  305ee0:	21 22       	mov.l	r2,@r1
  305ee2:	e0 ff       	mov	#-1,r0
  305ee4:	4f 26       	lds.l	@r15+,pr
  305ee6:	69 f6       	mov.l	@r15+,r9
  305ee8:	00 0b       	rts	
  305eea:	68 f6       	mov.l	@r15+,r8
  305eec:	d0 0b       	mov.l	305f1c <_lseek+0x54>,r0	! 305dcc <_fs_get_descriptor>
  305eee:	40 0b       	jsr	@r0
  305ef0:	00 09       	nop	
  305ef2:	20 08       	tst	r0,r0
  305ef4:	8f 03       	bf.s	305efe <_lseek+0x36>
  305ef6:	e2 0d       	mov	#13,r2
  305ef8:	d1 07       	mov.l	305f18 <_lseek+0x50>,r1	! 810172c <_errno>
  305efa:	af f2       	bra	305ee2 <_lseek+0x1a>
  305efc:	21 22       	mov.l	r2,@r1
  305efe:	61 02       	mov.l	@r0,r1
  305f00:	51 12       	mov.l	@(8,r1),r1
  305f02:	21 18       	tst	r1,r1
  305f04:	89 06       	bt	305f14 <_lseek+0x4c>
  305f06:	54 01       	mov.l	@(4,r0),r4
  305f08:	66 83       	mov	r8,r6
  305f0a:	65 93       	mov	r9,r5
  305f0c:	4f 26       	lds.l	@r15+,pr
  305f0e:	69 f6       	mov.l	@r15+,r9
  305f10:	41 2b       	jmp	@r1
  305f12:	68 f6       	mov.l	@r15+,r8
  305f14:	af e6       	bra	305ee4 <_lseek+0x1c>
  305f16:	e0 00       	mov	#0,r0
  305f18:	08 10       	.word 0x0810
  305f1a:	17 2c       	mov.l	r2,@(48,r7)
  305f1c:	00 30       	.word 0x0030
  305f1e:	5d cc       	mov.l	@(48,r12),r13

00305f20 <_read>:
  305f20:	d0 0e       	mov.l	305f5c <_read+0x3c>,r0	! 305dcc <_fs_get_descriptor>
  305f22:	2f 86       	mov.l	r8,@-r15
  305f24:	68 53       	mov	r5,r8
  305f26:	2f 96       	mov.l	r9,@-r15
  305f28:	4f 22       	sts.l	pr,@-r15
  305f2a:	40 0b       	jsr	@r0
  305f2c:	69 63       	mov	r6,r9
  305f2e:	20 08       	tst	r0,r0
  305f30:	8f 07       	bf.s	305f42 <_read+0x22>
  305f32:	e2 0d       	mov	#13,r2
  305f34:	d1 0a       	mov.l	305f60 <_read+0x40>,r1	! 810172c <_errno>
  305f36:	e0 ff       	mov	#-1,r0
  305f38:	21 22       	mov.l	r2,@r1
  305f3a:	4f 26       	lds.l	@r15+,pr
  305f3c:	69 f6       	mov.l	@r15+,r9
  305f3e:	00 0b       	rts	
  305f40:	68 f6       	mov.l	@r15+,r8
  305f42:	61 02       	mov.l	@r0,r1
  305f44:	61 12       	mov.l	@r1,r1
  305f46:	21 18       	tst	r1,r1
  305f48:	89 06       	bt	305f58 <_read+0x38>
  305f4a:	54 01       	mov.l	@(4,r0),r4
  305f4c:	66 93       	mov	r9,r6
  305f4e:	65 83       	mov	r8,r5
  305f50:	4f 26       	lds.l	@r15+,pr
  305f52:	69 f6       	mov.l	@r15+,r9
  305f54:	41 2b       	jmp	@r1
  305f56:	68 f6       	mov.l	@r15+,r8
  305f58:	af ef       	bra	305f3a <_read+0x1a>
  305f5a:	e0 00       	mov	#0,r0
  305f5c:	00 30       	.word 0x0030
  305f5e:	5d cc       	mov.l	@(48,r12),r13
  305f60:	08 10       	.word 0x0810
  305f62:	17 2c       	mov.l	r2,@(48,r7)

00305f64 <_write>:
  305f64:	d0 0e       	mov.l	305fa0 <_write+0x3c>,r0	! 305dcc <_fs_get_descriptor>
  305f66:	2f 86       	mov.l	r8,@-r15
  305f68:	68 63       	mov	r6,r8
  305f6a:	2f 96       	mov.l	r9,@-r15
  305f6c:	4f 22       	sts.l	pr,@-r15
  305f6e:	40 0b       	jsr	@r0
  305f70:	69 53       	mov	r5,r9
  305f72:	20 08       	tst	r0,r0
  305f74:	8f 07       	bf.s	305f86 <_write+0x22>
  305f76:	e2 0d       	mov	#13,r2
  305f78:	d1 0a       	mov.l	305fa4 <_write+0x40>,r1	! 810172c <_errno>
  305f7a:	e0 ff       	mov	#-1,r0
  305f7c:	21 22       	mov.l	r2,@r1
  305f7e:	4f 26       	lds.l	@r15+,pr
  305f80:	69 f6       	mov.l	@r15+,r9
  305f82:	00 0b       	rts	
  305f84:	68 f6       	mov.l	@r15+,r8
  305f86:	61 02       	mov.l	@r0,r1
  305f88:	51 11       	mov.l	@(4,r1),r1
  305f8a:	21 18       	tst	r1,r1
  305f8c:	89 06       	bt	305f9c <_write+0x38>
  305f8e:	54 01       	mov.l	@(4,r0),r4
  305f90:	66 83       	mov	r8,r6
  305f92:	65 93       	mov	r9,r5
  305f94:	4f 26       	lds.l	@r15+,pr
  305f96:	69 f6       	mov.l	@r15+,r9
  305f98:	41 2b       	jmp	@r1
  305f9a:	68 f6       	mov.l	@r15+,r8
  305f9c:	af ef       	bra	305f7e <_write+0x1a>
  305f9e:	60 83       	mov	r8,r0
  305fa0:	00 30       	.word 0x0030
  305fa2:	5d cc       	mov.l	@(48,r12),r13
  305fa4:	08 10       	.word 0x0810
  305fa6:	17 2c       	mov.l	r2,@(48,r7)

00305fa8 <___movmem>:
  305fa8:	4f 22       	sts.l	pr,@-r15
  305faa:	46 08       	shll2	r6
  305fac:	b0 1d       	bsr	305fea <___movmemSI52+0x2>
  305fae:	50 5c       	mov.l	@(48,r5),r0
  305fb0:	50 5f       	mov.l	@(60,r5),r0
  305fb2:	76 c0       	add	#-64,r6
  305fb4:	14 0f       	mov.l	r0,@(60,r4)
  305fb6:	26 68       	tst	r6,r6
  305fb8:	50 5e       	mov.l	@(56,r5),r0
  305fba:	89 09       	bt	305fd0 <___movmem+0x28>
  305fbc:	14 0e       	mov.l	r0,@(56,r4)
  305fbe:	46 15       	cmp/pl	r6
  305fc0:	50 5d       	mov.l	@(52,r5),r0
  305fc2:	75 40       	add	#64,r5
  305fc4:	14 0d       	mov.l	r0,@(52,r4)
  305fc6:	74 40       	add	#64,r4
  305fc8:	89 0e       	bt	305fe8 <___movmemSI52>
  305fca:	c7 14       	mova	30601c <___movmemSI4+0x4>,r0
  305fcc:	30 6c       	add	r6,r0
  305fce:	40 2b       	jmp	@r0
  305fd0:	4f 26       	lds.l	@r15+,pr
  305fd2:	14 0e       	mov.l	r0,@(56,r4)
  305fd4:	50 5d       	mov.l	@(52,r5),r0
  305fd6:	00 0b       	rts	
  305fd8:	14 0d       	mov.l	r0,@(52,r4)
  305fda:	00 09       	nop	

00305fdc <___movmemSI64>:
  305fdc:	50 5f       	mov.l	@(60,r5),r0
  305fde:	14 0f       	mov.l	r0,@(60,r4)

00305fe0 <___movmemSI60>:
  305fe0:	50 5e       	mov.l	@(56,r5),r0
  305fe2:	14 0e       	mov.l	r0,@(56,r4)

00305fe4 <___movmemSI56>:
  305fe4:	50 5d       	mov.l	@(52,r5),r0
  305fe6:	14 0d       	mov.l	r0,@(52,r4)

00305fe8 <___movmemSI52>:
  305fe8:	50 5c       	mov.l	@(48,r5),r0
  305fea:	14 0c       	mov.l	r0,@(48,r4)

00305fec <___movmemSI48>:
  305fec:	50 5b       	mov.l	@(44,r5),r0
  305fee:	14 0b       	mov.l	r0,@(44,r4)

00305ff0 <___movmemSI44>:
  305ff0:	50 5a       	mov.l	@(40,r5),r0
  305ff2:	14 0a       	mov.l	r0,@(40,r4)

00305ff4 <___movmemSI40>:
  305ff4:	50 59       	mov.l	@(36,r5),r0
  305ff6:	14 09       	mov.l	r0,@(36,r4)

00305ff8 <___movmemSI36>:
  305ff8:	50 58       	mov.l	@(32,r5),r0
  305ffa:	14 08       	mov.l	r0,@(32,r4)

00305ffc <___movmemSI32>:
  305ffc:	50 57       	mov.l	@(28,r5),r0
  305ffe:	14 07       	mov.l	r0,@(28,r4)

00306000 <___movmemSI28>:
  306000:	50 56       	mov.l	@(24,r5),r0
  306002:	14 06       	mov.l	r0,@(24,r4)

00306004 <___movmemSI24>:
  306004:	50 55       	mov.l	@(20,r5),r0
  306006:	14 05       	mov.l	r0,@(20,r4)

00306008 <___movmemSI20>:
  306008:	50 54       	mov.l	@(16,r5),r0
  30600a:	14 04       	mov.l	r0,@(16,r4)

0030600c <___movmemSI16>:
  30600c:	50 53       	mov.l	@(12,r5),r0
  30600e:	14 03       	mov.l	r0,@(12,r4)

00306010 <___movmemSI12>:
  306010:	50 52       	mov.l	@(8,r5),r0
  306012:	14 02       	mov.l	r0,@(8,r4)

00306014 <___movmemSI8>:
  306014:	50 51       	mov.l	@(4,r5),r0
  306016:	14 01       	mov.l	r0,@(4,r4)

00306018 <___movmemSI4>:
  306018:	50 50       	mov.l	@(0,r5),r0
  30601a:	00 0b       	rts	
  30601c:	14 00       	mov.l	r0,@(0,r4)
  30601e:	00 09       	nop	

00306020 <___udivdi3>:
  306020:	2f 86       	mov.l	r8,@-r15
  306022:	2f 96       	mov.l	r9,@-r15
  306024:	2f a6       	mov.l	r10,@-r15
  306026:	2f b6       	mov.l	r11,@-r15
  306028:	4f 22       	sts.l	pr,@-r15
  30602a:	26 68       	tst	r6,r6
  30602c:	62 43       	mov	r4,r2
  30602e:	8f 35       	bf.s	30609c <___udivdi3+0x7c>
  306030:	68 53       	mov	r5,r8
  306032:	37 46       	cmp/hi	r4,r7
  306034:	8f 3d       	bf.s	3060b2 <___udivdi3+0x92>
  306036:	63 53       	mov	r5,r3
  306038:	d1 77       	mov.l	306218 <___udivdi3+0x1f8>,r1	! ffff
  30603a:	37 16       	cmp/hi	r1,r7
  30603c:	8d 02       	bt.s	306044 <___udivdi3+0x24>
  30603e:	65 43       	mov	r4,r5
  306040:	a0 df       	bra	306202 <___udivdi3+0x1e2>
  306042:	00 09       	nop	
  306044:	d1 75       	mov.l	30621c <___udivdi3+0x1fc>,r1	! ffffff
  306046:	37 16       	cmp/hi	r1,r7
  306048:	8f 01       	bf.s	30604e <___udivdi3+0x2e>
  30604a:	e1 10       	mov	#16,r1
  30604c:	e1 18       	mov	#24,r1
  30604e:	66 1b       	neg	r1,r6
  306050:	60 73       	mov	r7,r0
  306052:	40 6d       	shld	r6,r0
  306054:	d6 72       	mov.l	306220 <___udivdi3+0x200>,r6	! 307814 <___clz_tab>
  306056:	00 6c       	mov.b	@(r0,r6),r0
  306058:	60 0c       	extu.b	r0,r0
  30605a:	30 1c       	add	r1,r0
  30605c:	60 0b       	neg	r0,r0
  30605e:	61 03       	mov	r0,r1
  306060:	88 e0       	cmp/eq	#-32,r0
  306062:	8d 07       	bt.s	306074 <___udivdi3+0x54>
  306064:	71 20       	add	#32,r1
  306066:	65 83       	mov	r8,r5
  306068:	42 1d       	shld	r1,r2
  30606a:	45 0d       	shld	r0,r5
  30606c:	63 83       	mov	r8,r3
  30606e:	47 1d       	shld	r1,r7
  306070:	43 1d       	shld	r1,r3
  306072:	25 2b       	or	r2,r5
  306074:	d8 6b       	mov.l	306224 <___udivdi3+0x204>,r8	! 3064e8 <___udiv_qrnnd_16>
  306076:	60 53       	mov	r5,r0
  306078:	65 73       	mov	r7,r5
  30607a:	64 39       	swap.w	r3,r4
  30607c:	66 59       	swap.w	r5,r6
  30607e:	48 0b       	jsr	@r8
  306080:	46 28       	shll16	r6
  306082:	64 49       	swap.w	r4,r4
  306084:	48 0b       	jsr	@r8
  306086:	63 19       	swap.w	r1,r3
  306088:	23 1b       	or	r1,r3
  30608a:	e8 00       	mov	#0,r8
  30608c:	61 33       	mov	r3,r1
  30608e:	60 83       	mov	r8,r0
  306090:	4f 26       	lds.l	@r15+,pr
  306092:	6b f6       	mov.l	@r15+,r11
  306094:	6a f6       	mov.l	@r15+,r10
  306096:	69 f6       	mov.l	@r15+,r9
  306098:	00 0b       	rts	
  30609a:	68 f6       	mov.l	@r15+,r8
  30609c:	36 46       	cmp/hi	r4,r6
  30609e:	8b 3a       	bf	306116 <___udivdi3+0xf6>
  3060a0:	e1 00       	mov	#0,r1
  3060a2:	e8 00       	mov	#0,r8
  3060a4:	60 83       	mov	r8,r0
  3060a6:	4f 26       	lds.l	@r15+,pr
  3060a8:	6b f6       	mov.l	@r15+,r11
  3060aa:	6a f6       	mov.l	@r15+,r10
  3060ac:	69 f6       	mov.l	@r15+,r9
  3060ae:	00 0b       	rts	
  3060b0:	68 f6       	mov.l	@r15+,r8
  3060b2:	27 78       	tst	r7,r7
  3060b4:	8f 04       	bf.s	3060c0 <___udivdi3+0xa0>
  3060b6:	e4 01       	mov	#1,r4
  3060b8:	d7 5b       	mov.l	306228 <___udivdi3+0x208>,r7	! 30649a <___udivsi3>
  3060ba:	47 0b       	jsr	@r7
  3060bc:	e5 00       	mov	#0,r5
  3060be:	67 03       	mov	r0,r7
  3060c0:	d1 55       	mov.l	306218 <___udivdi3+0x1f8>,r1	! ffff
  3060c2:	37 16       	cmp/hi	r1,r7
  3060c4:	8f 43       	bf.s	30614e <___udivdi3+0x12e>
  3060c6:	60 73       	mov	r7,r0
  3060c8:	d1 54       	mov.l	30621c <___udivdi3+0x1fc>,r1	! ffffff
  3060ca:	37 16       	cmp/hi	r1,r7
  3060cc:	8f 01       	bf.s	3060d2 <___udivdi3+0xb2>
  3060ce:	e1 10       	mov	#16,r1
  3060d0:	e1 18       	mov	#24,r1
  3060d2:	66 1b       	neg	r1,r6
  3060d4:	60 73       	mov	r7,r0
  3060d6:	40 6d       	shld	r6,r0
  3060d8:	d6 51       	mov.l	306220 <___udivdi3+0x200>,r6	! 307814 <___clz_tab>
  3060da:	00 6c       	mov.b	@(r0,r6),r0
  3060dc:	60 0c       	extu.b	r0,r0
  3060de:	30 1c       	add	r1,r0
  3060e0:	60 0b       	neg	r0,r0
  3060e2:	66 03       	mov	r0,r6
  3060e4:	88 e0       	cmp/eq	#-32,r0
  3060e6:	8f 42       	bf.s	30616e <___udivdi3+0x14e>
  3060e8:	76 20       	add	#32,r6
  3060ea:	da 4e       	mov.l	306224 <___udivdi3+0x204>,r10	! 3064e8 <___udiv_qrnnd_16>
  3060ec:	61 23       	mov	r2,r1
  3060ee:	31 78       	sub	r7,r1
  3060f0:	e8 01       	mov	#1,r8
  3060f2:	60 13       	mov	r1,r0
  3060f4:	65 73       	mov	r7,r5
  3060f6:	64 39       	swap.w	r3,r4
  3060f8:	66 59       	swap.w	r5,r6
  3060fa:	4a 0b       	jsr	@r10
  3060fc:	46 28       	shll16	r6
  3060fe:	64 49       	swap.w	r4,r4
  306100:	4a 0b       	jsr	@r10
  306102:	63 19       	swap.w	r1,r3
  306104:	23 1b       	or	r1,r3
  306106:	60 83       	mov	r8,r0
  306108:	61 33       	mov	r3,r1
  30610a:	4f 26       	lds.l	@r15+,pr
  30610c:	6b f6       	mov.l	@r15+,r11
  30610e:	6a f6       	mov.l	@r15+,r10
  306110:	69 f6       	mov.l	@r15+,r9
  306112:	00 0b       	rts	
  306114:	68 f6       	mov.l	@r15+,r8
  306116:	d1 40       	mov.l	306218 <___udivdi3+0x1f8>,r1	! ffff
  306118:	36 16       	cmp/hi	r1,r6
  30611a:	8f 3e       	bf.s	30619a <___udivdi3+0x17a>
  30611c:	60 63       	mov	r6,r0
  30611e:	d1 3f       	mov.l	30621c <___udivdi3+0x1fc>,r1	! ffffff
  306120:	36 16       	cmp/hi	r1,r6
  306122:	8f 01       	bf.s	306128 <___udivdi3+0x108>
  306124:	e1 10       	mov	#16,r1
  306126:	e1 18       	mov	#24,r1
  306128:	63 1b       	neg	r1,r3
  30612a:	60 63       	mov	r6,r0
  30612c:	40 3d       	shld	r3,r0
  30612e:	d3 3c       	mov.l	306220 <___udivdi3+0x200>,r3	! 307814 <___clz_tab>
  306130:	00 3c       	mov.b	@(r0,r3),r0
  306132:	60 0c       	extu.b	r0,r0
  306134:	30 1c       	add	r1,r0
  306136:	60 0b       	neg	r0,r0
  306138:	69 03       	mov	r0,r9
  30613a:	88 e0       	cmp/eq	#-32,r0
  30613c:	8f 3d       	bf.s	3061ba <___udivdi3+0x19a>
  30613e:	79 20       	add	#32,r9
  306140:	32 66       	cmp/hi	r6,r2
  306142:	8d 01       	bt.s	306148 <___udivdi3+0x128>
  306144:	38 72       	cmp/hs	r7,r8
  306146:	8b ab       	bf	3060a0 <___udivdi3+0x80>
  306148:	e1 01       	mov	#1,r1
  30614a:	af ab       	bra	3060a4 <___udivdi3+0x84>
  30614c:	e8 00       	mov	#0,r8
  30614e:	91 61       	mov.w	306214 <___udivdi3+0x1f4>,r1	! ff
  306150:	37 16       	cmp/hi	r1,r7
  306152:	01 29       	movt	r1
  306154:	41 08       	shll2	r1
  306156:	31 1c       	add	r1,r1
  306158:	66 1b       	neg	r1,r6
  30615a:	40 6d       	shld	r6,r0
  30615c:	d6 30       	mov.l	306220 <___udivdi3+0x200>,r6	! 307814 <___clz_tab>
  30615e:	00 6c       	mov.b	@(r0,r6),r0
  306160:	60 0c       	extu.b	r0,r0
  306162:	30 1c       	add	r1,r0
  306164:	60 0b       	neg	r0,r0
  306166:	66 03       	mov	r0,r6
  306168:	88 e0       	cmp/eq	#-32,r0
  30616a:	8d be       	bt.s	3060ea <___udivdi3+0xca>
  30616c:	76 20       	add	#32,r6
  30616e:	61 23       	mov	r2,r1
  306170:	69 83       	mov	r8,r9
  306172:	41 0d       	shld	r0,r1
  306174:	da 2b       	mov.l	306224 <___udivdi3+0x204>,r10	! 3064e8 <___udiv_qrnnd_16>
  306176:	42 6d       	shld	r6,r2
  306178:	49 0d       	shld	r0,r9
  30617a:	63 83       	mov	r8,r3
  30617c:	60 13       	mov	r1,r0
  30617e:	47 6d       	shld	r6,r7
  306180:	43 6d       	shld	r6,r3
  306182:	29 2b       	or	r2,r9
  306184:	65 73       	mov	r7,r5
  306186:	64 99       	swap.w	r9,r4
  306188:	66 59       	swap.w	r5,r6
  30618a:	4a 0b       	jsr	@r10
  30618c:	46 28       	shll16	r6
  30618e:	64 49       	swap.w	r4,r4
  306190:	4a 0b       	jsr	@r10
  306192:	68 19       	swap.w	r1,r8
  306194:	28 1b       	or	r1,r8
  306196:	af ac       	bra	3060f2 <___udivdi3+0xd2>
  306198:	61 03       	mov	r0,r1
  30619a:	91 3b       	mov.w	306214 <___udivdi3+0x1f4>,r1	! ff
  30619c:	36 16       	cmp/hi	r1,r6
  30619e:	01 29       	movt	r1
  3061a0:	41 08       	shll2	r1
  3061a2:	31 1c       	add	r1,r1
  3061a4:	63 1b       	neg	r1,r3
  3061a6:	40 3d       	shld	r3,r0
  3061a8:	d3 1d       	mov.l	306220 <___udivdi3+0x200>,r3	! 307814 <___clz_tab>
  3061aa:	00 3c       	mov.b	@(r0,r3),r0
  3061ac:	60 0c       	extu.b	r0,r0
  3061ae:	30 1c       	add	r1,r0
  3061b0:	60 0b       	neg	r0,r0
  3061b2:	69 03       	mov	r0,r9
  3061b4:	88 e0       	cmp/eq	#-32,r0
  3061b6:	8d c3       	bt.s	306140 <___udivdi3+0x120>
  3061b8:	79 20       	add	#32,r9
  3061ba:	6a 73       	mov	r7,r10
  3061bc:	61 23       	mov	r2,r1
  3061be:	63 83       	mov	r8,r3
  3061c0:	41 0d       	shld	r0,r1
  3061c2:	db 18       	mov.l	306224 <___udivdi3+0x204>,r11	! 3064e8 <___udiv_qrnnd_16>
  3061c4:	46 9d       	shld	r9,r6
  3061c6:	4a 0d       	shld	r0,r10
  3061c8:	42 9d       	shld	r9,r2
  3061ca:	43 0d       	shld	r0,r3
  3061cc:	47 9d       	shld	r9,r7
  3061ce:	60 13       	mov	r1,r0
  3061d0:	2a 6b       	or	r6,r10
  3061d2:	23 2b       	or	r2,r3
  3061d4:	65 a3       	mov	r10,r5
  3061d6:	64 39       	swap.w	r3,r4
  3061d8:	66 59       	swap.w	r5,r6
  3061da:	4b 0b       	jsr	@r11
  3061dc:	46 28       	shll16	r6
  3061de:	64 49       	swap.w	r4,r4
  3061e0:	4b 0b       	jsr	@r11
  3061e2:	63 19       	swap.w	r1,r3
  3061e4:	23 1b       	or	r1,r3
  3061e6:	37 35       	dmulu.l	r3,r7
  3061e8:	01 1a       	sts	macl,r1
  3061ea:	07 0a       	sts	mach,r7
  3061ec:	30 72       	cmp/hs	r7,r0
  3061ee:	8b 04       	bf	3061fa <___udivdi3+0x1da>
  3061f0:	48 9d       	shld	r9,r8
  3061f2:	38 12       	cmp/hs	r1,r8
  3061f4:	8d 0b       	bt.s	30620e <___udivdi3+0x1ee>
  3061f6:	30 70       	cmp/eq	r7,r0
  3061f8:	8b 09       	bf	30620e <___udivdi3+0x1ee>
  3061fa:	61 33       	mov	r3,r1
  3061fc:	71 ff       	add	#-1,r1
  3061fe:	af 51       	bra	3060a4 <___udivdi3+0x84>
  306200:	e8 00       	mov	#0,r8
  306202:	91 07       	mov.w	306214 <___udivdi3+0x1f4>,r1	! ff
  306204:	37 16       	cmp/hi	r1,r7
  306206:	01 29       	movt	r1
  306208:	41 08       	shll2	r1
  30620a:	af 20       	bra	30604e <___udivdi3+0x2e>
  30620c:	31 1c       	add	r1,r1
  30620e:	61 33       	mov	r3,r1
  306210:	af 48       	bra	3060a4 <___udivdi3+0x84>
  306212:	e8 00       	mov	#0,r8
  306214:	00 ff       	mac.l	@r15+,@r0+
  306216:	00 09       	nop	
  306218:	00 00       	.word 0x0000
  30621a:	ff ff       	.word 0xffff
  30621c:	00 ff       	mac.l	@r15+,@r0+
  30621e:	ff ff       	.word 0xffff
  306220:	00 30       	.word 0x0030
  306222:	78 14       	add	#20,r8
  306224:	00 30       	.word 0x0030
  306226:	64 e8       	swap.b	r14,r4
  306228:	00 30       	.word 0x0030
  30622a:	64 9a       	negc	r9,r4

0030622c <___umoddi3>:
  30622c:	2f 86       	mov.l	r8,@-r15
  30622e:	2f 96       	mov.l	r9,@-r15
  306230:	2f a6       	mov.l	r10,@-r15
  306232:	2f b6       	mov.l	r11,@-r15
  306234:	2f c6       	mov.l	r12,@-r15
  306236:	4f 22       	sts.l	pr,@-r15
  306238:	26 68       	tst	r6,r6
  30623a:	62 43       	mov	r4,r2
  30623c:	8f 2e       	bf.s	30629c <___umoddi3+0x70>
  30623e:	69 53       	mov	r5,r9
  306240:	37 46       	cmp/hi	r4,r7
  306242:	8f 5d       	bf.s	306300 <___umoddi3+0xd4>
  306244:	63 53       	mov	r5,r3
  306246:	d6 87       	mov.l	306464 <___umoddi3+0x238>,r6	! ffff
  306248:	37 66       	cmp/hi	r6,r7
  30624a:	8d 02       	bt.s	306252 <___umoddi3+0x26>
  30624c:	61 43       	mov	r4,r1
  30624e:	a0 b1       	bra	3063b4 <___umoddi3+0x188>
  306250:	00 09       	nop	
  306252:	d6 85       	mov.l	306468 <___umoddi3+0x23c>,r6	! ffffff
  306254:	37 66       	cmp/hi	r6,r7
  306256:	8f 01       	bf.s	30625c <___umoddi3+0x30>
  306258:	e6 10       	mov	#16,r6
  30625a:	e6 18       	mov	#24,r6
  30625c:	65 6b       	neg	r6,r5
  30625e:	60 73       	mov	r7,r0
  306260:	40 5d       	shld	r5,r0
  306262:	d5 82       	mov.l	30646c <___umoddi3+0x240>,r5	! 307814 <___clz_tab>
  306264:	00 5c       	mov.b	@(r0,r5),r0
  306266:	60 0c       	extu.b	r0,r0
  306268:	30 6c       	add	r6,r0
  30626a:	60 0b       	neg	r0,r0
  30626c:	68 03       	mov	r0,r8
  30626e:	88 e0       	cmp/eq	#-32,r0
  306270:	8d 07       	bt.s	306282 <___umoddi3+0x56>
  306272:	78 20       	add	#32,r8
  306274:	61 93       	mov	r9,r1
  306276:	42 8d       	shld	r8,r2
  306278:	41 0d       	shld	r0,r1
  30627a:	63 93       	mov	r9,r3
  30627c:	47 8d       	shld	r8,r7
  30627e:	43 8d       	shld	r8,r3
  306280:	21 2b       	or	r2,r1
  306282:	60 13       	mov	r1,r0
  306284:	d9 7a       	mov.l	306470 <___umoddi3+0x244>,r9	! 3064e8 <___udiv_qrnnd_16>
  306286:	65 73       	mov	r7,r5
  306288:	64 39       	swap.w	r3,r4
  30628a:	66 59       	swap.w	r5,r6
  30628c:	49 0b       	jsr	@r9
  30628e:	46 28       	shll16	r6
  306290:	64 49       	swap.w	r4,r4
  306292:	49 0b       	jsr	@r9
  306294:	69 19       	swap.w	r1,r9
  306296:	29 1b       	or	r1,r9
  306298:	a0 5c       	bra	306354 <___umoddi3+0x128>
  30629a:	61 03       	mov	r0,r1
  30629c:	36 46       	cmp/hi	r4,r6
  30629e:	8f 08       	bf.s	3062b2 <___umoddi3+0x86>
  3062a0:	60 43       	mov	r4,r0
  3062a2:	61 53       	mov	r5,r1
  3062a4:	4f 26       	lds.l	@r15+,pr
  3062a6:	6c f6       	mov.l	@r15+,r12
  3062a8:	6b f6       	mov.l	@r15+,r11
  3062aa:	6a f6       	mov.l	@r15+,r10
  3062ac:	69 f6       	mov.l	@r15+,r9
  3062ae:	00 0b       	rts	
  3062b0:	68 f6       	mov.l	@r15+,r8
  3062b2:	d1 6c       	mov.l	306464 <___umoddi3+0x238>,r1	! ffff
  3062b4:	36 16       	cmp/hi	r1,r6
  3062b6:	89 01       	bt	3062bc <___umoddi3+0x90>
  3062b8:	a0 82       	bra	3063c0 <___umoddi3+0x194>
  3062ba:	60 63       	mov	r6,r0
  3062bc:	d1 6a       	mov.l	306468 <___umoddi3+0x23c>,r1	! ffffff
  3062be:	36 16       	cmp/hi	r1,r6
  3062c0:	8f 01       	bf.s	3062c6 <___umoddi3+0x9a>
  3062c2:	e1 10       	mov	#16,r1
  3062c4:	e1 18       	mov	#24,r1
  3062c6:	63 1b       	neg	r1,r3
  3062c8:	60 63       	mov	r6,r0
  3062ca:	40 3d       	shld	r3,r0
  3062cc:	d3 67       	mov.l	30646c <___umoddi3+0x240>,r3	! 307814 <___clz_tab>
  3062ce:	03 3c       	mov.b	@(r0,r3),r3
  3062d0:	63 3c       	extu.b	r3,r3
  3062d2:	33 1c       	add	r1,r3
  3062d4:	60 3b       	neg	r3,r0
  3062d6:	68 03       	mov	r0,r8
  3062d8:	88 e0       	cmp/eq	#-32,r0
  3062da:	8d 02       	bt.s	3062e2 <___umoddi3+0xb6>
  3062dc:	78 20       	add	#32,r8
  3062de:	a0 82       	bra	3063e6 <___umoddi3+0x1ba>
  3062e0:	6a 73       	mov	r7,r10
  3062e2:	32 66       	cmp/hi	r6,r2
  3062e4:	89 01       	bt	3062ea <___umoddi3+0xbe>
  3062e6:	39 72       	cmp/hs	r7,r9
  3062e8:	8b 01       	bf	3062ee <___umoddi3+0xc2>
  3062ea:	a0 b2       	bra	306452 <___umoddi3+0x226>
  3062ec:	64 23       	mov	r2,r4
  3062ee:	60 43       	mov	r4,r0
  3062f0:	61 53       	mov	r5,r1
  3062f2:	4f 26       	lds.l	@r15+,pr
  3062f4:	6c f6       	mov.l	@r15+,r12
  3062f6:	6b f6       	mov.l	@r15+,r11
  3062f8:	6a f6       	mov.l	@r15+,r10
  3062fa:	69 f6       	mov.l	@r15+,r9
  3062fc:	00 0b       	rts	
  3062fe:	68 f6       	mov.l	@r15+,r8
  306300:	27 78       	tst	r7,r7
  306302:	8f 04       	bf.s	30630e <___umoddi3+0xe2>
  306304:	e4 01       	mov	#1,r4
  306306:	d7 5b       	mov.l	306474 <___umoddi3+0x248>,r7	! 30649a <___udivsi3>
  306308:	47 0b       	jsr	@r7
  30630a:	e5 00       	mov	#0,r5
  30630c:	67 03       	mov	r0,r7
  30630e:	d1 55       	mov.l	306464 <___umoddi3+0x238>,r1	! ffff
  306310:	37 16       	cmp/hi	r1,r7
  306312:	8f 29       	bf.s	306368 <___umoddi3+0x13c>
  306314:	60 73       	mov	r7,r0
  306316:	d1 54       	mov.l	306468 <___umoddi3+0x23c>,r1	! ffffff
  306318:	37 16       	cmp/hi	r1,r7
  30631a:	8f 01       	bf.s	306320 <___umoddi3+0xf4>
  30631c:	e1 10       	mov	#16,r1
  30631e:	e1 18       	mov	#24,r1
  306320:	66 1b       	neg	r1,r6
  306322:	60 73       	mov	r7,r0
  306324:	40 6d       	shld	r6,r0
  306326:	d6 51       	mov.l	30646c <___umoddi3+0x240>,r6	! 307814 <___clz_tab>
  306328:	00 6c       	mov.b	@(r0,r6),r0
  30632a:	60 0c       	extu.b	r0,r0
  30632c:	30 1c       	add	r1,r0
  30632e:	60 0b       	neg	r0,r0
  306330:	68 03       	mov	r0,r8
  306332:	88 e0       	cmp/eq	#-32,r0
  306334:	8f 28       	bf.s	306388 <___umoddi3+0x15c>
  306336:	78 20       	add	#32,r8
  306338:	d9 4d       	mov.l	306470 <___umoddi3+0x244>,r9	! 3064e8 <___udiv_qrnnd_16>
  30633a:	61 23       	mov	r2,r1
  30633c:	31 78       	sub	r7,r1
  30633e:	60 13       	mov	r1,r0
  306340:	65 73       	mov	r7,r5
  306342:	64 39       	swap.w	r3,r4
  306344:	66 59       	swap.w	r5,r6
  306346:	49 0b       	jsr	@r9
  306348:	46 28       	shll16	r6
  30634a:	64 49       	swap.w	r4,r4
  30634c:	49 0b       	jsr	@r9
  30634e:	63 19       	swap.w	r1,r3
  306350:	23 1b       	or	r1,r3
  306352:	61 03       	mov	r0,r1
  306354:	62 8b       	neg	r8,r2
  306356:	41 2d       	shld	r2,r1
  306358:	e0 00       	mov	#0,r0
  30635a:	4f 26       	lds.l	@r15+,pr
  30635c:	6c f6       	mov.l	@r15+,r12
  30635e:	6b f6       	mov.l	@r15+,r11
  306360:	6a f6       	mov.l	@r15+,r10
  306362:	69 f6       	mov.l	@r15+,r9
  306364:	00 0b       	rts	
  306366:	68 f6       	mov.l	@r15+,r8
  306368:	91 7a       	mov.w	306460 <___umoddi3+0x234>,r1	! ff
  30636a:	37 16       	cmp/hi	r1,r7
  30636c:	01 29       	movt	r1
  30636e:	41 08       	shll2	r1
  306370:	31 1c       	add	r1,r1
  306372:	66 1b       	neg	r1,r6
  306374:	40 6d       	shld	r6,r0
  306376:	d6 3d       	mov.l	30646c <___umoddi3+0x240>,r6	! 307814 <___clz_tab>
  306378:	00 6c       	mov.b	@(r0,r6),r0
  30637a:	60 0c       	extu.b	r0,r0
  30637c:	30 1c       	add	r1,r0
  30637e:	60 0b       	neg	r0,r0
  306380:	68 03       	mov	r0,r8
  306382:	88 e0       	cmp/eq	#-32,r0
  306384:	8d d8       	bt.s	306338 <___umoddi3+0x10c>
  306386:	78 20       	add	#32,r8
  306388:	61 23       	mov	r2,r1
  30638a:	6a 93       	mov	r9,r10
  30638c:	41 0d       	shld	r0,r1
  30638e:	42 8d       	shld	r8,r2
  306390:	4a 0d       	shld	r0,r10
  306392:	63 93       	mov	r9,r3
  306394:	60 13       	mov	r1,r0
  306396:	d9 36       	mov.l	306470 <___umoddi3+0x244>,r9	! 3064e8 <___udiv_qrnnd_16>
  306398:	47 8d       	shld	r8,r7
  30639a:	2a 2b       	or	r2,r10
  30639c:	43 8d       	shld	r8,r3
  30639e:	65 73       	mov	r7,r5
  3063a0:	64 a9       	swap.w	r10,r4
  3063a2:	66 59       	swap.w	r5,r6
  3063a4:	49 0b       	jsr	@r9
  3063a6:	46 28       	shll16	r6
  3063a8:	64 49       	swap.w	r4,r4
  3063aa:	49 0b       	jsr	@r9
  3063ac:	6a 19       	swap.w	r1,r10
  3063ae:	2a 1b       	or	r1,r10
  3063b0:	af c5       	bra	30633e <___umoddi3+0x112>
  3063b2:	61 03       	mov	r0,r1
  3063b4:	96 54       	mov.w	306460 <___umoddi3+0x234>,r6	! ff
  3063b6:	37 66       	cmp/hi	r6,r7
  3063b8:	06 29       	movt	r6
  3063ba:	46 08       	shll2	r6
  3063bc:	af 4e       	bra	30625c <___umoddi3+0x30>
  3063be:	36 6c       	add	r6,r6
  3063c0:	91 4e       	mov.w	306460 <___umoddi3+0x234>,r1	! ff
  3063c2:	36 16       	cmp/hi	r1,r6
  3063c4:	01 29       	movt	r1
  3063c6:	41 08       	shll2	r1
  3063c8:	31 1c       	add	r1,r1
  3063ca:	63 1b       	neg	r1,r3
  3063cc:	40 3d       	shld	r3,r0
  3063ce:	d3 27       	mov.l	30646c <___umoddi3+0x240>,r3	! 307814 <___clz_tab>
  3063d0:	03 3c       	mov.b	@(r0,r3),r3
  3063d2:	63 3c       	extu.b	r3,r3
  3063d4:	33 1c       	add	r1,r3
  3063d6:	60 3b       	neg	r3,r0
  3063d8:	68 03       	mov	r0,r8
  3063da:	88 e0       	cmp/eq	#-32,r0
  3063dc:	8f 02       	bf.s	3063e4 <___umoddi3+0x1b8>
  3063de:	78 20       	add	#32,r8
  3063e0:	af 80       	bra	3062e4 <___umoddi3+0xb8>
  3063e2:	32 66       	cmp/hi	r6,r2
  3063e4:	6a 73       	mov	r7,r10
  3063e6:	46 8d       	shld	r8,r6
  3063e8:	dc 21       	mov.l	306470 <___umoddi3+0x244>,r12	! 3064e8 <___udiv_qrnnd_16>
  3063ea:	4a 0d       	shld	r0,r10
  3063ec:	6b 93       	mov	r9,r11
  3063ee:	2a 6b       	or	r6,r10
  3063f0:	66 23       	mov	r2,r6
  3063f2:	46 0d       	shld	r0,r6
  3063f4:	42 8d       	shld	r8,r2
  3063f6:	4b 0d       	shld	r0,r11
  3063f8:	47 8d       	shld	r8,r7
  3063fa:	2b 2b       	or	r2,r11
  3063fc:	60 63       	mov	r6,r0
  3063fe:	65 a3       	mov	r10,r5
  306400:	64 b9       	swap.w	r11,r4
  306402:	66 59       	swap.w	r5,r6
  306404:	4c 0b       	jsr	@r12
  306406:	46 28       	shll16	r6
  306408:	64 49       	swap.w	r4,r4
  30640a:	4c 0b       	jsr	@r12
  30640c:	6b 19       	swap.w	r1,r11
  30640e:	2b 1b       	or	r1,r11
  306410:	37 b5       	dmulu.l	r11,r7
  306412:	02 1a       	sts	macl,r2
  306414:	01 0a       	sts	mach,r1
  306416:	30 12       	cmp/hs	r1,r0
  306418:	49 8d       	shld	r8,r9
  30641a:	66 13       	mov	r1,r6
  30641c:	8f 04       	bf.s	306428 <___umoddi3+0x1fc>
  30641e:	65 23       	mov	r2,r5
  306420:	30 10       	cmp/eq	r1,r0
  306422:	8f 06       	bf.s	306432 <___umoddi3+0x206>
  306424:	32 96       	cmp/hi	r9,r2
  306426:	8b 04       	bf	306432 <___umoddi3+0x206>
  306428:	00 08       	clrt	
  30642a:	32 7a       	subc	r7,r2
  30642c:	31 aa       	subc	r10,r1
  30642e:	66 13       	mov	r1,r6
  306430:	65 23       	mov	r2,r5
  306432:	00 08       	clrt	
  306434:	39 5a       	subc	r5,r9
  306436:	30 6a       	subc	r6,r0
  306438:	68 8b       	neg	r8,r8
  30643a:	61 03       	mov	r0,r1
  30643c:	41 3d       	shld	r3,r1
  30643e:	49 8d       	shld	r8,r9
  306440:	40 8d       	shld	r8,r0
  306442:	21 9b       	or	r9,r1
  306444:	4f 26       	lds.l	@r15+,pr
  306446:	6c f6       	mov.l	@r15+,r12
  306448:	6b f6       	mov.l	@r15+,r11
  30644a:	6a f6       	mov.l	@r15+,r10
  30644c:	69 f6       	mov.l	@r15+,r9
  30644e:	00 0b       	rts	
  306450:	68 f6       	mov.l	@r15+,r8
  306452:	65 93       	mov	r9,r5
  306454:	00 08       	clrt	
  306456:	35 7a       	subc	r7,r5
  306458:	34 6a       	subc	r6,r4
  30645a:	60 43       	mov	r4,r0
  30645c:	af 49       	bra	3062f2 <___umoddi3+0xc6>
  30645e:	61 53       	mov	r5,r1
  306460:	00 ff       	mac.l	@r15+,@r0+
  306462:	00 09       	nop	
  306464:	00 00       	.word 0x0000
  306466:	ff ff       	.word 0xffff
  306468:	00 ff       	mac.l	@r15+,@r0+
  30646a:	ff ff       	.word 0xffff
  30646c:	00 30       	.word 0x0030
  30646e:	78 14       	add	#20,r8
  306470:	00 30       	.word 0x0030
  306472:	64 e8       	swap.b	r14,r4
  306474:	00 30       	.word 0x0030
  306476:	64 9a       	negc	r9,r4
  306478:	34 54       	div1	r5,r4
  30647a:	34 54       	div1	r5,r4
  30647c:	34 54       	div1	r5,r4
  30647e:	34 54       	div1	r5,r4
  306480:	34 54       	div1	r5,r4
  306482:	34 54       	div1	r5,r4
  306484:	34 54       	div1	r5,r4
  306486:	00 0b       	rts	
  306488:	34 54       	div1	r5,r4
  30648a:	34 54       	div1	r5,r4
  30648c:	40 24       	rotcl	r0
  30648e:	34 54       	div1	r5,r4
  306490:	40 24       	rotcl	r0
  306492:	34 54       	div1	r5,r4
  306494:	40 24       	rotcl	r0
  306496:	00 0b       	rts	
  306498:	34 54       	div1	r5,r4

0030649a <___udivsi3>:
  30649a:	4f 22       	sts.l	pr,@-r15
  30649c:	60 5d       	extu.w	r5,r0
  30649e:	30 50       	cmp/eq	r5,r0
  3064a0:	8f 12       	bf.s	3064c8 <___udivsi3+0x2e>
  3064a2:	00 19       	div0u	
  3064a4:	60 49       	swap.w	r4,r0
  3064a6:	44 29       	shlr16	r4
  3064a8:	bf e6       	bsr	306478 <___umoddi3+0x24c>
  3064aa:	45 28       	shll16	r5
  3064ac:	bf e5       	bsr	30647a <___umoddi3+0x24e>
  3064ae:	34 54       	div1	r5,r4
  3064b0:	20 4d       	xtrct	r4,r0
  3064b2:	24 0d       	xtrct	r0,r4
  3064b4:	bf e0       	bsr	306478 <___umoddi3+0x24c>
  3064b6:	64 49       	swap.w	r4,r4
  3064b8:	bf df       	bsr	30647a <___umoddi3+0x24e>
  3064ba:	34 54       	div1	r5,r4
  3064bc:	4f 26       	lds.l	@r15+,pr
  3064be:	20 4d       	xtrct	r4,r0
  3064c0:	60 09       	swap.w	r0,r0
  3064c2:	40 24       	rotcl	r0
  3064c4:	00 0b       	rts	
  3064c6:	45 29       	shlr16	r5
  3064c8:	e0 00       	mov	#0,r0
  3064ca:	20 4d       	xtrct	r4,r0
  3064cc:	24 0d       	xtrct	r0,r4
  3064ce:	bf dc       	bsr	30648a <___umoddi3+0x25e>
  3064d0:	40 24       	rotcl	r0
  3064d2:	bf da       	bsr	30648a <___umoddi3+0x25e>
  3064d4:	40 24       	rotcl	r0
  3064d6:	bf d8       	bsr	30648a <___umoddi3+0x25e>
  3064d8:	40 24       	rotcl	r0
  3064da:	bf d6       	bsr	30648a <___umoddi3+0x25e>
  3064dc:	40 24       	rotcl	r0
  3064de:	4f 26       	lds.l	@r15+,pr
  3064e0:	00 0b       	rts	
  3064e2:	40 24       	rotcl	r0
  3064e4:	00 00       	.word 0x0000
	...

003064e8 <___udiv_qrnnd_16>:
  3064e8:	00 19       	div0u	
  3064ea:	30 66       	cmp/hi	r6,r0
  3064ec:	89 20       	bt	306530 <___udiv_qrnnd_16+0x48>
  3064ee:	30 64       	div1	r6,r0
  3064f0:	30 64       	div1	r6,r0
  3064f2:	30 64       	div1	r6,r0
  3064f4:	30 64       	div1	r6,r0
  3064f6:	30 64       	div1	r6,r0
  3064f8:	30 64       	div1	r6,r0
  3064fa:	30 64       	div1	r6,r0
  3064fc:	30 64       	div1	r6,r0
  3064fe:	30 64       	div1	r6,r0
  306500:	30 64       	div1	r6,r0
  306502:	30 64       	div1	r6,r0
  306504:	30 64       	div1	r6,r0
  306506:	30 64       	div1	r6,r0
  306508:	30 64       	div1	r6,r0
  30650a:	30 64       	div1	r6,r0
  30650c:	30 64       	div1	r6,r0
  30650e:	61 0d       	extu.w	r0,r1
  306510:	89 00       	bt	306514 <___udiv_qrnnd_16+0x2c>
  306512:	30 6c       	add	r6,r0
  306514:	41 24       	rotcl	r1
  306516:	25 1e       	mulu.w	r1,r5
  306518:	20 4d       	xtrct	r4,r0
  30651a:	60 09       	swap.w	r0,r0
  30651c:	02 1a       	sts	macl,r2
  30651e:	30 22       	cmp/hs	r2,r0
  306520:	30 28       	sub	r2,r0
  306522:	89 0e       	bt	306542 <___udiv_qrnnd_16+0x5a>
  306524:	30 5e       	addc	r5,r0
  306526:	71 ff       	add	#-1,r1
  306528:	89 0b       	bt	306542 <___udiv_qrnnd_16+0x5a>
  30652a:	71 ff       	add	#-1,r1
  30652c:	00 0b       	rts	
  30652e:	30 5c       	add	r5,r0
  306530:	30 58       	sub	r5,r0
  306532:	61 49       	swap.w	r4,r1
  306534:	21 0d       	xtrct	r0,r1
  306536:	00 08       	clrt	
  306538:	60 13       	mov	r1,r0
  30653a:	30 5e       	addc	r5,r0
  30653c:	e1 ff       	mov	#-1,r1
  30653e:	8f f4       	bf.s	30652a <___udiv_qrnnd_16+0x42>
  306540:	41 29       	shlr16	r1
  306542:	00 0b       	rts	
  306544:	00 09       	nop	
  306546:	00 09       	nop	

Disassembly of section .gint.blocks:

00306550 <_intc_generic_handler>:
  306550:	c7 01       	mova	306558 <_intc_generic_handler+0x8>,r0
  306552:	d1 06       	mov.l	30656c <_intc_generic_handler+0x1c>,r1	! 0 <_sxyram>
  306554:	41 2b       	jmp	@r1
  306556:	64 03       	mov	r0,r4
	...

00306570 <_gint_inth_7305>:
  306570:	4f 22       	sts.l	pr,@-r15
  306572:	4f 13       	stc.l	gbr,@-r15
  306574:	4f 02       	sts.l	mach,@-r15
  306576:	4f 12       	sts.l	macl,@-r15
  306578:	d0 0c       	mov.l	3065ac <.jump_over+0x24>,r0	! ff000028
  30657a:	60 02       	mov.l	@r0,r0
  30657c:	e1 04       	mov	#4,r1
  30657e:	41 18       	shll8	r1
  306580:	30 18       	sub	r1,r0
  306582:	70 28       	add	#40,r0
  306584:	00 03       	bsrf	r0
  306586:	00 09       	nop	

00306588 <.jump_over>:
  306588:	4f 16       	lds.l	@r15+,macl
  30658a:	4f 06       	lds.l	@r15+,mach
  30658c:	4f 17       	ldc.l	@r15+,gbr
  30658e:	4f 26       	lds.l	@r15+,pr
  306590:	00 2b       	rte	
  306592:	00 09       	nop	
	...
  3065ac:	ff 00       	.word 0xff00
  3065ae:	00 28       	clrmac	

003065b0 <_inth_etmu4>:
  3065b0:	c7 15       	mova	306608 <.storage_etmu4>,r0
  3065b2:	e2 07       	mov	#7,r2

003065b4 <.shared>:
  3065b4:	2f 86       	mov.l	r8,@-r15
  3065b6:	4f 22       	sts.l	pr,@-r15
  3065b8:	7f ec       	add	#-20,r15
  3065ba:	1f 21       	mov.l	r2,@(4,r15)
  3065bc:	61 03       	mov	r0,r1
  3065be:	53 11       	mov.l	@(4,r1),r3
  3065c0:	60 30       	mov.b	@r3,r0
  3065c2:	c8 02       	tst	#2,r0
  3065c4:	c9 fd       	and	#253,r0
  3065c6:	8f fb       	bf.s	3065c0 <.shared+0xc>
  3065c8:	23 00       	mov.b	r0,@r3
  3065ca:	d8 0e       	mov.l	306604 <.gint_inth_callback>,r8	! 8101b84 <_gint_inth_callback>
  3065cc:	68 82       	mov.l	@r8,r8
  3065ce:	48 0b       	jsr	@r8
  3065d0:	64 12       	mov.l	@r1,r4
  3065d2:	20 08       	tst	r0,r0
  3065d4:	89 03       	bt	3065de <.shared+0x2a>
  3065d6:	d0 0a       	mov.l	306600 <.timer_stop>,r0	! 301310 <_timer_stop>
  3065d8:	2f 02       	mov.l	r0,@r15
  3065da:	48 0b       	jsr	@r8
  3065dc:	64 f3       	mov	r15,r4
  3065de:	7f 14       	add	#20,r15
  3065e0:	4f 26       	lds.l	@r15+,pr
  3065e2:	00 0b       	rts	
  3065e4:	68 f6       	mov.l	@r15+,r8
	...

00306600 <.timer_stop>:
  306600:	00 30       	.word 0x0030
  306602:	13 10       	mov.l	r1,@(0,r3)

00306604 <.gint_inth_callback>:
  306604:	08 10       	.word 0x0810
  306606:	1b 84       	mov.l	r8,@(16,r11)

00306608 <.storage_etmu4>:
  306608:	08 10       	.word 0x0810
  30660a:	15 98       	mov.l	r9,@(32,r5)
  30660c:	a4 4d       	bra	306eaa <_info+0x26e>
  30660e:	00 bc       	mov.b	@(r0,r11),r0

00306610 <_inth_etmux>:
  306610:	03 22       	stc	vbr,r3
  306612:	d2 04       	mov.l	306624 <.id_etmux+0x2>,r2	! 4
  306614:	33 2c       	add	r2,r3
  306616:	c7 04       	mova	306628 <.storage_etmux>,r0
  306618:	92 03       	mov.w	306622 <.id_etmux>,r2	! 0 <_sxyram>
  30661a:	43 2b       	jmp	@r3
  30661c:	00 09       	nop	
  30661e:	00 09       	nop	
  306620:	00 09       	nop	

00306622 <.id_etmux>:
  306622:	00 00       	.word 0x0000
  306624:	00 00       	.word 0x0000
  306626:	00 04       	mov.b	r0,@(r0,r0)

00306628 <.storage_etmux>:
  306628:	08 10       	.word 0x0810
  30662a:	15 0c       	mov.l	r0,@(48,r5)
  30662c:	00 00       	.word 0x0000
	...

00306630 <_inth_tmu>:
  306630:	e5 00       	mov	#0,r5
  306632:	e6 00       	mov	#0,r6
  306634:	e7 00       	mov	#0,r7

00306636 <.shared1>:
  306636:	d1 14       	mov.l	306688 <.TCR0>,r1	! a4490010
  306638:	31 6c       	add	r6,r1
  30663a:	2f 86       	mov.l	r8,@-r15
  30663c:	4f 22       	sts.l	pr,@-r15
  30663e:	2f 56       	mov.l	r5,@-r15
  306640:	65 11       	mov.w	@r1,r5
  306642:	63 5c       	extu.b	r5,r3
  306644:	33 50       	cmp/eq	r5,r3
  306646:	8f fb       	bf.s	306640 <.shared1+0xa>
  306648:	21 31       	mov.w	r3,@r1
  30664a:	d8 0e       	mov.l	306684 <.callback>,r8	! 8101b84 <_gint_inth_callback>
  30664c:	a0 04       	bra	306658 <.shared2>
  30664e:	68 82       	mov.l	@r8,r8

00306650 <_inth_tmu_1>:
  306650:	e5 01       	mov	#1,r5
  306652:	e6 0c       	mov	#12,r6
  306654:	af ef       	bra	306636 <.shared1>
  306656:	e7 14       	mov	#20,r7

00306658 <.shared2>:
  306658:	d4 0c       	mov.l	30668c <.tmu_callbacks>,r4	! 810150c <_tmu_callbacks>
  30665a:	48 0b       	jsr	@r8
  30665c:	34 7c       	add	r7,r4
  30665e:	20 08       	tst	r0,r0
  306660:	d2 07       	mov.l	306680 <.timer_stop>,r2	! 301310 <_timer_stop>
  306662:	8d 09       	bt.s	306678 <.shared3>
  306664:	2f 26       	mov.l	r2,@-r15
  306666:	48 0b       	jsr	@r8
  306668:	64 f3       	mov	r15,r4
  30666a:	a0 05       	bra	306678 <.shared3>
  30666c:	00 09       	nop	
  30666e:	00 09       	nop	

00306670 <_inth_tmu_2>:
  306670:	e5 02       	mov	#2,r5
  306672:	e6 18       	mov	#24,r6
  306674:	af df       	bra	306636 <.shared1>
  306676:	e7 28       	mov	#40,r7

00306678 <.shared3>:
  306678:	7f 08       	add	#8,r15
  30667a:	4f 26       	lds.l	@r15+,pr
  30667c:	00 0b       	rts	
  30667e:	68 f6       	mov.l	@r15+,r8

00306680 <.timer_stop>:
  306680:	00 30       	.word 0x0030
  306682:	13 10       	mov.l	r1,@(0,r3)

00306684 <.callback>:
  306684:	08 10       	.word 0x0810
  306686:	1b 84       	mov.l	r8,@(16,r11)

00306688 <.TCR0>:
  306688:	a4 49       	bra	306f1e <_info+0x2e2>
  30668a:	00 10       	.word 0x0010

0030668c <.tmu_callbacks>:
  30668c:	08 10       	.word 0x0810
  30668e:	15 0c       	mov.l	r0,@(48,r5)

00306690 <_inth_dma_ae>:
  306690:	d4 06       	mov.l	3066ac <_inth_dma_ae+0x1c>,r4	! 1020
  306692:	44 ce       	ldc	r4,r4_bank
  306694:	01 32       	stc	ssr,r1
  306696:	41 0e       	ldc	r1,sr
  306698:	d0 03       	mov.l	3066a8 <_inth_dma_ae+0x18>,r0	! 303368 <_gint_panic>
  30669a:	40 2b       	jmp	@r0
  30669c:	00 09       	nop	
	...
  3066a6:	00 00       	.word 0x0000
  3066a8:	00 30       	.word 0x0030
  3066aa:	33 68       	sub	r6,r3
  3066ac:	00 00       	.word 0x0000
  3066ae:	10 20       	mov.l	r2,@(0,r0)

Disassembly of section .ilram:

e5200000 <_ILbuf>:
	...

e5200020 <_gint_inth_callback_reloc>:
e5200020:	4f 83       	stc.l	r0_bank,@-r15
e5200022:	4f 93       	stc.l	r1_bank,@-r15
e5200024:	4f a3       	stc.l	r2_bank,@-r15
e5200026:	4f b3       	stc.l	r3_bank,@-r15
e5200028:	4f c3       	stc.l	r4_bank,@-r15
e520002a:	4f d3       	stc.l	r5_bank,@-r15
e520002c:	4f e3       	stc.l	r6_bank,@-r15
e520002e:	4f f3       	stc.l	r7_bank,@-r15
e5200030:	4f 43       	stc.l	spc,@-r15
e5200032:	4f 33       	stc.l	ssr,@-r15
e5200034:	4f 03       	stc.l	sr,@-r15
e5200036:	44 8e       	ldc	r4,r0_bank
e5200038:	01 02       	stc	sr,r1
e520003a:	d0 15       	mov.l	e5200090 <.SR_clear_RB_BL>,r0	! cfffffff
e520003c:	21 09       	and	r0,r1
e520003e:	d2 16       	mov.l	e5200098 <.gint>,r2	! 8101bb4 <_gint>
e5200040:	60 22       	mov.l	@r2,r0
e5200042:	c8 01       	tst	#1,r0
e5200044:	8b 04       	bf	e5200050 <.set_imask>
e5200046:	50 23       	mov.l	@(12,r2),r0
e5200048:	88 06       	cmp/eq	#6,r0
e520004a:	89 01       	bt	e5200050 <.set_imask>
e520004c:	a0 02       	bra	e5200054 <.load_sr>
e520004e:	00 09       	nop	

e5200050 <.set_imask>:
e5200050:	d0 10       	mov.l	e5200094 <.SR_set_IMASK>,r0	! f0
e5200052:	21 0b       	or	r0,r1

e5200054 <.load_sr>:
e5200054:	41 0e       	ldc	r1,sr
e5200056:	4f 22       	sts.l	pr,@-r15
e5200058:	54 01       	mov.l	@(4,r0),r4
e520005a:	55 02       	mov.l	@(8,r0),r5
e520005c:	56 03       	mov.l	@(12,r0),r6
e520005e:	57 04       	mov.l	@(16,r0),r7
e5200060:	60 02       	mov.l	@r0,r0
e5200062:	40 0b       	jsr	@r0
e5200064:	00 09       	nop	
e5200066:	4f 26       	lds.l	@r15+,pr
e5200068:	4f 07       	ldc.l	@r15+,sr
e520006a:	00 82       	stc	r0_bank,r0
e520006c:	4f 37       	ldc.l	@r15+,ssr
e520006e:	4f 47       	ldc.l	@r15+,spc
e5200070:	4f f7       	ldc.l	@r15+,r7_bank
e5200072:	4f e7       	ldc.l	@r15+,r6_bank
e5200074:	4f d7       	ldc.l	@r15+,r5_bank
e5200076:	4f c7       	ldc.l	@r15+,r4_bank
e5200078:	4f b7       	ldc.l	@r15+,r3_bank
e520007a:	4f a7       	ldc.l	@r15+,r2_bank
e520007c:	4f 97       	ldc.l	@r15+,r1_bank
e520007e:	00 0b       	rts	
e5200080:	4f 87       	ldc.l	@r15+,r0_bank
e5200082:	00 09       	nop	
e5200084:	00 09       	nop	
e5200086:	00 09       	nop	
e5200088:	00 09       	nop	
e520008a:	00 09       	nop	
e520008c:	00 09       	nop	
e520008e:	00 09       	nop	

e5200090 <.SR_clear_RB_BL>:
e5200090:	cf ff       	or.b	#255,@(r0,gbr)
e5200092:	ff ff       	.word 0xffff

e5200094 <.SR_set_IMASK>:
e5200094:	00 00       	.word 0x0000
e5200096:	00 f0       	.word 0x00f0

e5200098 <.gint>:
e5200098:	08 10       	.word 0x0810
e520009a:	1b b4       	mov.l	r11,@(16,r11)
e520009c:	00 09       	nop	
e520009e:	00 09       	nop	
