
build-cg/src/simplexsolver:     file format elf32-sh


Disassembly of section .text:

00300000 <_start>:
  300000:	2f 86       	mov.l	r8,@-r15
  300002:	2f 96       	mov.l	r9,@-r15
  300004:	4f 22       	sts.l	pr,@-r15
  300006:	d1 31       	mov.l	3000cc <_start+0xcc>,r1	! 30524c <_hw_detect>
  300008:	7f f8       	add	#-8,r15
  30000a:	2f 42       	mov.l	r4,@r15
  30000c:	41 0b       	jsr	@r1
  30000e:	1f 51       	mov.l	r5,@(4,r15)
  300010:	d1 2f       	mov.l	3000d0 <_start+0xd0>,r1	! 30324c <_regcpy>
  300012:	d6 30       	mov.l	3000d4 <_start+0xd4>,r6	! 81018d0 <_keysc_tid>
  300014:	d5 30       	mov.l	3000d8 <_start+0xd8>,r5	! 2d0 <_sdata>
  300016:	d4 31       	mov.l	3000dc <_start+0xdc>,r4	! 30c3e8 <_ldata>
  300018:	41 0b       	jsr	@r1
  30001a:	00 09       	nop	
  30001c:	d7 30       	mov.l	3000e0 <_start+0xe0>,r7	! 4d0 <_sbss>
  30001e:	e6 f1       	mov	#-15,r6
  300020:	d2 30       	mov.l	3000e4 <_start+0xe4>,r2	! 8101400 <_gint_exitbuf>
  300022:	e3 00       	mov	#0,r3
  300024:	61 73       	mov	r7,r1
  300026:	71 0f       	add	#15,r1
  300028:	41 09       	shlr2	r1
  30002a:	37 63       	cmp/ge	r6,r7
  30002c:	41 09       	shlr2	r1
  30002e:	71 01       	add	#1,r1
  300030:	89 00       	bt	300034 <_start+0x34>
  300032:	e1 01       	mov	#1,r1
  300034:	41 10       	dt	r1
  300036:	8b 1e       	bf	300076 <_start+0x76>
  300038:	d8 25       	mov.l	3000d0 <_start+0xd0>,r8	! 30324c <_regcpy>
  30003a:	d6 2b       	mov.l	3000e8 <_start+0xe8>,r6	! e5200000 <_ILbuf>
  30003c:	d5 2b       	mov.l	3000ec <_start+0xec>,r5	! a0 <_silram>
  30003e:	d4 2c       	mov.l	3000f0 <_start+0xf0>,r4	! 30c6b8 <_lilram>
  300040:	48 0b       	jsr	@r8
  300042:	00 09       	nop	
  300044:	d6 2b       	mov.l	3000f4 <_start+0xf4>,r6	! e500e000 <_rxyram>
  300046:	d5 2c       	mov.l	3000f8 <_start+0xf8>,r5	! 0 <_sxyram>
  300048:	d4 2c       	mov.l	3000fc <_start+0xfc>,r4	! 30c758 <_lxyram>
  30004a:	48 0b       	jsr	@r8
  30004c:	00 09       	nop	
  30004e:	d1 2c       	mov.l	300100 <_start+0x100>,r1	! 3052d0 <_kinit>
  300050:	41 0b       	jsr	@r1
  300052:	00 09       	nop	
  300054:	d1 2b       	mov.l	300104 <_start+0x104>,r1	! 30900c <_setjmp>
  300056:	d4 2c       	mov.l	300108 <_start+0x108>,r4	! 8101400 <_gint_exitbuf>
  300058:	41 0b       	jsr	@r1
  30005a:	00 09       	nop	
  30005c:	20 08       	tst	r0,r0
  30005e:	89 1f       	bt	3000a0 <_start+0xa0>
  300060:	d8 2a       	mov.l	30010c <_start+0x10c>,r8	! 30013c <_bdtors>
  300062:	d9 2b       	mov.l	300110 <_start+0x110>,r9	! 30013c <_bdtors>
  300064:	38 92       	cmp/hs	r9,r8
  300066:	8b 1f       	bf	3000a8 <_start+0xa8>
  300068:	d1 2a       	mov.l	300114 <_start+0x114>,r1	! 8101434 <_gint_restart>
  30006a:	61 12       	mov.l	@r1,r1
  30006c:	21 18       	tst	r1,r1
  30006e:	89 23       	bt	3000b8 <_start+0xb8>
  300070:	d1 29       	mov.l	300118 <_start+0x118>,r1	! 3055d0 <_gint_osmenu>
  300072:	af ed       	bra	300050 <_start+0x50>
  300074:	00 09       	nop	
  300076:	22 32       	mov.l	r3,@r2
  300078:	12 31       	mov.l	r3,@(4,r2)
  30007a:	12 32       	mov.l	r3,@(8,r2)
  30007c:	12 33       	mov.l	r3,@(12,r2)
  30007e:	af d9       	bra	300034 <_start+0x34>
  300080:	72 10       	add	#16,r2
  300082:	78 04       	add	#4,r8
  300084:	61 83       	mov	r8,r1
  300086:	71 c0       	add	#-64,r1
  300088:	51 1f       	mov.l	@(60,r1),r1
  30008a:	41 0b       	jsr	@r1
  30008c:	00 09       	nop	
  30008e:	38 92       	cmp/hs	r9,r8
  300090:	8f f7       	bf.s	300082 <_start+0x82>
  300092:	64 f2       	mov.l	@r15,r4
  300094:	d0 21       	mov.l	30011c <_start+0x11c>,r0	! 300458 <_main>
  300096:	40 0b       	jsr	@r0
  300098:	55 f1       	mov.l	@(4,r15),r5
  30009a:	d1 21       	mov.l	300120 <_start+0x120>,r1	! 308f20 <_exit>
  30009c:	41 0b       	jsr	@r1
  30009e:	64 03       	mov	r0,r4
  3000a0:	d8 20       	mov.l	300124 <_start+0x124>,r8	! 300134 <_bctors>
  3000a2:	d9 21       	mov.l	300128 <_start+0x128>,r9	! 30013c <_bdtors>
  3000a4:	af f4       	bra	300090 <_start+0x90>
  3000a6:	38 92       	cmp/hs	r9,r8
  3000a8:	78 04       	add	#4,r8
  3000aa:	61 83       	mov	r8,r1
  3000ac:	71 c0       	add	#-64,r1
  3000ae:	51 1f       	mov.l	@(60,r1),r1
  3000b0:	41 0b       	jsr	@r1
  3000b2:	00 09       	nop	
  3000b4:	af d7       	bra	300066 <_start+0x66>
  3000b6:	38 92       	cmp/hs	r9,r8
  3000b8:	d1 1c       	mov.l	30012c <_start+0x12c>,r1	! 3054a0 <_kquit>
  3000ba:	41 0b       	jsr	@r1
  3000bc:	00 09       	nop	
  3000be:	d1 1c       	mov.l	300130 <_start+0x130>,r1	! 8101438 <_gint_exitcode>
  3000c0:	60 12       	mov.l	@r1,r0
  3000c2:	7f 08       	add	#8,r15
  3000c4:	4f 26       	lds.l	@r15+,pr
  3000c6:	69 f6       	mov.l	@r15+,r9
  3000c8:	00 0b       	rts	
  3000ca:	68 f6       	mov.l	@r15+,r8
  3000cc:	00 30       	.word 0x0030
  3000ce:	52 4c       	mov.l	@(48,r4),r2
  3000d0:	00 30       	.word 0x0030
  3000d2:	32 4c       	add	r4,r2
  3000d4:	08 10       	.word 0x0810
  3000d6:	18 d0       	mov.l	r13,@(0,r8)
  3000d8:	00 00       	.word 0x0000
  3000da:	02 d0       	.word 0x02d0
  3000dc:	00 30       	.word 0x0030
  3000de:	c3 e8       	trapa	#232
  3000e0:	00 00       	.word 0x0000
  3000e2:	04 d0       	.word 0x04d0
  3000e4:	08 10       	.word 0x0810
  3000e6:	14 00       	mov.l	r0,@(0,r4)
  3000e8:	e5 20       	mov	#32,r5
  3000ea:	00 00       	.word 0x0000
  3000ec:	00 00       	.word 0x0000
  3000ee:	00 a0       	.word 0x00a0
  3000f0:	00 30       	.word 0x0030
  3000f2:	c6 b8       	mov.l	@(736,gbr),r0
  3000f4:	e5 00       	mov	#0,r5
  3000f6:	e0 00       	mov	#0,r0
  3000f8:	00 00       	.word 0x0000
  3000fa:	00 00       	.word 0x0000
  3000fc:	00 30       	.word 0x0030
  3000fe:	c7 58       	mova	300260 <_tableux_construction_stage+0x20>,r0
  300100:	00 30       	.word 0x0030
  300102:	52 d0       	mov.l	@(0,r13),r2
  300104:	00 30       	.word 0x0030
  300106:	90 0c       	mov.w	300122 <_start+0x122>,r0	! 8f20
  300108:	08 10       	.word 0x0810
  30010a:	14 00       	mov.l	r0,@(0,r4)
  30010c:	00 30       	.word 0x0030
  30010e:	01 3c       	mov.b	@(r0,r3),r1
  300110:	00 30       	.word 0x0030
  300112:	01 3c       	mov.b	@(r0,r3),r1
  300114:	08 10       	.word 0x0810
  300116:	14 34       	mov.l	r3,@(16,r4)
  300118:	00 30       	.word 0x0030
  30011a:	55 d0       	mov.l	@(0,r13),r5
  30011c:	00 30       	.word 0x0030
  30011e:	04 58       	.word 0x0458
  300120:	00 30       	.word 0x0030
  300122:	8f 20       	bf.s	300166 <catch+0xe>
  300124:	00 30       	.word 0x0030
  300126:	01 34       	mov.b	r3,@(r0,r1)
  300128:	00 30       	.word 0x0030
  30012a:	01 3c       	mov.b	@(r0,r3),r1
  30012c:	00 30       	.word 0x0030
  30012e:	54 a0       	mov.l	@(0,r10),r4
  300130:	08 10       	.word 0x0810
  300132:	14 38       	mov.l	r3,@(32,r4)

00300134 <_bctors>:
  300134:	00 30       	.word 0x0030
  300136:	8e 10       	ldre	30015a <catch+0x2>	! 6002
  300138:	00 30       	.word 0x0030
  30013a:	a6 40       	bra	300dbe <_pivot_row+0x1a2>

0030013c <_bdtors>:
  30013c:	00 00       	.word 0x0000
	...

00300140 <_gint_exch>:
  300140:	4f 22       	sts.l	pr,@-r15
  300142:	4f 13       	stc.l	gbr,@-r15
  300144:	4f 02       	sts.l	mach,@-r15
  300146:	4f 12       	sts.l	macl,@-r15
  300148:	2f 86       	mov.l	r8,@-r15
  30014a:	2f 96       	mov.l	r9,@-r15
  30014c:	d0 18       	mov.l	3001b0 <.gint>,r0	! 8101bc4 <_gint>
  30014e:	60 02       	mov.l	@r0,r0
  300150:	c8 01       	tst	#1,r0
  300152:	d8 18       	mov.l	3001b4 <.expevt_sh4>,r8	! ff000024
  300154:	89 00       	bt	300158 <catch>
  300156:	d8 18       	mov.l	3001b8 <.expevt_sh3>,r8	! ffffffd4

00300158 <catch>:
  300158:	d0 18       	mov.l	3001bc <.catcher>,r0	! 8101724 <_gint_exc_catcher>
  30015a:	60 02       	mov.l	@r0,r0
  30015c:	20 08       	tst	r0,r0
  30015e:	89 0a       	bt	300176 <panic>
  300160:	09 02       	stc	sr,r9
  300162:	d1 18       	mov.l	3001c4 <.SR_set_IMASK>,r1	! f0
  300164:	21 9b       	or	r9,r1
  300166:	d2 18       	mov.l	3001c8 <.SR_clear_BL>,r2	! efffffff
  300168:	21 29       	and	r2,r1
  30016a:	41 0e       	ldc	r1,sr
  30016c:	40 0b       	jsr	@r0
  30016e:	64 82       	mov.l	@r8,r4
  300170:	49 0e       	ldc	r9,sr
  300172:	20 08       	tst	r0,r0
  300174:	89 0d       	bt	300192 <end>

00300176 <panic>:
  300176:	64 82       	mov.l	@r8,r4
  300178:	44 ce       	ldc	r4,r4_bank
  30017a:	69 f6       	mov.l	@r15+,r9
  30017c:	68 f6       	mov.l	@r15+,r8
  30017e:	4f 16       	lds.l	@r15+,macl
  300180:	4f 06       	lds.l	@r15+,mach
  300182:	4f 17       	ldc.l	@r15+,gbr
  300184:	4f 26       	lds.l	@r15+,pr
  300186:	00 32       	stc	ssr,r0
  300188:	40 0e       	ldc	r0,sr
  30018a:	d0 0d       	mov.l	3001c0 <.panic>,r0	! 8101a8c <_gint_exc_panic>
  30018c:	60 02       	mov.l	@r0,r0
  30018e:	40 2b       	jmp	@r0
  300190:	00 09       	nop	

00300192 <end>:
  300192:	69 f6       	mov.l	@r15+,r9
  300194:	68 f6       	mov.l	@r15+,r8
  300196:	4f 16       	lds.l	@r15+,macl
  300198:	4f 06       	lds.l	@r15+,mach
  30019a:	4f 17       	ldc.l	@r15+,gbr
  30019c:	4f 26       	lds.l	@r15+,pr
  30019e:	00 2b       	rte	
  3001a0:	00 09       	nop	
  3001a2:	00 09       	nop	
  3001a4:	00 09       	nop	
  3001a6:	00 09       	nop	
  3001a8:	00 09       	nop	
  3001aa:	00 09       	nop	
  3001ac:	00 09       	nop	
  3001ae:	00 09       	nop	

003001b0 <.gint>:
  3001b0:	08 10       	.word 0x0810
  3001b2:	1b c4       	mov.l	r12,@(16,r11)

003001b4 <.expevt_sh4>:
  3001b4:	ff 00       	.word 0xff00
  3001b6:	00 24       	mov.b	r2,@(r0,r0)

003001b8 <.expevt_sh3>:
  3001b8:	ff ff       	.word 0xffff
  3001ba:	ff d4       	.word 0xffd4

003001bc <.catcher>:
  3001bc:	08 10       	.word 0x0810
  3001be:	17 24       	mov.l	r2,@(16,r7)

003001c0 <.panic>:
  3001c0:	08 10       	.word 0x0810
  3001c2:	1a 8c       	mov.l	r8,@(48,r10)

003001c4 <.SR_set_IMASK>:
  3001c4:	00 00       	.word 0x0000
  3001c6:	00 f0       	.word 0x00f0

003001c8 <.SR_clear_BL>:
  3001c8:	ef ff       	mov	#-1,r15
  3001ca:	ff ff       	.word 0xffff
  3001cc:	00 09       	nop	
  3001ce:	00 09       	nop	

003001d0 <_gint_tlbh>:
  3001d0:	4f 22       	sts.l	pr,@-r15
  3001d2:	4f 13       	stc.l	gbr,@-r15
  3001d4:	4f 02       	sts.l	mach,@-r15
  3001d6:	4f 12       	sts.l	macl,@-r15
  3001d8:	d0 11       	mov.l	300220 <.gint>,r0	! 8101bc4 <_gint>
  3001da:	60 02       	mov.l	@r0,r0
  3001dc:	c8 01       	tst	#1,r0
  3001de:	d0 11       	mov.l	300224 <.tea_sh4>,r0	! ff00000c
  3001e0:	89 00       	bt	3001e4 <test_tea>
  3001e2:	d0 11       	mov.l	300228 <.tea_sh3>,r0	! fffffffc

003001e4 <test_tea>:
  3001e4:	60 02       	mov.l	@r0,r0
  3001e6:	d1 12       	mov.l	300230 <.max_mapped_rom>,r1	! 30c3e8 <_ldata>
  3001e8:	30 13       	cmp/ge	r1,r0
  3001ea:	89 0c       	bt	300206 <panic>
  3001ec:	d1 0f       	mov.l	30022c <.min_mapped_rom>,r1	! 300000 <_start>
  3001ee:	30 13       	cmp/ge	r1,r0
  3001f0:	8b 09       	bf	300206 <panic>

003001f2 <map>:
  3001f2:	e0 0c       	mov	#12,r0
  3001f4:	d2 0f       	mov.l	300234 <.syscall>,r2	! 80020070
  3001f6:	42 0b       	jsr	@r2
  3001f8:	00 09       	nop	
  3001fa:	4f 16       	lds.l	@r15+,macl
  3001fc:	4f 06       	lds.l	@r15+,mach
  3001fe:	4f 17       	ldc.l	@r15+,gbr
  300200:	4f 26       	lds.l	@r15+,pr
  300202:	00 2b       	rte	
  300204:	00 09       	nop	

00300206 <panic>:
  300206:	4f 16       	lds.l	@r15+,macl
  300208:	4f 06       	lds.l	@r15+,mach
  30020a:	4f 17       	ldc.l	@r15+,gbr
  30020c:	4f 26       	lds.l	@r15+,pr
  30020e:	00 22       	stc	vbr,r0
  300210:	e1 01       	mov	#1,r1
  300212:	41 18       	shll8	r1
  300214:	30 1c       	add	r1,r0
  300216:	40 2b       	jmp	@r0
  300218:	00 09       	nop	
  30021a:	00 09       	nop	
  30021c:	00 09       	nop	
  30021e:	00 09       	nop	

00300220 <.gint>:
  300220:	08 10       	.word 0x0810
  300222:	1b c4       	mov.l	r12,@(16,r11)

00300224 <.tea_sh4>:
  300224:	ff 00       	.word 0xff00
  300226:	00 0c       	mov.b	@(r0,r0),r0

00300228 <.tea_sh3>:
  300228:	ff ff       	.word 0xffff
  30022a:	ff fc       	.word 0xfffc

0030022c <.min_mapped_rom>:
  30022c:	00 30       	.word 0x0030
	...

00300230 <.max_mapped_rom>:
  300230:	00 30       	.word 0x0030
  300232:	c3 e8       	trapa	#232

00300234 <.syscall>:
  300234:	80 02       	mov.b	r0,@(2,r0)
  300236:	00 70       	.word 0x0070
  300238:	00 09       	nop	
  30023a:	00 09       	nop	
  30023c:	00 09       	nop	
  30023e:	00 09       	nop	

00300240 <_tableux_construction_stage>:
  300240:	2f 86       	mov.l	r8,@-r15
  300242:	e7 1e       	mov	#30,r7
  300244:	2f 96       	mov.l	r9,@-r15
  300246:	e6 50       	mov	#80,r6
  300248:	2f a6       	mov.l	r10,@-r15
  30024a:	e5 46       	mov	#70,r5
  30024c:	2f b6       	mov.l	r11,@-r15
  30024e:	e4 50       	mov	#80,r4
  300250:	2f c6       	mov.l	r12,@-r15
  300252:	4f 22       	sts.l	pr,@-r15
  300254:	d8 23       	mov.l	3002e4 <_tableux_construction_stage+0xa4>,r8	! 301398 <_new_viscell>
  300256:	7f f8       	add	#-8,r15
  300258:	d1 23       	mov.l	3002e8 <_tableux_construction_stage+0xa8>,r1	! 30b3e0 <_gint_drivers_end>
  30025a:	db 24       	mov.l	3002ec <_tableux_construction_stage+0xac>,r11	! 303cc0 <_dtext>
  30025c:	1f 11       	mov.l	r1,@(4,r15)
  30025e:	e1 01       	mov	#1,r1
  300260:	48 0b       	jsr	@r8
  300262:	2f 12       	mov.l	r1,@r15
  300264:	d1 22       	mov.l	3002f0 <_tableux_construction_stage+0xb0>,r1	! 30b3e4
  300266:	e7 1e       	mov	#30,r7
  300268:	94 3a       	mov.w	3002e0 <_tableux_construction_stage+0xa0>,r4	! 104
  30026a:	e6 50       	mov	#80,r6
  30026c:	1f 11       	mov.l	r1,@(4,r15)
  30026e:	e1 00       	mov	#0,r1
  300270:	2f 12       	mov.l	r1,@r15
  300272:	e5 46       	mov	#70,r5
  300274:	da 1f       	mov.l	3002f4 <_tableux_construction_stage+0xb4>,r10	! 30154c <_draw_cell>
  300276:	48 0b       	jsr	@r8
  300278:	69 03       	mov	r0,r9
  30027a:	68 03       	mov	r0,r8
  30027c:	d7 1e       	mov.l	3002f8 <_tableux_construction_stage+0xb8>,r7	! 30b3e8
  30027e:	e6 00       	mov	#0,r6
  300280:	e5 55       	mov	#85,r5
  300282:	4b 0b       	jsr	@r11
  300284:	e4 0a       	mov	#10,r4
  300286:	d7 1d       	mov.l	3002fc <_tableux_construction_stage+0xbc>,r7	! 30b3f0
  300288:	e6 00       	mov	#0,r6
  30028a:	94 2a       	mov.w	3002e2 <_tableux_construction_stage+0xa2>,r4	! c8
  30028c:	4b 0b       	jsr	@r11
  30028e:	e5 55       	mov	#85,r5
  300290:	4a 0b       	jsr	@r10
  300292:	64 93       	mov	r9,r4
  300294:	4a 0b       	jsr	@r10
  300296:	64 83       	mov	r8,r4
  300298:	d1 19       	mov.l	300300 <_tableux_construction_stage+0xc0>,r1	! 3048b4 <_dupdate>
  30029a:	41 0b       	jsr	@r1
  30029c:	00 09       	nop	
  30029e:	d0 19       	mov.l	300304 <_tableux_construction_stage+0xc4>,r0	! 303390 <_getkey>
  3002a0:	40 0b       	jsr	@r0
  3002a2:	00 09       	nop	
  3002a4:	64 03       	mov	r0,r4
  3002a6:	d0 18       	mov.l	300308 <_tableux_construction_stage+0xc8>,r0	! 302590 <_process_key_construction_stage>
  3002a8:	66 83       	mov	r8,r6
  3002aa:	40 0b       	jsr	@r0
  3002ac:	65 93       	mov	r9,r5
  3002ae:	20 08       	tst	r0,r0
  3002b0:	89 e4       	bt	30027c <_tableux_construction_stage+0x3c>
  3002b2:	db 16       	mov.l	30030c <_tableux_construction_stage+0xcc>,r11	! 308ed4 <_atoi>
  3002b4:	dc 16       	mov.l	300310 <_tableux_construction_stage+0xd0>,r12	! 301490 <_free_viscell>
  3002b6:	4b 0b       	jsr	@r11
  3002b8:	54 96       	mov.l	@(24,r9),r4
  3002ba:	54 86       	mov.l	@(24,r8),r4
  3002bc:	4b 0b       	jsr	@r11
  3002be:	6a 03       	mov	r0,r10
  3002c0:	64 93       	mov	r9,r4
  3002c2:	4c 0b       	jsr	@r12
  3002c4:	6b 03       	mov	r0,r11
  3002c6:	4c 0b       	jsr	@r12
  3002c8:	64 83       	mov	r8,r4
  3002ca:	d0 12       	mov.l	300314 <_tableux_construction_stage+0xd4>,r0	! 3015e8 <_new_tableux>
  3002cc:	65 bc       	extu.b	r11,r5
  3002ce:	64 ac       	extu.b	r10,r4
  3002d0:	7f 08       	add	#8,r15
  3002d2:	4f 26       	lds.l	@r15+,pr
  3002d4:	6c f6       	mov.l	@r15+,r12
  3002d6:	6b f6       	mov.l	@r15+,r11
  3002d8:	6a f6       	mov.l	@r15+,r10
  3002da:	69 f6       	mov.l	@r15+,r9
  3002dc:	40 2b       	jmp	@r0
  3002de:	68 f6       	mov.l	@r15+,r8
  3002e0:	01 04       	mov.b	r0,@(r0,r1)
  3002e2:	00 c8       	setdmy	
  3002e4:	00 30       	.word 0x0030
  3002e6:	13 98       	mov.l	r9,@(32,r3)
  3002e8:	00 30       	.word 0x0030
  3002ea:	b3 e0       	bsr	300aae <_isoptimal+0xae>
  3002ec:	00 30       	.word 0x0030
  3002ee:	3c c0       	cmp/eq	r12,r12
  3002f0:	00 30       	.word 0x0030
  3002f2:	b3 e4       	bsr	300abe <_isoptimal+0xbe>
  3002f4:	00 30       	.word 0x0030
  3002f6:	15 4c       	mov.l	r4,@(48,r5)
  3002f8:	00 30       	.word 0x0030
  3002fa:	b3 e8       	bsr	300ace <_isoptimal+0xce>
  3002fc:	00 30       	.word 0x0030
  3002fe:	b3 f0       	bsr	300ae2 <_isoptimal+0xe2>
  300300:	00 30       	.word 0x0030
  300302:	48 b4       	.word 0x48b4
  300304:	00 30       	.word 0x0030
  300306:	33 90       	cmp/eq	r9,r3
  300308:	00 30       	.word 0x0030
  30030a:	25 90       	mov.b	r9,@r5
  30030c:	00 30       	.word 0x0030
  30030e:	8e d4       	ldre	3004ba <_main+0x62>	! 318
  300310:	00 30       	.word 0x0030
  300312:	14 90       	mov.l	r9,@(0,r4)
  300314:	00 30       	.word 0x0030
  300316:	15 e8       	mov.l	r14,@(32,r5)

00300318 <_tableux_input_stage>:
  300318:	2f 86       	mov.l	r8,@-r15
  30031a:	e0 01       	mov	#1,r0
  30031c:	2f 96       	mov.l	r9,@-r15
  30031e:	e8 00       	mov	#0,r8
  300320:	2f a6       	mov.l	r10,@-r15
  300322:	69 43       	mov	r4,r9
  300324:	2f b6       	mov.l	r11,@-r15
  300326:	2f c6       	mov.l	r12,@-r15
  300328:	4f 22       	sts.l	pr,@-r15
  30032a:	7f fc       	add	#-4,r15
  30032c:	db 20       	mov.l	3003b0 <_tableux_input_stage+0x98>,r11	! 301a90 <_display_tableux>
  30032e:	6a f3       	mov	r15,r10
  300330:	9c 3c       	mov.w	3003ac <_tableux_input_stage+0x94>,r12	! 84
  300332:	80 a2       	mov.b	r0,@(2,r10)
  300334:	e0 00       	mov	#0,r0
  300336:	7a f4       	add	#-12,r10
  300338:	80 af       	mov.b	r0,@(15,r10)
  30033a:	4b 0b       	jsr	@r11
  30033c:	64 93       	mov	r9,r4
  30033e:	d1 1d       	mov.l	3003b4 <_tableux_input_stage+0x9c>,r1	! 3048b4 <_dupdate>
  300340:	41 0b       	jsr	@r1
  300342:	00 09       	nop	
  300344:	d1 1c       	mov.l	3003b8 <_tableux_input_stage+0xa0>,r1	! 304794 <_dclear>
  300346:	d4 1d       	mov.l	3003bc <_tableux_input_stage+0xa4>,r4	! ffff
  300348:	41 0b       	jsr	@r1
  30034a:	00 09       	nop	
  30034c:	d0 1c       	mov.l	3003c0 <_tableux_input_stage+0xa8>,r0	! 303390 <_getkey>
  30034e:	40 0b       	jsr	@r0
  300350:	00 09       	nop	
  300352:	61 0c       	extu.b	r0,r1
  300354:	31 c0       	cmp/eq	r12,r1
  300356:	8d 06       	bt.s	300366 <_tableux_input_stage+0x4e>
  300358:	64 03       	mov	r0,r4
  30035a:	28 88       	tst	r8,r8
  30035c:	8d 0c       	bt.s	300378 <_tableux_input_stage+0x60>
  30035e:	60 83       	mov	r8,r0
  300360:	88 01       	cmp/eq	#1,r0
  300362:	8d 1a       	bt.s	30039a <_tableux_input_stage+0x82>
  300364:	67 93       	mov	r9,r7
  300366:	e0 00       	mov	#0,r0
  300368:	7f 04       	add	#4,r15
  30036a:	4f 26       	lds.l	@r15+,pr
  30036c:	6c f6       	mov.l	@r15+,r12
  30036e:	6b f6       	mov.l	@r15+,r11
  300370:	6a f6       	mov.l	@r15+,r10
  300372:	69 f6       	mov.l	@r15+,r9
  300374:	00 0b       	rts	
  300376:	68 f6       	mov.l	@r15+,r8
  300378:	d0 12       	mov.l	3003c4 <_tableux_input_stage+0xac>,r0	! 3028cc <_process_key_rowcol_stage>
  30037a:	67 93       	mov	r9,r7
  30037c:	66 f3       	mov	r15,r6
  30037e:	65 f3       	mov	r15,r5
  300380:	76 03       	add	#3,r6
  300382:	40 0b       	jsr	@r0
  300384:	75 02       	add	#2,r5
  300386:	68 03       	mov	r0,r8
  300388:	84 af       	mov.b	@(15,r10),r0
  30038a:	66 93       	mov	r9,r6
  30038c:	d1 0e       	mov.l	3003c8 <_tableux_input_stage+0xb0>,r1	! 301b3c <_update_cursor>
  30038e:	65 0c       	extu.b	r0,r5
  300390:	84 ae       	mov.b	@(14,r10),r0
  300392:	41 0b       	jsr	@r1
  300394:	64 0c       	extu.b	r0,r4
  300396:	af d0       	bra	30033a <_tableux_input_stage+0x22>
  300398:	00 09       	nop	
  30039a:	d0 0c       	mov.l	3003cc <_tableux_input_stage+0xb4>,r0	! 302de8 <_process_key_tableux_stage>
  30039c:	66 f3       	mov	r15,r6
  30039e:	65 f3       	mov	r15,r5
  3003a0:	76 03       	add	#3,r6
  3003a2:	40 0b       	jsr	@r0
  3003a4:	75 02       	add	#2,r5
  3003a6:	70 01       	add	#1,r0
  3003a8:	af ee       	bra	300388 <_tableux_input_stage+0x70>
  3003aa:	68 0c       	extu.b	r0,r8
  3003ac:	00 84       	mov.b	r8,@(r0,r0)
  3003ae:	00 09       	nop	
  3003b0:	00 30       	.word 0x0030
  3003b2:	1a 90       	mov.l	r9,@(0,r10)
  3003b4:	00 30       	.word 0x0030
  3003b6:	48 b4       	.word 0x48b4
  3003b8:	00 30       	.word 0x0030
  3003ba:	47 94       	.word 0x4794
  3003bc:	00 00       	.word 0x0000
  3003be:	ff ff       	.word 0xffff
  3003c0:	00 30       	.word 0x0030
  3003c2:	33 90       	cmp/eq	r9,r3
  3003c4:	00 30       	.word 0x0030
  3003c6:	28 cc       	cmp/str	r12,r8
  3003c8:	00 30       	.word 0x0030
  3003ca:	1b 3c       	mov.l	r3,@(48,r11)
  3003cc:	00 30       	.word 0x0030
  3003ce:	2d e8       	tst	r14,r13

003003d0 <_solve_stage>:
  3003d0:	2f 86       	mov.l	r8,@-r15
  3003d2:	68 43       	mov	r4,r8
  3003d4:	2f 96       	mov.l	r9,@-r15
  3003d6:	2f a6       	mov.l	r10,@-r15
  3003d8:	2f b6       	mov.l	r11,@-r15
  3003da:	d0 18       	mov.l	30043c <_solve_stage+0x6c>,r0	! 301db0 <_extract_grid>
  3003dc:	4f 22       	sts.l	pr,@-r15
  3003de:	40 0b       	jsr	@r0
  3003e0:	7f f0       	add	#-16,r15
  3003e2:	69 03       	mov	r0,r9
  3003e4:	d0 16       	mov.l	300440 <_solve_stage+0x70>,r0	! 301bee <_extract_row_names>
  3003e6:	40 0b       	jsr	@r0
  3003e8:	64 83       	mov	r8,r4
  3003ea:	6a 03       	mov	r0,r10
  3003ec:	d0 15       	mov.l	300444 <_solve_stage+0x74>,r0	! 301ccc <_extract_column_names>
  3003ee:	40 0b       	jsr	@r0
  3003f0:	64 83       	mov	r8,r4
  3003f2:	6b 03       	mov	r0,r11
  3003f4:	84 81       	mov.b	@(1,r8),r0
  3003f6:	64 80       	mov.b	@r8,r4
  3003f8:	66 93       	mov	r9,r6
  3003fa:	65 0c       	extu.b	r0,r5
  3003fc:	d0 12       	mov.l	300448 <_solve_stage+0x78>,r0	! 300740 <_new_matrix_with_data>
  3003fe:	64 4c       	extu.b	r4,r4
  300400:	75 ff       	add	#-1,r5
  300402:	40 0b       	jsr	@r0
  300404:	74 ff       	add	#-1,r4
  300406:	d1 11       	mov.l	30044c <_solve_stage+0x7c>,r1	! 300e40 <_simplex>
  300408:	69 03       	mov	r0,r9
  30040a:	2f b2       	mov.l	r11,@r15
  30040c:	67 a3       	mov	r10,r7
  30040e:	64 02       	mov.l	@r0,r4
  300410:	62 f3       	mov	r15,r2
  300412:	55 01       	mov.l	@(4,r0),r5
  300414:	72 04       	add	#4,r2
  300416:	41 0b       	jsr	@r1
  300418:	56 02       	mov.l	@(8,r0),r6
  30041a:	d3 0d       	mov.l	300450 <_solve_stage+0x80>,r3	! 300520 <___movmemSI12_i4>
  30041c:	64 93       	mov	r9,r4
  30041e:	65 f3       	mov	r15,r5
  300420:	75 04       	add	#4,r5
  300422:	43 0b       	jsr	@r3
  300424:	66 83       	mov	r8,r6
  300426:	d0 0b       	mov.l	300454 <_solve_stage+0x84>,r0	! 301f60 <_matrix_into_tableux>
  300428:	40 0b       	jsr	@r0
  30042a:	65 a3       	mov	r10,r5
  30042c:	e0 00       	mov	#0,r0
  30042e:	7f 10       	add	#16,r15
  300430:	4f 26       	lds.l	@r15+,pr
  300432:	6b f6       	mov.l	@r15+,r11
  300434:	6a f6       	mov.l	@r15+,r10
  300436:	69 f6       	mov.l	@r15+,r9
  300438:	00 0b       	rts	
  30043a:	68 f6       	mov.l	@r15+,r8
  30043c:	00 30       	.word 0x0030
  30043e:	1d b0       	mov.l	r11,@(0,r13)
  300440:	00 30       	.word 0x0030
  300442:	1b ee       	mov.l	r14,@(56,r11)
  300444:	00 30       	.word 0x0030
  300446:	1c cc       	mov.l	r12,@(48,r12)
  300448:	00 30       	.word 0x0030
  30044a:	07 40       	.word 0x0740
  30044c:	00 30       	.word 0x0030
  30044e:	0e 40       	.word 0x0e40
  300450:	00 30       	.word 0x0030
  300452:	05 20       	.word 0x0520
  300454:	00 30       	.word 0x0030
  300456:	1f 60       	mov.l	r6,@(0,r15)

00300458 <_main>:
  300458:	d1 13       	mov.l	3004a8 <_main+0x50>,r1	! 304794 <_dclear>
  30045a:	2f 86       	mov.l	r8,@-r15
  30045c:	2f 96       	mov.l	r9,@-r15
  30045e:	4f 22       	sts.l	pr,@-r15
  300460:	d4 12       	mov.l	3004ac <_main+0x54>,r4	! ffff
  300462:	41 0b       	jsr	@r1
  300464:	00 09       	nop	
  300466:	d0 12       	mov.l	3004b0 <_main+0x58>,r0	! 300240 <_tableux_construction_stage>
  300468:	d9 12       	mov.l	3004b4 <_main+0x5c>,r9	! 303390 <_getkey>
  30046a:	40 0b       	jsr	@r0
  30046c:	00 09       	nop	
  30046e:	68 03       	mov	r0,r8
  300470:	64 03       	mov	r0,r4
  300472:	d0 11       	mov.l	3004b8 <_main+0x60>,r0	! 300318 <_tableux_input_stage>
  300474:	40 0b       	jsr	@r0
  300476:	00 09       	nop	
  300478:	d0 10       	mov.l	3004bc <_main+0x64>,r0	! 3003d0 <_solve_stage>
  30047a:	40 0b       	jsr	@r0
  30047c:	64 83       	mov	r8,r4
  30047e:	d1 10       	mov.l	3004c0 <_main+0x68>,r1	! 301a90 <_display_tableux>
  300480:	41 0b       	jsr	@r1
  300482:	64 83       	mov	r8,r4
  300484:	d1 0f       	mov.l	3004c4 <_main+0x6c>,r1	! 3048b4 <_dupdate>
  300486:	41 0b       	jsr	@r1
  300488:	00 09       	nop	
  30048a:	49 0b       	jsr	@r9
  30048c:	00 09       	nop	
  30048e:	49 0b       	jsr	@r9
  300490:	00 09       	nop	
  300492:	49 0b       	jsr	@r9
  300494:	00 09       	nop	
  300496:	d1 0c       	mov.l	3004c8 <_main+0x70>,r1	! 30195c <_free_tableux>
  300498:	41 0b       	jsr	@r1
  30049a:	64 83       	mov	r8,r4
  30049c:	e0 00       	mov	#0,r0
  30049e:	4f 26       	lds.l	@r15+,pr
  3004a0:	69 f6       	mov.l	@r15+,r9
  3004a2:	00 0b       	rts	
  3004a4:	68 f6       	mov.l	@r15+,r8
  3004a6:	00 09       	nop	
  3004a8:	00 30       	.word 0x0030
  3004aa:	47 94       	.word 0x4794
  3004ac:	00 00       	.word 0x0000
  3004ae:	ff ff       	.word 0xffff
  3004b0:	00 30       	.word 0x0030
  3004b2:	02 40       	.word 0x0240
  3004b4:	00 30       	.word 0x0030
  3004b6:	33 90       	cmp/eq	r9,r3
  3004b8:	00 30       	.word 0x0030
  3004ba:	03 18       	.word 0x0318
  3004bc:	00 30       	.word 0x0030
  3004be:	03 d0       	.word 0x03d0
  3004c0:	00 30       	.word 0x0030
  3004c2:	1a 90       	mov.l	r9,@(0,r10)
  3004c4:	00 30       	.word 0x0030
  3004c6:	48 b4       	.word 0x48b4
  3004c8:	00 30       	.word 0x0030
  3004ca:	19 5c       	mov.l	r5,@(48,r9)
	...

003004e0 <L_movmem_2mod4_end>:
  3004e0:	14 04       	mov.l	r0,@(16,r4)
  3004e2:	00 0b       	rts	
  3004e4:	14 15       	mov.l	r1,@(20,r4)
  3004e6:	00 09       	nop	

003004e8 <___movmem_i4_even>:
  3004e8:	60 56       	mov.l	@r5+,r0
  3004ea:	a0 0c       	bra	300506 <L_movmem_start_even>
  3004ec:	61 56       	mov.l	@r5+,r1

003004ee <___movmem_i4_odd>:
  3004ee:	61 56       	mov.l	@r5+,r1
  3004f0:	74 fc       	add	#-4,r4
  3004f2:	62 56       	mov.l	@r5+,r2
  3004f4:	63 56       	mov.l	@r5+,r3
  3004f6:	14 11       	mov.l	r1,@(4,r4)
  3004f8:	14 22       	mov.l	r2,@(8,r4)

003004fa <L_movmem_loop>:
  3004fa:	14 33       	mov.l	r3,@(12,r4)
  3004fc:	46 10       	dt	r6
  3004fe:	60 56       	mov.l	@r5+,r0
  300500:	8d ee       	bt.s	3004e0 <L_movmem_2mod4_end>
  300502:	61 56       	mov.l	@r5+,r1
  300504:	74 10       	add	#16,r4

00300506 <L_movmem_start_even>:
  300506:	62 56       	mov.l	@r5+,r2
  300508:	63 56       	mov.l	@r5+,r3
  30050a:	24 02       	mov.l	r0,@r4
  30050c:	46 10       	dt	r6
  30050e:	14 11       	mov.l	r1,@(4,r4)
  300510:	8f f3       	bf.s	3004fa <L_movmem_loop>
  300512:	14 22       	mov.l	r2,@(8,r4)
  300514:	00 0b       	rts	
  300516:	14 33       	mov.l	r3,@(12,r4)
  300518:	00 09       	nop	
  30051a:	00 09       	nop	
  30051c:	00 09       	nop	
  30051e:	00 09       	nop	

00300520 <___movmemSI12_i4>:
  300520:	60 52       	mov.l	@r5,r0
  300522:	51 51       	mov.l	@(4,r5),r1
  300524:	52 52       	mov.l	@(8,r5),r2
  300526:	24 02       	mov.l	r0,@r4
  300528:	14 11       	mov.l	r1,@(4,r4)
  30052a:	00 0b       	rts	
  30052c:	14 22       	mov.l	r2,@(8,r4)
  30052e:	00 09       	nop	
  300530:	00 09       	nop	
  300532:	00 09       	nop	
  300534:	00 09       	nop	
  300536:	00 09       	nop	
  300538:	00 09       	nop	
  30053a:	00 09       	nop	
  30053c:	00 09       	nop	
  30053e:	00 09       	nop	

00300540 <_free_matrix>:
  300540:	2f e6       	mov.l	r14,@-r15
  300542:	4f 22       	sts.l	pr,@-r15
  300544:	7f f8       	add	#-8,r15
  300546:	6e f3       	mov	r15,r14
  300548:	61 e3       	mov	r14,r1
  30054a:	71 c8       	add	#-56,r1
  30054c:	11 4e       	mov.l	r4,@(56,r1)
  30054e:	61 e3       	mov	r14,r1
  300550:	71 c8       	add	#-56,r1
  300552:	e2 00       	mov	#0,r2
  300554:	11 2f       	mov.l	r2,@(60,r1)
  300556:	a0 15       	bra	300584 <_free_matrix+0x44>
  300558:	00 09       	nop	
  30055a:	61 e3       	mov	r14,r1
  30055c:	71 c8       	add	#-56,r1
  30055e:	51 1e       	mov.l	@(56,r1),r1
  300560:	52 12       	mov.l	@(8,r1),r2
  300562:	61 e3       	mov	r14,r1
  300564:	71 c8       	add	#-56,r1
  300566:	51 1f       	mov.l	@(60,r1),r1
  300568:	41 08       	shll2	r1
  30056a:	31 2c       	add	r2,r1
  30056c:	61 12       	mov.l	@r1,r1
  30056e:	64 13       	mov	r1,r4
  300570:	d1 13       	mov.l	3005c0 <_free_matrix+0x80>,r1	! 309244 <_free>
  300572:	41 0b       	jsr	@r1
  300574:	00 09       	nop	
  300576:	61 e3       	mov	r14,r1
  300578:	71 c8       	add	#-56,r1
  30057a:	62 e3       	mov	r14,r2
  30057c:	72 c8       	add	#-56,r2
  30057e:	52 2f       	mov.l	@(60,r2),r2
  300580:	72 01       	add	#1,r2
  300582:	11 2f       	mov.l	r2,@(60,r1)
  300584:	61 e3       	mov	r14,r1
  300586:	71 c8       	add	#-56,r1
  300588:	51 1e       	mov.l	@(56,r1),r1
  30058a:	61 12       	mov.l	@r1,r1
  30058c:	62 e3       	mov	r14,r2
  30058e:	72 c8       	add	#-56,r2
  300590:	52 2f       	mov.l	@(60,r2),r2
  300592:	32 13       	cmp/ge	r1,r2
  300594:	8b e1       	bf	30055a <_free_matrix+0x1a>
  300596:	61 e3       	mov	r14,r1
  300598:	71 c8       	add	#-56,r1
  30059a:	51 1e       	mov.l	@(56,r1),r1
  30059c:	51 12       	mov.l	@(8,r1),r1
  30059e:	64 13       	mov	r1,r4
  3005a0:	d1 07       	mov.l	3005c0 <_free_matrix+0x80>,r1	! 309244 <_free>
  3005a2:	41 0b       	jsr	@r1
  3005a4:	00 09       	nop	
  3005a6:	61 e3       	mov	r14,r1
  3005a8:	71 c8       	add	#-56,r1
  3005aa:	54 1e       	mov.l	@(56,r1),r4
  3005ac:	d1 04       	mov.l	3005c0 <_free_matrix+0x80>,r1	! 309244 <_free>
  3005ae:	41 0b       	jsr	@r1
  3005b0:	00 09       	nop	
  3005b2:	00 09       	nop	
  3005b4:	7e 08       	add	#8,r14
  3005b6:	6f e3       	mov	r14,r15
  3005b8:	4f 26       	lds.l	@r15+,pr
  3005ba:	6e f6       	mov.l	@r15+,r14
  3005bc:	00 0b       	rts	
  3005be:	00 09       	nop	
  3005c0:	00 30       	.word 0x0030
  3005c2:	92 44       	mov.w	30064e <_new_matrix+0x8a>,r2	! 61e3

003005c4 <_new_matrix>:
  3005c4:	2f 86       	mov.l	r8,@-r15
  3005c6:	2f e6       	mov.l	r14,@-r15
  3005c8:	4f 22       	sts.l	pr,@-r15
  3005ca:	7f ec       	add	#-20,r15
  3005cc:	6e f3       	mov	r15,r14
  3005ce:	61 e3       	mov	r14,r1
  3005d0:	71 d4       	add	#-44,r1
  3005d2:	11 4c       	mov.l	r4,@(48,r1)
  3005d4:	61 e3       	mov	r14,r1
  3005d6:	71 d4       	add	#-44,r1
  3005d8:	11 5b       	mov.l	r5,@(44,r1)
  3005da:	68 e3       	mov	r14,r8
  3005dc:	78 d4       	add	#-44,r8
  3005de:	e4 0c       	mov	#12,r4
  3005e0:	d1 55       	mov.l	300738 <_new_matrix+0x174>,r1	! 309250 <_malloc>
  3005e2:	41 0b       	jsr	@r1
  3005e4:	00 09       	nop	
  3005e6:	61 03       	mov	r0,r1
  3005e8:	18 1d       	mov.l	r1,@(52,r8)
  3005ea:	61 e3       	mov	r14,r1
  3005ec:	71 d4       	add	#-44,r1
  3005ee:	51 1d       	mov.l	@(52,r1),r1
  3005f0:	21 18       	tst	r1,r1
  3005f2:	8b 02       	bf	3005fa <_new_matrix+0x36>
  3005f4:	e1 00       	mov	#0,r1
  3005f6:	a0 97       	bra	300728 <_new_matrix+0x164>
  3005f8:	00 09       	nop	
  3005fa:	61 e3       	mov	r14,r1
  3005fc:	71 d4       	add	#-44,r1
  3005fe:	51 1d       	mov.l	@(52,r1),r1
  300600:	62 e3       	mov	r14,r2
  300602:	72 d4       	add	#-44,r2
  300604:	52 2c       	mov.l	@(48,r2),r2
  300606:	21 22       	mov.l	r2,@r1
  300608:	61 e3       	mov	r14,r1
  30060a:	71 d4       	add	#-44,r1
  30060c:	51 1d       	mov.l	@(52,r1),r1
  30060e:	62 e3       	mov	r14,r2
  300610:	72 d4       	add	#-44,r2
  300612:	52 2b       	mov.l	@(44,r2),r2
  300614:	11 21       	mov.l	r2,@(4,r1)
  300616:	61 e3       	mov	r14,r1
  300618:	71 d4       	add	#-44,r1
  30061a:	51 1c       	mov.l	@(48,r1),r1
  30061c:	41 08       	shll2	r1
  30061e:	64 13       	mov	r1,r4
  300620:	d1 45       	mov.l	300738 <_new_matrix+0x174>,r1	! 309250 <_malloc>
  300622:	41 0b       	jsr	@r1
  300624:	00 09       	nop	
  300626:	61 03       	mov	r0,r1
  300628:	62 e3       	mov	r14,r2
  30062a:	72 d4       	add	#-44,r2
  30062c:	52 2d       	mov.l	@(52,r2),r2
  30062e:	12 12       	mov.l	r1,@(8,r2)
  300630:	61 e3       	mov	r14,r1
  300632:	71 d4       	add	#-44,r1
  300634:	51 1d       	mov.l	@(52,r1),r1
  300636:	51 12       	mov.l	@(8,r1),r1
  300638:	21 18       	tst	r1,r1
  30063a:	8b 08       	bf	30064e <_new_matrix+0x8a>
  30063c:	61 e3       	mov	r14,r1
  30063e:	71 d4       	add	#-44,r1
  300640:	54 1d       	mov.l	@(52,r1),r4
  300642:	d1 3e       	mov.l	30073c <_new_matrix+0x178>,r1	! 309244 <_free>
  300644:	41 0b       	jsr	@r1
  300646:	00 09       	nop	
  300648:	e1 00       	mov	#0,r1
  30064a:	a0 6d       	bra	300728 <_new_matrix+0x164>
  30064c:	00 09       	nop	
  30064e:	61 e3       	mov	r14,r1
  300650:	71 d4       	add	#-44,r1
  300652:	e2 00       	mov	#0,r2
  300654:	11 2f       	mov.l	r2,@(60,r1)
  300656:	a0 5c       	bra	300712 <_new_matrix+0x14e>
  300658:	00 09       	nop	
  30065a:	61 e3       	mov	r14,r1
  30065c:	71 d4       	add	#-44,r1
  30065e:	51 1b       	mov.l	@(44,r1),r1
  300660:	41 08       	shll2	r1
  300662:	41 08       	shll2	r1
  300664:	62 e3       	mov	r14,r2
  300666:	72 d4       	add	#-44,r2
  300668:	52 2d       	mov.l	@(52,r2),r2
  30066a:	53 22       	mov.l	@(8,r2),r3
  30066c:	62 e3       	mov	r14,r2
  30066e:	72 d4       	add	#-44,r2
  300670:	52 2f       	mov.l	@(60,r2),r2
  300672:	42 08       	shll2	r2
  300674:	68 33       	mov	r3,r8
  300676:	38 2c       	add	r2,r8
  300678:	64 13       	mov	r1,r4
  30067a:	d1 2f       	mov.l	300738 <_new_matrix+0x174>,r1	! 309250 <_malloc>
  30067c:	41 0b       	jsr	@r1
  30067e:	00 09       	nop	
  300680:	61 03       	mov	r0,r1
  300682:	28 12       	mov.l	r1,@r8
  300684:	61 e3       	mov	r14,r1
  300686:	71 d4       	add	#-44,r1
  300688:	51 1d       	mov.l	@(52,r1),r1
  30068a:	52 12       	mov.l	@(8,r1),r2
  30068c:	61 e3       	mov	r14,r1
  30068e:	71 d4       	add	#-44,r1
  300690:	51 1f       	mov.l	@(60,r1),r1
  300692:	41 08       	shll2	r1
  300694:	31 2c       	add	r2,r1
  300696:	61 12       	mov.l	@r1,r1
  300698:	21 18       	tst	r1,r1
  30069a:	8b 33       	bf	300704 <_new_matrix+0x140>
  30069c:	61 e3       	mov	r14,r1
  30069e:	71 d4       	add	#-44,r1
  3006a0:	e2 00       	mov	#0,r2
  3006a2:	11 2e       	mov.l	r2,@(56,r1)
  3006a4:	a0 15       	bra	3006d2 <_new_matrix+0x10e>
  3006a6:	00 09       	nop	
  3006a8:	61 e3       	mov	r14,r1
  3006aa:	71 d4       	add	#-44,r1
  3006ac:	51 1d       	mov.l	@(52,r1),r1
  3006ae:	52 12       	mov.l	@(8,r1),r2
  3006b0:	61 e3       	mov	r14,r1
  3006b2:	71 d4       	add	#-44,r1
  3006b4:	51 1e       	mov.l	@(56,r1),r1
  3006b6:	41 08       	shll2	r1
  3006b8:	31 2c       	add	r2,r1
  3006ba:	61 12       	mov.l	@r1,r1
  3006bc:	64 13       	mov	r1,r4
  3006be:	d1 1f       	mov.l	30073c <_new_matrix+0x178>,r1	! 309244 <_free>
  3006c0:	41 0b       	jsr	@r1
  3006c2:	00 09       	nop	
  3006c4:	61 e3       	mov	r14,r1
  3006c6:	71 d4       	add	#-44,r1
  3006c8:	62 e3       	mov	r14,r2
  3006ca:	72 d4       	add	#-44,r2
  3006cc:	52 2e       	mov.l	@(56,r2),r2
  3006ce:	72 01       	add	#1,r2
  3006d0:	11 2e       	mov.l	r2,@(56,r1)
  3006d2:	62 e3       	mov	r14,r2
  3006d4:	72 d4       	add	#-44,r2
  3006d6:	61 e3       	mov	r14,r1
  3006d8:	71 d4       	add	#-44,r1
  3006da:	52 2e       	mov.l	@(56,r2),r2
  3006dc:	51 1f       	mov.l	@(60,r1),r1
  3006de:	32 13       	cmp/ge	r1,r2
  3006e0:	8b e2       	bf	3006a8 <_new_matrix+0xe4>
  3006e2:	61 e3       	mov	r14,r1
  3006e4:	71 d4       	add	#-44,r1
  3006e6:	51 1d       	mov.l	@(52,r1),r1
  3006e8:	51 12       	mov.l	@(8,r1),r1
  3006ea:	64 13       	mov	r1,r4
  3006ec:	d1 13       	mov.l	30073c <_new_matrix+0x178>,r1	! 309244 <_free>
  3006ee:	41 0b       	jsr	@r1
  3006f0:	00 09       	nop	
  3006f2:	61 e3       	mov	r14,r1
  3006f4:	71 d4       	add	#-44,r1
  3006f6:	54 1d       	mov.l	@(52,r1),r4
  3006f8:	d1 10       	mov.l	30073c <_new_matrix+0x178>,r1	! 309244 <_free>
  3006fa:	41 0b       	jsr	@r1
  3006fc:	00 09       	nop	
  3006fe:	e1 00       	mov	#0,r1
  300700:	a0 12       	bra	300728 <_new_matrix+0x164>
  300702:	00 09       	nop	
  300704:	61 e3       	mov	r14,r1
  300706:	71 d4       	add	#-44,r1
  300708:	62 e3       	mov	r14,r2
  30070a:	72 d4       	add	#-44,r2
  30070c:	52 2f       	mov.l	@(60,r2),r2
  30070e:	72 01       	add	#1,r2
  300710:	11 2f       	mov.l	r2,@(60,r1)
  300712:	62 e3       	mov	r14,r2
  300714:	72 d4       	add	#-44,r2
  300716:	61 e3       	mov	r14,r1
  300718:	71 d4       	add	#-44,r1
  30071a:	52 2f       	mov.l	@(60,r2),r2
  30071c:	51 1c       	mov.l	@(48,r1),r1
  30071e:	32 13       	cmp/ge	r1,r2
  300720:	8b 9b       	bf	30065a <_new_matrix+0x96>
  300722:	61 e3       	mov	r14,r1
  300724:	71 d4       	add	#-44,r1
  300726:	51 1d       	mov.l	@(52,r1),r1
  300728:	60 13       	mov	r1,r0
  30072a:	7e 14       	add	#20,r14
  30072c:	6f e3       	mov	r14,r15
  30072e:	4f 26       	lds.l	@r15+,pr
  300730:	6e f6       	mov.l	@r15+,r14
  300732:	68 f6       	mov.l	@r15+,r8
  300734:	00 0b       	rts	
  300736:	00 09       	nop	
  300738:	00 30       	.word 0x0030
  30073a:	92 50       	mov.w	3007de <_new_matrix_with_data+0x9e>,r2	! 72d4
  30073c:	00 30       	.word 0x0030
  30073e:	92 44       	mov.w	3007ca <_new_matrix_with_data+0x8a>,r2	! 410b

00300740 <_new_matrix_with_data>:
  300740:	2f 86       	mov.l	r8,@-r15
  300742:	2f e6       	mov.l	r14,@-r15
  300744:	4f 22       	sts.l	pr,@-r15
  300746:	7f ec       	add	#-20,r15
  300748:	6e f3       	mov	r15,r14
  30074a:	61 e3       	mov	r14,r1
  30074c:	71 d4       	add	#-44,r1
  30074e:	11 4d       	mov.l	r4,@(52,r1)
  300750:	61 e3       	mov	r14,r1
  300752:	71 d4       	add	#-44,r1
  300754:	11 5c       	mov.l	r5,@(48,r1)
  300756:	61 e3       	mov	r14,r1
  300758:	71 d4       	add	#-44,r1
  30075a:	11 6b       	mov.l	r6,@(44,r1)
  30075c:	68 e3       	mov	r14,r8
  30075e:	78 d4       	add	#-44,r8
  300760:	62 e3       	mov	r14,r2
  300762:	72 d4       	add	#-44,r2
  300764:	61 e3       	mov	r14,r1
  300766:	71 d4       	add	#-44,r1
  300768:	55 2c       	mov.l	@(48,r2),r5
  30076a:	54 1d       	mov.l	@(52,r1),r4
  30076c:	d1 25       	mov.l	300804 <_new_matrix_with_data+0xc4>,r1	! 3005c4 <_new_matrix>
  30076e:	41 0b       	jsr	@r1
  300770:	00 09       	nop	
  300772:	61 03       	mov	r0,r1
  300774:	18 1e       	mov.l	r1,@(56,r8)
  300776:	61 e3       	mov	r14,r1
  300778:	71 d4       	add	#-44,r1
  30077a:	51 1e       	mov.l	@(56,r1),r1
  30077c:	21 18       	tst	r1,r1
  30077e:	8b 02       	bf	300786 <_new_matrix_with_data+0x46>
  300780:	e1 00       	mov	#0,r1
  300782:	a0 36       	bra	3007f2 <_new_matrix_with_data+0xb2>
  300784:	00 09       	nop	
  300786:	61 e3       	mov	r14,r1
  300788:	71 d4       	add	#-44,r1
  30078a:	e2 00       	mov	#0,r2
  30078c:	11 2f       	mov.l	r2,@(60,r1)
  30078e:	a0 25       	bra	3007dc <_new_matrix_with_data+0x9c>
  300790:	00 09       	nop	
  300792:	61 e3       	mov	r14,r1
  300794:	71 d4       	add	#-44,r1
  300796:	51 1e       	mov.l	@(56,r1),r1
  300798:	52 12       	mov.l	@(8,r1),r2
  30079a:	61 e3       	mov	r14,r1
  30079c:	71 d4       	add	#-44,r1
  30079e:	51 1f       	mov.l	@(60,r1),r1
  3007a0:	41 08       	shll2	r1
  3007a2:	31 2c       	add	r2,r1
  3007a4:	63 12       	mov.l	@r1,r3
  3007a6:	61 e3       	mov	r14,r1
  3007a8:	71 d4       	add	#-44,r1
  3007aa:	51 1f       	mov.l	@(60,r1),r1
  3007ac:	41 08       	shll2	r1
  3007ae:	62 e3       	mov	r14,r2
  3007b0:	72 d4       	add	#-44,r2
  3007b2:	52 2b       	mov.l	@(44,r2),r2
  3007b4:	31 2c       	add	r2,r1
  3007b6:	62 12       	mov.l	@r1,r2
  3007b8:	61 e3       	mov	r14,r1
  3007ba:	71 d4       	add	#-44,r1
  3007bc:	51 1c       	mov.l	@(48,r1),r1
  3007be:	41 08       	shll2	r1
  3007c0:	41 08       	shll2	r1
  3007c2:	66 13       	mov	r1,r6
  3007c4:	65 23       	mov	r2,r5
  3007c6:	64 33       	mov	r3,r4
  3007c8:	d1 0f       	mov.l	300808 <_new_matrix_with_data+0xc8>,r1	! 309100 <_memcpy>
  3007ca:	41 0b       	jsr	@r1
  3007cc:	00 09       	nop	
  3007ce:	61 e3       	mov	r14,r1
  3007d0:	71 d4       	add	#-44,r1
  3007d2:	62 e3       	mov	r14,r2
  3007d4:	72 d4       	add	#-44,r2
  3007d6:	52 2f       	mov.l	@(60,r2),r2
  3007d8:	72 01       	add	#1,r2
  3007da:	11 2f       	mov.l	r2,@(60,r1)
  3007dc:	62 e3       	mov	r14,r2
  3007de:	72 d4       	add	#-44,r2
  3007e0:	61 e3       	mov	r14,r1
  3007e2:	71 d4       	add	#-44,r1
  3007e4:	52 2f       	mov.l	@(60,r2),r2
  3007e6:	51 1d       	mov.l	@(52,r1),r1
  3007e8:	32 13       	cmp/ge	r1,r2
  3007ea:	8b d2       	bf	300792 <_new_matrix_with_data+0x52>
  3007ec:	61 e3       	mov	r14,r1
  3007ee:	71 d4       	add	#-44,r1
  3007f0:	51 1e       	mov.l	@(56,r1),r1
  3007f2:	60 13       	mov	r1,r0
  3007f4:	7e 14       	add	#20,r14
  3007f6:	6f e3       	mov	r14,r15
  3007f8:	4f 26       	lds.l	@r15+,pr
  3007fa:	6e f6       	mov.l	@r15+,r14
  3007fc:	68 f6       	mov.l	@r15+,r8
  3007fe:	00 0b       	rts	
  300800:	00 09       	nop	
  300802:	00 09       	nop	
  300804:	00 30       	.word 0x0030
  300806:	05 c4       	mov.b	r12,@(r0,r5)
  300808:	00 30       	.word 0x0030
  30080a:	91 00       	mov.w	30080e <_get+0x2>,r1	! 7ff4

0030080c <_get>:
  30080c:	2f e6       	mov.l	r14,@-r15
  30080e:	7f f4       	add	#-12,r15
  300810:	6e f3       	mov	r15,r14
  300812:	61 e3       	mov	r14,r1
  300814:	71 cc       	add	#-52,r1
  300816:	11 4f       	mov.l	r4,@(60,r1)
  300818:	61 e3       	mov	r14,r1
  30081a:	71 cc       	add	#-52,r1
  30081c:	11 5e       	mov.l	r5,@(56,r1)
  30081e:	61 e3       	mov	r14,r1
  300820:	71 cc       	add	#-52,r1
  300822:	11 6d       	mov.l	r6,@(52,r1)
  300824:	61 e3       	mov	r14,r1
  300826:	71 cc       	add	#-52,r1
  300828:	51 1f       	mov.l	@(60,r1),r1
  30082a:	53 12       	mov.l	@(8,r1),r3
  30082c:	61 e3       	mov	r14,r1
  30082e:	71 cc       	add	#-52,r1
  300830:	51 1e       	mov.l	@(56,r1),r1
  300832:	41 08       	shll2	r1
  300834:	31 3c       	add	r3,r1
  300836:	63 12       	mov.l	@r1,r3
  300838:	61 e3       	mov	r14,r1
  30083a:	71 cc       	add	#-52,r1
  30083c:	51 1d       	mov.l	@(52,r1),r1
  30083e:	41 08       	shll2	r1
  300840:	41 08       	shll2	r1
  300842:	31 3c       	add	r3,r1
  300844:	63 12       	mov.l	@r1,r3
  300846:	22 32       	mov.l	r3,@r2
  300848:	71 04       	add	#4,r1
  30084a:	63 12       	mov.l	@r1,r3
  30084c:	12 31       	mov.l	r3,@(4,r2)
  30084e:	71 04       	add	#4,r1
  300850:	63 12       	mov.l	@r1,r3
  300852:	12 32       	mov.l	r3,@(8,r2)
  300854:	71 04       	add	#4,r1
  300856:	63 12       	mov.l	@r1,r3
  300858:	12 33       	mov.l	r3,@(12,r2)
  30085a:	71 04       	add	#4,r1
  30085c:	60 23       	mov	r2,r0
  30085e:	7e 0c       	add	#12,r14
  300860:	6f e3       	mov	r14,r15
  300862:	6e f6       	mov.l	@r15+,r14
  300864:	00 0b       	rts	
  300866:	00 09       	nop	

00300868 <_set>:
  300868:	7f fc       	add	#-4,r15
  30086a:	2f e6       	mov.l	r14,@-r15
  30086c:	7f f4       	add	#-12,r15
  30086e:	6e f3       	mov	r15,r14
  300870:	61 e3       	mov	r14,r1
  300872:	71 cc       	add	#-52,r1
  300874:	11 4f       	mov.l	r4,@(60,r1)
  300876:	61 e3       	mov	r14,r1
  300878:	71 cc       	add	#-52,r1
  30087a:	11 5e       	mov.l	r5,@(56,r1)
  30087c:	61 e3       	mov	r14,r1
  30087e:	71 cc       	add	#-52,r1
  300880:	11 6d       	mov.l	r6,@(52,r1)
  300882:	1e 74       	mov.l	r7,@(16,r14)
  300884:	61 e3       	mov	r14,r1
  300886:	71 cc       	add	#-52,r1
  300888:	51 1f       	mov.l	@(60,r1),r1
  30088a:	61 12       	mov.l	@r1,r1
  30088c:	62 e3       	mov	r14,r2
  30088e:	72 cc       	add	#-52,r2
  300890:	52 2e       	mov.l	@(56,r2),r2
  300892:	32 13       	cmp/ge	r1,r2
  300894:	8b 02       	bf	30089c <_set+0x34>
  300896:	e1 00       	mov	#0,r1
  300898:	a0 2b       	bra	3008f2 <_set+0x8a>
  30089a:	00 09       	nop	
  30089c:	61 e3       	mov	r14,r1
  30089e:	71 cc       	add	#-52,r1
  3008a0:	51 1f       	mov.l	@(60,r1),r1
  3008a2:	51 11       	mov.l	@(4,r1),r1
  3008a4:	62 e3       	mov	r14,r2
  3008a6:	72 cc       	add	#-52,r2
  3008a8:	52 2d       	mov.l	@(52,r2),r2
  3008aa:	32 13       	cmp/ge	r1,r2
  3008ac:	8b 02       	bf	3008b4 <_set+0x4c>
  3008ae:	e1 00       	mov	#0,r1
  3008b0:	a0 1f       	bra	3008f2 <_set+0x8a>
  3008b2:	00 09       	nop	
  3008b4:	61 e3       	mov	r14,r1
  3008b6:	71 cc       	add	#-52,r1
  3008b8:	51 1f       	mov.l	@(60,r1),r1
  3008ba:	52 12       	mov.l	@(8,r1),r2
  3008bc:	61 e3       	mov	r14,r1
  3008be:	71 cc       	add	#-52,r1
  3008c0:	51 1e       	mov.l	@(56,r1),r1
  3008c2:	41 08       	shll2	r1
  3008c4:	31 2c       	add	r2,r1
  3008c6:	62 12       	mov.l	@r1,r2
  3008c8:	61 e3       	mov	r14,r1
  3008ca:	71 cc       	add	#-52,r1
  3008cc:	51 1d       	mov.l	@(52,r1),r1
  3008ce:	41 08       	shll2	r1
  3008d0:	41 08       	shll2	r1
  3008d2:	32 1c       	add	r1,r2
  3008d4:	61 e3       	mov	r14,r1
  3008d6:	71 10       	add	#16,r1
  3008d8:	63 12       	mov.l	@r1,r3
  3008da:	22 32       	mov.l	r3,@r2
  3008dc:	71 04       	add	#4,r1
  3008de:	63 12       	mov.l	@r1,r3
  3008e0:	12 31       	mov.l	r3,@(4,r2)
  3008e2:	71 04       	add	#4,r1
  3008e4:	63 12       	mov.l	@r1,r3
  3008e6:	12 32       	mov.l	r3,@(8,r2)
  3008e8:	71 04       	add	#4,r1
  3008ea:	63 12       	mov.l	@r1,r3
  3008ec:	12 33       	mov.l	r3,@(12,r2)
  3008ee:	71 04       	add	#4,r1
  3008f0:	e1 01       	mov	#1,r1
  3008f2:	60 13       	mov	r1,r0
  3008f4:	7e 0c       	add	#12,r14
  3008f6:	6f e3       	mov	r14,r15
  3008f8:	6e f6       	mov.l	@r15+,r14
  3008fa:	7f 04       	add	#4,r15
  3008fc:	00 0b       	rts	
  3008fe:	00 09       	nop	

00300900 <_print_mat>:
  300900:	2f 86       	mov.l	r8,@-r15
  300902:	2f e6       	mov.l	r14,@-r15
  300904:	4f 22       	sts.l	pr,@-r15
  300906:	7f dc       	add	#-36,r15
  300908:	6e f3       	mov	r15,r14
  30090a:	61 e3       	mov	r14,r1
  30090c:	71 e4       	add	#-28,r1
  30090e:	11 48       	mov.l	r4,@(32,r1)
  300910:	68 e3       	mov	r14,r8
  300912:	78 e4       	add	#-28,r8
  300914:	e4 1e       	mov	#30,r4
  300916:	d1 33       	mov.l	3009e4 <_print_mat+0xe4>,r1	! 309250 <_malloc>
  300918:	41 0b       	jsr	@r1
  30091a:	00 09       	nop	
  30091c:	61 03       	mov	r0,r1
  30091e:	18 1d       	mov.l	r1,@(52,r8)
  300920:	61 e3       	mov	r14,r1
  300922:	71 e4       	add	#-28,r1
  300924:	e2 00       	mov	#0,r2
  300926:	11 2f       	mov.l	r2,@(60,r1)
  300928:	a0 45       	bra	3009b6 <_print_mat+0xb6>
  30092a:	00 09       	nop	
  30092c:	61 e3       	mov	r14,r1
  30092e:	71 e4       	add	#-28,r1
  300930:	e2 00       	mov	#0,r2
  300932:	11 2e       	mov.l	r2,@(56,r1)
  300934:	a0 2a       	bra	30098c <_print_mat+0x8c>
  300936:	00 09       	nop	
  300938:	62 e3       	mov	r14,r2
  30093a:	72 08       	add	#8,r2
  30093c:	67 e3       	mov	r14,r7
  30093e:	77 e4       	add	#-28,r7
  300940:	63 e3       	mov	r14,r3
  300942:	73 e4       	add	#-28,r3
  300944:	61 e3       	mov	r14,r1
  300946:	71 e4       	add	#-28,r1
  300948:	56 7e       	mov.l	@(56,r7),r6
  30094a:	55 3f       	mov.l	@(60,r3),r5
  30094c:	54 18       	mov.l	@(32,r1),r4
  30094e:	d1 26       	mov.l	3009e8 <_print_mat+0xe8>,r1	! 30080c <_get>
  300950:	41 0b       	jsr	@r1
  300952:	00 09       	nop	
  300954:	61 e3       	mov	r14,r1
  300956:	71 08       	add	#8,r1
  300958:	62 e3       	mov	r14,r2
  30095a:	72 e4       	add	#-28,r2
  30095c:	52 2d       	mov.l	@(52,r2),r2
  30095e:	2f 22       	mov.l	r2,@r15
  300960:	64 12       	mov.l	@r1,r4
  300962:	55 11       	mov.l	@(4,r1),r5
  300964:	56 12       	mov.l	@(8,r1),r6
  300966:	57 13       	mov.l	@(12,r1),r7
  300968:	d1 20       	mov.l	3009ec <_print_mat+0xec>,r1	! 307798 <_BigM_str>
  30096a:	41 0b       	jsr	@r1
  30096c:	00 09       	nop	
  30096e:	61 e3       	mov	r14,r1
  300970:	71 e4       	add	#-28,r1
  300972:	d2 1f       	mov.l	3009f0 <_print_mat+0xf0>,r2	! 30b3f8
  300974:	55 1d       	mov.l	@(52,r1),r5
  300976:	64 23       	mov	r2,r4
  300978:	d1 1e       	mov.l	3009f4 <_print_mat+0xf4>,r1	! 3089c0 <_printf>
  30097a:	41 0b       	jsr	@r1
  30097c:	00 09       	nop	
  30097e:	61 e3       	mov	r14,r1
  300980:	71 e4       	add	#-28,r1
  300982:	62 e3       	mov	r14,r2
  300984:	72 e4       	add	#-28,r2
  300986:	52 2e       	mov.l	@(56,r2),r2
  300988:	72 01       	add	#1,r2
  30098a:	11 2e       	mov.l	r2,@(56,r1)
  30098c:	61 e3       	mov	r14,r1
  30098e:	71 e4       	add	#-28,r1
  300990:	51 18       	mov.l	@(32,r1),r1
  300992:	51 11       	mov.l	@(4,r1),r1
  300994:	62 e3       	mov	r14,r2
  300996:	72 e4       	add	#-28,r2
  300998:	52 2e       	mov.l	@(56,r2),r2
  30099a:	32 13       	cmp/ge	r1,r2
  30099c:	8b cc       	bf	300938 <_print_mat+0x38>
  30099e:	d1 16       	mov.l	3009f8 <_print_mat+0xf8>,r1	! 30b3fc
  3009a0:	64 13       	mov	r1,r4
  3009a2:	d1 14       	mov.l	3009f4 <_print_mat+0xf4>,r1	! 3089c0 <_printf>
  3009a4:	41 0b       	jsr	@r1
  3009a6:	00 09       	nop	
  3009a8:	61 e3       	mov	r14,r1
  3009aa:	71 e4       	add	#-28,r1
  3009ac:	62 e3       	mov	r14,r2
  3009ae:	72 e4       	add	#-28,r2
  3009b0:	52 2f       	mov.l	@(60,r2),r2
  3009b2:	72 01       	add	#1,r2
  3009b4:	11 2f       	mov.l	r2,@(60,r1)
  3009b6:	61 e3       	mov	r14,r1
  3009b8:	71 e4       	add	#-28,r1
  3009ba:	51 18       	mov.l	@(32,r1),r1
  3009bc:	61 12       	mov.l	@r1,r1
  3009be:	62 e3       	mov	r14,r2
  3009c0:	72 e4       	add	#-28,r2
  3009c2:	52 2f       	mov.l	@(60,r2),r2
  3009c4:	32 13       	cmp/ge	r1,r2
  3009c6:	8b b1       	bf	30092c <_print_mat+0x2c>
  3009c8:	61 e3       	mov	r14,r1
  3009ca:	71 e4       	add	#-28,r1
  3009cc:	54 1d       	mov.l	@(52,r1),r4
  3009ce:	d1 0b       	mov.l	3009fc <_print_mat+0xfc>,r1	! 309244 <_free>
  3009d0:	41 0b       	jsr	@r1
  3009d2:	00 09       	nop	
  3009d4:	00 09       	nop	
  3009d6:	7e 24       	add	#36,r14
  3009d8:	6f e3       	mov	r14,r15
  3009da:	4f 26       	lds.l	@r15+,pr
  3009dc:	6e f6       	mov.l	@r15+,r14
  3009de:	68 f6       	mov.l	@r15+,r8
  3009e0:	00 0b       	rts	
  3009e2:	00 09       	nop	
  3009e4:	00 30       	.word 0x0030
  3009e6:	92 50       	mov.w	300a8a <_isoptimal+0x8a>,r2	! 410b
  3009e8:	00 30       	.word 0x0030
  3009ea:	08 0c       	mov.b	@(r0,r0),r8
  3009ec:	00 30       	.word 0x0030
  3009ee:	77 98       	add	#-104,r7
  3009f0:	00 30       	.word 0x0030
  3009f2:	b3 f8       	bsr	3011e6 <_simplex+0x3a6>
  3009f4:	00 30       	.word 0x0030
  3009f6:	89 c0       	bt	30097a <_print_mat+0x7a>
  3009f8:	00 30       	.word 0x0030
  3009fa:	b3 fc       	bsr	3011f6 <_simplex+0x3b6>
  3009fc:	00 30       	.word 0x0030
  3009fe:	92 44       	mov.w	300a8a <_isoptimal+0x8a>,r2	! 410b

00300a00 <_isoptimal>:
  300a00:	2f 86       	mov.l	r8,@-r15
  300a02:	2f e6       	mov.l	r14,@-r15
  300a04:	4f 22       	sts.l	pr,@-r15
  300a06:	7f b8       	add	#-72,r15
  300a08:	6e f3       	mov	r15,r14
  300a0a:	61 e3       	mov	r14,r1
  300a0c:	71 08       	add	#8,r1
  300a0e:	11 42       	mov.l	r4,@(8,r1)
  300a10:	61 e3       	mov	r14,r1
  300a12:	71 08       	add	#8,r1
  300a14:	51 12       	mov.l	@(8,r1),r1
  300a16:	61 12       	mov.l	@r1,r1
  300a18:	63 13       	mov	r1,r3
  300a1a:	73 ff       	add	#-1,r3
  300a1c:	62 e3       	mov	r14,r2
  300a1e:	72 34       	add	#52,r2
  300a20:	61 e3       	mov	r14,r1
  300a22:	71 08       	add	#8,r1
  300a24:	e6 00       	mov	#0,r6
  300a26:	65 33       	mov	r3,r5
  300a28:	54 12       	mov.l	@(8,r1),r4
  300a2a:	d1 36       	mov.l	300b04 <_isoptimal+0x104>,r1	! 30080c <_get>
  300a2c:	41 0b       	jsr	@r1
  300a2e:	00 09       	nop	
  300a30:	61 e3       	mov	r14,r1
  300a32:	71 08       	add	#8,r1
  300a34:	e2 00       	mov	#0,r2
  300a36:	11 2f       	mov.l	r2,@(60,r1)
  300a38:	a0 43       	bra	300ac2 <_isoptimal+0xc2>
  300a3a:	00 09       	nop	
  300a3c:	61 e3       	mov	r14,r1
  300a3e:	71 08       	add	#8,r1
  300a40:	51 12       	mov.l	@(8,r1),r1
  300a42:	61 12       	mov.l	@r1,r1
  300a44:	67 13       	mov	r1,r7
  300a46:	77 ff       	add	#-1,r7
  300a48:	68 e3       	mov	r14,r8
  300a4a:	78 24       	add	#36,r8
  300a4c:	63 e3       	mov	r14,r3
  300a4e:	73 08       	add	#8,r3
  300a50:	61 e3       	mov	r14,r1
  300a52:	71 08       	add	#8,r1
  300a54:	62 e3       	mov	r14,r2
  300a56:	56 3f       	mov.l	@(60,r3),r6
  300a58:	65 73       	mov	r7,r5
  300a5a:	54 12       	mov.l	@(8,r1),r4
  300a5c:	d1 29       	mov.l	300b04 <_isoptimal+0x104>,r1	! 30080c <_get>
  300a5e:	41 0b       	jsr	@r1
  300a60:	00 09       	nop	
  300a62:	61 e3       	mov	r14,r1
  300a64:	62 12       	mov.l	@r1,r2
  300a66:	28 22       	mov.l	r2,@r8
  300a68:	71 04       	add	#4,r1
  300a6a:	62 12       	mov.l	@r1,r2
  300a6c:	18 21       	mov.l	r2,@(4,r8)
  300a6e:	71 04       	add	#4,r1
  300a70:	62 12       	mov.l	@r1,r2
  300a72:	18 22       	mov.l	r2,@(8,r8)
  300a74:	71 04       	add	#4,r1
  300a76:	62 12       	mov.l	@r1,r2
  300a78:	18 23       	mov.l	r2,@(12,r8)
  300a7a:	71 04       	add	#4,r1
  300a7c:	62 e3       	mov	r14,r2
  300a7e:	72 34       	add	#52,r2
  300a80:	61 e3       	mov	r14,r1
  300a82:	71 24       	add	#36,r1
  300a84:	65 23       	mov	r2,r5
  300a86:	64 13       	mov	r1,r4
  300a88:	d1 1f       	mov.l	300b08 <_isoptimal+0x108>,r1	! 307e68 <_BigM_lt>
  300a8a:	41 0b       	jsr	@r1
  300a8c:	00 09       	nop	
  300a8e:	61 03       	mov	r0,r1
  300a90:	21 18       	tst	r1,r1
  300a92:	89 0f       	bt	300ab4 <_isoptimal+0xb4>
  300a94:	62 e3       	mov	r14,r2
  300a96:	72 34       	add	#52,r2
  300a98:	61 e3       	mov	r14,r1
  300a9a:	71 24       	add	#36,r1
  300a9c:	63 12       	mov.l	@r1,r3
  300a9e:	22 32       	mov.l	r3,@r2
  300aa0:	71 04       	add	#4,r1
  300aa2:	63 12       	mov.l	@r1,r3
  300aa4:	12 31       	mov.l	r3,@(4,r2)
  300aa6:	71 04       	add	#4,r1
  300aa8:	63 12       	mov.l	@r1,r3
  300aaa:	12 32       	mov.l	r3,@(8,r2)
  300aac:	71 04       	add	#4,r1
  300aae:	63 12       	mov.l	@r1,r3
  300ab0:	12 33       	mov.l	r3,@(12,r2)
  300ab2:	71 04       	add	#4,r1
  300ab4:	61 e3       	mov	r14,r1
  300ab6:	71 08       	add	#8,r1
  300ab8:	62 e3       	mov	r14,r2
  300aba:	72 08       	add	#8,r2
  300abc:	52 2f       	mov.l	@(60,r2),r2
  300abe:	72 01       	add	#1,r2
  300ac0:	11 2f       	mov.l	r2,@(60,r1)
  300ac2:	61 e3       	mov	r14,r1
  300ac4:	71 08       	add	#8,r1
  300ac6:	51 12       	mov.l	@(8,r1),r1
  300ac8:	51 11       	mov.l	@(4,r1),r1
  300aca:	62 e3       	mov	r14,r2
  300acc:	72 08       	add	#8,r2
  300ace:	52 2f       	mov.l	@(60,r2),r2
  300ad0:	32 13       	cmp/ge	r1,r2
  300ad2:	8b b3       	bf	300a3c <_isoptimal+0x3c>
  300ad4:	61 e3       	mov	r14,r1
  300ad6:	71 14       	add	#20,r1
  300ad8:	62 13       	mov	r1,r2
  300ada:	d1 0c       	mov.l	300b0c <_isoptimal+0x10c>,r1	! 3076fe <_BigM_zero>
  300adc:	41 0b       	jsr	@r1
  300ade:	00 09       	nop	
  300ae0:	62 e3       	mov	r14,r2
  300ae2:	72 14       	add	#20,r2
  300ae4:	61 e3       	mov	r14,r1
  300ae6:	71 34       	add	#52,r1
  300ae8:	65 23       	mov	r2,r5
  300aea:	64 13       	mov	r1,r4
  300aec:	d1 08       	mov.l	300b10 <_isoptimal+0x110>,r1	! 308028 <_BigM_ge>
  300aee:	41 0b       	jsr	@r1
  300af0:	00 09       	nop	
  300af2:	61 03       	mov	r0,r1
  300af4:	60 13       	mov	r1,r0
  300af6:	7e 48       	add	#72,r14
  300af8:	6f e3       	mov	r14,r15
  300afa:	4f 26       	lds.l	@r15+,pr
  300afc:	6e f6       	mov.l	@r15+,r14
  300afe:	68 f6       	mov.l	@r15+,r8
  300b00:	00 0b       	rts	
  300b02:	00 09       	nop	
  300b04:	00 30       	.word 0x0030
  300b06:	08 0c       	mov.b	@(r0,r0),r8
  300b08:	00 30       	.word 0x0030
  300b0a:	7e 68       	add	#104,r14
  300b0c:	00 30       	.word 0x0030
  300b0e:	76 fe       	add	#-2,r6
  300b10:	00 30       	.word 0x0030
  300b12:	80 28       	mov.b	r0,@(8,r2)

00300b14 <_pivot_column>:
  300b14:	2f 86       	mov.l	r8,@-r15
  300b16:	2f e6       	mov.l	r14,@-r15
  300b18:	4f 22       	sts.l	pr,@-r15
  300b1a:	7f c4       	add	#-60,r15
  300b1c:	6e f3       	mov	r15,r14
  300b1e:	61 e3       	mov	r14,r1
  300b20:	71 fc       	add	#-4,r1
  300b22:	11 45       	mov.l	r4,@(20,r1)
  300b24:	61 e3       	mov	r14,r1
  300b26:	71 fc       	add	#-4,r1
  300b28:	51 15       	mov.l	@(20,r1),r1
  300b2a:	61 12       	mov.l	@r1,r1
  300b2c:	63 13       	mov	r1,r3
  300b2e:	73 ff       	add	#-1,r3
  300b30:	62 e3       	mov	r14,r2
  300b32:	72 24       	add	#36,r2
  300b34:	61 e3       	mov	r14,r1
  300b36:	71 fc       	add	#-4,r1
  300b38:	e6 00       	mov	#0,r6
  300b3a:	65 33       	mov	r3,r5
  300b3c:	54 15       	mov.l	@(20,r1),r4
  300b3e:	d1 35       	mov.l	300c14 <_pivot_column+0x100>,r1	! 30080c <_get>
  300b40:	41 0b       	jsr	@r1
  300b42:	00 09       	nop	
  300b44:	61 e3       	mov	r14,r1
  300b46:	71 fc       	add	#-4,r1
  300b48:	e2 00       	mov	#0,r2
  300b4a:	11 2f       	mov.l	r2,@(60,r1)
  300b4c:	61 e3       	mov	r14,r1
  300b4e:	71 fc       	add	#-4,r1
  300b50:	e2 00       	mov	#0,r2
  300b52:	11 2e       	mov.l	r2,@(56,r1)
  300b54:	a0 49       	bra	300bea <_pivot_column+0xd6>
  300b56:	00 09       	nop	
  300b58:	61 e3       	mov	r14,r1
  300b5a:	71 fc       	add	#-4,r1
  300b5c:	51 15       	mov.l	@(20,r1),r1
  300b5e:	61 12       	mov.l	@r1,r1
  300b60:	67 13       	mov	r1,r7
  300b62:	77 ff       	add	#-1,r7
  300b64:	68 e3       	mov	r14,r8
  300b66:	78 14       	add	#20,r8
  300b68:	63 e3       	mov	r14,r3
  300b6a:	73 fc       	add	#-4,r3
  300b6c:	61 e3       	mov	r14,r1
  300b6e:	71 fc       	add	#-4,r1
  300b70:	62 e3       	mov	r14,r2
  300b72:	56 3e       	mov.l	@(56,r3),r6
  300b74:	65 73       	mov	r7,r5
  300b76:	54 15       	mov.l	@(20,r1),r4
  300b78:	d1 26       	mov.l	300c14 <_pivot_column+0x100>,r1	! 30080c <_get>
  300b7a:	41 0b       	jsr	@r1
  300b7c:	00 09       	nop	
  300b7e:	61 e3       	mov	r14,r1
  300b80:	62 12       	mov.l	@r1,r2
  300b82:	28 22       	mov.l	r2,@r8
  300b84:	71 04       	add	#4,r1
  300b86:	62 12       	mov.l	@r1,r2
  300b88:	18 21       	mov.l	r2,@(4,r8)
  300b8a:	71 04       	add	#4,r1
  300b8c:	62 12       	mov.l	@r1,r2
  300b8e:	18 22       	mov.l	r2,@(8,r8)
  300b90:	71 04       	add	#4,r1
  300b92:	62 12       	mov.l	@r1,r2
  300b94:	18 23       	mov.l	r2,@(12,r8)
  300b96:	71 04       	add	#4,r1
  300b98:	62 e3       	mov	r14,r2
  300b9a:	72 24       	add	#36,r2
  300b9c:	61 e3       	mov	r14,r1
  300b9e:	71 14       	add	#20,r1
  300ba0:	65 23       	mov	r2,r5
  300ba2:	64 13       	mov	r1,r4
  300ba4:	d1 1c       	mov.l	300c18 <_pivot_column+0x104>,r1	! 307e68 <_BigM_lt>
  300ba6:	41 0b       	jsr	@r1
  300ba8:	00 09       	nop	
  300baa:	61 03       	mov	r0,r1
  300bac:	21 18       	tst	r1,r1
  300bae:	89 15       	bt	300bdc <_pivot_column+0xc8>
  300bb0:	62 e3       	mov	r14,r2
  300bb2:	72 24       	add	#36,r2
  300bb4:	61 e3       	mov	r14,r1
  300bb6:	71 14       	add	#20,r1
  300bb8:	63 12       	mov.l	@r1,r3
  300bba:	22 32       	mov.l	r3,@r2
  300bbc:	71 04       	add	#4,r1
  300bbe:	63 12       	mov.l	@r1,r3
  300bc0:	12 31       	mov.l	r3,@(4,r2)
  300bc2:	71 04       	add	#4,r1
  300bc4:	63 12       	mov.l	@r1,r3
  300bc6:	12 32       	mov.l	r3,@(8,r2)
  300bc8:	71 04       	add	#4,r1
  300bca:	63 12       	mov.l	@r1,r3
  300bcc:	12 33       	mov.l	r3,@(12,r2)
  300bce:	71 04       	add	#4,r1
  300bd0:	61 e3       	mov	r14,r1
  300bd2:	71 fc       	add	#-4,r1
  300bd4:	62 e3       	mov	r14,r2
  300bd6:	72 fc       	add	#-4,r2
  300bd8:	52 2e       	mov.l	@(56,r2),r2
  300bda:	11 2f       	mov.l	r2,@(60,r1)
  300bdc:	61 e3       	mov	r14,r1
  300bde:	71 fc       	add	#-4,r1
  300be0:	62 e3       	mov	r14,r2
  300be2:	72 fc       	add	#-4,r2
  300be4:	52 2e       	mov.l	@(56,r2),r2
  300be6:	72 01       	add	#1,r2
  300be8:	11 2e       	mov.l	r2,@(56,r1)
  300bea:	61 e3       	mov	r14,r1
  300bec:	71 fc       	add	#-4,r1
  300bee:	51 15       	mov.l	@(20,r1),r1
  300bf0:	51 11       	mov.l	@(4,r1),r1
  300bf2:	71 ff       	add	#-1,r1
  300bf4:	62 e3       	mov	r14,r2
  300bf6:	72 fc       	add	#-4,r2
  300bf8:	52 2e       	mov.l	@(56,r2),r2
  300bfa:	32 13       	cmp/ge	r1,r2
  300bfc:	8b ac       	bf	300b58 <_pivot_column+0x44>
  300bfe:	61 e3       	mov	r14,r1
  300c00:	71 fc       	add	#-4,r1
  300c02:	51 1f       	mov.l	@(60,r1),r1
  300c04:	60 13       	mov	r1,r0
  300c06:	7e 3c       	add	#60,r14
  300c08:	6f e3       	mov	r14,r15
  300c0a:	4f 26       	lds.l	@r15+,pr
  300c0c:	6e f6       	mov.l	@r15+,r14
  300c0e:	68 f6       	mov.l	@r15+,r8
  300c10:	00 0b       	rts	
  300c12:	00 09       	nop	
  300c14:	00 30       	.word 0x0030
  300c16:	08 0c       	mov.b	@(r0,r0),r8
  300c18:	00 30       	.word 0x0030
  300c1a:	7e 68       	add	#104,r14

00300c1c <_pivot_row>:
  300c1c:	2f 86       	mov.l	r8,@-r15
  300c1e:	2f 96       	mov.l	r9,@-r15
  300c20:	2f e6       	mov.l	r14,@-r15
  300c22:	4f 22       	sts.l	pr,@-r15
  300c24:	7f b8       	add	#-72,r15
  300c26:	7f b8       	add	#-72,r15
  300c28:	6e f3       	mov	r15,r14
  300c2a:	61 e3       	mov	r14,r1
  300c2c:	71 10       	add	#16,r1
  300c2e:	11 45       	mov.l	r4,@(20,r1)
  300c30:	61 e3       	mov	r14,r1
  300c32:	71 10       	add	#16,r1
  300c34:	11 54       	mov.l	r5,@(16,r1)
  300c36:	d1 79       	mov.l	300e1c <_pivot_row+0x200>,r1	! 308344 <_fraction_zero>
  300c38:	41 0b       	jsr	@r1
  300c3a:	00 09       	nop	
  300c3c:	68 03       	mov	r0,r8
  300c3e:	69 13       	mov	r1,r9
  300c40:	e5 01       	mov	#1,r5
  300c42:	e4 01       	mov	#1,r4
  300c44:	d1 76       	mov.l	300e20 <_pivot_row+0x204>,r1	! 3081fc <_new_fraction>
  300c46:	41 0b       	jsr	@r1
  300c48:	00 09       	nop	
  300c4a:	66 03       	mov	r0,r6
  300c4c:	67 13       	mov	r1,r7
  300c4e:	61 e3       	mov	r14,r1
  300c50:	71 58       	add	#88,r1
  300c52:	62 13       	mov	r1,r2
  300c54:	64 83       	mov	r8,r4
  300c56:	65 93       	mov	r9,r5
  300c58:	d1 72       	mov.l	300e24 <_pivot_row+0x208>,r1	! 3076a0 <_new_BigM>
  300c5a:	41 0b       	jsr	@r1
  300c5c:	00 09       	nop	
  300c5e:	62 e3       	mov	r14,r2
  300c60:	72 48       	add	#72,r2
  300c62:	61 e3       	mov	r14,r1
  300c64:	71 58       	add	#88,r1
  300c66:	63 12       	mov.l	@r1,r3
  300c68:	22 32       	mov.l	r3,@r2
  300c6a:	71 04       	add	#4,r1
  300c6c:	63 12       	mov.l	@r1,r3
  300c6e:	12 31       	mov.l	r3,@(4,r2)
  300c70:	71 04       	add	#4,r1
  300c72:	63 12       	mov.l	@r1,r3
  300c74:	12 32       	mov.l	r3,@(8,r2)
  300c76:	71 04       	add	#4,r1
  300c78:	63 12       	mov.l	@r1,r3
  300c7a:	12 33       	mov.l	r3,@(12,r2)
  300c7c:	71 04       	add	#4,r1
  300c7e:	61 e3       	mov	r14,r1
  300c80:	71 50       	add	#80,r1
  300c82:	e2 00       	mov	#0,r2
  300c84:	11 2f       	mov.l	r2,@(60,r1)
  300c86:	61 e3       	mov	r14,r1
  300c88:	71 28       	add	#40,r1
  300c8a:	62 13       	mov	r1,r2
  300c8c:	d1 66       	mov.l	300e28 <_pivot_row+0x20c>,r1	! 3076fe <_BigM_zero>
  300c8e:	41 0b       	jsr	@r1
  300c90:	00 09       	nop	
  300c92:	61 e3       	mov	r14,r1
  300c94:	71 50       	add	#80,r1
  300c96:	e2 00       	mov	#0,r2
  300c98:	11 2e       	mov.l	r2,@(56,r1)
  300c9a:	a0 a6       	bra	300dea <_pivot_row+0x1ce>
  300c9c:	00 09       	nop	
  300c9e:	61 e3       	mov	r14,r1
  300ca0:	71 10       	add	#16,r1
  300ca2:	51 14       	mov.l	@(16,r1),r1
  300ca4:	67 12       	mov.l	@r1,r7
  300ca6:	62 e3       	mov	r14,r2
  300ca8:	72 38       	add	#56,r2
  300caa:	63 e3       	mov	r14,r3
  300cac:	73 50       	add	#80,r3
  300cae:	61 e3       	mov	r14,r1
  300cb0:	71 10       	add	#16,r1
  300cb2:	66 73       	mov	r7,r6
  300cb4:	55 3e       	mov.l	@(56,r3),r5
  300cb6:	54 15       	mov.l	@(20,r1),r4
  300cb8:	d1 5c       	mov.l	300e2c <_pivot_row+0x210>,r1	! 30080c <_get>
  300cba:	41 0b       	jsr	@r1
  300cbc:	00 09       	nop	
  300cbe:	61 e3       	mov	r14,r1
  300cc0:	71 68       	add	#104,r1
  300cc2:	62 13       	mov	r1,r2
  300cc4:	d1 58       	mov.l	300e28 <_pivot_row+0x20c>,r1	! 3076fe <_BigM_zero>
  300cc6:	41 0b       	jsr	@r1
  300cc8:	00 09       	nop	
  300cca:	62 e3       	mov	r14,r2
  300ccc:	72 38       	add	#56,r2
  300cce:	61 e3       	mov	r14,r1
  300cd0:	71 68       	add	#104,r1
  300cd2:	63 12       	mov.l	@r1,r3
  300cd4:	2f 32       	mov.l	r3,@r15
  300cd6:	71 04       	add	#4,r1
  300cd8:	63 12       	mov.l	@r1,r3
  300cda:	1f 31       	mov.l	r3,@(4,r15)
  300cdc:	71 04       	add	#4,r1
  300cde:	63 12       	mov.l	@r1,r3
  300ce0:	1f 32       	mov.l	r3,@(8,r15)
  300ce2:	71 04       	add	#4,r1
  300ce4:	63 12       	mov.l	@r1,r3
  300ce6:	1f 33       	mov.l	r3,@(12,r15)
  300ce8:	71 04       	add	#4,r1
  300cea:	64 22       	mov.l	@r2,r4
  300cec:	55 21       	mov.l	@(4,r2),r5
  300cee:	56 22       	mov.l	@(8,r2),r6
  300cf0:	57 23       	mov.l	@(12,r2),r7
  300cf2:	d1 4f       	mov.l	300e30 <_pivot_row+0x214>,r1	! 307da8 <_BigM_eq>
  300cf4:	41 0b       	jsr	@r1
  300cf6:	00 09       	nop	
  300cf8:	61 03       	mov	r0,r1
  300cfa:	21 18       	tst	r1,r1
  300cfc:	89 01       	bt	300d02 <_pivot_row+0xe6>
  300cfe:	a0 6c       	bra	300dda <_pivot_row+0x1be>
  300d00:	00 09       	nop	
  300d02:	61 e3       	mov	r14,r1
  300d04:	71 10       	add	#16,r1
  300d06:	51 15       	mov.l	@(20,r1),r1
  300d08:	51 11       	mov.l	@(4,r1),r1
  300d0a:	67 13       	mov	r1,r7
  300d0c:	77 ff       	add	#-1,r7
  300d0e:	62 e3       	mov	r14,r2
  300d10:	72 78       	add	#120,r2
  300d12:	63 e3       	mov	r14,r3
  300d14:	73 50       	add	#80,r3
  300d16:	61 e3       	mov	r14,r1
  300d18:	71 10       	add	#16,r1
  300d1a:	66 73       	mov	r7,r6
  300d1c:	55 3e       	mov.l	@(56,r3),r5
  300d1e:	54 15       	mov.l	@(20,r1),r4
  300d20:	d1 42       	mov.l	300e2c <_pivot_row+0x210>,r1	! 30080c <_get>
  300d22:	41 0b       	jsr	@r1
  300d24:	00 09       	nop	
  300d26:	68 e3       	mov	r14,r8
  300d28:	78 58       	add	#88,r8
  300d2a:	63 e3       	mov	r14,r3
  300d2c:	73 78       	add	#120,r3
  300d2e:	61 e3       	mov	r14,r1
  300d30:	71 38       	add	#56,r1
  300d32:	62 12       	mov.l	@r1,r2
  300d34:	2f 22       	mov.l	r2,@r15
  300d36:	71 04       	add	#4,r1
  300d38:	62 12       	mov.l	@r1,r2
  300d3a:	1f 21       	mov.l	r2,@(4,r15)
  300d3c:	71 04       	add	#4,r1
  300d3e:	62 12       	mov.l	@r1,r2
  300d40:	1f 22       	mov.l	r2,@(8,r15)
  300d42:	71 04       	add	#4,r1
  300d44:	62 12       	mov.l	@r1,r2
  300d46:	1f 23       	mov.l	r2,@(12,r15)
  300d48:	71 04       	add	#4,r1
  300d4a:	61 e3       	mov	r14,r1
  300d4c:	71 10       	add	#16,r1
  300d4e:	62 13       	mov	r1,r2
  300d50:	64 32       	mov.l	@r3,r4
  300d52:	55 31       	mov.l	@(4,r3),r5
  300d54:	56 32       	mov.l	@(8,r3),r6
  300d56:	57 33       	mov.l	@(12,r3),r7
  300d58:	d1 36       	mov.l	300e34 <_pivot_row+0x218>,r1	! 307c18 <_div_BigM>
  300d5a:	41 0b       	jsr	@r1
  300d5c:	00 09       	nop	
  300d5e:	61 e3       	mov	r14,r1
  300d60:	71 10       	add	#16,r1
  300d62:	62 12       	mov.l	@r1,r2
  300d64:	28 22       	mov.l	r2,@r8
  300d66:	71 04       	add	#4,r1
  300d68:	62 12       	mov.l	@r1,r2
  300d6a:	18 21       	mov.l	r2,@(4,r8)
  300d6c:	71 04       	add	#4,r1
  300d6e:	62 12       	mov.l	@r1,r2
  300d70:	18 22       	mov.l	r2,@(8,r8)
  300d72:	71 04       	add	#4,r1
  300d74:	62 12       	mov.l	@r1,r2
  300d76:	18 23       	mov.l	r2,@(12,r8)
  300d78:	71 04       	add	#4,r1
  300d7a:	62 e3       	mov	r14,r2
  300d7c:	72 28       	add	#40,r2
  300d7e:	61 e3       	mov	r14,r1
  300d80:	71 58       	add	#88,r1
  300d82:	65 23       	mov	r2,r5
  300d84:	64 13       	mov	r1,r4
  300d86:	d1 2c       	mov.l	300e38 <_pivot_row+0x21c>,r1	! 308028 <_BigM_ge>
  300d88:	41 0b       	jsr	@r1
  300d8a:	00 09       	nop	
  300d8c:	61 03       	mov	r0,r1
  300d8e:	21 18       	tst	r1,r1
  300d90:	89 24       	bt	300ddc <_pivot_row+0x1c0>
  300d92:	62 e3       	mov	r14,r2
  300d94:	72 48       	add	#72,r2
  300d96:	61 e3       	mov	r14,r1
  300d98:	71 58       	add	#88,r1
  300d9a:	65 23       	mov	r2,r5
  300d9c:	64 13       	mov	r1,r4
  300d9e:	d1 27       	mov.l	300e3c <_pivot_row+0x220>,r1	! 307e68 <_BigM_lt>
  300da0:	41 0b       	jsr	@r1
  300da2:	00 09       	nop	
  300da4:	61 03       	mov	r0,r1
  300da6:	21 18       	tst	r1,r1
  300da8:	89 18       	bt	300ddc <_pivot_row+0x1c0>
  300daa:	62 e3       	mov	r14,r2
  300dac:	72 48       	add	#72,r2
  300dae:	61 e3       	mov	r14,r1
  300db0:	71 58       	add	#88,r1
  300db2:	63 12       	mov.l	@r1,r3
  300db4:	22 32       	mov.l	r3,@r2
  300db6:	71 04       	add	#4,r1
  300db8:	63 12       	mov.l	@r1,r3
  300dba:	12 31       	mov.l	r3,@(4,r2)
  300dbc:	71 04       	add	#4,r1
  300dbe:	63 12       	mov.l	@r1,r3
  300dc0:	12 32       	mov.l	r3,@(8,r2)
  300dc2:	71 04       	add	#4,r1
  300dc4:	63 12       	mov.l	@r1,r3
  300dc6:	12 33       	mov.l	r3,@(12,r2)
  300dc8:	71 04       	add	#4,r1
  300dca:	61 e3       	mov	r14,r1
  300dcc:	71 50       	add	#80,r1
  300dce:	62 e3       	mov	r14,r2
  300dd0:	72 50       	add	#80,r2
  300dd2:	52 2e       	mov.l	@(56,r2),r2
  300dd4:	11 2f       	mov.l	r2,@(60,r1)
  300dd6:	a0 01       	bra	300ddc <_pivot_row+0x1c0>
  300dd8:	00 09       	nop	
  300dda:	00 09       	nop	
  300ddc:	61 e3       	mov	r14,r1
  300dde:	71 50       	add	#80,r1
  300de0:	62 e3       	mov	r14,r2
  300de2:	72 50       	add	#80,r2
  300de4:	52 2e       	mov.l	@(56,r2),r2
  300de6:	72 01       	add	#1,r2
  300de8:	11 2e       	mov.l	r2,@(56,r1)
  300dea:	61 e3       	mov	r14,r1
  300dec:	71 10       	add	#16,r1
  300dee:	51 15       	mov.l	@(20,r1),r1
  300df0:	61 12       	mov.l	@r1,r1
  300df2:	71 ff       	add	#-1,r1
  300df4:	62 e3       	mov	r14,r2
  300df6:	72 50       	add	#80,r2
  300df8:	52 2e       	mov.l	@(56,r2),r2
  300dfa:	32 13       	cmp/ge	r1,r2
  300dfc:	89 01       	bt	300e02 <_pivot_row+0x1e6>
  300dfe:	af 4e       	bra	300c9e <_pivot_row+0x82>
  300e00:	00 09       	nop	
  300e02:	61 e3       	mov	r14,r1
  300e04:	71 50       	add	#80,r1
  300e06:	51 1f       	mov.l	@(60,r1),r1
  300e08:	60 13       	mov	r1,r0
  300e0a:	7e 48       	add	#72,r14
  300e0c:	7e 48       	add	#72,r14
  300e0e:	6f e3       	mov	r14,r15
  300e10:	4f 26       	lds.l	@r15+,pr
  300e12:	6e f6       	mov.l	@r15+,r14
  300e14:	69 f6       	mov.l	@r15+,r9
  300e16:	68 f6       	mov.l	@r15+,r8
  300e18:	00 0b       	rts	
  300e1a:	00 09       	nop	
  300e1c:	00 30       	.word 0x0030
  300e1e:	83 44       	.word 0x8344
  300e20:	00 30       	.word 0x0030
  300e22:	81 fc       	mov.w	r0,@(24,r15)
  300e24:	00 30       	.word 0x0030
  300e26:	76 a0       	add	#-96,r6
  300e28:	00 30       	.word 0x0030
  300e2a:	76 fe       	add	#-2,r6
  300e2c:	00 30       	.word 0x0030
  300e2e:	08 0c       	mov.b	@(r0,r0),r8
  300e30:	00 30       	.word 0x0030
  300e32:	7d a8       	add	#-88,r13
  300e34:	00 30       	.word 0x0030
  300e36:	7c 18       	add	#24,r12
  300e38:	00 30       	.word 0x0030
  300e3a:	80 28       	mov.b	r0,@(8,r2)
  300e3c:	00 30       	.word 0x0030
  300e3e:	7e 68       	add	#104,r14

00300e40 <_simplex>:
  300e40:	2f 86       	mov.l	r8,@-r15
  300e42:	2f 96       	mov.l	r9,@-r15
  300e44:	2f a6       	mov.l	r10,@-r15
  300e46:	2f b6       	mov.l	r11,@-r15
  300e48:	2f e6       	mov.l	r14,@-r15
  300e4a:	4f 22       	sts.l	pr,@-r15
  300e4c:	7f 84       	add	#-124,r15
  300e4e:	7f 84       	add	#-124,r15
  300e50:	6e f3       	mov	r15,r14
  300e52:	68 23       	mov	r2,r8
  300e54:	61 e3       	mov	r14,r1
  300e56:	71 14       	add	#20,r1
  300e58:	21 42       	mov.l	r4,@r1
  300e5a:	11 51       	mov.l	r5,@(4,r1)
  300e5c:	11 62       	mov.l	r6,@(8,r1)
  300e5e:	61 e3       	mov	r14,r1
  300e60:	71 f8       	add	#-8,r1
  300e62:	11 76       	mov.l	r7,@(24,r1)
  300e64:	a2 1e       	bra	3012a4 <_simplex+0x464>
  300e66:	00 09       	nop	
  300e68:	61 e3       	mov	r14,r1
  300e6a:	71 14       	add	#20,r1
  300e6c:	64 13       	mov	r1,r4
  300e6e:	d1 15       	mov.l	300ec4 <_simplex+0x84>,r1	! 300b14 <_pivot_column>
  300e70:	41 0b       	jsr	@r1
  300e72:	00 09       	nop	
  300e74:	61 03       	mov	r0,r1
  300e76:	62 e3       	mov	r14,r2
  300e78:	72 38       	add	#56,r2
  300e7a:	12 1e       	mov.l	r1,@(56,r2)
  300e7c:	99 20       	mov.w	300ec0 <_simplex+0x80>,r9	! b8
  300e7e:	39 ec       	add	r14,r9
  300e80:	62 e3       	mov	r14,r2
  300e82:	72 70       	add	#112,r2
  300e84:	61 e3       	mov	r14,r1
  300e86:	71 14       	add	#20,r1
  300e88:	65 23       	mov	r2,r5
  300e8a:	64 13       	mov	r1,r4
  300e8c:	d1 0e       	mov.l	300ec8 <_simplex+0x88>,r1	! 300c1c <_pivot_row>
  300e8e:	41 0b       	jsr	@r1
  300e90:	00 09       	nop	
  300e92:	61 03       	mov	r0,r1
  300e94:	19 1c       	mov.l	r1,@(48,r9)
  300e96:	61 e3       	mov	r14,r1
  300e98:	71 38       	add	#56,r1
  300e9a:	57 1e       	mov.l	@(56,r1),r7
  300e9c:	62 e3       	mov	r14,r2
  300e9e:	72 60       	add	#96,r2
  300ea0:	91 0e       	mov.w	300ec0 <_simplex+0x80>,r1	! b8
  300ea2:	31 ec       	add	r14,r1
  300ea4:	63 e3       	mov	r14,r3
  300ea6:	73 14       	add	#20,r3
  300ea8:	66 73       	mov	r7,r6
  300eaa:	55 1c       	mov.l	@(48,r1),r5
  300eac:	64 33       	mov	r3,r4
  300eae:	d1 07       	mov.l	300ecc <_simplex+0x8c>,r1	! 30080c <_get>
  300eb0:	41 0b       	jsr	@r1
  300eb2:	00 09       	nop	
  300eb4:	91 04       	mov.w	300ec0 <_simplex+0x80>,r1	! b8
  300eb6:	31 ec       	add	r14,r1
  300eb8:	e2 00       	mov	#0,r2
  300eba:	11 2f       	mov.l	r2,@(60,r1)
  300ebc:	a0 50       	bra	300f60 <_simplex+0x120>
  300ebe:	00 09       	nop	
  300ec0:	00 b8       	.word 0x00b8
  300ec2:	00 09       	nop	
  300ec4:	00 30       	.word 0x0030
  300ec6:	0b 14       	mov.b	r1,@(r0,r11)
  300ec8:	00 30       	.word 0x0030
  300eca:	0c 1c       	mov.b	@(r0,r1),r12
  300ecc:	00 30       	.word 0x0030
  300ece:	08 0c       	mov.b	@(r0,r0),r8
  300ed0:	62 e3       	mov	r14,r2
  300ed2:	72 50       	add	#80,r2
  300ed4:	93 c5       	mov.w	301062 <_simplex+0x222>,r3	! b8
  300ed6:	33 ec       	add	r14,r3
  300ed8:	91 c3       	mov.w	301062 <_simplex+0x222>,r1	! b8
  300eda:	31 ec       	add	r14,r1
  300edc:	67 e3       	mov	r14,r7
  300ede:	77 14       	add	#20,r7
  300ee0:	56 3f       	mov.l	@(60,r3),r6
  300ee2:	55 1c       	mov.l	@(48,r1),r5
  300ee4:	64 73       	mov	r7,r4
  300ee6:	d1 61       	mov.l	30106c <_simplex+0x22c>,r1	! 30080c <_get>
  300ee8:	41 0b       	jsr	@r1
  300eea:	00 09       	nop	
  300eec:	67 e3       	mov	r14,r7
  300eee:	77 74       	add	#116,r7
  300ef0:	63 e3       	mov	r14,r3
  300ef2:	73 50       	add	#80,r3
  300ef4:	61 e3       	mov	r14,r1
  300ef6:	71 60       	add	#96,r1
  300ef8:	62 12       	mov.l	@r1,r2
  300efa:	2f 22       	mov.l	r2,@r15
  300efc:	71 04       	add	#4,r1
  300efe:	62 12       	mov.l	@r1,r2
  300f00:	1f 21       	mov.l	r2,@(4,r15)
  300f02:	71 04       	add	#4,r1
  300f04:	62 12       	mov.l	@r1,r2
  300f06:	1f 22       	mov.l	r2,@(8,r15)
  300f08:	71 04       	add	#4,r1
  300f0a:	62 12       	mov.l	@r1,r2
  300f0c:	1f 23       	mov.l	r2,@(12,r15)
  300f0e:	71 04       	add	#4,r1
  300f10:	62 73       	mov	r7,r2
  300f12:	64 32       	mov.l	@r3,r4
  300f14:	55 31       	mov.l	@(4,r3),r5
  300f16:	56 32       	mov.l	@(8,r3),r6
  300f18:	57 33       	mov.l	@(12,r3),r7
  300f1a:	d1 55       	mov.l	301070 <_simplex+0x230>,r1	! 307c18 <_div_BigM>
  300f1c:	41 0b       	jsr	@r1
  300f1e:	00 09       	nop	
  300f20:	62 e3       	mov	r14,r2
  300f22:	72 74       	add	#116,r2
  300f24:	96 9d       	mov.w	301062 <_simplex+0x222>,r6	! b8
  300f26:	36 ec       	add	r14,r6
  300f28:	93 9b       	mov.w	301062 <_simplex+0x222>,r3	! b8
  300f2a:	33 ec       	add	r14,r3
  300f2c:	64 e3       	mov	r14,r4
  300f2e:	74 14       	add	#20,r4
  300f30:	61 23       	mov	r2,r1
  300f32:	71 04       	add	#4,r1
  300f34:	67 12       	mov.l	@r1,r7
  300f36:	2f 72       	mov.l	r7,@r15
  300f38:	71 04       	add	#4,r1
  300f3a:	67 12       	mov.l	@r1,r7
  300f3c:	1f 71       	mov.l	r7,@(4,r15)
  300f3e:	71 04       	add	#4,r1
  300f40:	67 12       	mov.l	@r1,r7
  300f42:	1f 72       	mov.l	r7,@(8,r15)
  300f44:	71 04       	add	#4,r1
  300f46:	67 22       	mov.l	@r2,r7
  300f48:	56 6f       	mov.l	@(60,r6),r6
  300f4a:	55 3c       	mov.l	@(48,r3),r5
  300f4c:	d1 49       	mov.l	301074 <_simplex+0x234>,r1	! 300868 <_set>
  300f4e:	41 0b       	jsr	@r1
  300f50:	00 09       	nop	
  300f52:	91 86       	mov.w	301062 <_simplex+0x222>,r1	! b8
  300f54:	31 ec       	add	r14,r1
  300f56:	92 84       	mov.w	301062 <_simplex+0x222>,r2	! b8
  300f58:	32 ec       	add	r14,r2
  300f5a:	52 2f       	mov.l	@(60,r2),r2
  300f5c:	72 01       	add	#1,r2
  300f5e:	11 2f       	mov.l	r2,@(60,r1)
  300f60:	61 e3       	mov	r14,r1
  300f62:	71 14       	add	#20,r1
  300f64:	51 11       	mov.l	@(4,r1),r1
  300f66:	92 7c       	mov.w	301062 <_simplex+0x222>,r2	! b8
  300f68:	32 ec       	add	r14,r2
  300f6a:	52 2f       	mov.l	@(60,r2),r2
  300f6c:	32 13       	cmp/ge	r1,r2
  300f6e:	8b af       	bf	300ed0 <_simplex+0x90>
  300f70:	61 e3       	mov	r14,r1
  300f72:	71 38       	add	#56,r1
  300f74:	57 1e       	mov.l	@(56,r1),r7
  300f76:	92 75       	mov.w	301064 <_simplex+0x224>,r2	! 84
  300f78:	32 ec       	add	r14,r2
  300f7a:	91 72       	mov.w	301062 <_simplex+0x222>,r1	! b8
  300f7c:	31 ec       	add	r14,r1
  300f7e:	63 e3       	mov	r14,r3
  300f80:	73 14       	add	#20,r3
  300f82:	66 73       	mov	r7,r6
  300f84:	55 1c       	mov.l	@(48,r1),r5
  300f86:	64 33       	mov	r3,r4
  300f88:	d1 38       	mov.l	30106c <_simplex+0x22c>,r1	! 30080c <_get>
  300f8a:	41 0b       	jsr	@r1
  300f8c:	00 09       	nop	
  300f8e:	e5 01       	mov	#1,r5
  300f90:	e4 01       	mov	#1,r4
  300f92:	d1 39       	mov.l	301078 <_simplex+0x238>,r1	! 3081fc <_new_fraction>
  300f94:	41 0b       	jsr	@r1
  300f96:	00 09       	nop	
  300f98:	6a 03       	mov	r0,r10
  300f9a:	6b 13       	mov	r1,r11
  300f9c:	d1 37       	mov.l	30107c <_simplex+0x23c>,r1	! 308344 <_fraction_zero>
  300f9e:	41 0b       	jsr	@r1
  300fa0:	00 09       	nop	
  300fa2:	66 03       	mov	r0,r6
  300fa4:	67 13       	mov	r1,r7
  300fa6:	91 5e       	mov.w	301066 <_simplex+0x226>,r1	! 94 <_gint_exch_size>
  300fa8:	31 ec       	add	r14,r1
  300faa:	62 13       	mov	r1,r2
  300fac:	64 a3       	mov	r10,r4
  300fae:	65 b3       	mov	r11,r5
  300fb0:	d1 33       	mov.l	301080 <_simplex+0x240>,r1	! 3076a0 <_new_BigM>
  300fb2:	41 0b       	jsr	@r1
  300fb4:	00 09       	nop	
  300fb6:	92 55       	mov.w	301064 <_simplex+0x224>,r2	! 84
  300fb8:	32 ec       	add	r14,r2
  300fba:	91 54       	mov.w	301066 <_simplex+0x226>,r1	! 94 <_gint_exch_size>
  300fbc:	31 ec       	add	r14,r1
  300fbe:	63 12       	mov.l	@r1,r3
  300fc0:	2f 32       	mov.l	r3,@r15
  300fc2:	71 04       	add	#4,r1
  300fc4:	63 12       	mov.l	@r1,r3
  300fc6:	1f 31       	mov.l	r3,@(4,r15)
  300fc8:	71 04       	add	#4,r1
  300fca:	63 12       	mov.l	@r1,r3
  300fcc:	1f 32       	mov.l	r3,@(8,r15)
  300fce:	71 04       	add	#4,r1
  300fd0:	63 12       	mov.l	@r1,r3
  300fd2:	1f 33       	mov.l	r3,@(12,r15)
  300fd4:	71 04       	add	#4,r1
  300fd6:	64 22       	mov.l	@r2,r4
  300fd8:	55 21       	mov.l	@(4,r2),r5
  300fda:	56 22       	mov.l	@(8,r2),r6
  300fdc:	57 23       	mov.l	@(12,r2),r7
  300fde:	d1 29       	mov.l	301084 <_simplex+0x244>,r1	! 307da8 <_BigM_eq>
  300fe0:	41 0b       	jsr	@r1
  300fe2:	00 09       	nop	
  300fe4:	61 03       	mov	r0,r1
  300fe6:	21 18       	tst	r1,r1
  300fe8:	8b 09       	bf	300ffe <_simplex+0x1be>
  300fea:	d3 27       	mov.l	301088 <_simplex+0x248>,r3	! 30b400
  300fec:	d2 27       	mov.l	30108c <_simplex+0x24c>,r2	! 30b4b8 <___PRETTY_FUNCTION__.0>
  300fee:	d1 28       	mov.l	301090 <_simplex+0x250>,r1	! 30b454
  300ff0:	67 33       	mov	r3,r7
  300ff2:	66 23       	mov	r2,r6
  300ff4:	e5 50       	mov	#80,r5
  300ff6:	64 13       	mov	r1,r4
  300ff8:	d1 26       	mov.l	301094 <_simplex+0x254>,r1	! 308948 <___assert_fail>
  300ffa:	41 0b       	jsr	@r1
  300ffc:	00 09       	nop	
  300ffe:	61 e3       	mov	r14,r1
  301000:	71 38       	add	#56,r1
  301002:	51 1e       	mov.l	@(56,r1),r1
  301004:	41 08       	shll2	r1
  301006:	93 2f       	mov.w	301068 <_simplex+0x228>,r3	! fc
  301008:	33 ec       	add	r14,r3
  30100a:	52 35       	mov.l	@(20,r3),r2
  30100c:	31 2c       	add	r2,r1
  30100e:	61 12       	mov.l	@r1,r1
  301010:	99 27       	mov.w	301062 <_simplex+0x222>,r9	! b8
  301012:	39 ec       	add	r14,r9
  301014:	64 13       	mov	r1,r4
  301016:	d1 20       	mov.l	301098 <_simplex+0x258>,r1	! 308fcc <_strdup>
  301018:	41 0b       	jsr	@r1
  30101a:	00 09       	nop	
  30101c:	61 03       	mov	r0,r1
  30101e:	19 1b       	mov.l	r1,@(44,r9)
  301020:	91 1f       	mov.w	301062 <_simplex+0x222>,r1	! b8
  301022:	31 ec       	add	r14,r1
  301024:	51 1b       	mov.l	@(44,r1),r1
  301026:	21 18       	tst	r1,r1
  301028:	8b 03       	bf	301032 <_simplex+0x1f2>
  30102a:	e4 00       	mov	#0,r4
  30102c:	d1 1b       	mov.l	30109c <_simplex+0x25c>,r1	! 308f20 <_exit>
  30102e:	41 0b       	jsr	@r1
  301030:	00 09       	nop	
  301032:	91 16       	mov.w	301062 <_simplex+0x222>,r1	! b8
  301034:	31 ec       	add	r14,r1
  301036:	51 1c       	mov.l	@(48,r1),r1
  301038:	41 08       	shll2	r1
  30103a:	62 e3       	mov	r14,r2
  30103c:	72 f8       	add	#-8,r2
  30103e:	52 26       	mov.l	@(24,r2),r2
  301040:	31 2c       	add	r2,r1
  301042:	92 0e       	mov.w	301062 <_simplex+0x222>,r2	! b8
  301044:	32 ec       	add	r14,r2
  301046:	52 2b       	mov.l	@(44,r2),r2
  301048:	21 22       	mov.l	r2,@r1
  30104a:	91 0a       	mov.w	301062 <_simplex+0x222>,r1	! b8
  30104c:	31 ec       	add	r14,r1
  30104e:	54 1b       	mov.l	@(44,r1),r4
  301050:	d1 13       	mov.l	3010a0 <_simplex+0x260>,r1	! 309244 <_free>
  301052:	41 0b       	jsr	@r1
  301054:	00 09       	nop	
  301056:	91 04       	mov.w	301062 <_simplex+0x222>,r1	! b8
  301058:	31 ec       	add	r14,r1
  30105a:	e2 00       	mov	#0,r2
  30105c:	11 2e       	mov.l	r2,@(56,r1)
  30105e:	a1 17       	bra	301290 <_simplex+0x450>
  301060:	00 09       	nop	
  301062:	00 b8       	.word 0x00b8
  301064:	00 84       	mov.b	r8,@(r0,r0)
  301066:	00 94       	mov.b	r9,@(r0,r0)
  301068:	00 fc       	mov.b	@(r0,r15),r0
  30106a:	00 09       	nop	
  30106c:	00 30       	.word 0x0030
  30106e:	08 0c       	mov.b	@(r0,r0),r8
  301070:	00 30       	.word 0x0030
  301072:	7c 18       	add	#24,r12
  301074:	00 30       	.word 0x0030
  301076:	08 68       	.word 0x0868
  301078:	00 30       	.word 0x0030
  30107a:	81 fc       	mov.w	r0,@(24,r15)
  30107c:	00 30       	.word 0x0030
  30107e:	83 44       	.word 0x8344
  301080:	00 30       	.word 0x0030
  301082:	76 a0       	add	#-96,r6
  301084:	00 30       	.word 0x0030
  301086:	7d a8       	add	#-88,r13
  301088:	00 30       	.word 0x0030
  30108a:	b4 00       	bsr	30188e <_new_tableux+0x2a6>
  30108c:	00 30       	.word 0x0030
  30108e:	b4 b8       	bsr	301a02 <_free_tableux+0xa6>
  301090:	00 30       	.word 0x0030
  301092:	b4 54       	bsr	30193e <_new_tableux+0x356>
  301094:	00 30       	.word 0x0030
  301096:	89 48       	bt	30112a <_simplex+0x2ea>
  301098:	00 30       	.word 0x0030
  30109a:	8f cc       	bf.s	301036 <_simplex+0x1f6>
  30109c:	00 30       	.word 0x0030
  30109e:	8f 20       	bf.s	3010e2 <_simplex+0x2a2>
  3010a0:	00 30       	.word 0x0030
  3010a2:	92 44       	mov.w	30112e <_simplex+0x2ee>,r2	! 2f22
  3010a4:	92 1d       	mov.w	3010e2 <_simplex+0x2a2>,r2	! b8
  3010a6:	32 ec       	add	r14,r2
  3010a8:	91 1b       	mov.w	3010e2 <_simplex+0x2a2>,r1	! b8
  3010aa:	31 ec       	add	r14,r1
  3010ac:	52 2e       	mov.l	@(56,r2),r2
  3010ae:	51 1c       	mov.l	@(48,r1),r1
  3010b0:	32 10       	cmp/eq	r1,r2
  3010b2:	8b 01       	bf	3010b8 <_simplex+0x278>
  3010b4:	a0 e4       	bra	301280 <_simplex+0x440>
  3010b6:	00 09       	nop	
  3010b8:	61 e3       	mov	r14,r1
  3010ba:	71 38       	add	#56,r1
  3010bc:	57 1e       	mov.l	@(56,r1),r7
  3010be:	62 e3       	mov	r14,r2
  3010c0:	72 40       	add	#64,r2
  3010c2:	91 0e       	mov.w	3010e2 <_simplex+0x2a2>,r1	! b8
  3010c4:	31 ec       	add	r14,r1
  3010c6:	63 e3       	mov	r14,r3
  3010c8:	73 14       	add	#20,r3
  3010ca:	66 73       	mov	r7,r6
  3010cc:	55 1e       	mov.l	@(56,r1),r5
  3010ce:	64 33       	mov	r3,r4
  3010d0:	d1 04       	mov.l	3010e4 <_simplex+0x2a4>,r1	! 30080c <_get>
  3010d2:	41 0b       	jsr	@r1
  3010d4:	00 09       	nop	
  3010d6:	91 04       	mov.w	3010e2 <_simplex+0x2a2>,r1	! b8
  3010d8:	31 ec       	add	r14,r1
  3010da:	e2 00       	mov	#0,r2
  3010dc:	11 2d       	mov.l	r2,@(52,r1)
  3010de:	a0 73       	bra	3011c8 <_simplex+0x388>
  3010e0:	00 09       	nop	
  3010e2:	00 b8       	.word 0x00b8
  3010e4:	00 30       	.word 0x0030
  3010e6:	08 0c       	mov.b	@(r0,r0),r8
  3010e8:	62 e3       	mov	r14,r2
  3010ea:	72 30       	add	#48,r2
  3010ec:	93 af       	mov.w	30124e <_simplex+0x40e>,r3	! b8
  3010ee:	33 ec       	add	r14,r3
  3010f0:	91 ad       	mov.w	30124e <_simplex+0x40e>,r1	! b8
  3010f2:	31 ec       	add	r14,r1
  3010f4:	67 e3       	mov	r14,r7
  3010f6:	77 14       	add	#20,r7
  3010f8:	56 3d       	mov.l	@(52,r3),r6
  3010fa:	55 1c       	mov.l	@(48,r1),r5
  3010fc:	64 73       	mov	r7,r4
  3010fe:	d1 56       	mov.l	301258 <_simplex+0x418>,r1	! 30080c <_get>
  301100:	41 0b       	jsr	@r1
  301102:	00 09       	nop	
  301104:	62 e3       	mov	r14,r2
  301106:	72 20       	add	#32,r2
  301108:	93 a1       	mov.w	30124e <_simplex+0x40e>,r3	! b8
  30110a:	33 ec       	add	r14,r3
  30110c:	91 9f       	mov.w	30124e <_simplex+0x40e>,r1	! b8
  30110e:	31 ec       	add	r14,r1
  301110:	67 e3       	mov	r14,r7
  301112:	77 14       	add	#20,r7
  301114:	56 3d       	mov.l	@(52,r3),r6
  301116:	55 1e       	mov.l	@(56,r1),r5
  301118:	64 73       	mov	r7,r4
  30111a:	d1 4f       	mov.l	301258 <_simplex+0x418>,r1	! 30080c <_get>
  30111c:	41 0b       	jsr	@r1
  30111e:	00 09       	nop	
  301120:	97 96       	mov.w	301250 <_simplex+0x410>,r7	! a4
  301122:	37 ec       	add	r14,r7
  301124:	63 e3       	mov	r14,r3
  301126:	73 40       	add	#64,r3
  301128:	61 e3       	mov	r14,r1
  30112a:	71 30       	add	#48,r1
  30112c:	62 12       	mov.l	@r1,r2
  30112e:	2f 22       	mov.l	r2,@r15
  301130:	71 04       	add	#4,r1
  301132:	62 12       	mov.l	@r1,r2
  301134:	1f 21       	mov.l	r2,@(4,r15)
  301136:	71 04       	add	#4,r1
  301138:	62 12       	mov.l	@r1,r2
  30113a:	1f 22       	mov.l	r2,@(8,r15)
  30113c:	71 04       	add	#4,r1
  30113e:	62 12       	mov.l	@r1,r2
  301140:	1f 23       	mov.l	r2,@(12,r15)
  301142:	71 04       	add	#4,r1
  301144:	62 73       	mov	r7,r2
  301146:	64 32       	mov.l	@r3,r4
  301148:	55 31       	mov.l	@(4,r3),r5
  30114a:	56 32       	mov.l	@(8,r3),r6
  30114c:	57 33       	mov.l	@(12,r3),r7
  30114e:	d1 43       	mov.l	30125c <_simplex+0x41c>,r1	! 307a6c <_mul_BigM>
  301150:	41 0b       	jsr	@r1
  301152:	00 09       	nop	
  301154:	97 7d       	mov.w	301252 <_simplex+0x412>,r7	! b4
  301156:	37 ec       	add	r14,r7
  301158:	63 e3       	mov	r14,r3
  30115a:	73 20       	add	#32,r3
  30115c:	91 78       	mov.w	301250 <_simplex+0x410>,r1	! a4
  30115e:	31 ec       	add	r14,r1
  301160:	62 12       	mov.l	@r1,r2
  301162:	2f 22       	mov.l	r2,@r15
  301164:	71 04       	add	#4,r1
  301166:	62 12       	mov.l	@r1,r2
  301168:	1f 21       	mov.l	r2,@(4,r15)
  30116a:	71 04       	add	#4,r1
  30116c:	62 12       	mov.l	@r1,r2
  30116e:	1f 22       	mov.l	r2,@(8,r15)
  301170:	71 04       	add	#4,r1
  301172:	62 12       	mov.l	@r1,r2
  301174:	1f 23       	mov.l	r2,@(12,r15)
  301176:	71 04       	add	#4,r1
  301178:	62 73       	mov	r7,r2
  30117a:	64 32       	mov.l	@r3,r4
  30117c:	55 31       	mov.l	@(4,r3),r5
  30117e:	56 32       	mov.l	@(8,r3),r6
  301180:	57 33       	mov.l	@(12,r3),r7
  301182:	d1 37       	mov.l	301260 <_simplex+0x420>,r1	! 307a00 <_sub_BigM>
  301184:	41 0b       	jsr	@r1
  301186:	00 09       	nop	
  301188:	92 63       	mov.w	301252 <_simplex+0x412>,r2	! b4
  30118a:	32 ec       	add	r14,r2
  30118c:	96 5f       	mov.w	30124e <_simplex+0x40e>,r6	! b8
  30118e:	36 ec       	add	r14,r6
  301190:	93 5d       	mov.w	30124e <_simplex+0x40e>,r3	! b8
  301192:	33 ec       	add	r14,r3
  301194:	64 e3       	mov	r14,r4
  301196:	74 14       	add	#20,r4
  301198:	61 23       	mov	r2,r1
  30119a:	71 04       	add	#4,r1
  30119c:	67 12       	mov.l	@r1,r7
  30119e:	2f 72       	mov.l	r7,@r15
  3011a0:	71 04       	add	#4,r1
  3011a2:	67 12       	mov.l	@r1,r7
  3011a4:	1f 71       	mov.l	r7,@(4,r15)
  3011a6:	71 04       	add	#4,r1
  3011a8:	67 12       	mov.l	@r1,r7
  3011aa:	1f 72       	mov.l	r7,@(8,r15)
  3011ac:	71 04       	add	#4,r1
  3011ae:	67 22       	mov.l	@r2,r7
  3011b0:	56 6d       	mov.l	@(52,r6),r6
  3011b2:	55 3e       	mov.l	@(56,r3),r5
  3011b4:	d1 2b       	mov.l	301264 <_simplex+0x424>,r1	! 300868 <_set>
  3011b6:	41 0b       	jsr	@r1
  3011b8:	00 09       	nop	
  3011ba:	91 48       	mov.w	30124e <_simplex+0x40e>,r1	! b8
  3011bc:	31 ec       	add	r14,r1
  3011be:	92 46       	mov.w	30124e <_simplex+0x40e>,r2	! b8
  3011c0:	32 ec       	add	r14,r2
  3011c2:	52 2d       	mov.l	@(52,r2),r2
  3011c4:	72 01       	add	#1,r2
  3011c6:	11 2d       	mov.l	r2,@(52,r1)
  3011c8:	61 e3       	mov	r14,r1
  3011ca:	71 14       	add	#20,r1
  3011cc:	51 11       	mov.l	@(4,r1),r1
  3011ce:	92 3e       	mov.w	30124e <_simplex+0x40e>,r2	! b8
  3011d0:	32 ec       	add	r14,r2
  3011d2:	52 2d       	mov.l	@(52,r2),r2
  3011d4:	32 13       	cmp/ge	r1,r2
  3011d6:	8b 87       	bf	3010e8 <_simplex+0x2a8>
  3011d8:	61 e3       	mov	r14,r1
  3011da:	71 38       	add	#56,r1
  3011dc:	57 1e       	mov.l	@(56,r1),r7
  3011de:	92 39       	mov.w	301254 <_simplex+0x414>,r2	! c4
  3011e0:	32 ec       	add	r14,r2
  3011e2:	91 34       	mov.w	30124e <_simplex+0x40e>,r1	! b8
  3011e4:	31 ec       	add	r14,r1
  3011e6:	63 e3       	mov	r14,r3
  3011e8:	73 14       	add	#20,r3
  3011ea:	66 73       	mov	r7,r6
  3011ec:	55 1e       	mov.l	@(56,r1),r5
  3011ee:	64 33       	mov	r3,r4
  3011f0:	d1 19       	mov.l	301258 <_simplex+0x418>,r1	! 30080c <_get>
  3011f2:	41 0b       	jsr	@r1
  3011f4:	00 09       	nop	
  3011f6:	91 2e       	mov.w	301256 <_simplex+0x416>,r1	! d4
  3011f8:	31 ec       	add	r14,r1
  3011fa:	62 13       	mov	r1,r2
  3011fc:	d1 1a       	mov.l	301268 <_simplex+0x428>,r1	! 3076fe <_BigM_zero>
  3011fe:	41 0b       	jsr	@r1
  301200:	00 09       	nop	
  301202:	92 27       	mov.w	301254 <_simplex+0x414>,r2	! c4
  301204:	32 ec       	add	r14,r2
  301206:	91 26       	mov.w	301256 <_simplex+0x416>,r1	! d4
  301208:	31 ec       	add	r14,r1
  30120a:	63 12       	mov.l	@r1,r3
  30120c:	2f 32       	mov.l	r3,@r15
  30120e:	71 04       	add	#4,r1
  301210:	63 12       	mov.l	@r1,r3
  301212:	1f 31       	mov.l	r3,@(4,r15)
  301214:	71 04       	add	#4,r1
  301216:	63 12       	mov.l	@r1,r3
  301218:	1f 32       	mov.l	r3,@(8,r15)
  30121a:	71 04       	add	#4,r1
  30121c:	63 12       	mov.l	@r1,r3
  30121e:	1f 33       	mov.l	r3,@(12,r15)
  301220:	71 04       	add	#4,r1
  301222:	64 22       	mov.l	@r2,r4
  301224:	55 21       	mov.l	@(4,r2),r5
  301226:	56 22       	mov.l	@(8,r2),r6
  301228:	57 23       	mov.l	@(12,r2),r7
  30122a:	d1 10       	mov.l	30126c <_simplex+0x42c>,r1	! 307da8 <_BigM_eq>
  30122c:	41 0b       	jsr	@r1
  30122e:	00 09       	nop	
  301230:	61 03       	mov	r0,r1
  301232:	21 18       	tst	r1,r1
  301234:	8b 25       	bf	301282 <_simplex+0x442>
  301236:	d3 0e       	mov.l	301270 <_simplex+0x430>,r3	! 30b488
  301238:	d2 0e       	mov.l	301274 <_simplex+0x434>,r2	! 30b4b8 <___PRETTY_FUNCTION__.0>
  30123a:	d1 0f       	mov.l	301278 <_simplex+0x438>,r1	! 30b454
  30123c:	67 33       	mov	r3,r7
  30123e:	66 23       	mov	r2,r6
  301240:	e5 63       	mov	#99,r5
  301242:	64 13       	mov	r1,r4
  301244:	d1 0d       	mov.l	30127c <_simplex+0x43c>,r1	! 308948 <___assert_fail>
  301246:	41 0b       	jsr	@r1
  301248:	00 09       	nop	
  30124a:	a0 1a       	bra	301282 <_simplex+0x442>
  30124c:	00 09       	nop	
  30124e:	00 b8       	.word 0x00b8
  301250:	00 a4       	mov.b	r10,@(r0,r0)
  301252:	00 b4       	mov.b	r11,@(r0,r0)
  301254:	00 c4       	mov.b	r12,@(r0,r0)
  301256:	00 d4       	mov.b	r13,@(r0,r0)
  301258:	00 30       	.word 0x0030
  30125a:	08 0c       	mov.b	@(r0,r0),r8
  30125c:	00 30       	.word 0x0030
  30125e:	7a 6c       	add	#108,r10
  301260:	00 30       	.word 0x0030
  301262:	7a 00       	add	#0,r10
  301264:	00 30       	.word 0x0030
  301266:	08 68       	.word 0x0868
  301268:	00 30       	.word 0x0030
  30126a:	76 fe       	add	#-2,r6
  30126c:	00 30       	.word 0x0030
  30126e:	7d a8       	add	#-88,r13
  301270:	00 30       	.word 0x0030
  301272:	b4 88       	bsr	301b86 <_update_cursor+0x4a>
  301274:	00 30       	.word 0x0030
  301276:	b4 b8       	bsr	301bea <_update_cursor+0xae>
  301278:	00 30       	.word 0x0030
  30127a:	b4 54       	bsr	301b26 <_display_tableux+0x96>
  30127c:	00 30       	.word 0x0030
  30127e:	89 48       	bt	301312 <_GINT_CALL_SET_function+0x1e>
  301280:	00 09       	nop	
  301282:	91 34       	mov.w	3012ee <_simplex+0x4ae>,r1	! b8
  301284:	31 ec       	add	r14,r1
  301286:	92 32       	mov.w	3012ee <_simplex+0x4ae>,r2	! b8
  301288:	32 ec       	add	r14,r2
  30128a:	52 2e       	mov.l	@(56,r2),r2
  30128c:	72 01       	add	#1,r2
  30128e:	11 2e       	mov.l	r2,@(56,r1)
  301290:	61 e3       	mov	r14,r1
  301292:	71 14       	add	#20,r1
  301294:	61 12       	mov.l	@r1,r1
  301296:	92 2a       	mov.w	3012ee <_simplex+0x4ae>,r2	! b8
  301298:	32 ec       	add	r14,r2
  30129a:	52 2e       	mov.l	@(56,r2),r2
  30129c:	32 13       	cmp/ge	r1,r2
  30129e:	89 01       	bt	3012a4 <_simplex+0x464>
  3012a0:	af 00       	bra	3010a4 <_simplex+0x264>
  3012a2:	00 09       	nop	
  3012a4:	61 e3       	mov	r14,r1
  3012a6:	71 14       	add	#20,r1
  3012a8:	64 13       	mov	r1,r4
  3012aa:	d1 11       	mov.l	3012f0 <_simplex+0x4b0>,r1	! 300a00 <_isoptimal>
  3012ac:	41 0b       	jsr	@r1
  3012ae:	00 09       	nop	
  3012b0:	61 03       	mov	r0,r1
  3012b2:	e6 01       	mov	#1,r6
  3012b4:	21 6a       	xor	r6,r1
  3012b6:	61 1c       	extu.b	r1,r1
  3012b8:	21 18       	tst	r1,r1
  3012ba:	89 01       	bt	3012c0 <_simplex+0x480>
  3012bc:	ad d4       	bra	300e68 <_simplex+0x28>
  3012be:	00 09       	nop	
  3012c0:	61 e3       	mov	r14,r1
  3012c2:	71 14       	add	#20,r1
  3012c4:	62 12       	mov.l	@r1,r2
  3012c6:	28 22       	mov.l	r2,@r8
  3012c8:	71 04       	add	#4,r1
  3012ca:	62 12       	mov.l	@r1,r2
  3012cc:	18 21       	mov.l	r2,@(4,r8)
  3012ce:	71 04       	add	#4,r1
  3012d0:	62 12       	mov.l	@r1,r2
  3012d2:	18 22       	mov.l	r2,@(8,r8)
  3012d4:	71 04       	add	#4,r1
  3012d6:	60 83       	mov	r8,r0
  3012d8:	7e 7c       	add	#124,r14
  3012da:	7e 7c       	add	#124,r14
  3012dc:	6f e3       	mov	r14,r15
  3012de:	4f 26       	lds.l	@r15+,pr
  3012e0:	6e f6       	mov.l	@r15+,r14
  3012e2:	6b f6       	mov.l	@r15+,r11
  3012e4:	6a f6       	mov.l	@r15+,r10
  3012e6:	69 f6       	mov.l	@r15+,r9
  3012e8:	68 f6       	mov.l	@r15+,r8
  3012ea:	00 0b       	rts	
  3012ec:	00 09       	nop	
  3012ee:	00 b8       	.word 0x00b8
  3012f0:	00 30       	.word 0x0030
  3012f2:	0a 00       	.word 0x0a00

003012f4 <_GINT_CALL_SET_function>:
  3012f4:	2f e6       	mov.l	r14,@-r15
  3012f6:	7f fc       	add	#-4,r15
  3012f8:	6e f3       	mov	r15,r14
  3012fa:	61 e3       	mov	r14,r1
  3012fc:	71 c4       	add	#-60,r1
  3012fe:	11 4f       	mov.l	r4,@(60,r1)
  301300:	61 e3       	mov	r14,r1
  301302:	71 c4       	add	#-60,r1
  301304:	51 1f       	mov.l	@(60,r1),r1
  301306:	e2 01       	mov	#1,r2
  301308:	21 22       	mov.l	r2,@r1
  30130a:	e1 00       	mov	#0,r1
  30130c:	60 13       	mov	r1,r0
  30130e:	7e 04       	add	#4,r14
  301310:	6f e3       	mov	r14,r15
  301312:	6e f6       	mov.l	@r15+,r14
  301314:	00 0b       	rts	
  301316:	00 09       	nop	

00301318 <_GINT_CALL_INC_function>:
  301318:	2f e6       	mov.l	r14,@-r15
  30131a:	7f fc       	add	#-4,r15
  30131c:	6e f3       	mov	r15,r14
  30131e:	61 e3       	mov	r14,r1
  301320:	71 c4       	add	#-60,r1
  301322:	11 4f       	mov.l	r4,@(60,r1)
  301324:	61 e3       	mov	r14,r1
  301326:	71 c4       	add	#-60,r1
  301328:	51 1f       	mov.l	@(60,r1),r1
  30132a:	61 12       	mov.l	@r1,r1
  30132c:	62 13       	mov	r1,r2
  30132e:	72 01       	add	#1,r2
  301330:	61 e3       	mov	r14,r1
  301332:	71 c4       	add	#-60,r1
  301334:	51 1f       	mov.l	@(60,r1),r1
  301336:	21 22       	mov.l	r2,@r1
  301338:	e1 00       	mov	#0,r1
  30133a:	60 13       	mov	r1,r0
  30133c:	7e 04       	add	#4,r14
  30133e:	6f e3       	mov	r14,r15
  301340:	6e f6       	mov.l	@r15+,r14
  301342:	00 0b       	rts	
  301344:	00 09       	nop	

00301346 <_GINT_CALL_SET_STOP_function>:
  301346:	2f e6       	mov.l	r14,@-r15
  301348:	7f fc       	add	#-4,r15
  30134a:	6e f3       	mov	r15,r14
  30134c:	61 e3       	mov	r14,r1
  30134e:	71 c4       	add	#-60,r1
  301350:	11 4f       	mov.l	r4,@(60,r1)
  301352:	61 e3       	mov	r14,r1
  301354:	71 c4       	add	#-60,r1
  301356:	51 1f       	mov.l	@(60,r1),r1
  301358:	e2 01       	mov	#1,r2
  30135a:	21 22       	mov.l	r2,@r1
  30135c:	e1 01       	mov	#1,r1
  30135e:	60 13       	mov	r1,r0
  301360:	7e 04       	add	#4,r14
  301362:	6f e3       	mov	r14,r15
  301364:	6e f6       	mov.l	@r15+,r14
  301366:	00 0b       	rts	
  301368:	00 09       	nop	

0030136a <_GINT_CALL_INC_STOP_function>:
  30136a:	2f e6       	mov.l	r14,@-r15
  30136c:	7f fc       	add	#-4,r15
  30136e:	6e f3       	mov	r15,r14
  301370:	61 e3       	mov	r14,r1
  301372:	71 c4       	add	#-60,r1
  301374:	11 4f       	mov.l	r4,@(60,r1)
  301376:	61 e3       	mov	r14,r1
  301378:	71 c4       	add	#-60,r1
  30137a:	51 1f       	mov.l	@(60,r1),r1
  30137c:	61 12       	mov.l	@r1,r1
  30137e:	62 13       	mov	r1,r2
  301380:	72 01       	add	#1,r2
  301382:	61 e3       	mov	r14,r1
  301384:	71 c4       	add	#-60,r1
  301386:	51 1f       	mov.l	@(60,r1),r1
  301388:	21 22       	mov.l	r2,@r1
  30138a:	e1 01       	mov	#1,r1
  30138c:	60 13       	mov	r1,r0
  30138e:	7e 04       	add	#4,r14
  301390:	6f e3       	mov	r14,r15
  301392:	6e f6       	mov.l	@r15+,r14
  301394:	00 0b       	rts	
  301396:	00 09       	nop	

00301398 <_new_viscell>:
  301398:	2f 86       	mov.l	r8,@-r15
  30139a:	2f e6       	mov.l	r14,@-r15
  30139c:	4f 22       	sts.l	pr,@-r15
  30139e:	7f e8       	add	#-24,r15
  3013a0:	6e f3       	mov	r15,r14
  3013a2:	61 e3       	mov	r14,r1
  3013a4:	71 d8       	add	#-40,r1
  3013a6:	11 4e       	mov.l	r4,@(56,r1)
  3013a8:	61 e3       	mov	r14,r1
  3013aa:	71 d8       	add	#-40,r1
  3013ac:	11 5d       	mov.l	r5,@(52,r1)
  3013ae:	61 e3       	mov	r14,r1
  3013b0:	71 d8       	add	#-40,r1
  3013b2:	11 6c       	mov.l	r6,@(48,r1)
  3013b4:	61 e3       	mov	r14,r1
  3013b6:	71 d8       	add	#-40,r1
  3013b8:	11 7b       	mov.l	r7,@(44,r1)
  3013ba:	52 e9       	mov.l	@(36,r14),r2
  3013bc:	61 e3       	mov	r14,r1
  3013be:	71 f8       	add	#-8,r1
  3013c0:	60 23       	mov	r2,r0
  3013c2:	80 18       	mov.b	r0,@(8,r1)
  3013c4:	68 e3       	mov	r14,r8
  3013c6:	78 d8       	add	#-40,r8
  3013c8:	e4 1c       	mov	#28,r4
  3013ca:	d1 2e       	mov.l	301484 <_new_viscell+0xec>,r1	! 309250 <_malloc>
  3013cc:	41 0b       	jsr	@r1
  3013ce:	00 09       	nop	
  3013d0:	61 03       	mov	r0,r1
  3013d2:	18 1f       	mov.l	r1,@(60,r8)
  3013d4:	61 e3       	mov	r14,r1
  3013d6:	71 d8       	add	#-40,r1
  3013d8:	51 1f       	mov.l	@(60,r1),r1
  3013da:	62 e3       	mov	r14,r2
  3013dc:	72 d8       	add	#-40,r2
  3013de:	52 2e       	mov.l	@(56,r2),r2
  3013e0:	21 22       	mov.l	r2,@r1
  3013e2:	61 e3       	mov	r14,r1
  3013e4:	71 d8       	add	#-40,r1
  3013e6:	51 1f       	mov.l	@(60,r1),r1
  3013e8:	62 e3       	mov	r14,r2
  3013ea:	72 d8       	add	#-40,r2
  3013ec:	52 2d       	mov.l	@(52,r2),r2
  3013ee:	11 21       	mov.l	r2,@(4,r1)
  3013f0:	61 e3       	mov	r14,r1
  3013f2:	71 d8       	add	#-40,r1
  3013f4:	51 1f       	mov.l	@(60,r1),r1
  3013f6:	62 e3       	mov	r14,r2
  3013f8:	72 d8       	add	#-40,r2
  3013fa:	52 2c       	mov.l	@(48,r2),r2
  3013fc:	11 22       	mov.l	r2,@(8,r1)
  3013fe:	61 e3       	mov	r14,r1
  301400:	71 d8       	add	#-40,r1
  301402:	51 1f       	mov.l	@(60,r1),r1
  301404:	62 e3       	mov	r14,r2
  301406:	72 d8       	add	#-40,r2
  301408:	52 2b       	mov.l	@(44,r2),r2
  30140a:	11 23       	mov.l	r2,@(12,r1)
  30140c:	61 e3       	mov	r14,r1
  30140e:	71 d8       	add	#-40,r1
  301410:	51 1f       	mov.l	@(60,r1),r1
  301412:	71 10       	add	#16,r1
  301414:	62 e3       	mov	r14,r2
  301416:	72 f8       	add	#-8,r2
  301418:	84 28       	mov.b	@(8,r2),r0
  30141a:	62 03       	mov	r0,r2
  30141c:	21 20       	mov.b	r2,@r1
  30141e:	61 e3       	mov	r14,r1
  301420:	71 d8       	add	#-40,r1
  301422:	51 1f       	mov.l	@(60,r1),r1
  301424:	71 10       	add	#16,r1
  301426:	e2 00       	mov	#0,r2
  301428:	60 23       	mov	r2,r0
  30142a:	80 11       	mov.b	r0,@(1,r1)
  30142c:	61 e3       	mov	r14,r1
  30142e:	71 d8       	add	#-40,r1
  301430:	51 1f       	mov.l	@(60,r1),r1
  301432:	71 10       	add	#16,r1
  301434:	e2 00       	mov	#0,r2
  301436:	60 23       	mov	r2,r0
  301438:	80 12       	mov.b	r0,@(2,r1)
  30143a:	61 e3       	mov	r14,r1
  30143c:	71 d8       	add	#-40,r1
  30143e:	51 1f       	mov.l	@(60,r1),r1
  301440:	e2 ff       	mov	#-1,r2
  301442:	60 23       	mov	r2,r0
  301444:	81 1a       	mov.w	r0,@(20,r1)
  301446:	e5 01       	mov	#1,r5
  301448:	e4 14       	mov	#20,r4
  30144a:	d1 0f       	mov.l	301488 <_new_viscell+0xf0>,r1	! 308ee0 <_calloc>
  30144c:	41 0b       	jsr	@r1
  30144e:	00 09       	nop	
  301450:	61 03       	mov	r0,r1
  301452:	62 e3       	mov	r14,r2
  301454:	72 d8       	add	#-40,r2
  301456:	52 2f       	mov.l	@(60,r2),r2
  301458:	12 16       	mov.l	r1,@(24,r2)
  30145a:	61 e3       	mov	r14,r1
  30145c:	71 d8       	add	#-40,r1
  30145e:	51 1f       	mov.l	@(60,r1),r1
  301460:	51 16       	mov.l	@(24,r1),r1
  301462:	55 ea       	mov.l	@(40,r14),r5
  301464:	64 13       	mov	r1,r4
  301466:	d1 09       	mov.l	30148c <_new_viscell+0xf4>,r1	! 308fb6 <_strcpy>
  301468:	41 0b       	jsr	@r1
  30146a:	00 09       	nop	
  30146c:	61 e3       	mov	r14,r1
  30146e:	71 d8       	add	#-40,r1
  301470:	51 1f       	mov.l	@(60,r1),r1
  301472:	60 13       	mov	r1,r0
  301474:	7e 18       	add	#24,r14
  301476:	6f e3       	mov	r14,r15
  301478:	4f 26       	lds.l	@r15+,pr
  30147a:	6e f6       	mov.l	@r15+,r14
  30147c:	68 f6       	mov.l	@r15+,r8
  30147e:	00 0b       	rts	
  301480:	00 09       	nop	
  301482:	00 09       	nop	
  301484:	00 30       	.word 0x0030
  301486:	92 50       	mov.w	30152a <_draw_cell_contents+0x5e>,r2	! 6523
  301488:	00 30       	.word 0x0030
  30148a:	8e e0       	ldre	30164e <_new_tableux+0x66>	! 6112
  30148c:	00 30       	.word 0x0030
  30148e:	8f b6       	bf.s	3013fe <_new_viscell+0x66>

00301490 <_free_viscell>:
  301490:	2f e6       	mov.l	r14,@-r15
  301492:	4f 22       	sts.l	pr,@-r15
  301494:	7f fc       	add	#-4,r15
  301496:	6e f3       	mov	r15,r14
  301498:	61 e3       	mov	r14,r1
  30149a:	71 c4       	add	#-60,r1
  30149c:	11 4f       	mov.l	r4,@(60,r1)
  30149e:	61 e3       	mov	r14,r1
  3014a0:	71 c4       	add	#-60,r1
  3014a2:	51 1f       	mov.l	@(60,r1),r1
  3014a4:	51 16       	mov.l	@(24,r1),r1
  3014a6:	64 13       	mov	r1,r4
  3014a8:	d1 07       	mov.l	3014c8 <_free_viscell+0x38>,r1	! 309244 <_free>
  3014aa:	41 0b       	jsr	@r1
  3014ac:	00 09       	nop	
  3014ae:	61 e3       	mov	r14,r1
  3014b0:	71 c4       	add	#-60,r1
  3014b2:	54 1f       	mov.l	@(60,r1),r4
  3014b4:	d1 04       	mov.l	3014c8 <_free_viscell+0x38>,r1	! 309244 <_free>
  3014b6:	41 0b       	jsr	@r1
  3014b8:	00 09       	nop	
  3014ba:	00 09       	nop	
  3014bc:	7e 04       	add	#4,r14
  3014be:	6f e3       	mov	r14,r15
  3014c0:	4f 26       	lds.l	@r15+,pr
  3014c2:	6e f6       	mov.l	@r15+,r14
  3014c4:	00 0b       	rts	
  3014c6:	00 09       	nop	
  3014c8:	00 30       	.word 0x0030
  3014ca:	92 44       	mov.w	301556 <_draw_cell+0xa>,r2	! 71d0

003014cc <_draw_cell_contents>:
  3014cc:	2f 86       	mov.l	r8,@-r15
  3014ce:	2f e6       	mov.l	r14,@-r15
  3014d0:	4f 22       	sts.l	pr,@-r15
  3014d2:	7f f8       	add	#-8,r15
  3014d4:	6e f3       	mov	r15,r14
  3014d6:	61 e3       	mov	r14,r1
  3014d8:	71 c8       	add	#-56,r1
  3014da:	11 4e       	mov.l	r4,@(56,r1)
  3014dc:	68 e3       	mov	r14,r8
  3014de:	78 c8       	add	#-56,r8
  3014e0:	d1 18       	mov.l	301544 <_draw_cell_contents+0x78>,r1	! 303cfc <_dfont_default>
  3014e2:	41 0b       	jsr	@r1
  3014e4:	00 09       	nop	
  3014e6:	61 03       	mov	r0,r1
  3014e8:	18 1f       	mov.l	r1,@(60,r8)
  3014ea:	61 e3       	mov	r14,r1
  3014ec:	71 c8       	add	#-56,r1
  3014ee:	51 1e       	mov.l	@(56,r1),r1
  3014f0:	62 12       	mov.l	@r1,r2
  3014f2:	e1 01       	mov	#1,r1
  3014f4:	31 2c       	add	r2,r1
  3014f6:	63 13       	mov	r1,r3
  3014f8:	73 01       	add	#1,r3
  3014fa:	61 e3       	mov	r14,r1
  3014fc:	71 c8       	add	#-56,r1
  3014fe:	51 1e       	mov.l	@(56,r1),r1
  301500:	52 11       	mov.l	@(4,r1),r2
  301502:	61 e3       	mov	r14,r1
  301504:	71 c8       	add	#-56,r1
  301506:	51 1e       	mov.l	@(56,r1),r1
  301508:	51 13       	mov.l	@(12,r1),r1
  30150a:	31 2c       	add	r2,r1
  30150c:	62 e3       	mov	r14,r2
  30150e:	72 c8       	add	#-56,r2
  301510:	52 2f       	mov.l	@(60,r2),r2
  301512:	84 25       	mov.b	@(5,r2),r0
  301514:	62 03       	mov	r0,r2
  301516:	62 2c       	extu.b	r2,r2
  301518:	31 28       	sub	r2,r1
  30151a:	62 13       	mov	r1,r2
  30151c:	72 ff       	add	#-1,r2
  30151e:	61 e3       	mov	r14,r1
  301520:	71 c8       	add	#-56,r1
  301522:	51 1e       	mov.l	@(56,r1),r1
  301524:	51 16       	mov.l	@(24,r1),r1
  301526:	67 13       	mov	r1,r7
  301528:	e6 00       	mov	#0,r6
  30152a:	65 23       	mov	r2,r5
  30152c:	64 33       	mov	r3,r4
  30152e:	d1 06       	mov.l	301548 <_draw_cell_contents+0x7c>,r1	! 303cc0 <_dtext>
  301530:	41 0b       	jsr	@r1
  301532:	00 09       	nop	
  301534:	00 09       	nop	
  301536:	7e 08       	add	#8,r14
  301538:	6f e3       	mov	r14,r15
  30153a:	4f 26       	lds.l	@r15+,pr
  30153c:	6e f6       	mov.l	@r15+,r14
  30153e:	68 f6       	mov.l	@r15+,r8
  301540:	00 0b       	rts	
  301542:	00 09       	nop	
  301544:	00 30       	.word 0x0030
  301546:	3c fc       	add	r15,r12
  301548:	00 30       	.word 0x0030
  30154a:	3c c0       	cmp/eq	r12,r12

0030154c <_draw_cell>:
  30154c:	2f e6       	mov.l	r14,@-r15
  30154e:	4f 22       	sts.l	pr,@-r15
  301550:	7f f0       	add	#-16,r15
  301552:	6e f3       	mov	r15,r14
  301554:	61 e3       	mov	r14,r1
  301556:	71 d0       	add	#-48,r1
  301558:	11 4f       	mov.l	r4,@(60,r1)
  30155a:	61 e3       	mov	r14,r1
  30155c:	71 d0       	add	#-48,r1
  30155e:	51 1f       	mov.l	@(60,r1),r1
  301560:	63 12       	mov.l	@r1,r3
  301562:	61 e3       	mov	r14,r1
  301564:	71 d0       	add	#-48,r1
  301566:	51 1f       	mov.l	@(60,r1),r1
  301568:	55 11       	mov.l	@(4,r1),r5
  30156a:	61 e3       	mov	r14,r1
  30156c:	71 d0       	add	#-48,r1
  30156e:	51 1f       	mov.l	@(60,r1),r1
  301570:	62 12       	mov.l	@r1,r2
  301572:	61 e3       	mov	r14,r1
  301574:	71 d0       	add	#-48,r1
  301576:	51 1f       	mov.l	@(60,r1),r1
  301578:	51 12       	mov.l	@(8,r1),r1
  30157a:	66 23       	mov	r2,r6
  30157c:	36 1c       	add	r1,r6
  30157e:	61 e3       	mov	r14,r1
  301580:	71 d0       	add	#-48,r1
  301582:	51 1f       	mov.l	@(60,r1),r1
  301584:	52 11       	mov.l	@(4,r1),r2
  301586:	61 e3       	mov	r14,r1
  301588:	71 d0       	add	#-48,r1
  30158a:	51 1f       	mov.l	@(60,r1),r1
  30158c:	51 13       	mov.l	@(12,r1),r1
  30158e:	67 23       	mov	r2,r7
  301590:	37 1c       	add	r1,r7
  301592:	61 e3       	mov	r14,r1
  301594:	71 d0       	add	#-48,r1
  301596:	51 1f       	mov.l	@(60,r1),r1
  301598:	85 1a       	mov.w	@(20,r1),r0
  30159a:	61 03       	mov	r0,r1
  30159c:	61 1d       	extu.w	r1,r1
  30159e:	64 13       	mov	r1,r4
  3015a0:	61 e3       	mov	r14,r1
  3015a2:	71 d0       	add	#-48,r1
  3015a4:	51 1f       	mov.l	@(60,r1),r1
  3015a6:	71 10       	add	#16,r1
  3015a8:	61 10       	mov.b	@r1,r1
  3015aa:	61 1c       	extu.b	r1,r1
  3015ac:	62 13       	mov	r1,r2
  3015ae:	32 2c       	add	r2,r2
  3015b0:	e1 01       	mov	#1,r1
  3015b2:	31 2c       	add	r2,r1
  3015b4:	e2 00       	mov	#0,r2
  3015b6:	1f 22       	mov.l	r2,@(8,r15)
  3015b8:	1f 11       	mov.l	r1,@(4,r15)
  3015ba:	2f 42       	mov.l	r4,@r15
  3015bc:	64 33       	mov	r3,r4
  3015be:	d1 08       	mov.l	3015e0 <_draw_cell+0x94>,r1	! 303be8 <_drect_border>
  3015c0:	41 0b       	jsr	@r1
  3015c2:	00 09       	nop	
  3015c4:	61 e3       	mov	r14,r1
  3015c6:	71 d0       	add	#-48,r1
  3015c8:	54 1f       	mov.l	@(60,r1),r4
  3015ca:	d1 06       	mov.l	3015e4 <_draw_cell+0x98>,r1	! 3014cc <_draw_cell_contents>
  3015cc:	41 0b       	jsr	@r1
  3015ce:	00 09       	nop	
  3015d0:	00 09       	nop	
  3015d2:	7e 10       	add	#16,r14
  3015d4:	6f e3       	mov	r14,r15
  3015d6:	4f 26       	lds.l	@r15+,pr
  3015d8:	6e f6       	mov.l	@r15+,r14
  3015da:	00 0b       	rts	
  3015dc:	00 09       	nop	
  3015de:	00 09       	nop	
  3015e0:	00 30       	.word 0x0030
  3015e2:	3b e8       	sub	r14,r11
  3015e4:	00 30       	.word 0x0030
  3015e6:	14 cc       	mov.l	r12,@(48,r4)

003015e8 <_new_tableux>:
  3015e8:	2f 86       	mov.l	r8,@-r15
  3015ea:	2f e6       	mov.l	r14,@-r15
  3015ec:	4f 22       	sts.l	pr,@-r15
  3015ee:	7f d0       	add	#-48,r15
  3015f0:	6e f3       	mov	r15,r14
  3015f2:	62 43       	mov	r4,r2
  3015f4:	63 53       	mov	r5,r3
  3015f6:	61 e3       	mov	r14,r1
  3015f8:	60 23       	mov	r2,r0
  3015fa:	80 1c       	mov.b	r0,@(12,r1)
  3015fc:	61 e3       	mov	r14,r1
  3015fe:	62 33       	mov	r3,r2
  301600:	60 23       	mov	r2,r0
  301602:	80 18       	mov.b	r0,@(8,r1)
  301604:	68 e3       	mov	r14,r8
  301606:	78 f0       	add	#-16,r8
  301608:	e4 08       	mov	#8,r4
  30160a:	d1 3b       	mov.l	3016f8 <_new_tableux+0x110>,r1	! 309250 <_malloc>
  30160c:	41 0b       	jsr	@r1
  30160e:	00 09       	nop	
  301610:	61 03       	mov	r0,r1
  301612:	18 1a       	mov.l	r1,@(40,r8)
  301614:	61 e3       	mov	r14,r1
  301616:	71 f0       	add	#-16,r1
  301618:	51 1a       	mov.l	@(40,r1),r1
  30161a:	62 e3       	mov	r14,r2
  30161c:	84 2c       	mov.b	@(12,r2),r0
  30161e:	62 03       	mov	r0,r2
  301620:	21 20       	mov.b	r2,@r1
  301622:	61 e3       	mov	r14,r1
  301624:	71 f0       	add	#-16,r1
  301626:	51 1a       	mov.l	@(40,r1),r1
  301628:	62 e3       	mov	r14,r2
  30162a:	84 28       	mov.b	@(8,r2),r0
  30162c:	62 03       	mov	r0,r2
  30162e:	60 23       	mov	r2,r0
  301630:	80 11       	mov.b	r0,@(1,r1)
  301632:	61 e3       	mov	r14,r1
  301634:	84 18       	mov.b	@(8,r1),r0
  301636:	61 03       	mov	r0,r1
  301638:	61 1c       	extu.b	r1,r1
  30163a:	d2 30       	mov.l	3016fc <_new_tableux+0x114>,r2	! 30a884 <___sdivsi3_i4i>
  30163c:	94 5b       	mov.w	3016f6 <_new_tableux+0x10e>,r4	! 18a
  30163e:	65 13       	mov	r1,r5
  301640:	42 0b       	jsr	@r2
  301642:	00 09       	nop	
  301644:	62 03       	mov	r0,r2
  301646:	61 e3       	mov	r14,r1
  301648:	71 f0       	add	#-16,r1
  30164a:	11 29       	mov.l	r2,@(36,r1)
  30164c:	d1 2c       	mov.l	301700 <_new_tableux+0x118>,r1	! 30b4c4 <_CELL_W_TO_H_RATIO>
  30164e:	61 12       	mov.l	@r1,r1
  301650:	67 13       	mov	r1,r7
  301652:	62 e3       	mov	r14,r2
  301654:	72 f0       	add	#-16,r2
  301656:	61 e3       	mov	r14,r1
  301658:	71 f0       	add	#-16,r1
  30165a:	d3 2a       	mov.l	301704 <_new_tableux+0x11c>,r3	! 30a7b4 <___udivsi3_i4i>
  30165c:	54 19       	mov.l	@(36,r1),r4
  30165e:	65 73       	mov	r7,r5
  301660:	43 0b       	jsr	@r3
  301662:	00 09       	nop	
  301664:	63 03       	mov	r0,r3
  301666:	12 38       	mov.l	r3,@(32,r2)
  301668:	61 e3       	mov	r14,r1
  30166a:	84 1c       	mov.b	@(12,r1),r0
  30166c:	61 03       	mov	r0,r1
  30166e:	61 1c       	extu.b	r1,r1
  301670:	e5 04       	mov	#4,r5
  301672:	64 13       	mov	r1,r4
  301674:	d1 24       	mov.l	301708 <_new_tableux+0x120>,r1	! 308ee0 <_calloc>
  301676:	41 0b       	jsr	@r1
  301678:	00 09       	nop	
  30167a:	61 03       	mov	r0,r1
  30167c:	62 e3       	mov	r14,r2
  30167e:	72 f0       	add	#-16,r2
  301680:	52 2a       	mov.l	@(40,r2),r2
  301682:	12 11       	mov.l	r1,@(4,r2)
  301684:	61 e3       	mov	r14,r1
  301686:	71 f0       	add	#-16,r1
  301688:	e2 00       	mov	#0,r2
  30168a:	11 2f       	mov.l	r2,@(60,r1)
  30168c:	a0 1e       	bra	3016cc <_new_tableux+0xe4>
  30168e:	00 09       	nop	
  301690:	61 e3       	mov	r14,r1
  301692:	84 18       	mov.b	@(8,r1),r0
  301694:	61 03       	mov	r0,r1
  301696:	61 1c       	extu.b	r1,r1
  301698:	71 01       	add	#1,r1
  30169a:	63 13       	mov	r1,r3
  30169c:	61 e3       	mov	r14,r1
  30169e:	71 f0       	add	#-16,r1
  3016a0:	51 1a       	mov.l	@(40,r1),r1
  3016a2:	52 11       	mov.l	@(4,r1),r2
  3016a4:	61 e3       	mov	r14,r1
  3016a6:	71 f0       	add	#-16,r1
  3016a8:	51 1f       	mov.l	@(60,r1),r1
  3016aa:	41 08       	shll2	r1
  3016ac:	68 23       	mov	r2,r8
  3016ae:	38 1c       	add	r1,r8
  3016b0:	e5 04       	mov	#4,r5
  3016b2:	64 33       	mov	r3,r4
  3016b4:	d1 14       	mov.l	301708 <_new_tableux+0x120>,r1	! 308ee0 <_calloc>
  3016b6:	41 0b       	jsr	@r1
  3016b8:	00 09       	nop	
  3016ba:	61 03       	mov	r0,r1
  3016bc:	28 12       	mov.l	r1,@r8
  3016be:	61 e3       	mov	r14,r1
  3016c0:	71 f0       	add	#-16,r1
  3016c2:	62 e3       	mov	r14,r2
  3016c4:	72 f0       	add	#-16,r2
  3016c6:	52 2f       	mov.l	@(60,r2),r2
  3016c8:	72 01       	add	#1,r2
  3016ca:	11 2f       	mov.l	r2,@(60,r1)
  3016cc:	61 e3       	mov	r14,r1
  3016ce:	84 1c       	mov.b	@(12,r1),r0
  3016d0:	61 03       	mov	r0,r1
  3016d2:	61 1c       	extu.b	r1,r1
  3016d4:	62 e3       	mov	r14,r2
  3016d6:	72 f0       	add	#-16,r2
  3016d8:	52 2f       	mov.l	@(60,r2),r2
  3016da:	32 13       	cmp/ge	r1,r2
  3016dc:	8b d8       	bf	301690 <_new_tableux+0xa8>
  3016de:	61 e3       	mov	r14,r1
  3016e0:	71 f0       	add	#-16,r1
  3016e2:	e2 00       	mov	#0,r2
  3016e4:	11 2e       	mov.l	r2,@(56,r1)
  3016e6:	a0 5a       	bra	30179e <_new_tableux+0x1b6>
  3016e8:	00 09       	nop	
  3016ea:	61 e3       	mov	r14,r1
  3016ec:	71 f0       	add	#-16,r1
  3016ee:	e2 00       	mov	#0,r2
  3016f0:	11 2d       	mov.l	r2,@(52,r1)
  3016f2:	a0 44       	bra	30177e <_new_tableux+0x196>
  3016f4:	00 09       	nop	
  3016f6:	01 8a       	sts	x0,r1
  3016f8:	00 30       	.word 0x0030
  3016fa:	92 50       	mov.w	30179e <_new_tableux+0x1b6>,r2	! 61e3
  3016fc:	00 30       	.word 0x0030
  3016fe:	a8 84       	bra	30080a <_new_matrix_with_data+0xca>
  301700:	00 30       	.word 0x0030
  301702:	b4 c4       	bsr	30208e <_matrix_into_tableux+0x12e>
  301704:	00 30       	.word 0x0030
  301706:	a7 b4       	bra	302672 <_process_key_construction_stage+0xe2>
  301708:	00 30       	.word 0x0030
  30170a:	8e e0       	ldre	3018ce <_new_tableux+0x2e6>	! 6112
  30170c:	61 e3       	mov	r14,r1
  30170e:	71 f0       	add	#-16,r1
  301710:	52 1d       	mov.l	@(52,r1),r2
  301712:	61 e3       	mov	r14,r1
  301714:	71 f0       	add	#-16,r1
  301716:	51 19       	mov.l	@(36,r1),r1
  301718:	02 17       	mul.l	r1,r2
  30171a:	01 1a       	sts	macl,r1
  30171c:	64 13       	mov	r1,r4
  30171e:	61 e3       	mov	r14,r1
  301720:	71 f0       	add	#-16,r1
  301722:	52 1e       	mov.l	@(56,r1),r2
  301724:	61 e3       	mov	r14,r1
  301726:	71 f0       	add	#-16,r1
  301728:	51 18       	mov.l	@(32,r1),r1
  30172a:	02 17       	mul.l	r1,r2
  30172c:	01 1a       	sts	macl,r1
  30172e:	65 13       	mov	r1,r5
  301730:	61 e3       	mov	r14,r1
  301732:	71 f0       	add	#-16,r1
  301734:	53 19       	mov.l	@(36,r1),r3
  301736:	61 e3       	mov	r14,r1
  301738:	71 f0       	add	#-16,r1
  30173a:	57 18       	mov.l	@(32,r1),r7
  30173c:	61 e3       	mov	r14,r1
  30173e:	71 f0       	add	#-16,r1
  301740:	51 1a       	mov.l	@(40,r1),r1
  301742:	52 11       	mov.l	@(4,r1),r2
  301744:	61 e3       	mov	r14,r1
  301746:	71 f0       	add	#-16,r1
  301748:	51 1e       	mov.l	@(56,r1),r1
  30174a:	41 08       	shll2	r1
  30174c:	31 2c       	add	r2,r1
  30174e:	62 12       	mov.l	@r1,r2
  301750:	61 e3       	mov	r14,r1
  301752:	71 f0       	add	#-16,r1
  301754:	51 1d       	mov.l	@(52,r1),r1
  301756:	41 08       	shll2	r1
  301758:	68 23       	mov	r2,r8
  30175a:	38 1c       	add	r1,r8
  30175c:	d1 79       	mov.l	301944 <_new_tableux+0x35c>,r1	! 30b4d0
  30175e:	1f 11       	mov.l	r1,@(4,r15)
  301760:	e1 00       	mov	#0,r1
  301762:	2f 12       	mov.l	r1,@r15
  301764:	66 33       	mov	r3,r6
  301766:	d1 78       	mov.l	301948 <_new_tableux+0x360>,r1	! 301398 <_new_viscell>
  301768:	41 0b       	jsr	@r1
  30176a:	00 09       	nop	
  30176c:	61 03       	mov	r0,r1
  30176e:	28 12       	mov.l	r1,@r8
  301770:	61 e3       	mov	r14,r1
  301772:	71 f0       	add	#-16,r1
  301774:	62 e3       	mov	r14,r2
  301776:	72 f0       	add	#-16,r2
  301778:	52 2d       	mov.l	@(52,r2),r2
  30177a:	72 01       	add	#1,r2
  30177c:	11 2d       	mov.l	r2,@(52,r1)
  30177e:	61 e3       	mov	r14,r1
  301780:	84 18       	mov.b	@(8,r1),r0
  301782:	61 03       	mov	r0,r1
  301784:	61 1c       	extu.b	r1,r1
  301786:	62 e3       	mov	r14,r2
  301788:	72 f0       	add	#-16,r2
  30178a:	52 2d       	mov.l	@(52,r2),r2
  30178c:	32 13       	cmp/ge	r1,r2
  30178e:	8b bd       	bf	30170c <_new_tableux+0x124>
  301790:	61 e3       	mov	r14,r1
  301792:	71 f0       	add	#-16,r1
  301794:	62 e3       	mov	r14,r2
  301796:	72 f0       	add	#-16,r2
  301798:	52 2e       	mov.l	@(56,r2),r2
  30179a:	72 01       	add	#1,r2
  30179c:	11 2e       	mov.l	r2,@(56,r1)
  30179e:	61 e3       	mov	r14,r1
  3017a0:	84 1c       	mov.b	@(12,r1),r0
  3017a2:	61 03       	mov	r0,r1
  3017a4:	61 1c       	extu.b	r1,r1
  3017a6:	62 e3       	mov	r14,r2
  3017a8:	72 f0       	add	#-16,r2
  3017aa:	52 2e       	mov.l	@(56,r2),r2
  3017ac:	32 13       	cmp/ge	r1,r2
  3017ae:	8b 9c       	bf	3016ea <_new_tableux+0x102>
  3017b0:	61 e3       	mov	r14,r1
  3017b2:	71 f0       	add	#-16,r1
  3017b4:	e2 00       	mov	#0,r2
  3017b6:	11 2c       	mov.l	r2,@(48,r1)
  3017b8:	a0 24       	bra	301804 <_new_tableux+0x21c>
  3017ba:	00 09       	nop	
  3017bc:	61 e3       	mov	r14,r1
  3017be:	71 f0       	add	#-16,r1
  3017c0:	51 1a       	mov.l	@(40,r1),r1
  3017c2:	52 11       	mov.l	@(4,r1),r2
  3017c4:	61 e3       	mov	r14,r1
  3017c6:	71 f0       	add	#-16,r1
  3017c8:	51 1c       	mov.l	@(48,r1),r1
  3017ca:	41 08       	shll2	r1
  3017cc:	31 2c       	add	r2,r1
  3017ce:	61 12       	mov.l	@r1,r1
  3017d0:	61 12       	mov.l	@r1,r1
  3017d2:	d2 5e       	mov.l	30194c <_new_tableux+0x364>,r2	! defb
  3017d4:	60 23       	mov	r2,r0
  3017d6:	81 1a       	mov.w	r0,@(20,r1)
  3017d8:	61 e3       	mov	r14,r1
  3017da:	71 f0       	add	#-16,r1
  3017dc:	51 1a       	mov.l	@(40,r1),r1
  3017de:	52 11       	mov.l	@(4,r1),r2
  3017e0:	61 e3       	mov	r14,r1
  3017e2:	71 f0       	add	#-16,r1
  3017e4:	51 1c       	mov.l	@(48,r1),r1
  3017e6:	41 08       	shll2	r1
  3017e8:	31 2c       	add	r2,r1
  3017ea:	61 12       	mov.l	@r1,r1
  3017ec:	61 12       	mov.l	@r1,r1
  3017ee:	71 10       	add	#16,r1
  3017f0:	e2 01       	mov	#1,r2
  3017f2:	60 23       	mov	r2,r0
  3017f4:	80 12       	mov.b	r0,@(2,r1)
  3017f6:	61 e3       	mov	r14,r1
  3017f8:	71 f0       	add	#-16,r1
  3017fa:	62 e3       	mov	r14,r2
  3017fc:	72 f0       	add	#-16,r2
  3017fe:	52 2c       	mov.l	@(48,r2),r2
  301800:	72 01       	add	#1,r2
  301802:	11 2c       	mov.l	r2,@(48,r1)
  301804:	61 e3       	mov	r14,r1
  301806:	84 1c       	mov.b	@(12,r1),r0
  301808:	61 03       	mov	r0,r1
  30180a:	61 1c       	extu.b	r1,r1
  30180c:	62 e3       	mov	r14,r2
  30180e:	72 f0       	add	#-16,r2
  301810:	52 2c       	mov.l	@(48,r2),r2
  301812:	32 13       	cmp/ge	r1,r2
  301814:	8b d2       	bf	3017bc <_new_tableux+0x1d4>
  301816:	61 e3       	mov	r14,r1
  301818:	71 f0       	add	#-16,r1
  30181a:	e2 00       	mov	#0,r2
  30181c:	11 2b       	mov.l	r2,@(44,r1)
  30181e:	a0 24       	bra	30186a <_new_tableux+0x282>
  301820:	00 09       	nop	
  301822:	61 e3       	mov	r14,r1
  301824:	71 f0       	add	#-16,r1
  301826:	51 1a       	mov.l	@(40,r1),r1
  301828:	51 11       	mov.l	@(4,r1),r1
  30182a:	62 12       	mov.l	@r1,r2
  30182c:	61 e3       	mov	r14,r1
  30182e:	71 f0       	add	#-16,r1
  301830:	51 1b       	mov.l	@(44,r1),r1
  301832:	41 08       	shll2	r1
  301834:	31 2c       	add	r2,r1
  301836:	61 12       	mov.l	@r1,r1
  301838:	d2 44       	mov.l	30194c <_new_tableux+0x364>,r2	! defb
  30183a:	60 23       	mov	r2,r0
  30183c:	81 1a       	mov.w	r0,@(20,r1)
  30183e:	61 e3       	mov	r14,r1
  301840:	71 f0       	add	#-16,r1
  301842:	51 1a       	mov.l	@(40,r1),r1
  301844:	51 11       	mov.l	@(4,r1),r1
  301846:	62 12       	mov.l	@r1,r2
  301848:	61 e3       	mov	r14,r1
  30184a:	71 f0       	add	#-16,r1
  30184c:	51 1b       	mov.l	@(44,r1),r1
  30184e:	41 08       	shll2	r1
  301850:	31 2c       	add	r2,r1
  301852:	61 12       	mov.l	@r1,r1
  301854:	71 10       	add	#16,r1
  301856:	e2 01       	mov	#1,r2
  301858:	60 23       	mov	r2,r0
  30185a:	80 12       	mov.b	r0,@(2,r1)
  30185c:	61 e3       	mov	r14,r1
  30185e:	71 f0       	add	#-16,r1
  301860:	62 e3       	mov	r14,r2
  301862:	72 f0       	add	#-16,r2
  301864:	52 2b       	mov.l	@(44,r2),r2
  301866:	72 01       	add	#1,r2
  301868:	11 2b       	mov.l	r2,@(44,r1)
  30186a:	61 e3       	mov	r14,r1
  30186c:	84 18       	mov.b	@(8,r1),r0
  30186e:	61 03       	mov	r0,r1
  301870:	61 1c       	extu.b	r1,r1
  301872:	62 e3       	mov	r14,r2
  301874:	72 f0       	add	#-16,r2
  301876:	52 2b       	mov.l	@(44,r2),r2
  301878:	32 13       	cmp/ge	r1,r2
  30187a:	8b d2       	bf	301822 <_new_tableux+0x23a>
  30187c:	61 e3       	mov	r14,r1
  30187e:	71 f0       	add	#-16,r1
  301880:	51 1a       	mov.l	@(40,r1),r1
  301882:	e2 01       	mov	#1,r2
  301884:	60 23       	mov	r2,r0
  301886:	80 12       	mov.b	r0,@(2,r1)
  301888:	61 e3       	mov	r14,r1
  30188a:	71 f0       	add	#-16,r1
  30188c:	51 1a       	mov.l	@(40,r1),r1
  30188e:	e2 00       	mov	#0,r2
  301890:	60 23       	mov	r2,r0
  301892:	80 13       	mov.b	r0,@(3,r1)
  301894:	61 e3       	mov	r14,r1
  301896:	71 f0       	add	#-16,r1
  301898:	51 1a       	mov.l	@(40,r1),r1
  30189a:	52 11       	mov.l	@(4,r1),r2
  30189c:	61 e3       	mov	r14,r1
  30189e:	71 f0       	add	#-16,r1
  3018a0:	51 1a       	mov.l	@(40,r1),r1
  3018a2:	84 13       	mov.b	@(3,r1),r0
  3018a4:	61 03       	mov	r0,r1
  3018a6:	61 1c       	extu.b	r1,r1
  3018a8:	41 08       	shll2	r1
  3018aa:	31 2c       	add	r2,r1
  3018ac:	62 12       	mov.l	@r1,r2
  3018ae:	61 e3       	mov	r14,r1
  3018b0:	71 f0       	add	#-16,r1
  3018b2:	51 1a       	mov.l	@(40,r1),r1
  3018b4:	84 12       	mov.b	@(2,r1),r0
  3018b6:	61 03       	mov	r0,r1
  3018b8:	61 1c       	extu.b	r1,r1
  3018ba:	41 08       	shll2	r1
  3018bc:	31 2c       	add	r2,r1
  3018be:	61 12       	mov.l	@r1,r1
  3018c0:	71 10       	add	#16,r1
  3018c2:	e2 01       	mov	#1,r2
  3018c4:	21 20       	mov.b	r2,@r1
  3018c6:	61 e3       	mov	r14,r1
  3018c8:	71 f0       	add	#-16,r1
  3018ca:	51 1a       	mov.l	@(40,r1),r1
  3018cc:	51 11       	mov.l	@(4,r1),r1
  3018ce:	61 12       	mov.l	@r1,r1
  3018d0:	61 12       	mov.l	@r1,r1
  3018d2:	d2 1f       	mov.l	301950 <_new_tableux+0x368>,r2	! 30b4d4
  3018d4:	11 26       	mov.l	r2,@(24,r1)
  3018d6:	61 e3       	mov	r14,r1
  3018d8:	71 f0       	add	#-16,r1
  3018da:	51 1a       	mov.l	@(40,r1),r1
  3018dc:	51 11       	mov.l	@(4,r1),r1
  3018de:	62 12       	mov.l	@r1,r2
  3018e0:	61 e3       	mov	r14,r1
  3018e2:	84 18       	mov.b	@(8,r1),r0
  3018e4:	61 03       	mov	r0,r1
  3018e6:	61 1c       	extu.b	r1,r1
  3018e8:	d3 1a       	mov.l	301954 <_new_tableux+0x36c>,r3	! 3fffffff
  3018ea:	31 3c       	add	r3,r1
  3018ec:	41 08       	shll2	r1
  3018ee:	31 2c       	add	r2,r1
  3018f0:	61 12       	mov.l	@r1,r1
  3018f2:	d2 19       	mov.l	301958 <_new_tableux+0x370>,r2	! 30b4dc
  3018f4:	11 26       	mov.l	r2,@(24,r1)
  3018f6:	61 e3       	mov	r14,r1
  3018f8:	71 f0       	add	#-16,r1
  3018fa:	51 1a       	mov.l	@(40,r1),r1
  3018fc:	51 11       	mov.l	@(4,r1),r1
  3018fe:	61 12       	mov.l	@r1,r1
  301900:	61 12       	mov.l	@r1,r1
  301902:	71 10       	add	#16,r1
  301904:	e2 00       	mov	#0,r2
  301906:	60 23       	mov	r2,r0
  301908:	80 12       	mov.b	r0,@(2,r1)
  30190a:	61 e3       	mov	r14,r1
  30190c:	71 f0       	add	#-16,r1
  30190e:	51 1a       	mov.l	@(40,r1),r1
  301910:	51 11       	mov.l	@(4,r1),r1
  301912:	62 12       	mov.l	@r1,r2
  301914:	61 e3       	mov	r14,r1
  301916:	84 18       	mov.b	@(8,r1),r0
  301918:	61 03       	mov	r0,r1
  30191a:	61 1c       	extu.b	r1,r1
  30191c:	d3 0d       	mov.l	301954 <_new_tableux+0x36c>,r3	! 3fffffff
  30191e:	31 3c       	add	r3,r1
  301920:	41 08       	shll2	r1
  301922:	31 2c       	add	r2,r1
  301924:	61 12       	mov.l	@r1,r1
  301926:	71 10       	add	#16,r1
  301928:	e2 00       	mov	#0,r2
  30192a:	60 23       	mov	r2,r0
  30192c:	80 12       	mov.b	r0,@(2,r1)
  30192e:	61 e3       	mov	r14,r1
  301930:	71 f0       	add	#-16,r1
  301932:	51 1a       	mov.l	@(40,r1),r1
  301934:	60 13       	mov	r1,r0
  301936:	7e 30       	add	#48,r14
  301938:	6f e3       	mov	r14,r15
  30193a:	4f 26       	lds.l	@r15+,pr
  30193c:	6e f6       	mov.l	@r15+,r14
  30193e:	68 f6       	mov.l	@r15+,r8
  301940:	00 0b       	rts	
  301942:	00 09       	nop	
  301944:	00 30       	.word 0x0030
  301946:	b4 d0       	bsr	3022ea <_process_common_keys+0x4>
  301948:	00 30       	.word 0x0030
  30194a:	13 98       	mov.l	r9,@(32,r3)
  30194c:	00 00       	.word 0x0000
  30194e:	de fb       	mov.l	301d3c <_extract_column_names+0x70>,r14	! 312c6312
  301950:	00 30       	.word 0x0030
  301952:	b4 d4       	bsr	3022fe <_process_common_keys+0x18>
  301954:	3f ff       	addv	r15,r15
  301956:	ff ff       	.word 0xffff
  301958:	00 30       	.word 0x0030
  30195a:	b4 dc       	bsr	302316 <_process_common_keys+0x30>

0030195c <_free_tableux>:
  30195c:	2f e6       	mov.l	r14,@-r15
  30195e:	4f 22       	sts.l	pr,@-r15
  301960:	7f f4       	add	#-12,r15
  301962:	6e f3       	mov	r15,r14
  301964:	61 e3       	mov	r14,r1
  301966:	71 cc       	add	#-52,r1
  301968:	11 4d       	mov.l	r4,@(52,r1)
  30196a:	61 e3       	mov	r14,r1
  30196c:	71 cc       	add	#-52,r1
  30196e:	51 1d       	mov.l	@(52,r1),r1
  301970:	21 18       	tst	r1,r1
  301972:	8b 01       	bf	301978 <_free_tableux+0x1c>
  301974:	a0 81       	bra	301a7a <_free_tableux+0x11e>
  301976:	00 09       	nop	
  301978:	61 e3       	mov	r14,r1
  30197a:	71 cc       	add	#-52,r1
  30197c:	e2 00       	mov	#0,r2
  30197e:	11 2f       	mov.l	r2,@(60,r1)
  301980:	a0 60       	bra	301a44 <_free_tableux+0xe8>
  301982:	00 09       	nop	
  301984:	61 e3       	mov	r14,r1
  301986:	71 cc       	add	#-52,r1
  301988:	e2 00       	mov	#0,r2
  30198a:	11 2e       	mov.l	r2,@(56,r1)
  30198c:	a0 39       	bra	301a02 <_free_tableux+0xa6>
  30198e:	00 09       	nop	
  301990:	61 e3       	mov	r14,r1
  301992:	71 cc       	add	#-52,r1
  301994:	51 1d       	mov.l	@(52,r1),r1
  301996:	52 11       	mov.l	@(4,r1),r2
  301998:	61 e3       	mov	r14,r1
  30199a:	71 cc       	add	#-52,r1
  30199c:	51 1f       	mov.l	@(60,r1),r1
  30199e:	41 08       	shll2	r1
  3019a0:	31 2c       	add	r2,r1
  3019a2:	61 12       	mov.l	@r1,r1
  3019a4:	21 18       	tst	r1,r1
  3019a6:	89 25       	bt	3019f4 <_free_tableux+0x98>
  3019a8:	61 e3       	mov	r14,r1
  3019aa:	71 cc       	add	#-52,r1
  3019ac:	51 1d       	mov.l	@(52,r1),r1
  3019ae:	52 11       	mov.l	@(4,r1),r2
  3019b0:	61 e3       	mov	r14,r1
  3019b2:	71 cc       	add	#-52,r1
  3019b4:	51 1f       	mov.l	@(60,r1),r1
  3019b6:	41 08       	shll2	r1
  3019b8:	31 2c       	add	r2,r1
  3019ba:	62 12       	mov.l	@r1,r2
  3019bc:	61 e3       	mov	r14,r1
  3019be:	71 cc       	add	#-52,r1
  3019c0:	51 1e       	mov.l	@(56,r1),r1
  3019c2:	41 08       	shll2	r1
  3019c4:	31 2c       	add	r2,r1
  3019c6:	61 12       	mov.l	@r1,r1
  3019c8:	21 18       	tst	r1,r1
  3019ca:	89 13       	bt	3019f4 <_free_tableux+0x98>
  3019cc:	61 e3       	mov	r14,r1
  3019ce:	71 cc       	add	#-52,r1
  3019d0:	51 1d       	mov.l	@(52,r1),r1
  3019d2:	52 11       	mov.l	@(4,r1),r2
  3019d4:	61 e3       	mov	r14,r1
  3019d6:	71 cc       	add	#-52,r1
  3019d8:	51 1f       	mov.l	@(60,r1),r1
  3019da:	41 08       	shll2	r1
  3019dc:	31 2c       	add	r2,r1
  3019de:	62 12       	mov.l	@r1,r2
  3019e0:	61 e3       	mov	r14,r1
  3019e2:	71 cc       	add	#-52,r1
  3019e4:	51 1e       	mov.l	@(56,r1),r1
  3019e6:	41 08       	shll2	r1
  3019e8:	31 2c       	add	r2,r1
  3019ea:	61 12       	mov.l	@r1,r1
  3019ec:	64 13       	mov	r1,r4
  3019ee:	d1 26       	mov.l	301a88 <_free_tableux+0x12c>,r1	! 301490 <_free_viscell>
  3019f0:	41 0b       	jsr	@r1
  3019f2:	00 09       	nop	
  3019f4:	61 e3       	mov	r14,r1
  3019f6:	71 cc       	add	#-52,r1
  3019f8:	62 e3       	mov	r14,r2
  3019fa:	72 cc       	add	#-52,r2
  3019fc:	52 2e       	mov.l	@(56,r2),r2
  3019fe:	72 01       	add	#1,r2
  301a00:	11 2e       	mov.l	r2,@(56,r1)
  301a02:	61 e3       	mov	r14,r1
  301a04:	71 cc       	add	#-52,r1
  301a06:	51 1d       	mov.l	@(52,r1),r1
  301a08:	84 11       	mov.b	@(1,r1),r0
  301a0a:	61 03       	mov	r0,r1
  301a0c:	61 1c       	extu.b	r1,r1
  301a0e:	62 13       	mov	r1,r2
  301a10:	61 e3       	mov	r14,r1
  301a12:	71 cc       	add	#-52,r1
  301a14:	51 1e       	mov.l	@(56,r1),r1
  301a16:	31 23       	cmp/ge	r2,r1
  301a18:	8b ba       	bf	301990 <_free_tableux+0x34>
  301a1a:	61 e3       	mov	r14,r1
  301a1c:	71 cc       	add	#-52,r1
  301a1e:	51 1d       	mov.l	@(52,r1),r1
  301a20:	52 11       	mov.l	@(4,r1),r2
  301a22:	61 e3       	mov	r14,r1
  301a24:	71 cc       	add	#-52,r1
  301a26:	51 1f       	mov.l	@(60,r1),r1
  301a28:	41 08       	shll2	r1
  301a2a:	31 2c       	add	r2,r1
  301a2c:	61 12       	mov.l	@r1,r1
  301a2e:	64 13       	mov	r1,r4
  301a30:	d1 16       	mov.l	301a8c <_free_tableux+0x130>,r1	! 309244 <_free>
  301a32:	41 0b       	jsr	@r1
  301a34:	00 09       	nop	
  301a36:	61 e3       	mov	r14,r1
  301a38:	71 cc       	add	#-52,r1
  301a3a:	62 e3       	mov	r14,r2
  301a3c:	72 cc       	add	#-52,r2
  301a3e:	52 2f       	mov.l	@(60,r2),r2
  301a40:	72 01       	add	#1,r2
  301a42:	11 2f       	mov.l	r2,@(60,r1)
  301a44:	61 e3       	mov	r14,r1
  301a46:	71 cc       	add	#-52,r1
  301a48:	51 1d       	mov.l	@(52,r1),r1
  301a4a:	61 10       	mov.b	@r1,r1
  301a4c:	61 1c       	extu.b	r1,r1
  301a4e:	62 13       	mov	r1,r2
  301a50:	61 e3       	mov	r14,r1
  301a52:	71 cc       	add	#-52,r1
  301a54:	51 1f       	mov.l	@(60,r1),r1
  301a56:	31 23       	cmp/ge	r2,r1
  301a58:	8b 94       	bf	301984 <_free_tableux+0x28>
  301a5a:	61 e3       	mov	r14,r1
  301a5c:	71 cc       	add	#-52,r1
  301a5e:	51 1d       	mov.l	@(52,r1),r1
  301a60:	51 11       	mov.l	@(4,r1),r1
  301a62:	64 13       	mov	r1,r4
  301a64:	d1 09       	mov.l	301a8c <_free_tableux+0x130>,r1	! 309244 <_free>
  301a66:	41 0b       	jsr	@r1
  301a68:	00 09       	nop	
  301a6a:	61 e3       	mov	r14,r1
  301a6c:	71 cc       	add	#-52,r1
  301a6e:	54 1d       	mov.l	@(52,r1),r4
  301a70:	d1 06       	mov.l	301a8c <_free_tableux+0x130>,r1	! 309244 <_free>
  301a72:	41 0b       	jsr	@r1
  301a74:	00 09       	nop	
  301a76:	a0 01       	bra	301a7c <_free_tableux+0x120>
  301a78:	00 09       	nop	
  301a7a:	00 09       	nop	
  301a7c:	7e 0c       	add	#12,r14
  301a7e:	6f e3       	mov	r14,r15
  301a80:	4f 26       	lds.l	@r15+,pr
  301a82:	6e f6       	mov.l	@r15+,r14
  301a84:	00 0b       	rts	
  301a86:	00 09       	nop	
  301a88:	00 30       	.word 0x0030
  301a8a:	14 90       	mov.l	r9,@(0,r4)
  301a8c:	00 30       	.word 0x0030
  301a8e:	92 44       	mov.w	301b1a <_display_tableux+0x8a>,r2	! 611c

00301a90 <_display_tableux>:
  301a90:	2f e6       	mov.l	r14,@-r15
  301a92:	4f 22       	sts.l	pr,@-r15
  301a94:	7f f4       	add	#-12,r15
  301a96:	6e f3       	mov	r15,r14
  301a98:	61 e3       	mov	r14,r1
  301a9a:	71 cc       	add	#-52,r1
  301a9c:	11 4d       	mov.l	r4,@(52,r1)
  301a9e:	61 e3       	mov	r14,r1
  301aa0:	71 cc       	add	#-52,r1
  301aa2:	e2 00       	mov	#0,r2
  301aa4:	11 2f       	mov.l	r2,@(60,r1)
  301aa6:	a0 34       	bra	301b12 <_display_tableux+0x82>
  301aa8:	00 09       	nop	
  301aaa:	61 e3       	mov	r14,r1
  301aac:	71 cc       	add	#-52,r1
  301aae:	e2 00       	mov	#0,r2
  301ab0:	11 2e       	mov.l	r2,@(56,r1)
  301ab2:	a0 1b       	bra	301aec <_display_tableux+0x5c>
  301ab4:	00 09       	nop	
  301ab6:	61 e3       	mov	r14,r1
  301ab8:	71 cc       	add	#-52,r1
  301aba:	51 1d       	mov.l	@(52,r1),r1
  301abc:	52 11       	mov.l	@(4,r1),r2
  301abe:	61 e3       	mov	r14,r1
  301ac0:	71 cc       	add	#-52,r1
  301ac2:	51 1f       	mov.l	@(60,r1),r1
  301ac4:	41 08       	shll2	r1
  301ac6:	31 2c       	add	r2,r1
  301ac8:	62 12       	mov.l	@r1,r2
  301aca:	61 e3       	mov	r14,r1
  301acc:	71 cc       	add	#-52,r1
  301ace:	51 1e       	mov.l	@(56,r1),r1
  301ad0:	41 08       	shll2	r1
  301ad2:	31 2c       	add	r2,r1
  301ad4:	61 12       	mov.l	@r1,r1
  301ad6:	64 13       	mov	r1,r4
  301ad8:	d1 17       	mov.l	301b38 <_display_tableux+0xa8>,r1	! 30154c <_draw_cell>
  301ada:	41 0b       	jsr	@r1
  301adc:	00 09       	nop	
  301ade:	61 e3       	mov	r14,r1
  301ae0:	71 cc       	add	#-52,r1
  301ae2:	62 e3       	mov	r14,r2
  301ae4:	72 cc       	add	#-52,r2
  301ae6:	52 2e       	mov.l	@(56,r2),r2
  301ae8:	72 01       	add	#1,r2
  301aea:	11 2e       	mov.l	r2,@(56,r1)
  301aec:	61 e3       	mov	r14,r1
  301aee:	71 cc       	add	#-52,r1
  301af0:	51 1d       	mov.l	@(52,r1),r1
  301af2:	84 11       	mov.b	@(1,r1),r0
  301af4:	61 03       	mov	r0,r1
  301af6:	61 1c       	extu.b	r1,r1
  301af8:	62 13       	mov	r1,r2
  301afa:	61 e3       	mov	r14,r1
  301afc:	71 cc       	add	#-52,r1
  301afe:	51 1e       	mov.l	@(56,r1),r1
  301b00:	31 23       	cmp/ge	r2,r1
  301b02:	8b d8       	bf	301ab6 <_display_tableux+0x26>
  301b04:	61 e3       	mov	r14,r1
  301b06:	71 cc       	add	#-52,r1
  301b08:	62 e3       	mov	r14,r2
  301b0a:	72 cc       	add	#-52,r2
  301b0c:	52 2f       	mov.l	@(60,r2),r2
  301b0e:	72 01       	add	#1,r2
  301b10:	11 2f       	mov.l	r2,@(60,r1)
  301b12:	61 e3       	mov	r14,r1
  301b14:	71 cc       	add	#-52,r1
  301b16:	51 1d       	mov.l	@(52,r1),r1
  301b18:	61 10       	mov.b	@r1,r1
  301b1a:	61 1c       	extu.b	r1,r1
  301b1c:	62 13       	mov	r1,r2
  301b1e:	61 e3       	mov	r14,r1
  301b20:	71 cc       	add	#-52,r1
  301b22:	51 1f       	mov.l	@(60,r1),r1
  301b24:	31 23       	cmp/ge	r2,r1
  301b26:	8b c0       	bf	301aaa <_display_tableux+0x1a>
  301b28:	00 09       	nop	
  301b2a:	00 09       	nop	
  301b2c:	7e 0c       	add	#12,r14
  301b2e:	6f e3       	mov	r14,r15
  301b30:	4f 26       	lds.l	@r15+,pr
  301b32:	6e f6       	mov.l	@r15+,r14
  301b34:	00 0b       	rts	
  301b36:	00 09       	nop	
  301b38:	00 30       	.word 0x0030
  301b3a:	15 4c       	mov.l	r4,@(48,r5)

00301b3c <_update_cursor>:
  301b3c:	2f e6       	mov.l	r14,@-r15
  301b3e:	7f f4       	add	#-12,r15
  301b40:	6e f3       	mov	r15,r14
  301b42:	62 43       	mov	r4,r2
  301b44:	63 53       	mov	r5,r3
  301b46:	61 e3       	mov	r14,r1
  301b48:	71 cc       	add	#-52,r1
  301b4a:	11 6d       	mov.l	r6,@(52,r1)
  301b4c:	61 e3       	mov	r14,r1
  301b4e:	71 fc       	add	#-4,r1
  301b50:	60 23       	mov	r2,r0
  301b52:	80 1c       	mov.b	r0,@(12,r1)
  301b54:	61 e3       	mov	r14,r1
  301b56:	71 fc       	add	#-4,r1
  301b58:	62 33       	mov	r3,r2
  301b5a:	60 23       	mov	r2,r0
  301b5c:	80 18       	mov.b	r0,@(8,r1)
  301b5e:	61 e3       	mov	r14,r1
  301b60:	71 cc       	add	#-52,r1
  301b62:	51 1d       	mov.l	@(52,r1),r1
  301b64:	52 11       	mov.l	@(4,r1),r2
  301b66:	61 e3       	mov	r14,r1
  301b68:	71 cc       	add	#-52,r1
  301b6a:	51 1d       	mov.l	@(52,r1),r1
  301b6c:	84 13       	mov.b	@(3,r1),r0
  301b6e:	61 03       	mov	r0,r1
  301b70:	61 1c       	extu.b	r1,r1
  301b72:	41 08       	shll2	r1
  301b74:	31 2c       	add	r2,r1
  301b76:	62 12       	mov.l	@r1,r2
  301b78:	61 e3       	mov	r14,r1
  301b7a:	71 cc       	add	#-52,r1
  301b7c:	51 1d       	mov.l	@(52,r1),r1
  301b7e:	84 12       	mov.b	@(2,r1),r0
  301b80:	61 03       	mov	r0,r1
  301b82:	61 1c       	extu.b	r1,r1
  301b84:	41 08       	shll2	r1
  301b86:	31 2c       	add	r2,r1
  301b88:	61 12       	mov.l	@r1,r1
  301b8a:	71 10       	add	#16,r1
  301b8c:	e2 00       	mov	#0,r2
  301b8e:	21 20       	mov.b	r2,@r1
  301b90:	61 e3       	mov	r14,r1
  301b92:	71 cc       	add	#-52,r1
  301b94:	51 1d       	mov.l	@(52,r1),r1
  301b96:	52 11       	mov.l	@(4,r1),r2
  301b98:	61 e3       	mov	r14,r1
  301b9a:	71 fc       	add	#-4,r1
  301b9c:	84 18       	mov.b	@(8,r1),r0
  301b9e:	61 03       	mov	r0,r1
  301ba0:	61 1c       	extu.b	r1,r1
  301ba2:	41 08       	shll2	r1
  301ba4:	31 2c       	add	r2,r1
  301ba6:	62 12       	mov.l	@r1,r2
  301ba8:	61 e3       	mov	r14,r1
  301baa:	71 fc       	add	#-4,r1
  301bac:	84 1c       	mov.b	@(12,r1),r0
  301bae:	61 03       	mov	r0,r1
  301bb0:	61 1c       	extu.b	r1,r1
  301bb2:	41 08       	shll2	r1
  301bb4:	31 2c       	add	r2,r1
  301bb6:	61 12       	mov.l	@r1,r1
  301bb8:	71 10       	add	#16,r1
  301bba:	e2 01       	mov	#1,r2
  301bbc:	21 20       	mov.b	r2,@r1
  301bbe:	61 e3       	mov	r14,r1
  301bc0:	71 cc       	add	#-52,r1
  301bc2:	51 1d       	mov.l	@(52,r1),r1
  301bc4:	62 e3       	mov	r14,r2
  301bc6:	72 fc       	add	#-4,r2
  301bc8:	84 2c       	mov.b	@(12,r2),r0
  301bca:	62 03       	mov	r0,r2
  301bcc:	60 23       	mov	r2,r0
  301bce:	80 12       	mov.b	r0,@(2,r1)
  301bd0:	61 e3       	mov	r14,r1
  301bd2:	71 cc       	add	#-52,r1
  301bd4:	51 1d       	mov.l	@(52,r1),r1
  301bd6:	62 e3       	mov	r14,r2
  301bd8:	72 fc       	add	#-4,r2
  301bda:	84 28       	mov.b	@(8,r2),r0
  301bdc:	62 03       	mov	r0,r2
  301bde:	60 23       	mov	r2,r0
  301be0:	80 13       	mov.b	r0,@(3,r1)
  301be2:	00 09       	nop	
  301be4:	7e 0c       	add	#12,r14
  301be6:	6f e3       	mov	r14,r15
  301be8:	6e f6       	mov.l	@r15+,r14
  301bea:	00 0b       	rts	
  301bec:	00 09       	nop	

00301bee <_extract_row_names>:
  301bee:	2f 86       	mov.l	r8,@-r15
  301bf0:	2f e6       	mov.l	r14,@-r15
  301bf2:	4f 22       	sts.l	pr,@-r15
  301bf4:	7f f4       	add	#-12,r15
  301bf6:	6e f3       	mov	r15,r14
  301bf8:	61 e3       	mov	r14,r1
  301bfa:	71 cc       	add	#-52,r1
  301bfc:	11 4d       	mov.l	r4,@(52,r1)
  301bfe:	61 e3       	mov	r14,r1
  301c00:	71 cc       	add	#-52,r1
  301c02:	51 1d       	mov.l	@(52,r1),r1
  301c04:	61 10       	mov.b	@r1,r1
  301c06:	61 1c       	extu.b	r1,r1
  301c08:	71 ff       	add	#-1,r1
  301c0a:	68 e3       	mov	r14,r8
  301c0c:	78 cc       	add	#-52,r8
  301c0e:	e5 04       	mov	#4,r5
  301c10:	64 13       	mov	r1,r4
  301c12:	d1 2a       	mov.l	301cbc <_extract_row_names+0xce>,r1	! 308ee0 <_calloc>
  301c14:	41 0b       	jsr	@r1
  301c16:	00 09       	nop	
  301c18:	61 03       	mov	r0,r1
  301c1a:	18 1e       	mov.l	r1,@(56,r8)
  301c1c:	61 e3       	mov	r14,r1
  301c1e:	71 cc       	add	#-52,r1
  301c20:	e2 01       	mov	#1,r2
  301c22:	11 2f       	mov.l	r2,@(60,r1)
  301c24:	a0 34       	bra	301c90 <_extract_row_names+0xa2>
  301c26:	00 09       	nop	
  301c28:	61 e3       	mov	r14,r1
  301c2a:	71 cc       	add	#-52,r1
  301c2c:	51 1f       	mov.l	@(60,r1),r1
  301c2e:	d2 24       	mov.l	301cc0 <_extract_row_names+0xd2>,r2	! 3fffffff
  301c30:	31 2c       	add	r2,r1
  301c32:	41 08       	shll2	r1
  301c34:	62 e3       	mov	r14,r2
  301c36:	72 cc       	add	#-52,r2
  301c38:	52 2e       	mov.l	@(56,r2),r2
  301c3a:	68 23       	mov	r2,r8
  301c3c:	38 1c       	add	r1,r8
  301c3e:	e4 03       	mov	#3,r4
  301c40:	d1 20       	mov.l	301cc4 <_extract_row_names+0xd6>,r1	! 309250 <_malloc>
  301c42:	41 0b       	jsr	@r1
  301c44:	00 09       	nop	
  301c46:	61 03       	mov	r0,r1
  301c48:	28 12       	mov.l	r1,@r8
  301c4a:	61 e3       	mov	r14,r1
  301c4c:	71 cc       	add	#-52,r1
  301c4e:	51 1f       	mov.l	@(60,r1),r1
  301c50:	d2 1b       	mov.l	301cc0 <_extract_row_names+0xd2>,r2	! 3fffffff
  301c52:	31 2c       	add	r2,r1
  301c54:	41 08       	shll2	r1
  301c56:	62 e3       	mov	r14,r2
  301c58:	72 cc       	add	#-52,r2
  301c5a:	52 2e       	mov.l	@(56,r2),r2
  301c5c:	31 2c       	add	r2,r1
  301c5e:	63 12       	mov.l	@r1,r3
  301c60:	61 e3       	mov	r14,r1
  301c62:	71 cc       	add	#-52,r1
  301c64:	51 1d       	mov.l	@(52,r1),r1
  301c66:	52 11       	mov.l	@(4,r1),r2
  301c68:	61 e3       	mov	r14,r1
  301c6a:	71 cc       	add	#-52,r1
  301c6c:	51 1f       	mov.l	@(60,r1),r1
  301c6e:	41 08       	shll2	r1
  301c70:	31 2c       	add	r2,r1
  301c72:	61 12       	mov.l	@r1,r1
  301c74:	61 12       	mov.l	@r1,r1
  301c76:	51 16       	mov.l	@(24,r1),r1
  301c78:	65 13       	mov	r1,r5
  301c7a:	64 33       	mov	r3,r4
  301c7c:	d1 12       	mov.l	301cc8 <_extract_row_names+0xda>,r1	! 308fb6 <_strcpy>
  301c7e:	41 0b       	jsr	@r1
  301c80:	00 09       	nop	
  301c82:	61 e3       	mov	r14,r1
  301c84:	71 cc       	add	#-52,r1
  301c86:	62 e3       	mov	r14,r2
  301c88:	72 cc       	add	#-52,r2
  301c8a:	52 2f       	mov.l	@(60,r2),r2
  301c8c:	72 01       	add	#1,r2
  301c8e:	11 2f       	mov.l	r2,@(60,r1)
  301c90:	61 e3       	mov	r14,r1
  301c92:	71 cc       	add	#-52,r1
  301c94:	51 1d       	mov.l	@(52,r1),r1
  301c96:	61 10       	mov.b	@r1,r1
  301c98:	61 1c       	extu.b	r1,r1
  301c9a:	71 ff       	add	#-1,r1
  301c9c:	62 e3       	mov	r14,r2
  301c9e:	72 cc       	add	#-52,r2
  301ca0:	52 2f       	mov.l	@(60,r2),r2
  301ca2:	32 13       	cmp/ge	r1,r2
  301ca4:	8b c0       	bf	301c28 <_extract_row_names+0x3a>
  301ca6:	61 e3       	mov	r14,r1
  301ca8:	71 cc       	add	#-52,r1
  301caa:	51 1e       	mov.l	@(56,r1),r1
  301cac:	60 13       	mov	r1,r0
  301cae:	7e 0c       	add	#12,r14
  301cb0:	6f e3       	mov	r14,r15
  301cb2:	4f 26       	lds.l	@r15+,pr
  301cb4:	6e f6       	mov.l	@r15+,r14
  301cb6:	68 f6       	mov.l	@r15+,r8
  301cb8:	00 0b       	rts	
  301cba:	00 09       	nop	
  301cbc:	00 30       	.word 0x0030
  301cbe:	8e e0       	ldre	301e82 <_extract_grid+0xd2>	! 9
  301cc0:	3f ff       	addv	r15,r15
  301cc2:	ff ff       	.word 0xffff
  301cc4:	00 30       	.word 0x0030
  301cc6:	92 50       	mov.w	301d6a <_extract_column_names+0x9e>,r2	! 522f
  301cc8:	00 30       	.word 0x0030
  301cca:	8f b6       	bf.s	301c3a <_extract_row_names+0x4c>

00301ccc <_extract_column_names>:
  301ccc:	2f 86       	mov.l	r8,@-r15
  301cce:	2f e6       	mov.l	r14,@-r15
  301cd0:	4f 22       	sts.l	pr,@-r15
  301cd2:	7f f4       	add	#-12,r15
  301cd4:	6e f3       	mov	r15,r14
  301cd6:	61 e3       	mov	r14,r1
  301cd8:	71 cc       	add	#-52,r1
  301cda:	11 4d       	mov.l	r4,@(52,r1)
  301cdc:	61 e3       	mov	r14,r1
  301cde:	71 cc       	add	#-52,r1
  301ce0:	51 1d       	mov.l	@(52,r1),r1
  301ce2:	84 11       	mov.b	@(1,r1),r0
  301ce4:	61 03       	mov	r0,r1
  301ce6:	61 1c       	extu.b	r1,r1
  301ce8:	71 ff       	add	#-1,r1
  301cea:	68 e3       	mov	r14,r8
  301cec:	78 cc       	add	#-52,r8
  301cee:	e5 04       	mov	#4,r5
  301cf0:	64 13       	mov	r1,r4
  301cf2:	d1 2b       	mov.l	301da0 <_extract_column_names+0xd4>,r1	! 308ee0 <_calloc>
  301cf4:	41 0b       	jsr	@r1
  301cf6:	00 09       	nop	
  301cf8:	61 03       	mov	r0,r1
  301cfa:	18 1e       	mov.l	r1,@(56,r8)
  301cfc:	61 e3       	mov	r14,r1
  301cfe:	71 cc       	add	#-52,r1
  301d00:	e2 01       	mov	#1,r2
  301d02:	11 2f       	mov.l	r2,@(60,r1)
  301d04:	a0 34       	bra	301d70 <_extract_column_names+0xa4>
  301d06:	00 09       	nop	
  301d08:	61 e3       	mov	r14,r1
  301d0a:	71 cc       	add	#-52,r1
  301d0c:	51 1f       	mov.l	@(60,r1),r1
  301d0e:	d2 25       	mov.l	301da4 <_extract_column_names+0xd8>,r2	! 3fffffff
  301d10:	31 2c       	add	r2,r1
  301d12:	41 08       	shll2	r1
  301d14:	62 e3       	mov	r14,r2
  301d16:	72 cc       	add	#-52,r2
  301d18:	52 2e       	mov.l	@(56,r2),r2
  301d1a:	68 23       	mov	r2,r8
  301d1c:	38 1c       	add	r1,r8
  301d1e:	e4 03       	mov	#3,r4
  301d20:	d1 21       	mov.l	301da8 <_extract_column_names+0xdc>,r1	! 309250 <_malloc>
  301d22:	41 0b       	jsr	@r1
  301d24:	00 09       	nop	
  301d26:	61 03       	mov	r0,r1
  301d28:	28 12       	mov.l	r1,@r8
  301d2a:	61 e3       	mov	r14,r1
  301d2c:	71 cc       	add	#-52,r1
  301d2e:	51 1f       	mov.l	@(60,r1),r1
  301d30:	d0 1c       	mov.l	301da4 <_extract_column_names+0xd8>,r0	! 3fffffff
  301d32:	31 0c       	add	r0,r1
  301d34:	41 08       	shll2	r1
  301d36:	62 e3       	mov	r14,r2
  301d38:	72 cc       	add	#-52,r2
  301d3a:	52 2e       	mov.l	@(56,r2),r2
  301d3c:	31 2c       	add	r2,r1
  301d3e:	63 12       	mov.l	@r1,r3
  301d40:	61 e3       	mov	r14,r1
  301d42:	71 cc       	add	#-52,r1
  301d44:	51 1d       	mov.l	@(52,r1),r1
  301d46:	51 11       	mov.l	@(4,r1),r1
  301d48:	62 12       	mov.l	@r1,r2
  301d4a:	61 e3       	mov	r14,r1
  301d4c:	71 cc       	add	#-52,r1
  301d4e:	51 1f       	mov.l	@(60,r1),r1
  301d50:	41 08       	shll2	r1
  301d52:	31 2c       	add	r2,r1
  301d54:	61 12       	mov.l	@r1,r1
  301d56:	51 16       	mov.l	@(24,r1),r1
  301d58:	65 13       	mov	r1,r5
  301d5a:	64 33       	mov	r3,r4
  301d5c:	d1 13       	mov.l	301dac <_extract_column_names+0xe0>,r1	! 308fb6 <_strcpy>
  301d5e:	41 0b       	jsr	@r1
  301d60:	00 09       	nop	
  301d62:	61 e3       	mov	r14,r1
  301d64:	71 cc       	add	#-52,r1
  301d66:	62 e3       	mov	r14,r2
  301d68:	72 cc       	add	#-52,r2
  301d6a:	52 2f       	mov.l	@(60,r2),r2
  301d6c:	72 01       	add	#1,r2
  301d6e:	11 2f       	mov.l	r2,@(60,r1)
  301d70:	61 e3       	mov	r14,r1
  301d72:	71 cc       	add	#-52,r1
  301d74:	51 1d       	mov.l	@(52,r1),r1
  301d76:	84 11       	mov.b	@(1,r1),r0
  301d78:	61 03       	mov	r0,r1
  301d7a:	61 1c       	extu.b	r1,r1
  301d7c:	71 ff       	add	#-1,r1
  301d7e:	62 e3       	mov	r14,r2
  301d80:	72 cc       	add	#-52,r2
  301d82:	52 2f       	mov.l	@(60,r2),r2
  301d84:	32 13       	cmp/ge	r1,r2
  301d86:	8b bf       	bf	301d08 <_extract_column_names+0x3c>
  301d88:	61 e3       	mov	r14,r1
  301d8a:	71 cc       	add	#-52,r1
  301d8c:	51 1e       	mov.l	@(56,r1),r1
  301d8e:	60 13       	mov	r1,r0
  301d90:	7e 0c       	add	#12,r14
  301d92:	6f e3       	mov	r14,r15
  301d94:	4f 26       	lds.l	@r15+,pr
  301d96:	6e f6       	mov.l	@r15+,r14
  301d98:	68 f6       	mov.l	@r15+,r8
  301d9a:	00 0b       	rts	
  301d9c:	00 09       	nop	
  301d9e:	00 09       	nop	
  301da0:	00 30       	.word 0x0030
  301da2:	8e e0       	ldre	301f66 <_matrix_into_tableux+0x6>	! 7fd0
  301da4:	3f ff       	addv	r15,r15
  301da6:	ff ff       	.word 0xffff
  301da8:	00 30       	.word 0x0030
  301daa:	92 50       	mov.w	301e4e <_extract_grid+0x9e>,r2	! 61e3
  301dac:	00 30       	.word 0x0030
  301dae:	8f b6       	bf.s	301d1e <_extract_column_names+0x52>

00301db0 <_extract_grid>:
  301db0:	2f 86       	mov.l	r8,@-r15
  301db2:	2f a6       	mov.l	r10,@-r15
  301db4:	2f b6       	mov.l	r11,@-r15
  301db6:	2f e6       	mov.l	r14,@-r15
  301db8:	4f 22       	sts.l	pr,@-r15
  301dba:	7f dc       	add	#-36,r15
  301dbc:	6e f3       	mov	r15,r14
  301dbe:	61 e3       	mov	r14,r1
  301dc0:	71 e4       	add	#-28,r1
  301dc2:	11 4b       	mov.l	r4,@(44,r1)
  301dc4:	61 e3       	mov	r14,r1
  301dc6:	71 e4       	add	#-28,r1
  301dc8:	51 1b       	mov.l	@(44,r1),r1
  301dca:	61 10       	mov.b	@r1,r1
  301dcc:	61 1c       	extu.b	r1,r1
  301dce:	71 ff       	add	#-1,r1
  301dd0:	68 e3       	mov	r14,r8
  301dd2:	78 e4       	add	#-28,r8
  301dd4:	e5 04       	mov	#4,r5
  301dd6:	64 13       	mov	r1,r4
  301dd8:	d1 5d       	mov.l	301f50 <_extract_grid+0x1a0>,r1	! 308ee0 <_calloc>
  301dda:	41 0b       	jsr	@r1
  301ddc:	00 09       	nop	
  301dde:	61 03       	mov	r0,r1
  301de0:	18 1c       	mov.l	r1,@(48,r8)
  301de2:	61 e3       	mov	r14,r1
  301de4:	71 e4       	add	#-28,r1
  301de6:	e2 00       	mov	#0,r2
  301de8:	11 2f       	mov.l	r2,@(60,r1)
  301dea:	a0 1f       	bra	301e2c <_extract_grid+0x7c>
  301dec:	00 09       	nop	
  301dee:	61 e3       	mov	r14,r1
  301df0:	71 e4       	add	#-28,r1
  301df2:	51 1b       	mov.l	@(44,r1),r1
  301df4:	84 11       	mov.b	@(1,r1),r0
  301df6:	61 03       	mov	r0,r1
  301df8:	61 1c       	extu.b	r1,r1
  301dfa:	71 ff       	add	#-1,r1
  301dfc:	63 13       	mov	r1,r3
  301dfe:	61 e3       	mov	r14,r1
  301e00:	71 e4       	add	#-28,r1
  301e02:	51 1f       	mov.l	@(60,r1),r1
  301e04:	41 08       	shll2	r1
  301e06:	62 e3       	mov	r14,r2
  301e08:	72 e4       	add	#-28,r2
  301e0a:	52 2c       	mov.l	@(48,r2),r2
  301e0c:	68 23       	mov	r2,r8
  301e0e:	38 1c       	add	r1,r8
  301e10:	e5 10       	mov	#16,r5
  301e12:	64 33       	mov	r3,r4
  301e14:	d1 4e       	mov.l	301f50 <_extract_grid+0x1a0>,r1	! 308ee0 <_calloc>
  301e16:	41 0b       	jsr	@r1
  301e18:	00 09       	nop	
  301e1a:	61 03       	mov	r0,r1
  301e1c:	28 12       	mov.l	r1,@r8
  301e1e:	61 e3       	mov	r14,r1
  301e20:	71 e4       	add	#-28,r1
  301e22:	62 e3       	mov	r14,r2
  301e24:	72 e4       	add	#-28,r2
  301e26:	52 2f       	mov.l	@(60,r2),r2
  301e28:	72 01       	add	#1,r2
  301e2a:	11 2f       	mov.l	r2,@(60,r1)
  301e2c:	61 e3       	mov	r14,r1
  301e2e:	71 e4       	add	#-28,r1
  301e30:	51 1b       	mov.l	@(44,r1),r1
  301e32:	61 10       	mov.b	@r1,r1
  301e34:	61 1c       	extu.b	r1,r1
  301e36:	71 ff       	add	#-1,r1
  301e38:	62 e3       	mov	r14,r2
  301e3a:	72 e4       	add	#-28,r2
  301e3c:	52 2f       	mov.l	@(60,r2),r2
  301e3e:	32 13       	cmp/ge	r1,r2
  301e40:	8b d5       	bf	301dee <_extract_grid+0x3e>
  301e42:	61 e3       	mov	r14,r1
  301e44:	71 e4       	add	#-28,r1
  301e46:	e2 00       	mov	#0,r2
  301e48:	11 2e       	mov.l	r2,@(56,r1)
  301e4a:	a0 68       	bra	301f1e <_extract_grid+0x16e>
  301e4c:	00 09       	nop	
  301e4e:	61 e3       	mov	r14,r1
  301e50:	71 e4       	add	#-28,r1
  301e52:	e2 00       	mov	#0,r2
  301e54:	11 2d       	mov.l	r2,@(52,r1)
  301e56:	a0 4f       	bra	301ef8 <_extract_grid+0x148>
  301e58:	00 09       	nop	
  301e5a:	61 e3       	mov	r14,r1
  301e5c:	71 e4       	add	#-28,r1
  301e5e:	51 1b       	mov.l	@(44,r1),r1
  301e60:	52 11       	mov.l	@(4,r1),r2
  301e62:	61 e3       	mov	r14,r1
  301e64:	71 e4       	add	#-28,r1
  301e66:	51 1e       	mov.l	@(56,r1),r1
  301e68:	41 08       	shll2	r1
  301e6a:	31 2c       	add	r2,r1
  301e6c:	62 12       	mov.l	@r1,r2
  301e6e:	61 e3       	mov	r14,r1
  301e70:	71 e4       	add	#-28,r1
  301e72:	51 1d       	mov.l	@(52,r1),r1
  301e74:	41 08       	shll2	r1
  301e76:	31 2c       	add	r2,r1
  301e78:	61 12       	mov.l	@r1,r1
  301e7a:	51 16       	mov.l	@(24,r1),r1
  301e7c:	64 13       	mov	r1,r4
  301e7e:	d1 35       	mov.l	301f54 <_extract_grid+0x1a4>,r1	! 308ed4 <_atoi>
  301e80:	41 0b       	jsr	@r1
  301e82:	00 09       	nop	
  301e84:	61 03       	mov	r0,r1
  301e86:	e5 01       	mov	#1,r5
  301e88:	64 13       	mov	r1,r4
  301e8a:	d1 33       	mov.l	301f58 <_extract_grid+0x1a8>,r1	! 3081fc <_new_fraction>
  301e8c:	41 0b       	jsr	@r1
  301e8e:	00 09       	nop	
  301e90:	6a 03       	mov	r0,r10
  301e92:	6b 13       	mov	r1,r11
  301e94:	e5 01       	mov	#1,r5
  301e96:	e4 00       	mov	#0,r4
  301e98:	d1 2f       	mov.l	301f58 <_extract_grid+0x1a8>,r1	! 3081fc <_new_fraction>
  301e9a:	41 0b       	jsr	@r1
  301e9c:	00 09       	nop	
  301e9e:	66 03       	mov	r0,r6
  301ea0:	67 13       	mov	r1,r7
  301ea2:	61 e3       	mov	r14,r1
  301ea4:	71 e4       	add	#-28,r1
  301ea6:	51 1e       	mov.l	@(56,r1),r1
  301ea8:	41 08       	shll2	r1
  301eaa:	62 e3       	mov	r14,r2
  301eac:	72 e4       	add	#-28,r2
  301eae:	52 2c       	mov.l	@(48,r2),r2
  301eb0:	31 2c       	add	r2,r1
  301eb2:	62 12       	mov.l	@r1,r2
  301eb4:	61 e3       	mov	r14,r1
  301eb6:	71 e4       	add	#-28,r1
  301eb8:	51 1d       	mov.l	@(52,r1),r1
  301eba:	41 08       	shll2	r1
  301ebc:	41 08       	shll2	r1
  301ebe:	68 23       	mov	r2,r8
  301ec0:	38 1c       	add	r1,r8
  301ec2:	61 e3       	mov	r14,r1
  301ec4:	62 13       	mov	r1,r2
  301ec6:	64 a3       	mov	r10,r4
  301ec8:	65 b3       	mov	r11,r5
  301eca:	d1 24       	mov.l	301f5c <_extract_grid+0x1ac>,r1	! 3076a0 <_new_BigM>
  301ecc:	41 0b       	jsr	@r1
  301ece:	00 09       	nop	
  301ed0:	61 e3       	mov	r14,r1
  301ed2:	62 12       	mov.l	@r1,r2
  301ed4:	28 22       	mov.l	r2,@r8
  301ed6:	71 04       	add	#4,r1
  301ed8:	62 12       	mov.l	@r1,r2
  301eda:	18 21       	mov.l	r2,@(4,r8)
  301edc:	71 04       	add	#4,r1
  301ede:	62 12       	mov.l	@r1,r2
  301ee0:	18 22       	mov.l	r2,@(8,r8)
  301ee2:	71 04       	add	#4,r1
  301ee4:	62 12       	mov.l	@r1,r2
  301ee6:	18 23       	mov.l	r2,@(12,r8)
  301ee8:	71 04       	add	#4,r1
  301eea:	61 e3       	mov	r14,r1
  301eec:	71 e4       	add	#-28,r1
  301eee:	62 e3       	mov	r14,r2
  301ef0:	72 e4       	add	#-28,r2
  301ef2:	52 2d       	mov.l	@(52,r2),r2
  301ef4:	72 01       	add	#1,r2
  301ef6:	11 2d       	mov.l	r2,@(52,r1)
  301ef8:	61 e3       	mov	r14,r1
  301efa:	71 e4       	add	#-28,r1
  301efc:	51 1b       	mov.l	@(44,r1),r1
  301efe:	84 11       	mov.b	@(1,r1),r0
  301f00:	61 03       	mov	r0,r1
  301f02:	61 1c       	extu.b	r1,r1
  301f04:	71 ff       	add	#-1,r1
  301f06:	62 e3       	mov	r14,r2
  301f08:	72 e4       	add	#-28,r2
  301f0a:	52 2d       	mov.l	@(52,r2),r2
  301f0c:	32 13       	cmp/ge	r1,r2
  301f0e:	8b a4       	bf	301e5a <_extract_grid+0xaa>
  301f10:	61 e3       	mov	r14,r1
  301f12:	71 e4       	add	#-28,r1
  301f14:	62 e3       	mov	r14,r2
  301f16:	72 e4       	add	#-28,r2
  301f18:	52 2e       	mov.l	@(56,r2),r2
  301f1a:	72 01       	add	#1,r2
  301f1c:	11 2e       	mov.l	r2,@(56,r1)
  301f1e:	61 e3       	mov	r14,r1
  301f20:	71 e4       	add	#-28,r1
  301f22:	51 1b       	mov.l	@(44,r1),r1
  301f24:	61 10       	mov.b	@r1,r1
  301f26:	61 1c       	extu.b	r1,r1
  301f28:	71 ff       	add	#-1,r1
  301f2a:	62 e3       	mov	r14,r2
  301f2c:	72 e4       	add	#-28,r2
  301f2e:	52 2e       	mov.l	@(56,r2),r2
  301f30:	32 13       	cmp/ge	r1,r2
  301f32:	8b 8c       	bf	301e4e <_extract_grid+0x9e>
  301f34:	61 e3       	mov	r14,r1
  301f36:	71 e4       	add	#-28,r1
  301f38:	51 1c       	mov.l	@(48,r1),r1
  301f3a:	60 13       	mov	r1,r0
  301f3c:	7e 24       	add	#36,r14
  301f3e:	6f e3       	mov	r14,r15
  301f40:	4f 26       	lds.l	@r15+,pr
  301f42:	6e f6       	mov.l	@r15+,r14
  301f44:	6b f6       	mov.l	@r15+,r11
  301f46:	6a f6       	mov.l	@r15+,r10
  301f48:	68 f6       	mov.l	@r15+,r8
  301f4a:	00 0b       	rts	
  301f4c:	00 09       	nop	
  301f4e:	00 09       	nop	
  301f50:	00 30       	.word 0x0030
  301f52:	8e e0       	ldre	302116 <_GINT_CALL_INC_function+0x26>	! 6fe3
  301f54:	00 30       	.word 0x0030
  301f56:	8e d4       	ldre	302102 <_GINT_CALL_INC_function+0x12>	! 6112
  301f58:	00 30       	.word 0x0030
  301f5a:	81 fc       	mov.w	r0,@(24,r15)
  301f5c:	00 30       	.word 0x0030
  301f5e:	76 a0       	add	#-96,r6

00301f60 <_matrix_into_tableux>:
  301f60:	2f 86       	mov.l	r8,@-r15
  301f62:	2f e6       	mov.l	r14,@-r15
  301f64:	4f 22       	sts.l	pr,@-r15
  301f66:	7f d0       	add	#-48,r15
  301f68:	6e f3       	mov	r15,r14
  301f6a:	61 e3       	mov	r14,r1
  301f6c:	71 f0       	add	#-16,r1
  301f6e:	11 47       	mov.l	r4,@(28,r1)
  301f70:	61 e3       	mov	r14,r1
  301f72:	71 f0       	add	#-16,r1
  301f74:	11 56       	mov.l	r5,@(24,r1)
  301f76:	61 e3       	mov	r14,r1
  301f78:	71 f0       	add	#-16,r1
  301f7a:	11 65       	mov.l	r6,@(20,r1)
  301f7c:	61 e3       	mov	r14,r1
  301f7e:	71 f0       	add	#-16,r1
  301f80:	e2 01       	mov	#1,r2
  301f82:	11 2f       	mov.l	r2,@(60,r1)
  301f84:	a0 1e       	bra	301fc4 <_matrix_into_tableux+0x64>
  301f86:	00 09       	nop	
  301f88:	61 e3       	mov	r14,r1
  301f8a:	71 f0       	add	#-16,r1
  301f8c:	51 1f       	mov.l	@(60,r1),r1
  301f8e:	d2 4b       	mov.l	3020bc <_matrix_into_tableux+0x15c>,r2	! 3fffffff
  301f90:	31 2c       	add	r2,r1
  301f92:	41 08       	shll2	r1
  301f94:	62 e3       	mov	r14,r2
  301f96:	72 f0       	add	#-16,r2
  301f98:	52 26       	mov.l	@(24,r2),r2
  301f9a:	32 1c       	add	r1,r2
  301f9c:	61 e3       	mov	r14,r1
  301f9e:	71 f0       	add	#-16,r1
  301fa0:	51 15       	mov.l	@(20,r1),r1
  301fa2:	53 11       	mov.l	@(4,r1),r3
  301fa4:	61 e3       	mov	r14,r1
  301fa6:	71 f0       	add	#-16,r1
  301fa8:	51 1f       	mov.l	@(60,r1),r1
  301faa:	41 08       	shll2	r1
  301fac:	31 3c       	add	r3,r1
  301fae:	61 12       	mov.l	@r1,r1
  301fb0:	61 12       	mov.l	@r1,r1
  301fb2:	62 22       	mov.l	@r2,r2
  301fb4:	11 26       	mov.l	r2,@(24,r1)
  301fb6:	61 e3       	mov	r14,r1
  301fb8:	71 f0       	add	#-16,r1
  301fba:	62 e3       	mov	r14,r2
  301fbc:	72 f0       	add	#-16,r2
  301fbe:	52 2f       	mov.l	@(60,r2),r2
  301fc0:	72 01       	add	#1,r2
  301fc2:	11 2f       	mov.l	r2,@(60,r1)
  301fc4:	61 e3       	mov	r14,r1
  301fc6:	71 f0       	add	#-16,r1
  301fc8:	51 17       	mov.l	@(28,r1),r1
  301fca:	61 12       	mov.l	@r1,r1
  301fcc:	62 e3       	mov	r14,r2
  301fce:	72 f0       	add	#-16,r2
  301fd0:	52 2f       	mov.l	@(60,r2),r2
  301fd2:	32 13       	cmp/ge	r1,r2
  301fd4:	8b d8       	bf	301f88 <_matrix_into_tableux+0x28>
  301fd6:	68 e3       	mov	r14,r8
  301fd8:	78 f0       	add	#-16,r8
  301fda:	e4 19       	mov	#25,r4
  301fdc:	d1 38       	mov.l	3020c0 <_matrix_into_tableux+0x160>,r1	! 309250 <_malloc>
  301fde:	41 0b       	jsr	@r1
  301fe0:	00 09       	nop	
  301fe2:	61 03       	mov	r0,r1
  301fe4:	18 1c       	mov.l	r1,@(48,r8)
  301fe6:	61 e3       	mov	r14,r1
  301fe8:	71 f0       	add	#-16,r1
  301fea:	e2 01       	mov	#1,r2
  301fec:	11 2e       	mov.l	r2,@(56,r1)
  301fee:	a0 50       	bra	302092 <_matrix_into_tableux+0x132>
  301ff0:	00 09       	nop	
  301ff2:	61 e3       	mov	r14,r1
  301ff4:	71 f0       	add	#-16,r1
  301ff6:	e2 01       	mov	#1,r2
  301ff8:	11 2d       	mov.l	r2,@(52,r1)
  301ffa:	a0 3a       	bra	302072 <_matrix_into_tableux+0x112>
  301ffc:	00 09       	nop	
  301ffe:	61 e3       	mov	r14,r1
  302000:	71 f0       	add	#-16,r1
  302002:	51 1e       	mov.l	@(56,r1),r1
  302004:	63 13       	mov	r1,r3
  302006:	73 ff       	add	#-1,r3
  302008:	61 e3       	mov	r14,r1
  30200a:	71 f0       	add	#-16,r1
  30200c:	51 1d       	mov.l	@(52,r1),r1
  30200e:	67 13       	mov	r1,r7
  302010:	77 ff       	add	#-1,r7
  302012:	62 e3       	mov	r14,r2
  302014:	72 10       	add	#16,r2
  302016:	61 e3       	mov	r14,r1
  302018:	71 f0       	add	#-16,r1
  30201a:	66 73       	mov	r7,r6
  30201c:	65 33       	mov	r3,r5
  30201e:	54 17       	mov.l	@(28,r1),r4
  302020:	d1 28       	mov.l	3020c4 <_matrix_into_tableux+0x164>,r1	! 30080c <_get>
  302022:	41 0b       	jsr	@r1
  302024:	00 09       	nop	
  302026:	61 e3       	mov	r14,r1
  302028:	71 f0       	add	#-16,r1
  30202a:	51 15       	mov.l	@(20,r1),r1
  30202c:	52 11       	mov.l	@(4,r1),r2
  30202e:	61 e3       	mov	r14,r1
  302030:	71 f0       	add	#-16,r1
  302032:	51 1e       	mov.l	@(56,r1),r1
  302034:	41 08       	shll2	r1
  302036:	31 2c       	add	r2,r1
  302038:	62 12       	mov.l	@r1,r2
  30203a:	61 e3       	mov	r14,r1
  30203c:	71 f0       	add	#-16,r1
  30203e:	51 1d       	mov.l	@(52,r1),r1
  302040:	41 08       	shll2	r1
  302042:	31 2c       	add	r2,r1
  302044:	68 12       	mov.l	@r1,r8
  302046:	61 e3       	mov	r14,r1
  302048:	71 10       	add	#16,r1
  30204a:	62 e3       	mov	r14,r2
  30204c:	72 f0       	add	#-16,r2
  30204e:	52 2c       	mov.l	@(48,r2),r2
  302050:	2f 22       	mov.l	r2,@r15
  302052:	64 12       	mov.l	@r1,r4
  302054:	55 11       	mov.l	@(4,r1),r5
  302056:	56 12       	mov.l	@(8,r1),r6
  302058:	57 13       	mov.l	@(12,r1),r7
  30205a:	d1 1b       	mov.l	3020c8 <_matrix_into_tableux+0x168>,r1	! 307798 <_BigM_str>
  30205c:	41 0b       	jsr	@r1
  30205e:	00 09       	nop	
  302060:	61 03       	mov	r0,r1
  302062:	18 16       	mov.l	r1,@(24,r8)
  302064:	61 e3       	mov	r14,r1
  302066:	71 f0       	add	#-16,r1
  302068:	62 e3       	mov	r14,r2
  30206a:	72 f0       	add	#-16,r2
  30206c:	52 2d       	mov.l	@(52,r2),r2
  30206e:	72 01       	add	#1,r2
  302070:	11 2d       	mov.l	r2,@(52,r1)
  302072:	61 e3       	mov	r14,r1
  302074:	71 f0       	add	#-16,r1
  302076:	51 17       	mov.l	@(28,r1),r1
  302078:	51 11       	mov.l	@(4,r1),r1
  30207a:	62 e3       	mov	r14,r2
  30207c:	72 f0       	add	#-16,r2
  30207e:	52 2d       	mov.l	@(52,r2),r2
  302080:	32 13       	cmp/ge	r1,r2
  302082:	8b bc       	bf	301ffe <_matrix_into_tableux+0x9e>
  302084:	61 e3       	mov	r14,r1
  302086:	71 f0       	add	#-16,r1
  302088:	62 e3       	mov	r14,r2
  30208a:	72 f0       	add	#-16,r2
  30208c:	52 2e       	mov.l	@(56,r2),r2
  30208e:	72 01       	add	#1,r2
  302090:	11 2e       	mov.l	r2,@(56,r1)
  302092:	61 e3       	mov	r14,r1
  302094:	71 f0       	add	#-16,r1
  302096:	51 17       	mov.l	@(28,r1),r1
  302098:	61 12       	mov.l	@r1,r1
  30209a:	62 e3       	mov	r14,r2
  30209c:	72 f0       	add	#-16,r2
  30209e:	52 2e       	mov.l	@(56,r2),r2
  3020a0:	32 13       	cmp/ge	r1,r2
  3020a2:	8b a6       	bf	301ff2 <_matrix_into_tableux+0x92>
  3020a4:	61 e3       	mov	r14,r1
  3020a6:	71 f0       	add	#-16,r1
  3020a8:	51 15       	mov.l	@(20,r1),r1
  3020aa:	60 13       	mov	r1,r0
  3020ac:	7e 30       	add	#48,r14
  3020ae:	6f e3       	mov	r14,r15
  3020b0:	4f 26       	lds.l	@r15+,pr
  3020b2:	6e f6       	mov.l	@r15+,r14
  3020b4:	68 f6       	mov.l	@r15+,r8
  3020b6:	00 0b       	rts	
  3020b8:	00 09       	nop	
  3020ba:	00 09       	nop	
  3020bc:	3f ff       	addv	r15,r15
  3020be:	ff ff       	.word 0xffff
  3020c0:	00 30       	.word 0x0030
  3020c2:	92 50       	mov.w	302166 <_GINT_CALL_INC_STOP_function+0x24>,r2	! 7e04
  3020c4:	00 30       	.word 0x0030
  3020c6:	08 0c       	mov.b	@(r0,r0),r8
  3020c8:	00 30       	.word 0x0030
  3020ca:	77 98       	add	#-104,r7

003020cc <_GINT_CALL_SET_function>:
  3020cc:	2f e6       	mov.l	r14,@-r15
  3020ce:	7f fc       	add	#-4,r15
  3020d0:	6e f3       	mov	r15,r14
  3020d2:	61 e3       	mov	r14,r1
  3020d4:	71 c4       	add	#-60,r1
  3020d6:	11 4f       	mov.l	r4,@(60,r1)
  3020d8:	61 e3       	mov	r14,r1
  3020da:	71 c4       	add	#-60,r1
  3020dc:	51 1f       	mov.l	@(60,r1),r1
  3020de:	e2 01       	mov	#1,r2
  3020e0:	21 22       	mov.l	r2,@r1
  3020e2:	e1 00       	mov	#0,r1
  3020e4:	60 13       	mov	r1,r0
  3020e6:	7e 04       	add	#4,r14
  3020e8:	6f e3       	mov	r14,r15
  3020ea:	6e f6       	mov.l	@r15+,r14
  3020ec:	00 0b       	rts	
  3020ee:	00 09       	nop	

003020f0 <_GINT_CALL_INC_function>:
  3020f0:	2f e6       	mov.l	r14,@-r15
  3020f2:	7f fc       	add	#-4,r15
  3020f4:	6e f3       	mov	r15,r14
  3020f6:	61 e3       	mov	r14,r1
  3020f8:	71 c4       	add	#-60,r1
  3020fa:	11 4f       	mov.l	r4,@(60,r1)
  3020fc:	61 e3       	mov	r14,r1
  3020fe:	71 c4       	add	#-60,r1
  302100:	51 1f       	mov.l	@(60,r1),r1
  302102:	61 12       	mov.l	@r1,r1
  302104:	62 13       	mov	r1,r2
  302106:	72 01       	add	#1,r2
  302108:	61 e3       	mov	r14,r1
  30210a:	71 c4       	add	#-60,r1
  30210c:	51 1f       	mov.l	@(60,r1),r1
  30210e:	21 22       	mov.l	r2,@r1
  302110:	e1 00       	mov	#0,r1
  302112:	60 13       	mov	r1,r0
  302114:	7e 04       	add	#4,r14
  302116:	6f e3       	mov	r14,r15
  302118:	6e f6       	mov.l	@r15+,r14
  30211a:	00 0b       	rts	
  30211c:	00 09       	nop	

0030211e <_GINT_CALL_SET_STOP_function>:
  30211e:	2f e6       	mov.l	r14,@-r15
  302120:	7f fc       	add	#-4,r15
  302122:	6e f3       	mov	r15,r14
  302124:	61 e3       	mov	r14,r1
  302126:	71 c4       	add	#-60,r1
  302128:	11 4f       	mov.l	r4,@(60,r1)
  30212a:	61 e3       	mov	r14,r1
  30212c:	71 c4       	add	#-60,r1
  30212e:	51 1f       	mov.l	@(60,r1),r1
  302130:	e2 01       	mov	#1,r2
  302132:	21 22       	mov.l	r2,@r1
  302134:	e1 01       	mov	#1,r1
  302136:	60 13       	mov	r1,r0
  302138:	7e 04       	add	#4,r14
  30213a:	6f e3       	mov	r14,r15
  30213c:	6e f6       	mov.l	@r15+,r14
  30213e:	00 0b       	rts	
  302140:	00 09       	nop	

00302142 <_GINT_CALL_INC_STOP_function>:
  302142:	2f e6       	mov.l	r14,@-r15
  302144:	7f fc       	add	#-4,r15
  302146:	6e f3       	mov	r15,r14
  302148:	61 e3       	mov	r14,r1
  30214a:	71 c4       	add	#-60,r1
  30214c:	11 4f       	mov.l	r4,@(60,r1)
  30214e:	61 e3       	mov	r14,r1
  302150:	71 c4       	add	#-60,r1
  302152:	51 1f       	mov.l	@(60,r1),r1
  302154:	61 12       	mov.l	@r1,r1
  302156:	62 13       	mov	r1,r2
  302158:	72 01       	add	#1,r2
  30215a:	61 e3       	mov	r14,r1
  30215c:	71 c4       	add	#-60,r1
  30215e:	51 1f       	mov.l	@(60,r1),r1
  302160:	21 22       	mov.l	r2,@r1
  302162:	e1 01       	mov	#1,r1
  302164:	60 13       	mov	r1,r0
  302166:	7e 04       	add	#4,r14
  302168:	6f e3       	mov	r14,r15
  30216a:	6e f6       	mov.l	@r15+,r14
  30216c:	00 0b       	rts	
  30216e:	00 09       	nop	

00302170 <_process_cursor_movement>:
  302170:	2f e6       	mov.l	r14,@-r15
  302172:	7f f0       	add	#-16,r15
  302174:	6e f3       	mov	r15,r14
  302176:	61 e3       	mov	r14,r1
  302178:	71 d0       	add	#-48,r1
  30217a:	11 4f       	mov.l	r4,@(60,r1)
  30217c:	61 e3       	mov	r14,r1
  30217e:	71 d0       	add	#-48,r1
  302180:	11 5e       	mov.l	r5,@(56,r1)
  302182:	61 e3       	mov	r14,r1
  302184:	71 d0       	add	#-48,r1
  302186:	11 6d       	mov.l	r6,@(52,r1)
  302188:	61 e3       	mov	r14,r1
  30218a:	71 d0       	add	#-48,r1
  30218c:	11 7c       	mov.l	r7,@(48,r1)
  30218e:	61 e3       	mov	r14,r1
  302190:	71 d0       	add	#-48,r1
  302192:	71 30       	add	#48,r1
  302194:	84 1f       	mov.b	@(15,r1),r0
  302196:	61 03       	mov	r0,r1
  302198:	61 1c       	extu.b	r1,r1
  30219a:	67 13       	mov	r1,r7
  30219c:	e2 75       	mov	#117,r2
  30219e:	e1 11       	mov	#17,r1
  3021a0:	63 23       	mov	r2,r3
  3021a2:	62 13       	mov	r1,r2
  3021a4:	61 73       	mov	r7,r1
  3021a6:	31 38       	sub	r3,r1
  3021a8:	31 26       	cmp/hi	r2,r1
  3021aa:	8b 01       	bf	3021b0 <_process_cursor_movement+0x40>
  3021ac:	a0 89       	bra	3022c2 <_process_cursor_movement+0x152>
  3021ae:	00 09       	nop	
  3021b0:	c7 02       	mova	3021bc <_process_cursor_movement+0x4c>,r0
  3021b2:	41 08       	shll2	r1
  3021b4:	01 1e       	mov.l	@(r0,r1),r1
  3021b6:	01 23       	braf	r1
  3021b8:	00 09       	nop	
  3021ba:	00 09       	nop	
  3021bc:	00 00       	.word 0x0000
  3021be:	00 72       	stc	re,r0
  3021c0:	00 00       	.word 0x0000
  3021c2:	00 d0       	.word 0x00d0
  3021c4:	00 00       	.word 0x0000
  3021c6:	01 08       	.word 0x0108
  3021c8:	00 00       	.word 0x0000
  3021ca:	01 08       	.word 0x0108
  3021cc:	00 00       	.word 0x0000
  3021ce:	01 08       	.word 0x0108
  3021d0:	00 00       	.word 0x0000
  3021d2:	01 08       	.word 0x0108
  3021d4:	00 00       	.word 0x0000
  3021d6:	01 08       	.word 0x0108
  3021d8:	00 00       	.word 0x0000
  3021da:	01 08       	.word 0x0108
  3021dc:	00 00       	.word 0x0000
  3021de:	01 08       	.word 0x0108
  3021e0:	00 00       	.word 0x0000
  3021e2:	01 08       	.word 0x0108
  3021e4:	00 00       	.word 0x0000
  3021e6:	01 08       	.word 0x0108
  3021e8:	00 00       	.word 0x0000
  3021ea:	01 08       	.word 0x0108
  3021ec:	00 00       	.word 0x0000
  3021ee:	01 08       	.word 0x0108
  3021f0:	00 00       	.word 0x0000
  3021f2:	01 08       	.word 0x0108
  3021f4:	00 00       	.word 0x0000
  3021f6:	01 08       	.word 0x0108
  3021f8:	00 00       	.word 0x0000
  3021fa:	01 08       	.word 0x0108
  3021fc:	00 00       	.word 0x0000
  3021fe:	00 a8       	.word 0x00a8
  302200:	00 00       	.word 0x0000
  302202:	00 4a       	.word 0x004a
  302204:	61 e3       	mov	r14,r1
  302206:	71 d0       	add	#-48,r1
  302208:	51 1d       	mov.l	@(52,r1),r1
  30220a:	61 10       	mov.b	@r1,r1
  30220c:	61 1c       	extu.b	r1,r1
  30220e:	21 18       	tst	r1,r1
  302210:	89 0a       	bt	302228 <_process_cursor_movement+0xb8>
  302212:	61 e3       	mov	r14,r1
  302214:	71 d0       	add	#-48,r1
  302216:	51 1d       	mov.l	@(52,r1),r1
  302218:	61 10       	mov.b	@r1,r1
  30221a:	61 1c       	extu.b	r1,r1
  30221c:	71 ff       	add	#-1,r1
  30221e:	62 1c       	extu.b	r1,r2
  302220:	61 e3       	mov	r14,r1
  302222:	71 d0       	add	#-48,r1
  302224:	51 1d       	mov.l	@(52,r1),r1
  302226:	21 20       	mov.b	r2,@r1
  302228:	a0 4e       	bra	3022c8 <_process_cursor_movement+0x158>
  30222a:	00 09       	nop	
  30222c:	61 e3       	mov	r14,r1
  30222e:	71 d0       	add	#-48,r1
  302230:	51 1d       	mov.l	@(52,r1),r1
  302232:	61 10       	mov.b	@r1,r1
  302234:	61 1c       	extu.b	r1,r1
  302236:	62 13       	mov	r1,r2
  302238:	61 e3       	mov	r14,r1
  30223a:	71 d0       	add	#-48,r1
  30223c:	51 1c       	mov.l	@(48,r1),r1
  30223e:	61 10       	mov.b	@r1,r1
  302240:	61 1c       	extu.b	r1,r1
  302242:	71 ff       	add	#-1,r1
  302244:	32 13       	cmp/ge	r1,r2
  302246:	89 0a       	bt	30225e <_process_cursor_movement+0xee>
  302248:	61 e3       	mov	r14,r1
  30224a:	71 d0       	add	#-48,r1
  30224c:	51 1d       	mov.l	@(52,r1),r1
  30224e:	61 10       	mov.b	@r1,r1
  302250:	61 1c       	extu.b	r1,r1
  302252:	71 01       	add	#1,r1
  302254:	62 1c       	extu.b	r1,r2
  302256:	61 e3       	mov	r14,r1
  302258:	71 d0       	add	#-48,r1
  30225a:	51 1d       	mov.l	@(52,r1),r1
  30225c:	21 20       	mov.b	r2,@r1
  30225e:	a0 36       	bra	3022ce <_process_cursor_movement+0x15e>
  302260:	00 09       	nop	
  302262:	61 e3       	mov	r14,r1
  302264:	71 d0       	add	#-48,r1
  302266:	51 1e       	mov.l	@(56,r1),r1
  302268:	61 10       	mov.b	@r1,r1
  30226a:	61 1c       	extu.b	r1,r1
  30226c:	21 18       	tst	r1,r1
  30226e:	89 31       	bt	3022d4 <_process_cursor_movement+0x164>
  302270:	61 e3       	mov	r14,r1
  302272:	71 d0       	add	#-48,r1
  302274:	51 1e       	mov.l	@(56,r1),r1
  302276:	61 10       	mov.b	@r1,r1
  302278:	61 1c       	extu.b	r1,r1
  30227a:	71 ff       	add	#-1,r1
  30227c:	62 1c       	extu.b	r1,r2
  30227e:	61 e3       	mov	r14,r1
  302280:	71 d0       	add	#-48,r1
  302282:	51 1e       	mov.l	@(56,r1),r1
  302284:	21 20       	mov.b	r2,@r1
  302286:	a0 25       	bra	3022d4 <_process_cursor_movement+0x164>
  302288:	00 09       	nop	
  30228a:	61 e3       	mov	r14,r1
  30228c:	71 d0       	add	#-48,r1
  30228e:	51 1e       	mov.l	@(56,r1),r1
  302290:	61 10       	mov.b	@r1,r1
  302292:	61 1c       	extu.b	r1,r1
  302294:	62 13       	mov	r1,r2
  302296:	61 e3       	mov	r14,r1
  302298:	71 d0       	add	#-48,r1
  30229a:	51 1c       	mov.l	@(48,r1),r1
  30229c:	84 11       	mov.b	@(1,r1),r0
  30229e:	61 03       	mov	r0,r1
  3022a0:	61 1c       	extu.b	r1,r1
  3022a2:	71 ff       	add	#-1,r1
  3022a4:	32 13       	cmp/ge	r1,r2
  3022a6:	89 18       	bt	3022da <_process_cursor_movement+0x16a>
  3022a8:	61 e3       	mov	r14,r1
  3022aa:	71 d0       	add	#-48,r1
  3022ac:	51 1e       	mov.l	@(56,r1),r1
  3022ae:	61 10       	mov.b	@r1,r1
  3022b0:	61 1c       	extu.b	r1,r1
  3022b2:	71 01       	add	#1,r1
  3022b4:	62 1c       	extu.b	r1,r2
  3022b6:	61 e3       	mov	r14,r1
  3022b8:	71 d0       	add	#-48,r1
  3022ba:	51 1e       	mov.l	@(56,r1),r1
  3022bc:	21 20       	mov.b	r2,@r1
  3022be:	a0 0c       	bra	3022da <_process_cursor_movement+0x16a>
  3022c0:	00 09       	nop	
  3022c2:	00 09       	nop	
  3022c4:	a0 0a       	bra	3022dc <_process_cursor_movement+0x16c>
  3022c6:	00 09       	nop	
  3022c8:	00 09       	nop	
  3022ca:	a0 07       	bra	3022dc <_process_cursor_movement+0x16c>
  3022cc:	00 09       	nop	
  3022ce:	00 09       	nop	
  3022d0:	a0 04       	bra	3022dc <_process_cursor_movement+0x16c>
  3022d2:	00 09       	nop	
  3022d4:	00 09       	nop	
  3022d6:	a0 01       	bra	3022dc <_process_cursor_movement+0x16c>
  3022d8:	00 09       	nop	
  3022da:	00 09       	nop	
  3022dc:	7e 10       	add	#16,r14
  3022de:	6f e3       	mov	r14,r15
  3022e0:	6e f6       	mov.l	@r15+,r14
  3022e2:	00 0b       	rts	
  3022e4:	00 09       	nop	

003022e6 <_process_common_keys>:
  3022e6:	2f 86       	mov.l	r8,@-r15
  3022e8:	2f e6       	mov.l	r14,@-r15
  3022ea:	4f 22       	sts.l	pr,@-r15
  3022ec:	7f e0       	add	#-32,r15
  3022ee:	6e f3       	mov	r15,r14
  3022f0:	61 e3       	mov	r14,r1
  3022f2:	71 e0       	add	#-32,r1
  3022f4:	11 4b       	mov.l	r4,@(44,r1)
  3022f6:	61 e3       	mov	r14,r1
  3022f8:	71 e0       	add	#-32,r1
  3022fa:	11 5a       	mov.l	r5,@(40,r1)
  3022fc:	61 e3       	mov	r14,r1
  3022fe:	71 e0       	add	#-32,r1
  302300:	11 69       	mov.l	r6,@(36,r1)
  302302:	61 e3       	mov	r14,r1
  302304:	71 e0       	add	#-32,r1
  302306:	11 78       	mov.l	r7,@(32,r1)
  302308:	61 e3       	mov	r14,r1
  30230a:	71 e0       	add	#-32,r1
  30230c:	71 20       	add	#32,r1
  30230e:	84 1f       	mov.b	@(15,r1),r0
  302310:	61 03       	mov	r0,r1
  302312:	61 1c       	extu.b	r1,r1
  302314:	64 13       	mov	r1,r4
  302316:	d1 99       	mov.l	30257c <_process_common_keys+0x296>,r1	! 30345a <_keycode_digit>
  302318:	41 0b       	jsr	@r1
  30231a:	00 09       	nop	
  30231c:	61 03       	mov	r0,r1
  30231e:	41 15       	cmp/pl	r1
  302320:	8b 4d       	bf	3023be <_process_common_keys+0xd8>
  302322:	61 e3       	mov	r14,r1
  302324:	71 e0       	add	#-32,r1
  302326:	51 18       	mov.l	@(32,r1),r1
  302328:	52 11       	mov.l	@(4,r1),r2
  30232a:	61 e3       	mov	r14,r1
  30232c:	71 e0       	add	#-32,r1
  30232e:	51 19       	mov.l	@(36,r1),r1
  302330:	61 10       	mov.b	@r1,r1
  302332:	61 1c       	extu.b	r1,r1
  302334:	41 08       	shll2	r1
  302336:	31 2c       	add	r2,r1
  302338:	62 12       	mov.l	@r1,r2
  30233a:	61 e3       	mov	r14,r1
  30233c:	71 e0       	add	#-32,r1
  30233e:	51 1a       	mov.l	@(40,r1),r1
  302340:	61 10       	mov.b	@r1,r1
  302342:	61 1c       	extu.b	r1,r1
  302344:	41 08       	shll2	r1
  302346:	31 2c       	add	r2,r1
  302348:	62 12       	mov.l	@r1,r2
  30234a:	61 e3       	mov	r14,r1
  30234c:	71 e0       	add	#-32,r1
  30234e:	52 26       	mov.l	@(24,r2),r2
  302350:	11 2c       	mov.l	r2,@(48,r1)
  302352:	61 e3       	mov	r14,r1
  302354:	71 e0       	add	#-32,r1
  302356:	54 1c       	mov.l	@(48,r1),r4
  302358:	d1 89       	mov.l	302580 <_process_common_keys+0x29a>,r1	! 309216 <_strlen>
  30235a:	41 0b       	jsr	@r1
  30235c:	00 09       	nop	
  30235e:	61 03       	mov	r0,r1
  302360:	e2 13       	mov	#19,r2
  302362:	31 26       	cmp/hi	r2,r1
  302364:	89 29       	bt	3023ba <_process_common_keys+0xd4>
  302366:	61 e3       	mov	r14,r1
  302368:	71 e0       	add	#-32,r1
  30236a:	51 18       	mov.l	@(32,r1),r1
  30236c:	52 11       	mov.l	@(4,r1),r2
  30236e:	61 e3       	mov	r14,r1
  302370:	71 e0       	add	#-32,r1
  302372:	51 19       	mov.l	@(36,r1),r1
  302374:	61 10       	mov.b	@r1,r1
  302376:	61 1c       	extu.b	r1,r1
  302378:	41 08       	shll2	r1
  30237a:	31 2c       	add	r2,r1
  30237c:	62 12       	mov.l	@r1,r2
  30237e:	61 e3       	mov	r14,r1
  302380:	71 e0       	add	#-32,r1
  302382:	51 1a       	mov.l	@(40,r1),r1
  302384:	61 10       	mov.b	@r1,r1
  302386:	61 1c       	extu.b	r1,r1
  302388:	41 08       	shll2	r1
  30238a:	31 2c       	add	r2,r1
  30238c:	61 12       	mov.l	@r1,r1
  30238e:	58 16       	mov.l	@(24,r1),r8
  302390:	61 e3       	mov	r14,r1
  302392:	71 e0       	add	#-32,r1
  302394:	71 20       	add	#32,r1
  302396:	84 1f       	mov.b	@(15,r1),r0
  302398:	61 03       	mov	r0,r1
  30239a:	61 1c       	extu.b	r1,r1
  30239c:	64 13       	mov	r1,r4
  30239e:	d1 77       	mov.l	30257c <_process_common_keys+0x296>,r1	! 30345a <_keycode_digit>
  3023a0:	41 0b       	jsr	@r1
  3023a2:	00 09       	nop	
  3023a4:	62 03       	mov	r0,r2
  3023a6:	61 e3       	mov	r14,r1
  3023a8:	71 e0       	add	#-32,r1
  3023aa:	d3 76       	mov.l	302584 <_process_common_keys+0x29e>,r3	! 30b4e4
  3023ac:	67 23       	mov	r2,r7
  3023ae:	56 1c       	mov.l	@(48,r1),r6
  3023b0:	65 33       	mov	r3,r5
  3023b2:	64 83       	mov	r8,r4
  3023b4:	d1 74       	mov.l	302588 <_process_common_keys+0x2a2>,r1	! 308dc4 <_sprintf>
  3023b6:	41 0b       	jsr	@r1
  3023b8:	00 09       	nop	
  3023ba:	a0 d6       	bra	30256a <_process_common_keys+0x284>
  3023bc:	00 09       	nop	
  3023be:	61 e3       	mov	r14,r1
  3023c0:	71 e0       	add	#-32,r1
  3023c2:	71 20       	add	#32,r1
  3023c4:	84 1f       	mov.b	@(15,r1),r0
  3023c6:	61 03       	mov	r0,r1
  3023c8:	62 1c       	extu.b	r1,r2
  3023ca:	e1 11       	mov	#17,r1
  3023cc:	32 10       	cmp/eq	r1,r2
  3023ce:	8b 41       	bf	302454 <_process_common_keys+0x16e>
  3023d0:	61 e3       	mov	r14,r1
  3023d2:	71 e0       	add	#-32,r1
  3023d4:	51 18       	mov.l	@(32,r1),r1
  3023d6:	52 11       	mov.l	@(4,r1),r2
  3023d8:	61 e3       	mov	r14,r1
  3023da:	71 e0       	add	#-32,r1
  3023dc:	51 19       	mov.l	@(36,r1),r1
  3023de:	61 10       	mov.b	@r1,r1
  3023e0:	61 1c       	extu.b	r1,r1
  3023e2:	41 08       	shll2	r1
  3023e4:	31 2c       	add	r2,r1
  3023e6:	62 12       	mov.l	@r1,r2
  3023e8:	61 e3       	mov	r14,r1
  3023ea:	71 e0       	add	#-32,r1
  3023ec:	51 1a       	mov.l	@(40,r1),r1
  3023ee:	61 10       	mov.b	@r1,r1
  3023f0:	61 1c       	extu.b	r1,r1
  3023f2:	41 08       	shll2	r1
  3023f4:	31 2c       	add	r2,r1
  3023f6:	62 12       	mov.l	@r1,r2
  3023f8:	61 e3       	mov	r14,r1
  3023fa:	71 e0       	add	#-32,r1
  3023fc:	52 26       	mov.l	@(24,r2),r2
  3023fe:	11 2d       	mov.l	r2,@(52,r1)
  302400:	61 e3       	mov	r14,r1
  302402:	71 e0       	add	#-32,r1
  302404:	54 1d       	mov.l	@(52,r1),r4
  302406:	d1 5e       	mov.l	302580 <_process_common_keys+0x29a>,r1	! 309216 <_strlen>
  302408:	41 0b       	jsr	@r1
  30240a:	00 09       	nop	
  30240c:	61 03       	mov	r0,r1
  30240e:	e2 13       	mov	#19,r2
  302410:	31 26       	cmp/hi	r2,r1
  302412:	89 d2       	bt	3023ba <_process_common_keys+0xd4>
  302414:	61 e3       	mov	r14,r1
  302416:	71 e0       	add	#-32,r1
  302418:	51 18       	mov.l	@(32,r1),r1
  30241a:	52 11       	mov.l	@(4,r1),r2
  30241c:	61 e3       	mov	r14,r1
  30241e:	71 e0       	add	#-32,r1
  302420:	51 19       	mov.l	@(36,r1),r1
  302422:	61 10       	mov.b	@r1,r1
  302424:	61 1c       	extu.b	r1,r1
  302426:	41 08       	shll2	r1
  302428:	31 2c       	add	r2,r1
  30242a:	62 12       	mov.l	@r1,r2
  30242c:	61 e3       	mov	r14,r1
  30242e:	71 e0       	add	#-32,r1
  302430:	51 1a       	mov.l	@(40,r1),r1
  302432:	61 10       	mov.b	@r1,r1
  302434:	61 1c       	extu.b	r1,r1
  302436:	41 08       	shll2	r1
  302438:	31 2c       	add	r2,r1
  30243a:	61 12       	mov.l	@r1,r1
  30243c:	52 16       	mov.l	@(24,r1),r2
  30243e:	61 e3       	mov	r14,r1
  302440:	71 e0       	add	#-32,r1
  302442:	d3 52       	mov.l	30258c <_process_common_keys+0x2a6>,r3	! 30b4ec
  302444:	56 1d       	mov.l	@(52,r1),r6
  302446:	65 33       	mov	r3,r5
  302448:	64 23       	mov	r2,r4
  30244a:	d1 4f       	mov.l	302588 <_process_common_keys+0x2a2>,r1	! 308dc4 <_sprintf>
  30244c:	41 0b       	jsr	@r1
  30244e:	00 09       	nop	
  302450:	a0 8b       	bra	30256a <_process_common_keys+0x284>
  302452:	00 09       	nop	
  302454:	61 e3       	mov	r14,r1
  302456:	71 e0       	add	#-32,r1
  302458:	71 20       	add	#32,r1
  30245a:	84 1f       	mov.b	@(15,r1),r0
  30245c:	61 03       	mov	r0,r1
  30245e:	62 1c       	extu.b	r1,r2
  302460:	e1 44       	mov	#68,r1
  302462:	32 10       	cmp/eq	r1,r2
  302464:	8b 3f       	bf	3024e6 <_process_common_keys+0x200>
  302466:	61 e3       	mov	r14,r1
  302468:	71 e0       	add	#-32,r1
  30246a:	51 18       	mov.l	@(32,r1),r1
  30246c:	52 11       	mov.l	@(4,r1),r2
  30246e:	61 e3       	mov	r14,r1
  302470:	71 e0       	add	#-32,r1
  302472:	51 19       	mov.l	@(36,r1),r1
  302474:	61 10       	mov.b	@r1,r1
  302476:	61 1c       	extu.b	r1,r1
  302478:	41 08       	shll2	r1
  30247a:	31 2c       	add	r2,r1
  30247c:	62 12       	mov.l	@r1,r2
  30247e:	61 e3       	mov	r14,r1
  302480:	71 e0       	add	#-32,r1
  302482:	51 1a       	mov.l	@(40,r1),r1
  302484:	61 10       	mov.b	@r1,r1
  302486:	61 1c       	extu.b	r1,r1
  302488:	41 08       	shll2	r1
  30248a:	31 2c       	add	r2,r1
  30248c:	61 12       	mov.l	@r1,r1
  30248e:	51 16       	mov.l	@(24,r1),r1
  302490:	68 e3       	mov	r14,r8
  302492:	78 e0       	add	#-32,r8
  302494:	64 13       	mov	r1,r4
  302496:	d1 3a       	mov.l	302580 <_process_common_keys+0x29a>,r1	! 309216 <_strlen>
  302498:	41 0b       	jsr	@r1
  30249a:	00 09       	nop	
  30249c:	61 03       	mov	r0,r1
  30249e:	18 1e       	mov.l	r1,@(56,r8)
  3024a0:	61 e3       	mov	r14,r1
  3024a2:	71 e0       	add	#-32,r1
  3024a4:	51 1e       	mov.l	@(56,r1),r1
  3024a6:	21 18       	tst	r1,r1
  3024a8:	89 5f       	bt	30256a <_process_common_keys+0x284>
  3024aa:	61 e3       	mov	r14,r1
  3024ac:	71 e0       	add	#-32,r1
  3024ae:	51 18       	mov.l	@(32,r1),r1
  3024b0:	52 11       	mov.l	@(4,r1),r2
  3024b2:	61 e3       	mov	r14,r1
  3024b4:	71 e0       	add	#-32,r1
  3024b6:	51 19       	mov.l	@(36,r1),r1
  3024b8:	61 10       	mov.b	@r1,r1
  3024ba:	61 1c       	extu.b	r1,r1
  3024bc:	41 08       	shll2	r1
  3024be:	31 2c       	add	r2,r1
  3024c0:	62 12       	mov.l	@r1,r2
  3024c2:	61 e3       	mov	r14,r1
  3024c4:	71 e0       	add	#-32,r1
  3024c6:	51 1a       	mov.l	@(40,r1),r1
  3024c8:	61 10       	mov.b	@r1,r1
  3024ca:	61 1c       	extu.b	r1,r1
  3024cc:	41 08       	shll2	r1
  3024ce:	31 2c       	add	r2,r1
  3024d0:	61 12       	mov.l	@r1,r1
  3024d2:	52 16       	mov.l	@(24,r1),r2
  3024d4:	61 e3       	mov	r14,r1
  3024d6:	71 e0       	add	#-32,r1
  3024d8:	51 1e       	mov.l	@(56,r1),r1
  3024da:	71 ff       	add	#-1,r1
  3024dc:	31 2c       	add	r2,r1
  3024de:	e2 00       	mov	#0,r2
  3024e0:	21 20       	mov.b	r2,@r1
  3024e2:	a0 42       	bra	30256a <_process_common_keys+0x284>
  3024e4:	00 09       	nop	
  3024e6:	61 e3       	mov	r14,r1
  3024e8:	71 e0       	add	#-32,r1
  3024ea:	71 20       	add	#32,r1
  3024ec:	84 1f       	mov.b	@(15,r1),r0
  3024ee:	61 03       	mov	r0,r1
  3024f0:	62 1c       	extu.b	r1,r2
  3024f2:	e1 25       	mov	#37,r1
  3024f4:	32 10       	cmp/eq	r1,r2
  3024f6:	8b 38       	bf	30256a <_process_common_keys+0x284>
  3024f8:	61 e3       	mov	r14,r1
  3024fa:	71 e0       	add	#-32,r1
  3024fc:	51 18       	mov.l	@(32,r1),r1
  3024fe:	52 11       	mov.l	@(4,r1),r2
  302500:	61 e3       	mov	r14,r1
  302502:	71 e0       	add	#-32,r1
  302504:	51 19       	mov.l	@(36,r1),r1
  302506:	61 10       	mov.b	@r1,r1
  302508:	61 1c       	extu.b	r1,r1
  30250a:	41 08       	shll2	r1
  30250c:	31 2c       	add	r2,r1
  30250e:	62 12       	mov.l	@r1,r2
  302510:	61 e3       	mov	r14,r1
  302512:	71 e0       	add	#-32,r1
  302514:	51 1a       	mov.l	@(40,r1),r1
  302516:	61 10       	mov.b	@r1,r1
  302518:	61 1c       	extu.b	r1,r1
  30251a:	41 08       	shll2	r1
  30251c:	31 2c       	add	r2,r1
  30251e:	61 12       	mov.l	@r1,r1
  302520:	51 16       	mov.l	@(24,r1),r1
  302522:	68 e3       	mov	r14,r8
  302524:	78 e0       	add	#-32,r8
  302526:	64 13       	mov	r1,r4
  302528:	d1 15       	mov.l	302580 <_process_common_keys+0x29a>,r1	! 309216 <_strlen>
  30252a:	41 0b       	jsr	@r1
  30252c:	00 09       	nop	
  30252e:	61 03       	mov	r0,r1
  302530:	18 1f       	mov.l	r1,@(60,r8)
  302532:	61 e3       	mov	r14,r1
  302534:	71 e0       	add	#-32,r1
  302536:	51 1f       	mov.l	@(60,r1),r1
  302538:	21 18       	tst	r1,r1
  30253a:	8b 16       	bf	30256a <_process_common_keys+0x284>
  30253c:	61 e3       	mov	r14,r1
  30253e:	71 e0       	add	#-32,r1
  302540:	51 18       	mov.l	@(32,r1),r1
  302542:	52 11       	mov.l	@(4,r1),r2
  302544:	61 e3       	mov	r14,r1
  302546:	71 e0       	add	#-32,r1
  302548:	51 19       	mov.l	@(36,r1),r1
  30254a:	61 10       	mov.b	@r1,r1
  30254c:	61 1c       	extu.b	r1,r1
  30254e:	41 08       	shll2	r1
  302550:	31 2c       	add	r2,r1
  302552:	62 12       	mov.l	@r1,r2
  302554:	61 e3       	mov	r14,r1
  302556:	71 e0       	add	#-32,r1
  302558:	51 1a       	mov.l	@(40,r1),r1
  30255a:	61 10       	mov.b	@r1,r1
  30255c:	61 1c       	extu.b	r1,r1
  30255e:	41 08       	shll2	r1
  302560:	31 2c       	add	r2,r1
  302562:	61 12       	mov.l	@r1,r1
  302564:	51 16       	mov.l	@(24,r1),r1
  302566:	e2 2d       	mov	#45,r2
  302568:	21 20       	mov.b	r2,@r1
  30256a:	00 09       	nop	
  30256c:	7e 20       	add	#32,r14
  30256e:	6f e3       	mov	r14,r15
  302570:	4f 26       	lds.l	@r15+,pr
  302572:	6e f6       	mov.l	@r15+,r14
  302574:	68 f6       	mov.l	@r15+,r8
  302576:	00 0b       	rts	
  302578:	00 09       	nop	
  30257a:	00 09       	nop	
  30257c:	00 30       	.word 0x0030
  30257e:	34 5a       	subc	r5,r4
  302580:	00 30       	.word 0x0030
  302582:	92 16       	mov.w	3025b2 <_process_key_construction_stage+0x22>,r2	! 841f
  302584:	00 30       	.word 0x0030
  302586:	b4 e4       	bsr	302f52 <_process_key_tableux_stage+0x16a>
  302588:	00 30       	.word 0x0030
  30258a:	8d c4       	bt.s	302516 <_process_common_keys+0x230>
  30258c:	00 30       	.word 0x0030
  30258e:	b4 ec       	bsr	302f6a <_process_key_tableux_stage+0x182>

00302590 <_process_key_construction_stage>:
  302590:	2f 86       	mov.l	r8,@-r15
  302592:	2f e6       	mov.l	r14,@-r15
  302594:	4f 22       	sts.l	pr,@-r15
  302596:	7f e4       	add	#-28,r15
  302598:	6e f3       	mov	r15,r14
  30259a:	61 e3       	mov	r14,r1
  30259c:	71 dc       	add	#-36,r1
  30259e:	11 4b       	mov.l	r4,@(44,r1)
  3025a0:	61 e3       	mov	r14,r1
  3025a2:	71 dc       	add	#-36,r1
  3025a4:	11 5a       	mov.l	r5,@(40,r1)
  3025a6:	61 e3       	mov	r14,r1
  3025a8:	71 dc       	add	#-36,r1
  3025aa:	11 69       	mov.l	r6,@(36,r1)
  3025ac:	61 e3       	mov	r14,r1
  3025ae:	71 dc       	add	#-36,r1
  3025b0:	71 20       	add	#32,r1
  3025b2:	84 1f       	mov.b	@(15,r1),r0
  3025b4:	61 03       	mov	r0,r1
  3025b6:	61 1c       	extu.b	r1,r1
  3025b8:	67 13       	mov	r1,r7
  3025ba:	e2 75       	mov	#117,r2
  3025bc:	e1 21       	mov	#33,r1
  3025be:	63 23       	mov	r2,r3
  3025c0:	62 13       	mov	r1,r2
  3025c2:	61 73       	mov	r7,r1
  3025c4:	31 38       	sub	r3,r1
  3025c6:	31 26       	cmp/hi	r2,r1
  3025c8:	8b 01       	bf	3025ce <_process_key_construction_stage+0x3e>
  3025ca:	a1 68       	bra	30289e <_process_key_construction_stage+0x30e>
  3025cc:	00 09       	nop	
  3025ce:	c7 02       	mova	3025d8 <_process_key_construction_stage+0x48>,r0
  3025d0:	41 08       	shll2	r1
  3025d2:	01 1e       	mov.l	@(r0,r1),r1
  3025d4:	01 23       	braf	r1
  3025d6:	00 09       	nop	
  3025d8:	00 00       	.word 0x0000
  3025da:	01 4a       	.word 0x014a
  3025dc:	00 00       	.word 0x0000
  3025de:	02 66       	mov.l	r6,@(r0,r2)
  3025e0:	00 00       	.word 0x0000
  3025e2:	02 c6       	mov.l	r12,@(r0,r2)
  3025e4:	00 00       	.word 0x0000
  3025e6:	02 c6       	mov.l	r12,@(r0,r2)
  3025e8:	00 00       	.word 0x0000
  3025ea:	02 c6       	mov.l	r12,@(r0,r2)
  3025ec:	00 00       	.word 0x0000
  3025ee:	02 c6       	mov.l	r12,@(r0,r2)
  3025f0:	00 00       	.word 0x0000
  3025f2:	02 c6       	mov.l	r12,@(r0,r2)
  3025f4:	00 00       	.word 0x0000
  3025f6:	02 c6       	mov.l	r12,@(r0,r2)
  3025f8:	00 00       	.word 0x0000
  3025fa:	02 c6       	mov.l	r12,@(r0,r2)
  3025fc:	00 00       	.word 0x0000
  3025fe:	02 c6       	mov.l	r12,@(r0,r2)
  302600:	00 00       	.word 0x0000
  302602:	02 c6       	mov.l	r12,@(r0,r2)
  302604:	00 00       	.word 0x0000
  302606:	02 c6       	mov.l	r12,@(r0,r2)
  302608:	00 00       	.word 0x0000
  30260a:	02 c6       	mov.l	r12,@(r0,r2)
  30260c:	00 00       	.word 0x0000
  30260e:	02 c6       	mov.l	r12,@(r0,r2)
  302610:	00 00       	.word 0x0000
  302612:	02 c6       	mov.l	r12,@(r0,r2)
  302614:	00 00       	.word 0x0000
  302616:	02 c6       	mov.l	r12,@(r0,r2)
  302618:	00 00       	.word 0x0000
  30261a:	02 0c       	mov.b	@(r0,r0),r2
  30261c:	00 00       	.word 0x0000
  30261e:	00 88       	clrdmxy	
  302620:	00 00       	.word 0x0000
  302622:	02 c6       	mov.l	r12,@(r0,r2)
  302624:	00 00       	.word 0x0000
  302626:	02 c6       	mov.l	r12,@(r0,r2)
  302628:	00 00       	.word 0x0000
  30262a:	02 c6       	mov.l	r12,@(r0,r2)
  30262c:	00 00       	.word 0x0000
  30262e:	02 c6       	mov.l	r12,@(r0,r2)
  302630:	00 00       	.word 0x0000
  302632:	02 c6       	mov.l	r12,@(r0,r2)
  302634:	00 00       	.word 0x0000
  302636:	02 c6       	mov.l	r12,@(r0,r2)
  302638:	00 00       	.word 0x0000
  30263a:	02 c6       	mov.l	r12,@(r0,r2)
  30263c:	00 00       	.word 0x0000
  30263e:	02 c6       	mov.l	r12,@(r0,r2)
  302640:	00 00       	.word 0x0000
  302642:	02 c6       	mov.l	r12,@(r0,r2)
  302644:	00 00       	.word 0x0000
  302646:	02 c6       	mov.l	r12,@(r0,r2)
  302648:	00 00       	.word 0x0000
  30264a:	02 c6       	mov.l	r12,@(r0,r2)
  30264c:	00 00       	.word 0x0000
  30264e:	02 c6       	mov.l	r12,@(r0,r2)
  302650:	00 00       	.word 0x0000
  302652:	02 c6       	mov.l	r12,@(r0,r2)
  302654:	00 00       	.word 0x0000
  302656:	02 c6       	mov.l	r12,@(r0,r2)
  302658:	00 00       	.word 0x0000
  30265a:	02 c6       	mov.l	r12,@(r0,r2)
  30265c:	00 00       	.word 0x0000
  30265e:	02 c0       	.word 0x02c0
  302660:	61 e3       	mov	r14,r1
  302662:	71 dc       	add	#-36,r1
  302664:	51 1a       	mov.l	@(40,r1),r1
  302666:	71 10       	add	#16,r1
  302668:	61 10       	mov.b	@r1,r1
  30266a:	61 1c       	extu.b	r1,r1
  30266c:	21 18       	tst	r1,r1
  30266e:	89 2b       	bt	3026c8 <_process_key_construction_stage+0x138>
  302670:	61 e3       	mov	r14,r1
  302672:	71 dc       	add	#-36,r1
  302674:	51 1a       	mov.l	@(40,r1),r1
  302676:	51 16       	mov.l	@(24,r1),r1
  302678:	68 e3       	mov	r14,r8
  30267a:	78 dc       	add	#-36,r8
  30267c:	62 e3       	mov	r14,r2
  30267e:	72 10       	add	#16,r2
  302680:	e6 0a       	mov	#10,r6
  302682:	65 23       	mov	r2,r5
  302684:	64 13       	mov	r1,r4
  302686:	d1 8a       	mov.l	3028b0 <_process_key_construction_stage+0x320>,r1	! 308f2c <_strtol>
  302688:	41 0b       	jsr	@r1
  30268a:	00 09       	nop	
  30268c:	61 03       	mov	r0,r1
  30268e:	18 1f       	mov.l	r1,@(60,r8)
  302690:	d1 88       	mov.l	3028b4 <_process_key_construction_stage+0x324>,r1	! 30b4ca <_MAXROWS>
  302692:	61 10       	mov.b	@r1,r1
  302694:	61 1c       	extu.b	r1,r1
  302696:	62 13       	mov	r1,r2
  302698:	61 e3       	mov	r14,r1
  30269a:	71 dc       	add	#-36,r1
  30269c:	51 1f       	mov.l	@(60,r1),r1
  30269e:	31 23       	cmp/ge	r2,r1
  3026a0:	89 3c       	bt	30271c <_process_key_construction_stage+0x18c>
  3026a2:	61 e3       	mov	r14,r1
  3026a4:	71 dc       	add	#-36,r1
  3026a6:	51 1a       	mov.l	@(40,r1),r1
  3026a8:	52 16       	mov.l	@(24,r1),r2
  3026aa:	61 e3       	mov	r14,r1
  3026ac:	71 dc       	add	#-36,r1
  3026ae:	51 1f       	mov.l	@(60,r1),r1
  3026b0:	63 13       	mov	r1,r3
  3026b2:	73 01       	add	#1,r3
  3026b4:	d1 80       	mov.l	3028b8 <_process_key_construction_stage+0x328>,r1	! 30b4f0
  3026b6:	67 33       	mov	r3,r7
  3026b8:	66 13       	mov	r1,r6
  3026ba:	e5 03       	mov	#3,r5
  3026bc:	64 23       	mov	r2,r4
  3026be:	d1 7f       	mov.l	3028bc <_process_key_construction_stage+0x32c>,r1	! 308d78 <_snprintf>
  3026c0:	41 0b       	jsr	@r1
  3026c2:	00 09       	nop	
  3026c4:	a0 2a       	bra	30271c <_process_key_construction_stage+0x18c>
  3026c6:	00 09       	nop	
  3026c8:	61 e3       	mov	r14,r1
  3026ca:	71 dc       	add	#-36,r1
  3026cc:	51 19       	mov.l	@(36,r1),r1
  3026ce:	51 16       	mov.l	@(24,r1),r1
  3026d0:	68 e3       	mov	r14,r8
  3026d2:	78 dc       	add	#-36,r8
  3026d4:	62 e3       	mov	r14,r2
  3026d6:	72 10       	add	#16,r2
  3026d8:	e6 0a       	mov	#10,r6
  3026da:	65 23       	mov	r2,r5
  3026dc:	64 13       	mov	r1,r4
  3026de:	d1 74       	mov.l	3028b0 <_process_key_construction_stage+0x320>,r1	! 308f2c <_strtol>
  3026e0:	41 0b       	jsr	@r1
  3026e2:	00 09       	nop	
  3026e4:	61 03       	mov	r0,r1
  3026e6:	18 1f       	mov.l	r1,@(60,r8)
  3026e8:	d1 75       	mov.l	3028c0 <_process_key_construction_stage+0x330>,r1	! 30b4cb <_MAXCOLS>
  3026ea:	61 10       	mov.b	@r1,r1
  3026ec:	61 1c       	extu.b	r1,r1
  3026ee:	62 13       	mov	r1,r2
  3026f0:	61 e3       	mov	r14,r1
  3026f2:	71 dc       	add	#-36,r1
  3026f4:	51 1f       	mov.l	@(60,r1),r1
  3026f6:	31 23       	cmp/ge	r2,r1
  3026f8:	89 10       	bt	30271c <_process_key_construction_stage+0x18c>
  3026fa:	61 e3       	mov	r14,r1
  3026fc:	71 dc       	add	#-36,r1
  3026fe:	51 19       	mov.l	@(36,r1),r1
  302700:	52 16       	mov.l	@(24,r1),r2
  302702:	61 e3       	mov	r14,r1
  302704:	71 dc       	add	#-36,r1
  302706:	51 1f       	mov.l	@(60,r1),r1
  302708:	63 13       	mov	r1,r3
  30270a:	73 01       	add	#1,r3
  30270c:	d1 6a       	mov.l	3028b8 <_process_key_construction_stage+0x328>,r1	! 30b4f0
  30270e:	67 33       	mov	r3,r7
  302710:	66 13       	mov	r1,r6
  302712:	e5 03       	mov	#3,r5
  302714:	64 23       	mov	r2,r4
  302716:	d1 69       	mov.l	3028bc <_process_key_construction_stage+0x32c>,r1	! 308d78 <_snprintf>
  302718:	41 0b       	jsr	@r1
  30271a:	00 09       	nop	
  30271c:	e1 00       	mov	#0,r1
  30271e:	a0 be       	bra	30289e <_process_key_construction_stage+0x30e>
  302720:	00 09       	nop	
  302722:	61 e3       	mov	r14,r1
  302724:	71 dc       	add	#-36,r1
  302726:	51 1a       	mov.l	@(40,r1),r1
  302728:	71 10       	add	#16,r1
  30272a:	61 10       	mov.b	@r1,r1
  30272c:	61 1c       	extu.b	r1,r1
  30272e:	21 18       	tst	r1,r1
  302730:	89 2b       	bt	30278a <_process_key_construction_stage+0x1fa>
  302732:	61 e3       	mov	r14,r1
  302734:	71 dc       	add	#-36,r1
  302736:	51 1a       	mov.l	@(40,r1),r1
  302738:	51 16       	mov.l	@(24,r1),r1
  30273a:	68 e3       	mov	r14,r8
  30273c:	78 dc       	add	#-36,r8
  30273e:	62 e3       	mov	r14,r2
  302740:	72 0c       	add	#12,r2
  302742:	e6 0a       	mov	#10,r6
  302744:	65 23       	mov	r2,r5
  302746:	64 13       	mov	r1,r4
  302748:	d1 59       	mov.l	3028b0 <_process_key_construction_stage+0x320>,r1	! 308f2c <_strtol>
  30274a:	41 0b       	jsr	@r1
  30274c:	00 09       	nop	
  30274e:	61 03       	mov	r0,r1
  302750:	18 1e       	mov.l	r1,@(56,r8)
  302752:	d1 5c       	mov.l	3028c4 <_process_key_construction_stage+0x334>,r1	! 30b4cc <_MINROWS>
  302754:	61 10       	mov.b	@r1,r1
  302756:	61 1c       	extu.b	r1,r1
  302758:	62 13       	mov	r1,r2
  30275a:	61 e3       	mov	r14,r1
  30275c:	71 dc       	add	#-36,r1
  30275e:	51 1e       	mov.l	@(56,r1),r1
  302760:	31 27       	cmp/gt	r2,r1
  302762:	8b 3c       	bf	3027de <_process_key_construction_stage+0x24e>
  302764:	61 e3       	mov	r14,r1
  302766:	71 dc       	add	#-36,r1
  302768:	51 1a       	mov.l	@(40,r1),r1
  30276a:	52 16       	mov.l	@(24,r1),r2
  30276c:	61 e3       	mov	r14,r1
  30276e:	71 dc       	add	#-36,r1
  302770:	51 1e       	mov.l	@(56,r1),r1
  302772:	63 13       	mov	r1,r3
  302774:	73 ff       	add	#-1,r3
  302776:	d1 50       	mov.l	3028b8 <_process_key_construction_stage+0x328>,r1	! 30b4f0
  302778:	67 33       	mov	r3,r7
  30277a:	66 13       	mov	r1,r6
  30277c:	e5 03       	mov	#3,r5
  30277e:	64 23       	mov	r2,r4
  302780:	d1 4e       	mov.l	3028bc <_process_key_construction_stage+0x32c>,r1	! 308d78 <_snprintf>
  302782:	41 0b       	jsr	@r1
  302784:	00 09       	nop	
  302786:	a0 2a       	bra	3027de <_process_key_construction_stage+0x24e>
  302788:	00 09       	nop	
  30278a:	61 e3       	mov	r14,r1
  30278c:	71 dc       	add	#-36,r1
  30278e:	51 19       	mov.l	@(36,r1),r1
  302790:	51 16       	mov.l	@(24,r1),r1
  302792:	68 e3       	mov	r14,r8
  302794:	78 dc       	add	#-36,r8
  302796:	62 e3       	mov	r14,r2
  302798:	72 0c       	add	#12,r2
  30279a:	e6 0a       	mov	#10,r6
  30279c:	65 23       	mov	r2,r5
  30279e:	64 13       	mov	r1,r4
  3027a0:	d1 43       	mov.l	3028b0 <_process_key_construction_stage+0x320>,r1	! 308f2c <_strtol>
  3027a2:	41 0b       	jsr	@r1
  3027a4:	00 09       	nop	
  3027a6:	61 03       	mov	r0,r1
  3027a8:	18 1e       	mov.l	r1,@(56,r8)
  3027aa:	d1 47       	mov.l	3028c8 <_process_key_construction_stage+0x338>,r1	! 30b4cd <_MINCOLS>
  3027ac:	61 10       	mov.b	@r1,r1
  3027ae:	61 1c       	extu.b	r1,r1
  3027b0:	62 13       	mov	r1,r2
  3027b2:	61 e3       	mov	r14,r1
  3027b4:	71 dc       	add	#-36,r1
  3027b6:	51 1e       	mov.l	@(56,r1),r1
  3027b8:	31 27       	cmp/gt	r2,r1
  3027ba:	8b 10       	bf	3027de <_process_key_construction_stage+0x24e>
  3027bc:	61 e3       	mov	r14,r1
  3027be:	71 dc       	add	#-36,r1
  3027c0:	51 19       	mov.l	@(36,r1),r1
  3027c2:	52 16       	mov.l	@(24,r1),r2
  3027c4:	61 e3       	mov	r14,r1
  3027c6:	71 dc       	add	#-36,r1
  3027c8:	51 1e       	mov.l	@(56,r1),r1
  3027ca:	63 13       	mov	r1,r3
  3027cc:	73 ff       	add	#-1,r3
  3027ce:	d1 3a       	mov.l	3028b8 <_process_key_construction_stage+0x328>,r1	! 30b4f0
  3027d0:	67 33       	mov	r3,r7
  3027d2:	66 13       	mov	r1,r6
  3027d4:	e5 03       	mov	#3,r5
  3027d6:	64 23       	mov	r2,r4
  3027d8:	d1 38       	mov.l	3028bc <_process_key_construction_stage+0x32c>,r1	! 308d78 <_snprintf>
  3027da:	41 0b       	jsr	@r1
  3027dc:	00 09       	nop	
  3027de:	e1 00       	mov	#0,r1
  3027e0:	a0 5d       	bra	30289e <_process_key_construction_stage+0x30e>
  3027e2:	00 09       	nop	
  3027e4:	61 e3       	mov	r14,r1
  3027e6:	71 dc       	add	#-36,r1
  3027e8:	51 1a       	mov.l	@(40,r1),r1
  3027ea:	71 10       	add	#16,r1
  3027ec:	61 10       	mov.b	@r1,r1
  3027ee:	61 1c       	extu.b	r1,r1
  3027f0:	21 18       	tst	r1,r1
  3027f2:	e1 ff       	mov	#-1,r1
  3027f4:	61 1a       	negc	r1,r1
  3027f6:	61 1c       	extu.b	r1,r1
  3027f8:	e2 01       	mov	#1,r2
  3027fa:	21 2a       	xor	r2,r1
  3027fc:	61 1c       	extu.b	r1,r1
  3027fe:	e0 01       	mov	#1,r0
  302800:	21 09       	and	r0,r1
  302802:	62 1c       	extu.b	r1,r2
  302804:	61 e3       	mov	r14,r1
  302806:	71 dc       	add	#-36,r1
  302808:	51 1a       	mov.l	@(40,r1),r1
  30280a:	71 10       	add	#16,r1
  30280c:	21 20       	mov.b	r2,@r1
  30280e:	61 e3       	mov	r14,r1
  302810:	71 dc       	add	#-36,r1
  302812:	51 19       	mov.l	@(36,r1),r1
  302814:	71 10       	add	#16,r1
  302816:	61 10       	mov.b	@r1,r1
  302818:	61 1c       	extu.b	r1,r1
  30281a:	21 18       	tst	r1,r1
  30281c:	e1 ff       	mov	#-1,r1
  30281e:	61 1a       	negc	r1,r1
  302820:	61 1c       	extu.b	r1,r1
  302822:	e2 01       	mov	#1,r2
  302824:	21 2a       	xor	r2,r1
  302826:	61 1c       	extu.b	r1,r1
  302828:	e0 01       	mov	#1,r0
  30282a:	21 09       	and	r0,r1
  30282c:	62 1c       	extu.b	r1,r2
  30282e:	61 e3       	mov	r14,r1
  302830:	71 dc       	add	#-36,r1
  302832:	51 19       	mov.l	@(36,r1),r1
  302834:	71 10       	add	#16,r1
  302836:	21 20       	mov.b	r2,@r1
  302838:	e1 00       	mov	#0,r1
  30283a:	a0 30       	bra	30289e <_process_key_construction_stage+0x30e>
  30283c:	00 09       	nop	
  30283e:	61 e3       	mov	r14,r1
  302840:	71 dc       	add	#-36,r1
  302842:	51 1a       	mov.l	@(40,r1),r1
  302844:	71 10       	add	#16,r1
  302846:	61 10       	mov.b	@r1,r1
  302848:	61 1c       	extu.b	r1,r1
  30284a:	21 18       	tst	r1,r1
  30284c:	e1 ff       	mov	#-1,r1
  30284e:	61 1a       	negc	r1,r1
  302850:	61 1c       	extu.b	r1,r1
  302852:	e2 01       	mov	#1,r2
  302854:	21 2a       	xor	r2,r1
  302856:	61 1c       	extu.b	r1,r1
  302858:	e0 01       	mov	#1,r0
  30285a:	21 09       	and	r0,r1
  30285c:	62 1c       	extu.b	r1,r2
  30285e:	61 e3       	mov	r14,r1
  302860:	71 dc       	add	#-36,r1
  302862:	51 1a       	mov.l	@(40,r1),r1
  302864:	71 10       	add	#16,r1
  302866:	21 20       	mov.b	r2,@r1
  302868:	61 e3       	mov	r14,r1
  30286a:	71 dc       	add	#-36,r1
  30286c:	51 19       	mov.l	@(36,r1),r1
  30286e:	71 10       	add	#16,r1
  302870:	61 10       	mov.b	@r1,r1
  302872:	61 1c       	extu.b	r1,r1
  302874:	21 18       	tst	r1,r1
  302876:	e1 ff       	mov	#-1,r1
  302878:	61 1a       	negc	r1,r1
  30287a:	61 1c       	extu.b	r1,r1
  30287c:	e2 01       	mov	#1,r2
  30287e:	21 2a       	xor	r2,r1
  302880:	61 1c       	extu.b	r1,r1
  302882:	e0 01       	mov	#1,r0
  302884:	21 09       	and	r0,r1
  302886:	62 1c       	extu.b	r1,r2
  302888:	61 e3       	mov	r14,r1
  30288a:	71 dc       	add	#-36,r1
  30288c:	51 19       	mov.l	@(36,r1),r1
  30288e:	71 10       	add	#16,r1
  302890:	21 20       	mov.b	r2,@r1
  302892:	e1 00       	mov	#0,r1
  302894:	a0 03       	bra	30289e <_process_key_construction_stage+0x30e>
  302896:	00 09       	nop	
  302898:	e1 01       	mov	#1,r1
  30289a:	a0 00       	bra	30289e <_process_key_construction_stage+0x30e>
  30289c:	00 09       	nop	
  30289e:	60 13       	mov	r1,r0
  3028a0:	7e 1c       	add	#28,r14
  3028a2:	6f e3       	mov	r14,r15
  3028a4:	4f 26       	lds.l	@r15+,pr
  3028a6:	6e f6       	mov.l	@r15+,r14
  3028a8:	68 f6       	mov.l	@r15+,r8
  3028aa:	00 0b       	rts	
  3028ac:	00 09       	nop	
  3028ae:	00 09       	nop	
  3028b0:	00 30       	.word 0x0030
  3028b2:	8f 2c       	bf.s	30290e <_process_key_rowcol_stage+0x42>
  3028b4:	00 30       	.word 0x0030
  3028b6:	b4 ca       	bsr	30324e <_regcpy+0x2>
  3028b8:	00 30       	.word 0x0030
  3028ba:	b4 f0       	bsr	30329e <__Exit+0x16>
  3028bc:	00 30       	.word 0x0030
  3028be:	8d 78       	bt.s	3029b2 <_process_key_rowcol_stage+0xe6>
  3028c0:	00 30       	.word 0x0030
  3028c2:	b4 cb       	bsr	30325c <_regcpy+0x10>
  3028c4:	00 30       	.word 0x0030
  3028c6:	b4 cc       	bsr	303262 <_regcpy+0x16>
  3028c8:	00 30       	.word 0x0030
  3028ca:	b4 cd       	bsr	303268 <_regcpy+0x1c>

003028cc <_process_key_rowcol_stage>:
  3028cc:	2f e6       	mov.l	r14,@-r15
  3028ce:	4f 22       	sts.l	pr,@-r15
  3028d0:	7f e8       	add	#-24,r15
  3028d2:	6e f3       	mov	r15,r14
  3028d4:	61 e3       	mov	r14,r1
  3028d6:	71 d8       	add	#-40,r1
  3028d8:	11 4d       	mov.l	r4,@(52,r1)
  3028da:	61 e3       	mov	r14,r1
  3028dc:	71 d8       	add	#-40,r1
  3028de:	11 5c       	mov.l	r5,@(48,r1)
  3028e0:	61 e3       	mov	r14,r1
  3028e2:	71 d8       	add	#-40,r1
  3028e4:	11 6b       	mov.l	r6,@(44,r1)
  3028e6:	62 73       	mov	r7,r2
  3028e8:	61 e3       	mov	r14,r1
  3028ea:	71 f8       	add	#-8,r1
  3028ec:	60 23       	mov	r2,r0
  3028ee:	80 18       	mov.b	r0,@(8,r1)
  3028f0:	61 e3       	mov	r14,r1
  3028f2:	71 d8       	add	#-40,r1
  3028f4:	71 30       	add	#48,r1
  3028f6:	84 17       	mov.b	@(7,r1),r0
  3028f8:	61 03       	mov	r0,r1
  3028fa:	62 1c       	extu.b	r1,r2
  3028fc:	e1 15       	mov	#21,r1
  3028fe:	32 10       	cmp/eq	r1,r2
  302900:	8b 51       	bf	3029a6 <_process_key_rowcol_stage+0xda>
  302902:	51 e8       	mov.l	@(32,r14),r1
  302904:	52 11       	mov.l	@(4,r1),r2
  302906:	61 e3       	mov	r14,r1
  302908:	71 d8       	add	#-40,r1
  30290a:	51 1b       	mov.l	@(44,r1),r1
  30290c:	61 10       	mov.b	@r1,r1
  30290e:	61 1c       	extu.b	r1,r1
  302910:	41 08       	shll2	r1
  302912:	31 2c       	add	r2,r1
  302914:	62 12       	mov.l	@r1,r2
  302916:	61 e3       	mov	r14,r1
  302918:	71 d8       	add	#-40,r1
  30291a:	51 1c       	mov.l	@(48,r1),r1
  30291c:	61 10       	mov.b	@r1,r1
  30291e:	61 1c       	extu.b	r1,r1
  302920:	41 08       	shll2	r1
  302922:	31 2c       	add	r2,r1
  302924:	61 12       	mov.l	@r1,r1
  302926:	71 10       	add	#16,r1
  302928:	84 12       	mov.b	@(2,r1),r0
  30292a:	61 03       	mov	r0,r1
  30292c:	61 1c       	extu.b	r1,r1
  30292e:	21 18       	tst	r1,r1
  302930:	89 36       	bt	3029a0 <_process_key_rowcol_stage+0xd4>
  302932:	51 e8       	mov.l	@(32,r14),r1
  302934:	52 11       	mov.l	@(4,r1),r2
  302936:	61 e3       	mov	r14,r1
  302938:	71 d8       	add	#-40,r1
  30293a:	51 1b       	mov.l	@(44,r1),r1
  30293c:	61 10       	mov.b	@r1,r1
  30293e:	61 1c       	extu.b	r1,r1
  302940:	41 08       	shll2	r1
  302942:	31 2c       	add	r2,r1
  302944:	62 12       	mov.l	@r1,r2
  302946:	61 e3       	mov	r14,r1
  302948:	71 d8       	add	#-40,r1
  30294a:	51 1c       	mov.l	@(48,r1),r1
  30294c:	61 10       	mov.b	@r1,r1
  30294e:	61 1c       	extu.b	r1,r1
  302950:	41 08       	shll2	r1
  302952:	31 2c       	add	r2,r1
  302954:	61 12       	mov.l	@r1,r1
  302956:	71 10       	add	#16,r1
  302958:	84 11       	mov.b	@(1,r1),r0
  30295a:	61 03       	mov	r0,r1
  30295c:	61 1c       	extu.b	r1,r1
  30295e:	21 18       	tst	r1,r1
  302960:	e1 ff       	mov	#-1,r1
  302962:	61 1a       	negc	r1,r1
  302964:	61 1c       	extu.b	r1,r1
  302966:	e2 01       	mov	#1,r2
  302968:	21 2a       	xor	r2,r1
  30296a:	61 1c       	extu.b	r1,r1
  30296c:	63 13       	mov	r1,r3
  30296e:	51 e8       	mov.l	@(32,r14),r1
  302970:	52 11       	mov.l	@(4,r1),r2
  302972:	61 e3       	mov	r14,r1
  302974:	71 d8       	add	#-40,r1
  302976:	51 1b       	mov.l	@(44,r1),r1
  302978:	61 10       	mov.b	@r1,r1
  30297a:	61 1c       	extu.b	r1,r1
  30297c:	41 08       	shll2	r1
  30297e:	31 2c       	add	r2,r1
  302980:	62 12       	mov.l	@r1,r2
  302982:	61 e3       	mov	r14,r1
  302984:	71 d8       	add	#-40,r1
  302986:	51 1c       	mov.l	@(48,r1),r1
  302988:	61 10       	mov.b	@r1,r1
  30298a:	61 1c       	extu.b	r1,r1
  30298c:	41 08       	shll2	r1
  30298e:	31 2c       	add	r2,r1
  302990:	61 12       	mov.l	@r1,r1
  302992:	62 33       	mov	r3,r2
  302994:	e3 01       	mov	#1,r3
  302996:	22 39       	and	r3,r2
  302998:	62 2c       	extu.b	r2,r2
  30299a:	71 10       	add	#16,r1
  30299c:	60 23       	mov	r2,r0
  30299e:	80 11       	mov.b	r0,@(1,r1)
  3029a0:	e1 00       	mov	#0,r1
  3029a2:	a1 de       	bra	302d62 <_process_key_rowcol_stage+0x496>
  3029a4:	00 09       	nop	
  3029a6:	51 e8       	mov.l	@(32,r14),r1
  3029a8:	52 11       	mov.l	@(4,r1),r2
  3029aa:	61 e3       	mov	r14,r1
  3029ac:	71 d8       	add	#-40,r1
  3029ae:	51 1b       	mov.l	@(44,r1),r1
  3029b0:	61 10       	mov.b	@r1,r1
  3029b2:	61 1c       	extu.b	r1,r1
  3029b4:	41 08       	shll2	r1
  3029b6:	31 2c       	add	r2,r1
  3029b8:	62 12       	mov.l	@r1,r2
  3029ba:	61 e3       	mov	r14,r1
  3029bc:	71 d8       	add	#-40,r1
  3029be:	51 1c       	mov.l	@(48,r1),r1
  3029c0:	61 10       	mov.b	@r1,r1
  3029c2:	61 1c       	extu.b	r1,r1
  3029c4:	41 08       	shll2	r1
  3029c6:	31 2c       	add	r2,r1
  3029c8:	61 12       	mov.l	@r1,r1
  3029ca:	71 10       	add	#16,r1
  3029cc:	84 11       	mov.b	@(1,r1),r0
  3029ce:	61 03       	mov	r0,r1
  3029d0:	61 1c       	extu.b	r1,r1
  3029d2:	e2 01       	mov	#1,r2
  3029d4:	21 2a       	xor	r2,r1
  3029d6:	61 1c       	extu.b	r1,r1
  3029d8:	21 18       	tst	r1,r1
  3029da:	89 0e       	bt	3029fa <_process_key_rowcol_stage+0x12e>
  3029dc:	63 e3       	mov	r14,r3
  3029de:	73 d8       	add	#-40,r3
  3029e0:	62 e3       	mov	r14,r2
  3029e2:	72 d8       	add	#-40,r2
  3029e4:	61 e3       	mov	r14,r1
  3029e6:	71 d8       	add	#-40,r1
  3029e8:	57 e8       	mov.l	@(32,r14),r7
  3029ea:	56 3b       	mov.l	@(44,r3),r6
  3029ec:	55 2c       	mov.l	@(48,r2),r5
  3029ee:	54 1d       	mov.l	@(52,r1),r4
  3029f0:	d1 12       	mov.l	302a3c <_process_key_rowcol_stage+0x170>,r1	! 302170 <_process_cursor_movement>
  3029f2:	41 0b       	jsr	@r1
  3029f4:	00 09       	nop	
  3029f6:	a1 b3       	bra	302d60 <_process_key_rowcol_stage+0x494>
  3029f8:	00 09       	nop	
  3029fa:	61 e3       	mov	r14,r1
  3029fc:	71 d8       	add	#-40,r1
  3029fe:	52 1d       	mov.l	@(52,r1),r2
  302a00:	91 1a       	mov.w	302a38 <_process_key_rowcol_stage+0x16c>,r1	! 400
  302a02:	21 29       	and	r2,r1
  302a04:	21 18       	tst	r1,r1
  302a06:	8b 01       	bf	302a0c <_process_key_rowcol_stage+0x140>
  302a08:	a1 9d       	bra	302d46 <_process_key_rowcol_stage+0x47a>
  302a0a:	00 09       	nop	
  302a0c:	61 e3       	mov	r14,r1
  302a0e:	71 d8       	add	#-40,r1
  302a10:	71 30       	add	#48,r1
  302a12:	84 17       	mov.b	@(7,r1),r0
  302a14:	61 03       	mov	r0,r1
  302a16:	61 1c       	extu.b	r1,r1
  302a18:	67 13       	mov	r1,r7
  302a1a:	e2 11       	mov	#17,r2
  302a1c:	e1 55       	mov	#85,r1
  302a1e:	63 23       	mov	r2,r3
  302a20:	62 13       	mov	r1,r2
  302a22:	61 73       	mov	r7,r1
  302a24:	31 38       	sub	r3,r1
  302a26:	31 26       	cmp/hi	r2,r1
  302a28:	8b 01       	bf	302a2e <_process_key_rowcol_stage+0x162>
  302a2a:	a1 51       	bra	302cd0 <_process_key_rowcol_stage+0x404>
  302a2c:	00 09       	nop	
  302a2e:	c7 04       	mova	302a40 <_process_key_rowcol_stage+0x174>,r0
  302a30:	41 08       	shll2	r1
  302a32:	01 1e       	mov.l	@(r0,r1),r1
  302a34:	01 23       	braf	r1
  302a36:	00 09       	nop	
  302a38:	04 00       	.word 0x0400
  302a3a:	00 09       	nop	
  302a3c:	00 30       	.word 0x0030
  302a3e:	21 70       	mov.b	r7,@r1
  302a40:	00 00       	.word 0x0000
  302a42:	02 8c       	mov.b	@(r0,r8),r2
  302a44:	00 00       	.word 0x0000
  302a46:	02 98       	.word 0x0298
  302a48:	00 00       	.word 0x0000
  302a4a:	02 98       	.word 0x0298
  302a4c:	00 00       	.word 0x0000
  302a4e:	02 98       	.word 0x0298
  302a50:	00 00       	.word 0x0000
  302a52:	02 98       	.word 0x0298
  302a54:	00 00       	.word 0x0000
  302a56:	02 98       	.word 0x0298
  302a58:	00 00       	.word 0x0000
  302a5a:	02 98       	.word 0x0298
  302a5c:	00 00       	.word 0x0000
  302a5e:	02 98       	.word 0x0298
  302a60:	00 00       	.word 0x0000
  302a62:	02 98       	.word 0x0298
  302a64:	00 00       	.word 0x0000
  302a66:	02 98       	.word 0x0298
  302a68:	00 00       	.word 0x0000
  302a6a:	02 98       	.word 0x0298
  302a6c:	00 00       	.word 0x0000
  302a6e:	02 98       	.word 0x0298
  302a70:	00 00       	.word 0x0000
  302a72:	02 98       	.word 0x0298
  302a74:	00 00       	.word 0x0000
  302a76:	02 98       	.word 0x0298
  302a78:	00 00       	.word 0x0000
  302a7a:	02 98       	.word 0x0298
  302a7c:	00 00       	.word 0x0000
  302a7e:	02 98       	.word 0x0298
  302a80:	00 00       	.word 0x0000
  302a82:	02 50       	.word 0x0250
  302a84:	00 00       	.word 0x0000
  302a86:	02 5c       	mov.b	@(r0,r5),r2
  302a88:	00 00       	.word 0x0000
  302a8a:	02 68       	.word 0x0268
  302a8c:	00 00       	.word 0x0000
  302a8e:	02 74       	mov.b	r7,@(r0,r2)
  302a90:	00 00       	.word 0x0000
  302a92:	02 80       	.word 0x0280
  302a94:	00 00       	.word 0x0000
  302a96:	02 98       	.word 0x0298
  302a98:	00 00       	.word 0x0000
  302a9a:	02 98       	.word 0x0298
  302a9c:	00 00       	.word 0x0000
  302a9e:	02 98       	.word 0x0298
  302aa0:	00 00       	.word 0x0000
  302aa2:	02 98       	.word 0x0298
  302aa4:	00 00       	.word 0x0000
  302aa6:	02 98       	.word 0x0298
  302aa8:	00 00       	.word 0x0000
  302aaa:	02 98       	.word 0x0298
  302aac:	00 00       	.word 0x0000
  302aae:	02 98       	.word 0x0298
  302ab0:	00 00       	.word 0x0000
  302ab2:	02 98       	.word 0x0298
  302ab4:	00 00       	.word 0x0000
  302ab6:	02 98       	.word 0x0298
  302ab8:	00 00       	.word 0x0000
  302aba:	02 98       	.word 0x0298
  302abc:	00 00       	.word 0x0000
  302abe:	02 98       	.word 0x0298
  302ac0:	00 00       	.word 0x0000
  302ac2:	02 14       	mov.b	r1,@(r0,r2)
  302ac4:	00 00       	.word 0x0000
  302ac6:	02 20       	.word 0x0220
  302ac8:	00 00       	.word 0x0000
  302aca:	02 2c       	mov.b	@(r0,r2),r2
  302acc:	00 00       	.word 0x0000
  302ace:	02 38       	.word 0x0238
  302ad0:	00 00       	.word 0x0000
  302ad2:	02 44       	mov.b	r4,@(r0,r2)
  302ad4:	00 00       	.word 0x0000
  302ad6:	02 98       	.word 0x0298
  302ad8:	00 00       	.word 0x0000
  302ada:	02 98       	.word 0x0298
  302adc:	00 00       	.word 0x0000
  302ade:	02 98       	.word 0x0298
  302ae0:	00 00       	.word 0x0000
  302ae2:	02 98       	.word 0x0298
  302ae4:	00 00       	.word 0x0000
  302ae6:	02 98       	.word 0x0298
  302ae8:	00 00       	.word 0x0000
  302aea:	02 98       	.word 0x0298
  302aec:	00 00       	.word 0x0000
  302aee:	02 98       	.word 0x0298
  302af0:	00 00       	.word 0x0000
  302af2:	02 98       	.word 0x0298
  302af4:	00 00       	.word 0x0000
  302af6:	02 98       	.word 0x0298
  302af8:	00 00       	.word 0x0000
  302afa:	02 98       	.word 0x0298
  302afc:	00 00       	.word 0x0000
  302afe:	02 98       	.word 0x0298
  302b00:	00 00       	.word 0x0000
  302b02:	01 f0       	.word 0x01f0
  302b04:	00 00       	.word 0x0000
  302b06:	01 fc       	mov.b	@(r0,r15),r1
  302b08:	00 00       	.word 0x0000
  302b0a:	02 08       	.word 0x0208
  302b0c:	00 00       	.word 0x0000
  302b0e:	02 98       	.word 0x0298
  302b10:	00 00       	.word 0x0000
  302b12:	02 98       	.word 0x0298
  302b14:	00 00       	.word 0x0000
  302b16:	02 98       	.word 0x0298
  302b18:	00 00       	.word 0x0000
  302b1a:	02 98       	.word 0x0298
  302b1c:	00 00       	.word 0x0000
  302b1e:	02 98       	.word 0x0298
  302b20:	00 00       	.word 0x0000
  302b22:	02 98       	.word 0x0298
  302b24:	00 00       	.word 0x0000
  302b26:	02 98       	.word 0x0298
  302b28:	00 00       	.word 0x0000
  302b2a:	02 98       	.word 0x0298
  302b2c:	00 00       	.word 0x0000
  302b2e:	02 98       	.word 0x0298
  302b30:	00 00       	.word 0x0000
  302b32:	02 98       	.word 0x0298
  302b34:	00 00       	.word 0x0000
  302b36:	02 98       	.word 0x0298
  302b38:	00 00       	.word 0x0000
  302b3a:	02 98       	.word 0x0298
  302b3c:	00 00       	.word 0x0000
  302b3e:	02 98       	.word 0x0298
  302b40:	00 00       	.word 0x0000
  302b42:	01 a8       	.word 0x01a8
  302b44:	00 00       	.word 0x0000
  302b46:	01 b4       	mov.b	r11,@(r0,r1)
  302b48:	00 00       	.word 0x0000
  302b4a:	01 c0       	.word 0x01c0
  302b4c:	00 00       	.word 0x0000
  302b4e:	01 cc       	mov.b	@(r0,r12),r1
  302b50:	00 00       	.word 0x0000
  302b52:	01 d8       	.word 0x01d8
  302b54:	00 00       	.word 0x0000
  302b56:	01 e4       	mov.b	r14,@(r0,r1)
  302b58:	00 00       	.word 0x0000
  302b5a:	02 98       	.word 0x0298
  302b5c:	00 00       	.word 0x0000
  302b5e:	02 98       	.word 0x0298
  302b60:	00 00       	.word 0x0000
  302b62:	02 98       	.word 0x0298
  302b64:	00 00       	.word 0x0000
  302b66:	02 98       	.word 0x0298
  302b68:	00 00       	.word 0x0000
  302b6a:	02 98       	.word 0x0298
  302b6c:	00 00       	.word 0x0000
  302b6e:	02 98       	.word 0x0298
  302b70:	00 00       	.word 0x0000
  302b72:	02 98       	.word 0x0298
  302b74:	00 00       	.word 0x0000
  302b76:	02 98       	.word 0x0298
  302b78:	00 00       	.word 0x0000
  302b7a:	02 98       	.word 0x0298
  302b7c:	00 00       	.word 0x0000
  302b7e:	02 98       	.word 0x0298
  302b80:	00 00       	.word 0x0000
  302b82:	01 60       	.word 0x0160
  302b84:	00 00       	.word 0x0000
  302b86:	01 6c       	mov.b	@(r0,r6),r1
  302b88:	00 00       	.word 0x0000
  302b8a:	01 78       	.word 0x0178
  302b8c:	00 00       	.word 0x0000
  302b8e:	01 84       	mov.b	r8,@(r0,r1)
  302b90:	00 00       	.word 0x0000
  302b92:	01 90       	.word 0x0190
  302b94:	00 00       	.word 0x0000
  302b96:	01 9c       	mov.b	@(r0,r9),r1
  302b98:	61 e3       	mov	r14,r1
  302b9a:	71 d8       	add	#-40,r1
  302b9c:	d2 74       	mov.l	302d70 <_process_key_rowcol_stage+0x4a4>,r2	! 30b4f4
  302b9e:	11 2f       	mov.l	r2,@(60,r1)
  302ba0:	a0 9b       	bra	302cda <_process_key_rowcol_stage+0x40e>
  302ba2:	00 09       	nop	
  302ba4:	61 e3       	mov	r14,r1
  302ba6:	71 d8       	add	#-40,r1
  302ba8:	d2 72       	mov.l	302d74 <_process_key_rowcol_stage+0x4a8>,r2	! 30b4f8
  302baa:	11 2f       	mov.l	r2,@(60,r1)
  302bac:	a0 95       	bra	302cda <_process_key_rowcol_stage+0x40e>
  302bae:	00 09       	nop	
  302bb0:	61 e3       	mov	r14,r1
  302bb2:	71 d8       	add	#-40,r1
  302bb4:	d2 70       	mov.l	302d78 <_process_key_rowcol_stage+0x4ac>,r2	! 30b4fc
  302bb6:	11 2f       	mov.l	r2,@(60,r1)
  302bb8:	a0 8f       	bra	302cda <_process_key_rowcol_stage+0x40e>
  302bba:	00 09       	nop	
  302bbc:	61 e3       	mov	r14,r1
  302bbe:	71 d8       	add	#-40,r1
  302bc0:	d2 6e       	mov.l	302d7c <_process_key_rowcol_stage+0x4b0>,r2	! 30b500
  302bc2:	11 2f       	mov.l	r2,@(60,r1)
  302bc4:	a0 89       	bra	302cda <_process_key_rowcol_stage+0x40e>
  302bc6:	00 09       	nop	
  302bc8:	61 e3       	mov	r14,r1
  302bca:	71 d8       	add	#-40,r1
  302bcc:	d2 6c       	mov.l	302d80 <_process_key_rowcol_stage+0x4b4>,r2	! 30b504
  302bce:	11 2f       	mov.l	r2,@(60,r1)
  302bd0:	a0 83       	bra	302cda <_process_key_rowcol_stage+0x40e>
  302bd2:	00 09       	nop	
  302bd4:	61 e3       	mov	r14,r1
  302bd6:	71 d8       	add	#-40,r1
  302bd8:	d2 6a       	mov.l	302d84 <_process_key_rowcol_stage+0x4b8>,r2	! 30b508
  302bda:	11 2f       	mov.l	r2,@(60,r1)
  302bdc:	a0 7d       	bra	302cda <_process_key_rowcol_stage+0x40e>
  302bde:	00 09       	nop	
  302be0:	61 e3       	mov	r14,r1
  302be2:	71 d8       	add	#-40,r1
  302be4:	d2 68       	mov.l	302d88 <_process_key_rowcol_stage+0x4bc>,r2	! 30b50c
  302be6:	11 2f       	mov.l	r2,@(60,r1)
  302be8:	a0 77       	bra	302cda <_process_key_rowcol_stage+0x40e>
  302bea:	00 09       	nop	
  302bec:	61 e3       	mov	r14,r1
  302bee:	71 d8       	add	#-40,r1
  302bf0:	d2 66       	mov.l	302d8c <_process_key_rowcol_stage+0x4c0>,r2	! 30b510
  302bf2:	11 2f       	mov.l	r2,@(60,r1)
  302bf4:	a0 71       	bra	302cda <_process_key_rowcol_stage+0x40e>
  302bf6:	00 09       	nop	
  302bf8:	61 e3       	mov	r14,r1
  302bfa:	71 d8       	add	#-40,r1
  302bfc:	d2 64       	mov.l	302d90 <_process_key_rowcol_stage+0x4c4>,r2	! 30b514
  302bfe:	11 2f       	mov.l	r2,@(60,r1)
  302c00:	a0 6b       	bra	302cda <_process_key_rowcol_stage+0x40e>
  302c02:	00 09       	nop	
  302c04:	61 e3       	mov	r14,r1
  302c06:	71 d8       	add	#-40,r1
  302c08:	d2 62       	mov.l	302d94 <_process_key_rowcol_stage+0x4c8>,r2	! 30b518
  302c0a:	11 2f       	mov.l	r2,@(60,r1)
  302c0c:	a0 65       	bra	302cda <_process_key_rowcol_stage+0x40e>
  302c0e:	00 09       	nop	
  302c10:	61 e3       	mov	r14,r1
  302c12:	71 d8       	add	#-40,r1
  302c14:	d2 60       	mov.l	302d98 <_process_key_rowcol_stage+0x4cc>,r2	! 30b51c
  302c16:	11 2f       	mov.l	r2,@(60,r1)
  302c18:	a0 5f       	bra	302cda <_process_key_rowcol_stage+0x40e>
  302c1a:	00 09       	nop	
  302c1c:	61 e3       	mov	r14,r1
  302c1e:	71 d8       	add	#-40,r1
  302c20:	d2 5e       	mov.l	302d9c <_process_key_rowcol_stage+0x4d0>,r2	! 30b520
  302c22:	11 2f       	mov.l	r2,@(60,r1)
  302c24:	a0 59       	bra	302cda <_process_key_rowcol_stage+0x40e>
  302c26:	00 09       	nop	
  302c28:	61 e3       	mov	r14,r1
  302c2a:	71 d8       	add	#-40,r1
  302c2c:	d2 5c       	mov.l	302da0 <_process_key_rowcol_stage+0x4d4>,r2	! 30b524
  302c2e:	11 2f       	mov.l	r2,@(60,r1)
  302c30:	a0 53       	bra	302cda <_process_key_rowcol_stage+0x40e>
  302c32:	00 09       	nop	
  302c34:	61 e3       	mov	r14,r1
  302c36:	71 d8       	add	#-40,r1
  302c38:	d2 5a       	mov.l	302da4 <_process_key_rowcol_stage+0x4d8>,r2	! 30b528
  302c3a:	11 2f       	mov.l	r2,@(60,r1)
  302c3c:	a0 4d       	bra	302cda <_process_key_rowcol_stage+0x40e>
  302c3e:	00 09       	nop	
  302c40:	61 e3       	mov	r14,r1
  302c42:	71 d8       	add	#-40,r1
  302c44:	d2 58       	mov.l	302da8 <_process_key_rowcol_stage+0x4dc>,r2	! 30b52c
  302c46:	11 2f       	mov.l	r2,@(60,r1)
  302c48:	a0 47       	bra	302cda <_process_key_rowcol_stage+0x40e>
  302c4a:	00 09       	nop	
  302c4c:	61 e3       	mov	r14,r1
  302c4e:	71 d8       	add	#-40,r1
  302c50:	d2 56       	mov.l	302dac <_process_key_rowcol_stage+0x4e0>,r2	! 30b530
  302c52:	11 2f       	mov.l	r2,@(60,r1)
  302c54:	a0 41       	bra	302cda <_process_key_rowcol_stage+0x40e>
  302c56:	00 09       	nop	
  302c58:	61 e3       	mov	r14,r1
  302c5a:	71 d8       	add	#-40,r1
  302c5c:	d2 54       	mov.l	302db0 <_process_key_rowcol_stage+0x4e4>,r2	! 30b534
  302c5e:	11 2f       	mov.l	r2,@(60,r1)
  302c60:	a0 3b       	bra	302cda <_process_key_rowcol_stage+0x40e>
  302c62:	00 09       	nop	
  302c64:	61 e3       	mov	r14,r1
  302c66:	71 d8       	add	#-40,r1
  302c68:	d2 52       	mov.l	302db4 <_process_key_rowcol_stage+0x4e8>,r2	! 30b538
  302c6a:	11 2f       	mov.l	r2,@(60,r1)
  302c6c:	a0 35       	bra	302cda <_process_key_rowcol_stage+0x40e>
  302c6e:	00 09       	nop	
  302c70:	61 e3       	mov	r14,r1
  302c72:	71 d8       	add	#-40,r1
  302c74:	d2 50       	mov.l	302db8 <_process_key_rowcol_stage+0x4ec>,r2	! 30b53c
  302c76:	11 2f       	mov.l	r2,@(60,r1)
  302c78:	a0 2f       	bra	302cda <_process_key_rowcol_stage+0x40e>
  302c7a:	00 09       	nop	
  302c7c:	61 e3       	mov	r14,r1
  302c7e:	71 d8       	add	#-40,r1
  302c80:	d2 4e       	mov.l	302dbc <_process_key_rowcol_stage+0x4f0>,r2	! 30b540
  302c82:	11 2f       	mov.l	r2,@(60,r1)
  302c84:	a0 29       	bra	302cda <_process_key_rowcol_stage+0x40e>
  302c86:	00 09       	nop	
  302c88:	61 e3       	mov	r14,r1
  302c8a:	71 d8       	add	#-40,r1
  302c8c:	d2 4c       	mov.l	302dc0 <_process_key_rowcol_stage+0x4f4>,r2	! 30b544
  302c8e:	11 2f       	mov.l	r2,@(60,r1)
  302c90:	a0 23       	bra	302cda <_process_key_rowcol_stage+0x40e>
  302c92:	00 09       	nop	
  302c94:	61 e3       	mov	r14,r1
  302c96:	71 d8       	add	#-40,r1
  302c98:	d2 4a       	mov.l	302dc4 <_process_key_rowcol_stage+0x4f8>,r2	! 30b548
  302c9a:	11 2f       	mov.l	r2,@(60,r1)
  302c9c:	a0 1d       	bra	302cda <_process_key_rowcol_stage+0x40e>
  302c9e:	00 09       	nop	
  302ca0:	61 e3       	mov	r14,r1
  302ca2:	71 d8       	add	#-40,r1
  302ca4:	d2 48       	mov.l	302dc8 <_process_key_rowcol_stage+0x4fc>,r2	! 30b54c
  302ca6:	11 2f       	mov.l	r2,@(60,r1)
  302ca8:	a0 17       	bra	302cda <_process_key_rowcol_stage+0x40e>
  302caa:	00 09       	nop	
  302cac:	61 e3       	mov	r14,r1
  302cae:	71 d8       	add	#-40,r1
  302cb0:	d2 46       	mov.l	302dcc <_process_key_rowcol_stage+0x500>,r2	! 30b550
  302cb2:	11 2f       	mov.l	r2,@(60,r1)
  302cb4:	a0 11       	bra	302cda <_process_key_rowcol_stage+0x40e>
  302cb6:	00 09       	nop	
  302cb8:	61 e3       	mov	r14,r1
  302cba:	71 d8       	add	#-40,r1
  302cbc:	d2 44       	mov.l	302dd0 <_process_key_rowcol_stage+0x504>,r2	! 30b554
  302cbe:	11 2f       	mov.l	r2,@(60,r1)
  302cc0:	a0 0b       	bra	302cda <_process_key_rowcol_stage+0x40e>
  302cc2:	00 09       	nop	
  302cc4:	61 e3       	mov	r14,r1
  302cc6:	71 d8       	add	#-40,r1
  302cc8:	d2 42       	mov.l	302dd4 <_process_key_rowcol_stage+0x508>,r2	! 30b558
  302cca:	11 2f       	mov.l	r2,@(60,r1)
  302ccc:	a0 05       	bra	302cda <_process_key_rowcol_stage+0x40e>
  302cce:	00 09       	nop	
  302cd0:	61 e3       	mov	r14,r1
  302cd2:	71 d8       	add	#-40,r1
  302cd4:	d2 40       	mov.l	302dd8 <_process_key_rowcol_stage+0x50c>,r2	! 30b55c
  302cd6:	11 2f       	mov.l	r2,@(60,r1)
  302cd8:	00 09       	nop	
  302cda:	51 e8       	mov.l	@(32,r14),r1
  302cdc:	52 11       	mov.l	@(4,r1),r2
  302cde:	61 e3       	mov	r14,r1
  302ce0:	71 d8       	add	#-40,r1
  302ce2:	51 1b       	mov.l	@(44,r1),r1
  302ce4:	61 10       	mov.b	@r1,r1
  302ce6:	61 1c       	extu.b	r1,r1
  302ce8:	41 08       	shll2	r1
  302cea:	31 2c       	add	r2,r1
  302cec:	62 12       	mov.l	@r1,r2
  302cee:	61 e3       	mov	r14,r1
  302cf0:	71 d8       	add	#-40,r1
  302cf2:	51 1c       	mov.l	@(48,r1),r1
  302cf4:	61 10       	mov.b	@r1,r1
  302cf6:	61 1c       	extu.b	r1,r1
  302cf8:	41 08       	shll2	r1
  302cfa:	31 2c       	add	r2,r1
  302cfc:	62 12       	mov.l	@r1,r2
  302cfe:	61 e3       	mov	r14,r1
  302d00:	71 d8       	add	#-40,r1
  302d02:	52 26       	mov.l	@(24,r2),r2
  302d04:	11 2e       	mov.l	r2,@(56,r1)
  302d06:	51 e8       	mov.l	@(32,r14),r1
  302d08:	52 11       	mov.l	@(4,r1),r2
  302d0a:	61 e3       	mov	r14,r1
  302d0c:	71 d8       	add	#-40,r1
  302d0e:	51 1b       	mov.l	@(44,r1),r1
  302d10:	61 10       	mov.b	@r1,r1
  302d12:	61 1c       	extu.b	r1,r1
  302d14:	41 08       	shll2	r1
  302d16:	31 2c       	add	r2,r1
  302d18:	62 12       	mov.l	@r1,r2
  302d1a:	61 e3       	mov	r14,r1
  302d1c:	71 d8       	add	#-40,r1
  302d1e:	51 1c       	mov.l	@(48,r1),r1
  302d20:	61 10       	mov.b	@r1,r1
  302d22:	61 1c       	extu.b	r1,r1
  302d24:	41 08       	shll2	r1
  302d26:	31 2c       	add	r2,r1
  302d28:	61 12       	mov.l	@r1,r1
  302d2a:	53 16       	mov.l	@(24,r1),r3
  302d2c:	62 e3       	mov	r14,r2
  302d2e:	72 d8       	add	#-40,r2
  302d30:	61 e3       	mov	r14,r1
  302d32:	71 d8       	add	#-40,r1
  302d34:	d5 29       	mov.l	302ddc <_process_key_rowcol_stage+0x510>,r5	! 30b560
  302d36:	57 2f       	mov.l	@(60,r2),r7
  302d38:	56 1e       	mov.l	@(56,r1),r6
  302d3a:	64 33       	mov	r3,r4
  302d3c:	d1 28       	mov.l	302de0 <_process_key_rowcol_stage+0x514>,r1	! 308dc4 <_sprintf>
  302d3e:	41 0b       	jsr	@r1
  302d40:	00 09       	nop	
  302d42:	a0 0d       	bra	302d60 <_process_key_rowcol_stage+0x494>
  302d44:	00 09       	nop	
  302d46:	63 e3       	mov	r14,r3
  302d48:	73 d8       	add	#-40,r3
  302d4a:	62 e3       	mov	r14,r2
  302d4c:	72 d8       	add	#-40,r2
  302d4e:	61 e3       	mov	r14,r1
  302d50:	71 d8       	add	#-40,r1
  302d52:	57 e8       	mov.l	@(32,r14),r7
  302d54:	56 3b       	mov.l	@(44,r3),r6
  302d56:	55 2c       	mov.l	@(48,r2),r5
  302d58:	54 1d       	mov.l	@(52,r1),r4
  302d5a:	d1 22       	mov.l	302de4 <_process_key_rowcol_stage+0x518>,r1	! 3022e6 <_process_common_keys>
  302d5c:	41 0b       	jsr	@r1
  302d5e:	00 09       	nop	
  302d60:	e1 00       	mov	#0,r1
  302d62:	60 13       	mov	r1,r0
  302d64:	7e 18       	add	#24,r14
  302d66:	6f e3       	mov	r14,r15
  302d68:	4f 26       	lds.l	@r15+,pr
  302d6a:	6e f6       	mov.l	@r15+,r14
  302d6c:	00 0b       	rts	
  302d6e:	00 09       	nop	
  302d70:	00 30       	.word 0x0030
  302d72:	b4 f4       	bsr	30375e <_keydev_unqueue_event+0xa2>
  302d74:	00 30       	.word 0x0030
  302d76:	b4 f8       	bsr	30376a <_keydev_unqueue_event+0xae>
  302d78:	00 30       	.word 0x0030
  302d7a:	b4 fc       	bsr	303776 <_keydev_unqueue_event+0xba>
  302d7c:	00 30       	.word 0x0030
  302d7e:	b5 00       	bsr	303782 <_keydev_unqueue_event+0xc6>
  302d80:	00 30       	.word 0x0030
  302d82:	b5 04       	bsr	30378e <_keydev_unqueue_event+0xd2>
  302d84:	00 30       	.word 0x0030
  302d86:	b5 08       	bsr	30379a <_keydev_keydown+0x6>
  302d88:	00 30       	.word 0x0030
  302d8a:	b5 0c       	bsr	3037a6 <_keydev_keydown+0x12>
  302d8c:	00 30       	.word 0x0030
  302d8e:	b5 10       	bsr	3037b2 <_keydev_keydown+0x1e>
  302d90:	00 30       	.word 0x0030
  302d92:	b5 14       	bsr	3037be <_keydev_transform+0x8>
  302d94:	00 30       	.word 0x0030
  302d96:	b5 18       	bsr	3037ca <_keydev_transform+0x14>
  302d98:	00 30       	.word 0x0030
  302d9a:	b5 1c       	bsr	3037d6 <_keydev_set_transform+0x6>
  302d9c:	00 30       	.word 0x0030
  302d9e:	b5 20       	bsr	3037e2 <_keydev_set_transform+0x12>
  302da0:	00 30       	.word 0x0030
  302da2:	b5 24       	bsr	3037ee <_keydev_set_transform+0x1e>
  302da4:	00 30       	.word 0x0030
  302da6:	b5 28       	bsr	3037fa <_keydev_set_transform+0x2a>
  302da8:	00 30       	.word 0x0030
  302daa:	b5 2c       	bsr	303806 <_keydev_set_transform+0x36>
  302dac:	00 30       	.word 0x0030
  302dae:	b5 30       	bsr	303812 <_keydev_set_standard_repeats+0x6>
  302db0:	00 30       	.word 0x0030
  302db2:	b5 34       	bsr	30381e <_keydev_set_standard_repeats+0x12>
  302db4:	00 30       	.word 0x0030
  302db6:	b5 38       	bsr	30382a <_keydev_read+0xa>
  302db8:	00 30       	.word 0x0030
  302dba:	b5 3c       	bsr	303836 <_keydev_read+0x16>
  302dbc:	00 30       	.word 0x0030
  302dbe:	b5 40       	bsr	303842 <_keydev_read+0x22>
  302dc0:	00 30       	.word 0x0030
  302dc2:	b5 44       	bsr	30384e <_keydev_read+0x2e>
  302dc4:	00 30       	.word 0x0030
  302dc6:	b5 48       	bsr	30385a <_keydev_read+0x3a>
  302dc8:	00 30       	.word 0x0030
  302dca:	b5 4c       	bsr	303866 <_keydev_read+0x46>
  302dcc:	00 30       	.word 0x0030
  302dce:	b5 50       	bsr	303872 <_keydev_read+0x52>
  302dd0:	00 30       	.word 0x0030
  302dd2:	b5 54       	bsr	30387e <_keydev_read+0x5e>
  302dd4:	00 30       	.word 0x0030
  302dd6:	b5 58       	bsr	30388a <_keydev_read+0x6a>
  302dd8:	00 30       	.word 0x0030
  302dda:	b5 5c       	bsr	303896 <_keydev_read+0x76>
  302ddc:	00 30       	.word 0x0030
  302dde:	b5 60       	bsr	3038a2 <_keydev_read+0x82>
  302de0:	00 30       	.word 0x0030
  302de2:	8d c4       	bt.s	302d6e <_process_key_rowcol_stage+0x4a2>
  302de4:	00 30       	.word 0x0030
  302de6:	22 e6       	mov.l	r14,@-r2

00302de8 <_process_key_tableux_stage>:
  302de8:	2f e6       	mov.l	r14,@-r15
  302dea:	4f 22       	sts.l	pr,@-r15
  302dec:	7f e8       	add	#-24,r15
  302dee:	6e f3       	mov	r15,r14
  302df0:	61 e3       	mov	r14,r1
  302df2:	71 d8       	add	#-40,r1
  302df4:	11 4d       	mov.l	r4,@(52,r1)
  302df6:	61 e3       	mov	r14,r1
  302df8:	71 d8       	add	#-40,r1
  302dfa:	11 5c       	mov.l	r5,@(48,r1)
  302dfc:	61 e3       	mov	r14,r1
  302dfe:	71 d8       	add	#-40,r1
  302e00:	11 6b       	mov.l	r6,@(44,r1)
  302e02:	61 e3       	mov	r14,r1
  302e04:	71 d8       	add	#-40,r1
  302e06:	11 7a       	mov.l	r7,@(40,r1)
  302e08:	61 e3       	mov	r14,r1
  302e0a:	71 d8       	add	#-40,r1
  302e0c:	71 30       	add	#48,r1
  302e0e:	84 17       	mov.b	@(7,r1),r0
  302e10:	61 03       	mov	r0,r1
  302e12:	62 1c       	extu.b	r1,r2
  302e14:	91 68       	mov.w	302ee8 <_process_key_tableux_stage+0x100>,r1	! 96
  302e16:	32 10       	cmp/eq	r1,r2
  302e18:	8b 08       	bf	302e2c <_process_key_tableux_stage+0x44>
  302e1a:	61 e3       	mov	r14,r1
  302e1c:	71 d8       	add	#-40,r1
  302e1e:	54 1a       	mov.l	@(40,r1),r4
  302e20:	d1 32       	mov.l	302eec <_process_key_tableux_stage+0x104>,r1	! 303160 <_check_stage_1>
  302e22:	41 0b       	jsr	@r1
  302e24:	00 09       	nop	
  302e26:	61 03       	mov	r0,r1
  302e28:	21 18       	tst	r1,r1
  302e2a:	8b 01       	bf	302e30 <_process_key_tableux_stage+0x48>
  302e2c:	a0 60       	bra	302ef0 <_process_key_tableux_stage+0x108>
  302e2e:	00 09       	nop	
  302e30:	61 e3       	mov	r14,r1
  302e32:	71 d8       	add	#-40,r1
  302e34:	e2 01       	mov	#1,r2
  302e36:	11 2f       	mov.l	r2,@(60,r1)
  302e38:	a0 48       	bra	302ecc <_process_key_tableux_stage+0xe4>
  302e3a:	00 09       	nop	
  302e3c:	61 e3       	mov	r14,r1
  302e3e:	71 d8       	add	#-40,r1
  302e40:	e2 01       	mov	#1,r2
  302e42:	11 2e       	mov.l	r2,@(56,r1)
  302e44:	a0 2f       	bra	302ea6 <_process_key_tableux_stage+0xbe>
  302e46:	00 09       	nop	
  302e48:	61 e3       	mov	r14,r1
  302e4a:	71 d8       	add	#-40,r1
  302e4c:	51 1a       	mov.l	@(40,r1),r1
  302e4e:	52 11       	mov.l	@(4,r1),r2
  302e50:	61 e3       	mov	r14,r1
  302e52:	71 d8       	add	#-40,r1
  302e54:	51 1f       	mov.l	@(60,r1),r1
  302e56:	41 08       	shll2	r1
  302e58:	31 2c       	add	r2,r1
  302e5a:	62 12       	mov.l	@r1,r2
  302e5c:	61 e3       	mov	r14,r1
  302e5e:	71 d8       	add	#-40,r1
  302e60:	51 1e       	mov.l	@(56,r1),r1
  302e62:	41 08       	shll2	r1
  302e64:	31 2c       	add	r2,r1
  302e66:	61 12       	mov.l	@r1,r1
  302e68:	71 10       	add	#16,r1
  302e6a:	e2 00       	mov	#0,r2
  302e6c:	60 23       	mov	r2,r0
  302e6e:	80 12       	mov.b	r0,@(2,r1)
  302e70:	61 e3       	mov	r14,r1
  302e72:	71 d8       	add	#-40,r1
  302e74:	51 1a       	mov.l	@(40,r1),r1
  302e76:	52 11       	mov.l	@(4,r1),r2
  302e78:	61 e3       	mov	r14,r1
  302e7a:	71 d8       	add	#-40,r1
  302e7c:	51 1f       	mov.l	@(60,r1),r1
  302e7e:	41 08       	shll2	r1
  302e80:	31 2c       	add	r2,r1
  302e82:	62 12       	mov.l	@r1,r2
  302e84:	61 e3       	mov	r14,r1
  302e86:	71 d8       	add	#-40,r1
  302e88:	51 1e       	mov.l	@(56,r1),r1
  302e8a:	41 08       	shll2	r1
  302e8c:	31 2c       	add	r2,r1
  302e8e:	61 12       	mov.l	@r1,r1
  302e90:	71 10       	add	#16,r1
  302e92:	e2 00       	mov	#0,r2
  302e94:	60 23       	mov	r2,r0
  302e96:	80 11       	mov.b	r0,@(1,r1)
  302e98:	61 e3       	mov	r14,r1
  302e9a:	71 d8       	add	#-40,r1
  302e9c:	62 e3       	mov	r14,r2
  302e9e:	72 d8       	add	#-40,r2
  302ea0:	52 2e       	mov.l	@(56,r2),r2
  302ea2:	72 01       	add	#1,r2
  302ea4:	11 2e       	mov.l	r2,@(56,r1)
  302ea6:	61 e3       	mov	r14,r1
  302ea8:	71 d8       	add	#-40,r1
  302eaa:	51 1a       	mov.l	@(40,r1),r1
  302eac:	84 11       	mov.b	@(1,r1),r0
  302eae:	61 03       	mov	r0,r1
  302eb0:	61 1c       	extu.b	r1,r1
  302eb2:	62 13       	mov	r1,r2
  302eb4:	61 e3       	mov	r14,r1
  302eb6:	71 d8       	add	#-40,r1
  302eb8:	51 1e       	mov.l	@(56,r1),r1
  302eba:	31 23       	cmp/ge	r2,r1
  302ebc:	8b c4       	bf	302e48 <_process_key_tableux_stage+0x60>
  302ebe:	61 e3       	mov	r14,r1
  302ec0:	71 d8       	add	#-40,r1
  302ec2:	62 e3       	mov	r14,r2
  302ec4:	72 d8       	add	#-40,r2
  302ec6:	52 2f       	mov.l	@(60,r2),r2
  302ec8:	72 01       	add	#1,r2
  302eca:	11 2f       	mov.l	r2,@(60,r1)
  302ecc:	61 e3       	mov	r14,r1
  302ece:	71 d8       	add	#-40,r1
  302ed0:	51 1a       	mov.l	@(40,r1),r1
  302ed2:	61 10       	mov.b	@r1,r1
  302ed4:	61 1c       	extu.b	r1,r1
  302ed6:	62 13       	mov	r1,r2
  302ed8:	61 e3       	mov	r14,r1
  302eda:	71 d8       	add	#-40,r1
  302edc:	51 1f       	mov.l	@(60,r1),r1
  302ede:	31 23       	cmp/ge	r2,r1
  302ee0:	8b ac       	bf	302e3c <_process_key_tableux_stage+0x54>
  302ee2:	e1 01       	mov	#1,r1
  302ee4:	a0 a2       	bra	30302c <_process_key_tableux_stage+0x244>
  302ee6:	00 09       	nop	
  302ee8:	00 96       	mov.l	r9,@(r0,r0)
  302eea:	00 09       	nop	
  302eec:	00 30       	.word 0x0030
  302eee:	31 60       	cmp/eq	r6,r1
  302ef0:	61 e3       	mov	r14,r1
  302ef2:	71 d8       	add	#-40,r1
  302ef4:	71 30       	add	#48,r1
  302ef6:	84 17       	mov.b	@(7,r1),r0
  302ef8:	61 03       	mov	r0,r1
  302efa:	62 1c       	extu.b	r1,r2
  302efc:	e1 15       	mov	#21,r1
  302efe:	32 10       	cmp/eq	r1,r2
  302f00:	8b 57       	bf	302fb2 <_process_key_tableux_stage+0x1ca>
  302f02:	61 e3       	mov	r14,r1
  302f04:	71 d8       	add	#-40,r1
  302f06:	51 1a       	mov.l	@(40,r1),r1
  302f08:	52 11       	mov.l	@(4,r1),r2
  302f0a:	61 e3       	mov	r14,r1
  302f0c:	71 d8       	add	#-40,r1
  302f0e:	51 1b       	mov.l	@(44,r1),r1
  302f10:	61 10       	mov.b	@r1,r1
  302f12:	61 1c       	extu.b	r1,r1
  302f14:	41 08       	shll2	r1
  302f16:	31 2c       	add	r2,r1
  302f18:	62 12       	mov.l	@r1,r2
  302f1a:	61 e3       	mov	r14,r1
  302f1c:	71 d8       	add	#-40,r1
  302f1e:	51 1c       	mov.l	@(48,r1),r1
  302f20:	61 10       	mov.b	@r1,r1
  302f22:	61 1c       	extu.b	r1,r1
  302f24:	41 08       	shll2	r1
  302f26:	31 2c       	add	r2,r1
  302f28:	61 12       	mov.l	@r1,r1
  302f2a:	71 10       	add	#16,r1
  302f2c:	84 12       	mov.b	@(2,r1),r0
  302f2e:	61 03       	mov	r0,r1
  302f30:	61 1c       	extu.b	r1,r1
  302f32:	21 18       	tst	r1,r1
  302f34:	89 3a       	bt	302fac <_process_key_tableux_stage+0x1c4>
  302f36:	61 e3       	mov	r14,r1
  302f38:	71 d8       	add	#-40,r1
  302f3a:	51 1a       	mov.l	@(40,r1),r1
  302f3c:	52 11       	mov.l	@(4,r1),r2
  302f3e:	61 e3       	mov	r14,r1
  302f40:	71 d8       	add	#-40,r1
  302f42:	51 1b       	mov.l	@(44,r1),r1
  302f44:	61 10       	mov.b	@r1,r1
  302f46:	61 1c       	extu.b	r1,r1
  302f48:	41 08       	shll2	r1
  302f4a:	31 2c       	add	r2,r1
  302f4c:	62 12       	mov.l	@r1,r2
  302f4e:	61 e3       	mov	r14,r1
  302f50:	71 d8       	add	#-40,r1
  302f52:	51 1c       	mov.l	@(48,r1),r1
  302f54:	61 10       	mov.b	@r1,r1
  302f56:	61 1c       	extu.b	r1,r1
  302f58:	41 08       	shll2	r1
  302f5a:	31 2c       	add	r2,r1
  302f5c:	61 12       	mov.l	@r1,r1
  302f5e:	71 10       	add	#16,r1
  302f60:	84 11       	mov.b	@(1,r1),r0
  302f62:	61 03       	mov	r0,r1
  302f64:	61 1c       	extu.b	r1,r1
  302f66:	21 18       	tst	r1,r1
  302f68:	e1 ff       	mov	#-1,r1
  302f6a:	61 1a       	negc	r1,r1
  302f6c:	61 1c       	extu.b	r1,r1
  302f6e:	e2 01       	mov	#1,r2
  302f70:	21 2a       	xor	r2,r1
  302f72:	61 1c       	extu.b	r1,r1
  302f74:	63 13       	mov	r1,r3
  302f76:	61 e3       	mov	r14,r1
  302f78:	71 d8       	add	#-40,r1
  302f7a:	51 1a       	mov.l	@(40,r1),r1
  302f7c:	52 11       	mov.l	@(4,r1),r2
  302f7e:	61 e3       	mov	r14,r1
  302f80:	71 d8       	add	#-40,r1
  302f82:	51 1b       	mov.l	@(44,r1),r1
  302f84:	61 10       	mov.b	@r1,r1
  302f86:	61 1c       	extu.b	r1,r1
  302f88:	41 08       	shll2	r1
  302f8a:	31 2c       	add	r2,r1
  302f8c:	62 12       	mov.l	@r1,r2
  302f8e:	61 e3       	mov	r14,r1
  302f90:	71 d8       	add	#-40,r1
  302f92:	51 1c       	mov.l	@(48,r1),r1
  302f94:	61 10       	mov.b	@r1,r1
  302f96:	61 1c       	extu.b	r1,r1
  302f98:	41 08       	shll2	r1
  302f9a:	31 2c       	add	r2,r1
  302f9c:	61 12       	mov.l	@r1,r1
  302f9e:	62 33       	mov	r3,r2
  302fa0:	e3 01       	mov	#1,r3
  302fa2:	22 39       	and	r3,r2
  302fa4:	62 2c       	extu.b	r2,r2
  302fa6:	71 10       	add	#16,r1
  302fa8:	60 23       	mov	r2,r0
  302faa:	80 11       	mov.b	r0,@(1,r1)
  302fac:	e1 00       	mov	#0,r1
  302fae:	a0 3d       	bra	30302c <_process_key_tableux_stage+0x244>
  302fb0:	00 09       	nop	
  302fb2:	61 e3       	mov	r14,r1
  302fb4:	71 d8       	add	#-40,r1
  302fb6:	51 1a       	mov.l	@(40,r1),r1
  302fb8:	52 11       	mov.l	@(4,r1),r2
  302fba:	61 e3       	mov	r14,r1
  302fbc:	71 d8       	add	#-40,r1
  302fbe:	51 1b       	mov.l	@(44,r1),r1
  302fc0:	61 10       	mov.b	@r1,r1
  302fc2:	61 1c       	extu.b	r1,r1
  302fc4:	41 08       	shll2	r1
  302fc6:	31 2c       	add	r2,r1
  302fc8:	62 12       	mov.l	@r1,r2
  302fca:	61 e3       	mov	r14,r1
  302fcc:	71 d8       	add	#-40,r1
  302fce:	51 1c       	mov.l	@(48,r1),r1
  302fd0:	61 10       	mov.b	@r1,r1
  302fd2:	61 1c       	extu.b	r1,r1
  302fd4:	41 08       	shll2	r1
  302fd6:	31 2c       	add	r2,r1
  302fd8:	61 12       	mov.l	@r1,r1
  302fda:	71 10       	add	#16,r1
  302fdc:	84 11       	mov.b	@(1,r1),r0
  302fde:	61 03       	mov	r0,r1
  302fe0:	61 1c       	extu.b	r1,r1
  302fe2:	e2 01       	mov	#1,r2
  302fe4:	21 2a       	xor	r2,r1
  302fe6:	61 1c       	extu.b	r1,r1
  302fe8:	21 18       	tst	r1,r1
  302fea:	89 10       	bt	30300e <_process_key_tableux_stage+0x226>
  302fec:	67 e3       	mov	r14,r7
  302fee:	77 d8       	add	#-40,r7
  302ff0:	63 e3       	mov	r14,r3
  302ff2:	73 d8       	add	#-40,r3
  302ff4:	62 e3       	mov	r14,r2
  302ff6:	72 d8       	add	#-40,r2
  302ff8:	61 e3       	mov	r14,r1
  302ffa:	71 d8       	add	#-40,r1
  302ffc:	57 7a       	mov.l	@(40,r7),r7
  302ffe:	56 3b       	mov.l	@(44,r3),r6
  303000:	55 2c       	mov.l	@(48,r2),r5
  303002:	54 1d       	mov.l	@(52,r1),r4
  303004:	d1 0d       	mov.l	30303c <_process_key_tableux_stage+0x254>,r1	! 302170 <_process_cursor_movement>
  303006:	41 0b       	jsr	@r1
  303008:	00 09       	nop	
  30300a:	a0 0f       	bra	30302c <_process_key_tableux_stage+0x244>
  30300c:	00 09       	nop	
  30300e:	67 e3       	mov	r14,r7
  303010:	77 d8       	add	#-40,r7
  303012:	63 e3       	mov	r14,r3
  303014:	73 d8       	add	#-40,r3
  303016:	62 e3       	mov	r14,r2
  303018:	72 d8       	add	#-40,r2
  30301a:	61 e3       	mov	r14,r1
  30301c:	71 d8       	add	#-40,r1
  30301e:	57 7a       	mov.l	@(40,r7),r7
  303020:	56 3b       	mov.l	@(44,r3),r6
  303022:	55 2c       	mov.l	@(48,r2),r5
  303024:	54 1d       	mov.l	@(52,r1),r4
  303026:	d1 06       	mov.l	303040 <_process_key_tableux_stage+0x258>,r1	! 3022e6 <_process_common_keys>
  303028:	41 0b       	jsr	@r1
  30302a:	00 09       	nop	
  30302c:	60 13       	mov	r1,r0
  30302e:	7e 18       	add	#24,r14
  303030:	6f e3       	mov	r14,r15
  303032:	4f 26       	lds.l	@r15+,pr
  303034:	6e f6       	mov.l	@r15+,r14
  303036:	00 0b       	rts	
  303038:	00 09       	nop	
  30303a:	00 09       	nop	
  30303c:	00 30       	.word 0x0030
  30303e:	21 70       	mov.b	r7,@r1
  303040:	00 30       	.word 0x0030
  303042:	22 e6       	mov.l	r14,@-r2

00303044 <_check_stage_0>:
  303044:	2f 86       	mov.l	r8,@-r15
  303046:	2f e6       	mov.l	r14,@-r15
  303048:	4f 22       	sts.l	pr,@-r15
  30304a:	7f f0       	add	#-16,r15
  30304c:	6e f3       	mov	r15,r14
  30304e:	61 e3       	mov	r14,r1
  303050:	71 d0       	add	#-48,r1
  303052:	11 4c       	mov.l	r4,@(48,r1)
  303054:	68 e3       	mov	r14,r8
  303056:	78 d0       	add	#-48,r8
  303058:	e5 01       	mov	#1,r5
  30305a:	e4 01       	mov	#1,r4
  30305c:	d1 3e       	mov.l	303158 <_check_stage_0+0x114>,r1	! 308ee0 <_calloc>
  30305e:	41 0b       	jsr	@r1
  303060:	00 09       	nop	
  303062:	61 03       	mov	r0,r1
  303064:	18 1d       	mov.l	r1,@(52,r8)
  303066:	61 e3       	mov	r14,r1
  303068:	71 d0       	add	#-48,r1
  30306a:	e2 00       	mov	#0,r2
  30306c:	11 2f       	mov.l	r2,@(60,r1)
  30306e:	a0 23       	bra	3030b8 <_check_stage_0+0x74>
  303070:	00 09       	nop	
  303072:	61 e3       	mov	r14,r1
  303074:	71 d0       	add	#-48,r1
  303076:	51 1c       	mov.l	@(48,r1),r1
  303078:	51 11       	mov.l	@(4,r1),r1
  30307a:	62 12       	mov.l	@r1,r2
  30307c:	61 e3       	mov	r14,r1
  30307e:	71 d0       	add	#-48,r1
  303080:	51 1f       	mov.l	@(60,r1),r1
  303082:	41 08       	shll2	r1
  303084:	31 2c       	add	r2,r1
  303086:	61 12       	mov.l	@r1,r1
  303088:	51 16       	mov.l	@(24,r1),r1
  30308a:	62 10       	mov.b	@r1,r2
  30308c:	61 e3       	mov	r14,r1
  30308e:	71 d0       	add	#-48,r1
  303090:	51 1d       	mov.l	@(52,r1),r1
  303092:	61 10       	mov.b	@r1,r1
  303094:	32 10       	cmp/eq	r1,r2
  303096:	8b 08       	bf	3030aa <_check_stage_0+0x66>
  303098:	61 e3       	mov	r14,r1
  30309a:	71 d0       	add	#-48,r1
  30309c:	54 1d       	mov.l	@(52,r1),r4
  30309e:	d1 2f       	mov.l	30315c <_check_stage_0+0x118>,r1	! 309244 <_free>
  3030a0:	41 0b       	jsr	@r1
  3030a2:	00 09       	nop	
  3030a4:	e1 00       	mov	#0,r1
  3030a6:	a0 4e       	bra	303146 <_check_stage_0+0x102>
  3030a8:	00 09       	nop	
  3030aa:	61 e3       	mov	r14,r1
  3030ac:	71 d0       	add	#-48,r1
  3030ae:	62 e3       	mov	r14,r2
  3030b0:	72 d0       	add	#-48,r2
  3030b2:	52 2f       	mov.l	@(60,r2),r2
  3030b4:	72 01       	add	#1,r2
  3030b6:	11 2f       	mov.l	r2,@(60,r1)
  3030b8:	61 e3       	mov	r14,r1
  3030ba:	71 d0       	add	#-48,r1
  3030bc:	51 1c       	mov.l	@(48,r1),r1
  3030be:	84 11       	mov.b	@(1,r1),r0
  3030c0:	61 03       	mov	r0,r1
  3030c2:	61 1c       	extu.b	r1,r1
  3030c4:	62 13       	mov	r1,r2
  3030c6:	61 e3       	mov	r14,r1
  3030c8:	71 d0       	add	#-48,r1
  3030ca:	51 1f       	mov.l	@(60,r1),r1
  3030cc:	31 23       	cmp/ge	r2,r1
  3030ce:	8b d0       	bf	303072 <_check_stage_0+0x2e>
  3030d0:	61 e3       	mov	r14,r1
  3030d2:	71 d0       	add	#-48,r1
  3030d4:	e2 00       	mov	#0,r2
  3030d6:	11 2e       	mov.l	r2,@(56,r1)
  3030d8:	a0 23       	bra	303122 <_check_stage_0+0xde>
  3030da:	00 09       	nop	
  3030dc:	61 e3       	mov	r14,r1
  3030de:	71 d0       	add	#-48,r1
  3030e0:	51 1c       	mov.l	@(48,r1),r1
  3030e2:	52 11       	mov.l	@(4,r1),r2
  3030e4:	61 e3       	mov	r14,r1
  3030e6:	71 d0       	add	#-48,r1
  3030e8:	51 1e       	mov.l	@(56,r1),r1
  3030ea:	41 08       	shll2	r1
  3030ec:	31 2c       	add	r2,r1
  3030ee:	61 12       	mov.l	@r1,r1
  3030f0:	61 12       	mov.l	@r1,r1
  3030f2:	51 16       	mov.l	@(24,r1),r1
  3030f4:	62 10       	mov.b	@r1,r2
  3030f6:	61 e3       	mov	r14,r1
  3030f8:	71 d0       	add	#-48,r1
  3030fa:	51 1d       	mov.l	@(52,r1),r1
  3030fc:	61 10       	mov.b	@r1,r1
  3030fe:	32 10       	cmp/eq	r1,r2
  303100:	8b 08       	bf	303114 <_check_stage_0+0xd0>
  303102:	61 e3       	mov	r14,r1
  303104:	71 d0       	add	#-48,r1
  303106:	54 1d       	mov.l	@(52,r1),r4
  303108:	d1 14       	mov.l	30315c <_check_stage_0+0x118>,r1	! 309244 <_free>
  30310a:	41 0b       	jsr	@r1
  30310c:	00 09       	nop	
  30310e:	e1 00       	mov	#0,r1
  303110:	a0 19       	bra	303146 <_check_stage_0+0x102>
  303112:	00 09       	nop	
  303114:	61 e3       	mov	r14,r1
  303116:	71 d0       	add	#-48,r1
  303118:	62 e3       	mov	r14,r2
  30311a:	72 d0       	add	#-48,r2
  30311c:	52 2e       	mov.l	@(56,r2),r2
  30311e:	72 01       	add	#1,r2
  303120:	11 2e       	mov.l	r2,@(56,r1)
  303122:	61 e3       	mov	r14,r1
  303124:	71 d0       	add	#-48,r1
  303126:	51 1c       	mov.l	@(48,r1),r1
  303128:	61 10       	mov.b	@r1,r1
  30312a:	61 1c       	extu.b	r1,r1
  30312c:	62 13       	mov	r1,r2
  30312e:	61 e3       	mov	r14,r1
  303130:	71 d0       	add	#-48,r1
  303132:	51 1e       	mov.l	@(56,r1),r1
  303134:	31 23       	cmp/ge	r2,r1
  303136:	8b d1       	bf	3030dc <_check_stage_0+0x98>
  303138:	61 e3       	mov	r14,r1
  30313a:	71 d0       	add	#-48,r1
  30313c:	54 1d       	mov.l	@(52,r1),r4
  30313e:	d1 07       	mov.l	30315c <_check_stage_0+0x118>,r1	! 309244 <_free>
  303140:	41 0b       	jsr	@r1
  303142:	00 09       	nop	
  303144:	e1 01       	mov	#1,r1
  303146:	60 13       	mov	r1,r0
  303148:	7e 10       	add	#16,r14
  30314a:	6f e3       	mov	r14,r15
  30314c:	4f 26       	lds.l	@r15+,pr
  30314e:	6e f6       	mov.l	@r15+,r14
  303150:	68 f6       	mov.l	@r15+,r8
  303152:	00 0b       	rts	
  303154:	00 09       	nop	
  303156:	00 09       	nop	
  303158:	00 30       	.word 0x0030
  30315a:	8e e0       	ldre	30331e <_getkey_opt+0x7a>	! 6093
  30315c:	00 30       	.word 0x0030
  30315e:	92 44       	mov.w	3031ea <_check_stage_1+0x8a>,r2	! 61e3

00303160 <_check_stage_1>:
  303160:	2f 86       	mov.l	r8,@-r15
  303162:	2f e6       	mov.l	r14,@-r15
  303164:	4f 22       	sts.l	pr,@-r15
  303166:	7f f0       	add	#-16,r15
  303168:	6e f3       	mov	r15,r14
  30316a:	61 e3       	mov	r14,r1
  30316c:	71 d0       	add	#-48,r1
  30316e:	11 4c       	mov.l	r4,@(48,r1)
  303170:	68 e3       	mov	r14,r8
  303172:	78 d0       	add	#-48,r8
  303174:	e5 01       	mov	#1,r5
  303176:	e4 01       	mov	#1,r4
  303178:	d1 32       	mov.l	303244 <_check_stage_1+0xe4>,r1	! 308ee0 <_calloc>
  30317a:	41 0b       	jsr	@r1
  30317c:	00 09       	nop	
  30317e:	61 03       	mov	r0,r1
  303180:	18 1d       	mov.l	r1,@(52,r8)
  303182:	61 e3       	mov	r14,r1
  303184:	71 d0       	add	#-48,r1
  303186:	e2 01       	mov	#1,r2
  303188:	11 2f       	mov.l	r2,@(60,r1)
  30318a:	a0 41       	bra	303210 <_check_stage_1+0xb0>
  30318c:	00 09       	nop	
  30318e:	61 e3       	mov	r14,r1
  303190:	71 d0       	add	#-48,r1
  303192:	e2 01       	mov	#1,r2
  303194:	11 2e       	mov.l	r2,@(56,r1)
  303196:	a0 28       	bra	3031ea <_check_stage_1+0x8a>
  303198:	00 09       	nop	
  30319a:	61 e3       	mov	r14,r1
  30319c:	71 d0       	add	#-48,r1
  30319e:	51 1c       	mov.l	@(48,r1),r1
  3031a0:	52 11       	mov.l	@(4,r1),r2
  3031a2:	61 e3       	mov	r14,r1
  3031a4:	71 d0       	add	#-48,r1
  3031a6:	51 1f       	mov.l	@(60,r1),r1
  3031a8:	41 08       	shll2	r1
  3031aa:	31 2c       	add	r2,r1
  3031ac:	62 12       	mov.l	@r1,r2
  3031ae:	61 e3       	mov	r14,r1
  3031b0:	71 d0       	add	#-48,r1
  3031b2:	51 1e       	mov.l	@(56,r1),r1
  3031b4:	41 08       	shll2	r1
  3031b6:	31 2c       	add	r2,r1
  3031b8:	61 12       	mov.l	@r1,r1
  3031ba:	51 16       	mov.l	@(24,r1),r1
  3031bc:	62 10       	mov.b	@r1,r2
  3031be:	61 e3       	mov	r14,r1
  3031c0:	71 d0       	add	#-48,r1
  3031c2:	51 1d       	mov.l	@(52,r1),r1
  3031c4:	61 10       	mov.b	@r1,r1
  3031c6:	32 10       	cmp/eq	r1,r2
  3031c8:	8b 08       	bf	3031dc <_check_stage_1+0x7c>
  3031ca:	61 e3       	mov	r14,r1
  3031cc:	71 d0       	add	#-48,r1
  3031ce:	54 1d       	mov.l	@(52,r1),r4
  3031d0:	d1 1d       	mov.l	303248 <_check_stage_1+0xe8>,r1	! 309244 <_free>
  3031d2:	41 0b       	jsr	@r1
  3031d4:	00 09       	nop	
  3031d6:	e1 00       	mov	#0,r1
  3031d8:	a0 2c       	bra	303234 <_check_stage_1+0xd4>
  3031da:	00 09       	nop	
  3031dc:	61 e3       	mov	r14,r1
  3031de:	71 d0       	add	#-48,r1
  3031e0:	62 e3       	mov	r14,r2
  3031e2:	72 d0       	add	#-48,r2
  3031e4:	52 2e       	mov.l	@(56,r2),r2
  3031e6:	72 01       	add	#1,r2
  3031e8:	11 2e       	mov.l	r2,@(56,r1)
  3031ea:	61 e3       	mov	r14,r1
  3031ec:	71 d0       	add	#-48,r1
  3031ee:	51 1c       	mov.l	@(48,r1),r1
  3031f0:	84 11       	mov.b	@(1,r1),r0
  3031f2:	61 03       	mov	r0,r1
  3031f4:	61 1c       	extu.b	r1,r1
  3031f6:	62 13       	mov	r1,r2
  3031f8:	61 e3       	mov	r14,r1
  3031fa:	71 d0       	add	#-48,r1
  3031fc:	51 1e       	mov.l	@(56,r1),r1
  3031fe:	31 23       	cmp/ge	r2,r1
  303200:	8b cb       	bf	30319a <_check_stage_1+0x3a>
  303202:	61 e3       	mov	r14,r1
  303204:	71 d0       	add	#-48,r1
  303206:	62 e3       	mov	r14,r2
  303208:	72 d0       	add	#-48,r2
  30320a:	52 2f       	mov.l	@(60,r2),r2
  30320c:	72 01       	add	#1,r2
  30320e:	11 2f       	mov.l	r2,@(60,r1)
  303210:	61 e3       	mov	r14,r1
  303212:	71 d0       	add	#-48,r1
  303214:	51 1c       	mov.l	@(48,r1),r1
  303216:	61 10       	mov.b	@r1,r1
  303218:	61 1c       	extu.b	r1,r1
  30321a:	62 13       	mov	r1,r2
  30321c:	61 e3       	mov	r14,r1
  30321e:	71 d0       	add	#-48,r1
  303220:	51 1f       	mov.l	@(60,r1),r1
  303222:	31 23       	cmp/ge	r2,r1
  303224:	8b b3       	bf	30318e <_check_stage_1+0x2e>
  303226:	61 e3       	mov	r14,r1
  303228:	71 d0       	add	#-48,r1
  30322a:	54 1d       	mov.l	@(52,r1),r4
  30322c:	d1 06       	mov.l	303248 <_check_stage_1+0xe8>,r1	! 309244 <_free>
  30322e:	41 0b       	jsr	@r1
  303230:	00 09       	nop	
  303232:	e1 01       	mov	#1,r1
  303234:	60 13       	mov	r1,r0
  303236:	7e 10       	add	#16,r14
  303238:	6f e3       	mov	r14,r15
  30323a:	4f 26       	lds.l	@r15+,pr
  30323c:	6e f6       	mov.l	@r15+,r14
  30323e:	68 f6       	mov.l	@r15+,r8
  303240:	00 0b       	rts	
  303242:	00 09       	nop	
