
build-cg/src/simplexsolver:     file format elf32-sh


Disassembly of section .text:

00300000 <_start>:
  300000:	2f 86       	mov.l	r8,@-r15
  300002:	2f 96       	mov.l	r9,@-r15
  300004:	4f 22       	sts.l	pr,@-r15
  300006:	d1 31       	mov.l	3000cc <_start+0xcc>,r1	! 30524c <_hw_detect>
  300008:	7f f8       	add	#-8,r15
  30000a:	2f 42       	mov.l	r4,@r15
  30000c:	41 0b       	jsr	@r1
  30000e:	1f 51       	mov.l	r5,@(4,r15)
  300010:	d1 2f       	mov.l	3000d0 <_start+0xd0>,r1	! 30324c <_regcpy>
  300012:	d6 30       	mov.l	3000d4 <_start+0xd4>,r6	! 81018d0 <_keysc_tid>
  300014:	d5 30       	mov.l	3000d8 <_start+0xd8>,r5	! 2d0 <_sdata>
  300016:	d4 31       	mov.l	3000dc <_start+0xdc>,r4	! 30c3e8 <_ldata>
  300018:	41 0b       	jsr	@r1
  30001a:	00 09       	nop	
  30001c:	d7 30       	mov.l	3000e0 <_start+0xe0>,r7	! 4d0 <_sbss>
  30001e:	e6 f1       	mov	#-15,r6
  300020:	d2 30       	mov.l	3000e4 <_start+0xe4>,r2	! 8101400 <_gint_exitbuf>
  300022:	e3 00       	mov	#0,r3
  300024:	61 73       	mov	r7,r1
  300026:	71 0f       	add	#15,r1
  300028:	41 09       	shlr2	r1
  30002a:	37 63       	cmp/ge	r6,r7
  30002c:	41 09       	shlr2	r1
  30002e:	71 01       	add	#1,r1
  300030:	89 00       	bt	300034 <_start+0x34>
  300032:	e1 01       	mov	#1,r1
  300034:	41 10       	dt	r1
  300036:	8b 1e       	bf	300076 <_start+0x76>
  300038:	d8 25       	mov.l	3000d0 <_start+0xd0>,r8	! 30324c <_regcpy>
  30003a:	d6 2b       	mov.l	3000e8 <_start+0xe8>,r6	! e5200000 <_ILbuf>
  30003c:	d5 2b       	mov.l	3000ec <_start+0xec>,r5	! a0 <_silram>
  30003e:	d4 2c       	mov.l	3000f0 <_start+0xf0>,r4	! 30c6b8 <_lilram>
  300040:	48 0b       	jsr	@r8
  300042:	00 09       	nop	
  300044:	d6 2b       	mov.l	3000f4 <_start+0xf4>,r6	! e500e000 <_rxyram>
  300046:	d5 2c       	mov.l	3000f8 <_start+0xf8>,r5	! 0 <_sxyram>
  300048:	d4 2c       	mov.l	3000fc <_start+0xfc>,r4	! 30c758 <_lxyram>
  30004a:	48 0b       	jsr	@r8
  30004c:	00 09       	nop	
  30004e:	d1 2c       	mov.l	300100 <_start+0x100>,r1	! 3052d0 <_kinit>
  300050:	41 0b       	jsr	@r1
  300052:	00 09       	nop	
  300054:	d1 2b       	mov.l	300104 <_start+0x104>,r1	! 30900c <_setjmp>
  300056:	d4 2c       	mov.l	300108 <_start+0x108>,r4	! 8101400 <_gint_exitbuf>
  300058:	41 0b       	jsr	@r1
  30005a:	00 09       	nop	
  30005c:	20 08       	tst	r0,r0
  30005e:	89 1f       	bt	3000a0 <_start+0xa0>
  300060:	d8 2a       	mov.l	30010c <_start+0x10c>,r8	! 30013c <_bdtors>
  300062:	d9 2b       	mov.l	300110 <_start+0x110>,r9	! 30013c <_bdtors>
  300064:	38 92       	cmp/hs	r9,r8
  300066:	8b 1f       	bf	3000a8 <_start+0xa8>
  300068:	d1 2a       	mov.l	300114 <_start+0x114>,r1	! 8101434 <_gint_restart>
  30006a:	61 12       	mov.l	@r1,r1
  30006c:	21 18       	tst	r1,r1
  30006e:	89 23       	bt	3000b8 <_start+0xb8>
  300070:	d1 29       	mov.l	300118 <_start+0x118>,r1	! 3055d0 <_gint_osmenu>
  300072:	af ed       	bra	300050 <_start+0x50>
  300074:	00 09       	nop	
  300076:	22 32       	mov.l	r3,@r2
  300078:	12 31       	mov.l	r3,@(4,r2)
  30007a:	12 32       	mov.l	r3,@(8,r2)
  30007c:	12 33       	mov.l	r3,@(12,r2)
  30007e:	af d9       	bra	300034 <_start+0x34>
  300080:	72 10       	add	#16,r2
  300082:	78 04       	add	#4,r8
  300084:	61 83       	mov	r8,r1
  300086:	71 c0       	add	#-64,r1
  300088:	51 1f       	mov.l	@(60,r1),r1
  30008a:	41 0b       	jsr	@r1
  30008c:	00 09       	nop	
  30008e:	38 92       	cmp/hs	r9,r8
  300090:	8f f7       	bf.s	300082 <_start+0x82>
  300092:	64 f2       	mov.l	@r15,r4
  300094:	d0 21       	mov.l	30011c <_start+0x11c>,r0	! 300458 <_main>
  300096:	40 0b       	jsr	@r0
  300098:	55 f1       	mov.l	@(4,r15),r5
  30009a:	d1 21       	mov.l	300120 <_start+0x120>,r1	! 308f20 <_exit>
  30009c:	41 0b       	jsr	@r1
  30009e:	64 03       	mov	r0,r4
  3000a0:	d8 20       	mov.l	300124 <_start+0x124>,r8	! 300134 <_bctors>
  3000a2:	d9 21       	mov.l	300128 <_start+0x128>,r9	! 30013c <_bdtors>
  3000a4:	af f4       	bra	300090 <_start+0x90>
  3000a6:	38 92       	cmp/hs	r9,r8
  3000a8:	78 04       	add	#4,r8
  3000aa:	61 83       	mov	r8,r1
  3000ac:	71 c0       	add	#-64,r1
  3000ae:	51 1f       	mov.l	@(60,r1),r1
  3000b0:	41 0b       	jsr	@r1
  3000b2:	00 09       	nop	
  3000b4:	af d7       	bra	300066 <_start+0x66>
  3000b6:	38 92       	cmp/hs	r9,r8
  3000b8:	d1 1c       	mov.l	30012c <_start+0x12c>,r1	! 3054a0 <_kquit>
  3000ba:	41 0b       	jsr	@r1
  3000bc:	00 09       	nop	
  3000be:	d1 1c       	mov.l	300130 <_start+0x130>,r1	! 8101438 <_gint_exitcode>
  3000c0:	60 12       	mov.l	@r1,r0
  3000c2:	7f 08       	add	#8,r15
  3000c4:	4f 26       	lds.l	@r15+,pr
  3000c6:	69 f6       	mov.l	@r15+,r9
  3000c8:	00 0b       	rts	
  3000ca:	68 f6       	mov.l	@r15+,r8
  3000cc:	00 30       	.word 0x0030
  3000ce:	52 4c       	mov.l	@(48,r4),r2
  3000d0:	00 30       	.word 0x0030
  3000d2:	32 4c       	add	r4,r2
  3000d4:	08 10       	.word 0x0810
  3000d6:	18 d0       	mov.l	r13,@(0,r8)
  3000d8:	00 00       	.word 0x0000
  3000da:	02 d0       	.word 0x02d0
  3000dc:	00 30       	.word 0x0030
  3000de:	c3 e8       	trapa	#232
  3000e0:	00 00       	.word 0x0000
  3000e2:	04 d0       	.word 0x04d0
  3000e4:	08 10       	.word 0x0810
  3000e6:	14 00       	mov.l	r0,@(0,r4)
  3000e8:	e5 20       	mov	#32,r5
  3000ea:	00 00       	.word 0x0000
  3000ec:	00 00       	.word 0x0000
  3000ee:	00 a0       	.word 0x00a0
  3000f0:	00 30       	.word 0x0030
  3000f2:	c6 b8       	mov.l	@(736,gbr),r0
  3000f4:	e5 00       	mov	#0,r5
  3000f6:	e0 00       	mov	#0,r0
  3000f8:	00 00       	.word 0x0000
  3000fa:	00 00       	.word 0x0000
  3000fc:	00 30       	.word 0x0030
  3000fe:	c7 58       	mova	300260 <_tableux_construction_stage+0x20>,r0
  300100:	00 30       	.word 0x0030
  300102:	52 d0       	mov.l	@(0,r13),r2
  300104:	00 30       	.word 0x0030
  300106:	90 0c       	mov.w	300122 <_start+0x122>,r0	! 8f20
  300108:	08 10       	.word 0x0810
  30010a:	14 00       	mov.l	r0,@(0,r4)
  30010c:	00 30       	.word 0x0030
  30010e:	01 3c       	mov.b	@(r0,r3),r1
  300110:	00 30       	.word 0x0030
  300112:	01 3c       	mov.b	@(r0,r3),r1
  300114:	08 10       	.word 0x0810
  300116:	14 34       	mov.l	r3,@(16,r4)
  300118:	00 30       	.word 0x0030
  30011a:	55 d0       	mov.l	@(0,r13),r5
  30011c:	00 30       	.word 0x0030
  30011e:	04 58       	.word 0x0458
  300120:	00 30       	.word 0x0030
  300122:	8f 20       	bf.s	300166 <catch+0xe>
  300124:	00 30       	.word 0x0030
  300126:	01 34       	mov.b	r3,@(r0,r1)
  300128:	00 30       	.word 0x0030
  30012a:	01 3c       	mov.b	@(r0,r3),r1
  30012c:	00 30       	.word 0x0030
  30012e:	54 a0       	mov.l	@(0,r10),r4
  300130:	08 10       	.word 0x0810
  300132:	14 38       	mov.l	r3,@(32,r4)

00300134 <_bctors>:
  300134:	00 30       	.word 0x0030
  300136:	8e 10       	ldre	30015a <catch+0x2>	! 6002
  300138:	00 30       	.word 0x0030
  30013a:	a6 40       	bra	300dbe <_pivot_row+0x1a2>

0030013c <_bdtors>:
  30013c:	00 00       	.word 0x0000
	...

00300140 <_gint_exch>:
  300140:	4f 22       	sts.l	pr,@-r15
  300142:	4f 13       	stc.l	gbr,@-r15
  300144:	4f 02       	sts.l	mach,@-r15
  300146:	4f 12       	sts.l	macl,@-r15
  300148:	2f 86       	mov.l	r8,@-r15
  30014a:	2f 96       	mov.l	r9,@-r15
  30014c:	d0 18       	mov.l	3001b0 <.gint>,r0	! 8101bc4 <_gint>
  30014e:	60 02       	mov.l	@r0,r0
  300150:	c8 01       	tst	#1,r0
  300152:	d8 18       	mov.l	3001b4 <.expevt_sh4>,r8	! ff000024
  300154:	89 00       	bt	300158 <catch>
  300156:	d8 18       	mov.l	3001b8 <.expevt_sh3>,r8	! ffffffd4

00300158 <catch>:
  300158:	d0 18       	mov.l	3001bc <.catcher>,r0	! 8101724 <_gint_exc_catcher>
  30015a:	60 02       	mov.l	@r0,r0
  30015c:	20 08       	tst	r0,r0
  30015e:	89 0a       	bt	300176 <panic>
  300160:	09 02       	stc	sr,r9
  300162:	d1 18       	mov.l	3001c4 <.SR_set_IMASK>,r1	! f0
  300164:	21 9b       	or	r9,r1
  300166:	d2 18       	mov.l	3001c8 <.SR_clear_BL>,r2	! efffffff
  300168:	21 29       	and	r2,r1
  30016a:	41 0e       	ldc	r1,sr
  30016c:	40 0b       	jsr	@r0
  30016e:	64 82       	mov.l	@r8,r4
  300170:	49 0e       	ldc	r9,sr
  300172:	20 08       	tst	r0,r0
  300174:	89 0d       	bt	300192 <end>

00300176 <panic>:
  300176:	64 82       	mov.l	@r8,r4
  300178:	44 ce       	ldc	r4,r4_bank
  30017a:	69 f6       	mov.l	@r15+,r9
  30017c:	68 f6       	mov.l	@r15+,r8
  30017e:	4f 16       	lds.l	@r15+,macl
  300180:	4f 06       	lds.l	@r15+,mach
  300182:	4f 17       	ldc.l	@r15+,gbr
  300184:	4f 26       	lds.l	@r15+,pr
  300186:	00 32       	stc	ssr,r0
  300188:	40 0e       	ldc	r0,sr
  30018a:	d0 0d       	mov.l	3001c0 <.panic>,r0	! 8101a8c <_gint_exc_panic>
  30018c:	60 02       	mov.l	@r0,r0
  30018e:	40 2b       	jmp	@r0
  300190:	00 09       	nop	

00300192 <end>:
  300192:	69 f6       	mov.l	@r15+,r9
  300194:	68 f6       	mov.l	@r15+,r8
  300196:	4f 16       	lds.l	@r15+,macl
  300198:	4f 06       	lds.l	@r15+,mach
  30019a:	4f 17       	ldc.l	@r15+,gbr
  30019c:	4f 26       	lds.l	@r15+,pr
  30019e:	00 2b       	rte	
  3001a0:	00 09       	nop	
  3001a2:	00 09       	nop	
  3001a4:	00 09       	nop	
  3001a6:	00 09       	nop	
  3001a8:	00 09       	nop	
  3001aa:	00 09       	nop	
  3001ac:	00 09       	nop	
  3001ae:	00 09       	nop	

003001b0 <.gint>:
  3001b0:	08 10       	.word 0x0810
  3001b2:	1b c4       	mov.l	r12,@(16,r11)

003001b4 <.expevt_sh4>:
  3001b4:	ff 00       	.word 0xff00
  3001b6:	00 24       	mov.b	r2,@(r0,r0)

003001b8 <.expevt_sh3>:
  3001b8:	ff ff       	.word 0xffff
  3001ba:	ff d4       	.word 0xffd4

003001bc <.catcher>:
  3001bc:	08 10       	.word 0x0810
  3001be:	17 24       	mov.l	r2,@(16,r7)

003001c0 <.panic>:
  3001c0:	08 10       	.word 0x0810
  3001c2:	1a 8c       	mov.l	r8,@(48,r10)

003001c4 <.SR_set_IMASK>:
  3001c4:	00 00       	.word 0x0000
  3001c6:	00 f0       	.word 0x00f0

003001c8 <.SR_clear_BL>:
  3001c8:	ef ff       	mov	#-1,r15
  3001ca:	ff ff       	.word 0xffff
  3001cc:	00 09       	nop	
  3001ce:	00 09       	nop	

003001d0 <_gint_tlbh>:
  3001d0:	4f 22       	sts.l	pr,@-r15
  3001d2:	4f 13       	stc.l	gbr,@-r15
  3001d4:	4f 02       	sts.l	mach,@-r15
  3001d6:	4f 12       	sts.l	macl,@-r15
  3001d8:	d0 11       	mov.l	300220 <.gint>,r0	! 8101bc4 <_gint>
  3001da:	60 02       	mov.l	@r0,r0
  3001dc:	c8 01       	tst	#1,r0
  3001de:	d0 11       	mov.l	300224 <.tea_sh4>,r0	! ff00000c
  3001e0:	89 00       	bt	3001e4 <test_tea>
  3001e2:	d0 11       	mov.l	300228 <.tea_sh3>,r0	! fffffffc

003001e4 <test_tea>:
  3001e4:	60 02       	mov.l	@r0,r0
  3001e6:	d1 12       	mov.l	300230 <.max_mapped_rom>,r1	! 30c3e8 <_ldata>
  3001e8:	30 13       	cmp/ge	r1,r0
  3001ea:	89 0c       	bt	300206 <panic>
  3001ec:	d1 0f       	mov.l	30022c <.min_mapped_rom>,r1	! 300000 <_start>
  3001ee:	30 13       	cmp/ge	r1,r0
  3001f0:	8b 09       	bf	300206 <panic>

003001f2 <map>:
  3001f2:	e0 0c       	mov	#12,r0
  3001f4:	d2 0f       	mov.l	300234 <.syscall>,r2	! 80020070
  3001f6:	42 0b       	jsr	@r2
  3001f8:	00 09       	nop	
  3001fa:	4f 16       	lds.l	@r15+,macl
  3001fc:	4f 06       	lds.l	@r15+,mach
  3001fe:	4f 17       	ldc.l	@r15+,gbr
  300200:	4f 26       	lds.l	@r15+,pr
  300202:	00 2b       	rte	
  300204:	00 09       	nop	

00300206 <panic>:
  300206:	4f 16       	lds.l	@r15+,macl
  300208:	4f 06       	lds.l	@r15+,mach
  30020a:	4f 17       	ldc.l	@r15+,gbr
  30020c:	4f 26       	lds.l	@r15+,pr
  30020e:	00 22       	stc	vbr,r0
  300210:	e1 01       	mov	#1,r1
  300212:	41 18       	shll8	r1
  300214:	30 1c       	add	r1,r0
  300216:	40 2b       	jmp	@r0
  300218:	00 09       	nop	
  30021a:	00 09       	nop	
  30021c:	00 09       	nop	
  30021e:	00 09       	nop	

00300220 <.gint>:
  300220:	08 10       	.word 0x0810
  300222:	1b c4       	mov.l	r12,@(16,r11)

00300224 <.tea_sh4>:
  300224:	ff 00       	.word 0xff00
  300226:	00 0c       	mov.b	@(r0,r0),r0

00300228 <.tea_sh3>:
  300228:	ff ff       	.word 0xffff
  30022a:	ff fc       	.word 0xfffc

0030022c <.min_mapped_rom>:
  30022c:	00 30       	.word 0x0030
	...

00300230 <.max_mapped_rom>:
  300230:	00 30       	.word 0x0030
  300232:	c3 e8       	trapa	#232

00300234 <.syscall>:
  300234:	80 02       	mov.b	r0,@(2,r0)
  300236:	00 70       	.word 0x0070
  300238:	00 09       	nop	
  30023a:	00 09       	nop	
  30023c:	00 09       	nop	
  30023e:	00 09       	nop	

00300240 <_tableux_construction_stage>:
  300240:	2f 86       	mov.l	r8,@-r15
  300242:	e7 1e       	mov	#30,r7
  300244:	2f 96       	mov.l	r9,@-r15
  300246:	e6 50       	mov	#80,r6
  300248:	2f a6       	mov.l	r10,@-r15
  30024a:	e5 46       	mov	#70,r5
  30024c:	2f b6       	mov.l	r11,@-r15
  30024e:	e4 50       	mov	#80,r4
  300250:	2f c6       	mov.l	r12,@-r15
  300252:	4f 22       	sts.l	pr,@-r15
  300254:	d8 23       	mov.l	3002e4 <_tableux_construction_stage+0xa4>,r8	! 301398 <_new_viscell>
  300256:	7f f8       	add	#-8,r15
  300258:	d1 23       	mov.l	3002e8 <_tableux_construction_stage+0xa8>,r1	! 30b3e0 <_gint_drivers_end>
  30025a:	db 24       	mov.l	3002ec <_tableux_construction_stage+0xac>,r11	! 303cc0 <_dtext>
  30025c:	1f 11       	mov.l	r1,@(4,r15)
  30025e:	e1 01       	mov	#1,r1
  300260:	48 0b       	jsr	@r8
  300262:	2f 12       	mov.l	r1,@r15
  300264:	d1 22       	mov.l	3002f0 <_tableux_construction_stage+0xb0>,r1	! 30b3e4
  300266:	e7 1e       	mov	#30,r7
  300268:	94 3a       	mov.w	3002e0 <_tableux_construction_stage+0xa0>,r4	! 104
  30026a:	e6 50       	mov	#80,r6
  30026c:	1f 11       	mov.l	r1,@(4,r15)
  30026e:	e1 00       	mov	#0,r1
  300270:	2f 12       	mov.l	r1,@r15
  300272:	e5 46       	mov	#70,r5
  300274:	da 1f       	mov.l	3002f4 <_tableux_construction_stage+0xb4>,r10	! 30154c <_draw_cell>
  300276:	48 0b       	jsr	@r8
  300278:	69 03       	mov	r0,r9
  30027a:	68 03       	mov	r0,r8
  30027c:	d7 1e       	mov.l	3002f8 <_tableux_construction_stage+0xb8>,r7	! 30b3e8
  30027e:	e6 00       	mov	#0,r6
  300280:	e5 55       	mov	#85,r5
  300282:	4b 0b       	jsr	@r11
  300284:	e4 0a       	mov	#10,r4
  300286:	d7 1d       	mov.l	3002fc <_tableux_construction_stage+0xbc>,r7	! 30b3f0
  300288:	e6 00       	mov	#0,r6
  30028a:	94 2a       	mov.w	3002e2 <_tableux_construction_stage+0xa2>,r4	! c8
  30028c:	4b 0b       	jsr	@r11
  30028e:	e5 55       	mov	#85,r5
  300290:	4a 0b       	jsr	@r10
  300292:	64 93       	mov	r9,r4
  300294:	4a 0b       	jsr	@r10
  300296:	64 83       	mov	r8,r4
  300298:	d1 19       	mov.l	300300 <_tableux_construction_stage+0xc0>,r1	! 3048b4 <_dupdate>
  30029a:	41 0b       	jsr	@r1
  30029c:	00 09       	nop	
  30029e:	d0 19       	mov.l	300304 <_tableux_construction_stage+0xc4>,r0	! 303390 <_getkey>
  3002a0:	40 0b       	jsr	@r0
  3002a2:	00 09       	nop	
  3002a4:	64 03       	mov	r0,r4
  3002a6:	d0 18       	mov.l	300308 <_tableux_construction_stage+0xc8>,r0	! 302590 <_process_key_construction_stage>
  3002a8:	66 83       	mov	r8,r6
  3002aa:	40 0b       	jsr	@r0
  3002ac:	65 93       	mov	r9,r5
  3002ae:	20 08       	tst	r0,r0
  3002b0:	89 e4       	bt	30027c <_tableux_construction_stage+0x3c>
  3002b2:	db 16       	mov.l	30030c <_tableux_construction_stage+0xcc>,r11	! 308ed4 <_atoi>
  3002b4:	dc 16       	mov.l	300310 <_tableux_construction_stage+0xd0>,r12	! 301490 <_free_viscell>
  3002b6:	4b 0b       	jsr	@r11
  3002b8:	54 96       	mov.l	@(24,r9),r4
  3002ba:	54 86       	mov.l	@(24,r8),r4
  3002bc:	4b 0b       	jsr	@r11
  3002be:	6a 03       	mov	r0,r10
  3002c0:	64 93       	mov	r9,r4
  3002c2:	4c 0b       	jsr	@r12
  3002c4:	6b 03       	mov	r0,r11
  3002c6:	4c 0b       	jsr	@r12
  3002c8:	64 83       	mov	r8,r4
  3002ca:	d0 12       	mov.l	300314 <_tableux_construction_stage+0xd4>,r0	! 3015e8 <_new_tableux>
  3002cc:	65 bc       	extu.b	r11,r5
  3002ce:	64 ac       	extu.b	r10,r4
  3002d0:	7f 08       	add	#8,r15
  3002d2:	4f 26       	lds.l	@r15+,pr
  3002d4:	6c f6       	mov.l	@r15+,r12
  3002d6:	6b f6       	mov.l	@r15+,r11
  3002d8:	6a f6       	mov.l	@r15+,r10
  3002da:	69 f6       	mov.l	@r15+,r9
  3002dc:	40 2b       	jmp	@r0
  3002de:	68 f6       	mov.l	@r15+,r8
  3002e0:	01 04       	mov.b	r0,@(r0,r1)
  3002e2:	00 c8       	setdmy	
  3002e4:	00 30       	.word 0x0030
  3002e6:	13 98       	mov.l	r9,@(32,r3)
  3002e8:	00 30       	.word 0x0030
  3002ea:	b3 e0       	bsr	300aae <_isoptimal+0xae>
  3002ec:	00 30       	.word 0x0030
  3002ee:	3c c0       	cmp/eq	r12,r12
  3002f0:	00 30       	.word 0x0030
  3002f2:	b3 e4       	bsr	300abe <_isoptimal+0xbe>
  3002f4:	00 30       	.word 0x0030
  3002f6:	15 4c       	mov.l	r4,@(48,r5)
  3002f8:	00 30       	.word 0x0030
  3002fa:	b3 e8       	bsr	300ace <_isoptimal+0xce>
  3002fc:	00 30       	.word 0x0030
  3002fe:	b3 f0       	bsr	300ae2 <_isoptimal+0xe2>
  300300:	00 30       	.word 0x0030
  300302:	48 b4       	.word 0x48b4
  300304:	00 30       	.word 0x0030
  300306:	33 90       	cmp/eq	r9,r3
  300308:	00 30       	.word 0x0030
  30030a:	25 90       	mov.b	r9,@r5
  30030c:	00 30       	.word 0x0030
  30030e:	8e d4       	ldre	3004ba <_main+0x62>	! 318
  300310:	00 30       	.word 0x0030
  300312:	14 90       	mov.l	r9,@(0,r4)
  300314:	00 30       	.word 0x0030
  300316:	15 e8       	mov.l	r14,@(32,r5)

00300318 <_tableux_input_stage>:
  300318:	2f 86       	mov.l	r8,@-r15
  30031a:	e0 01       	mov	#1,r0
  30031c:	2f 96       	mov.l	r9,@-r15
  30031e:	e8 00       	mov	#0,r8
  300320:	2f a6       	mov.l	r10,@-r15
  300322:	69 43       	mov	r4,r9
  300324:	2f b6       	mov.l	r11,@-r15
  300326:	2f c6       	mov.l	r12,@-r15
  300328:	4f 22       	sts.l	pr,@-r15
  30032a:	7f fc       	add	#-4,r15
  30032c:	db 20       	mov.l	3003b0 <_tableux_input_stage+0x98>,r11	! 301a90 <_display_tableux>
  30032e:	6a f3       	mov	r15,r10
  300330:	9c 3c       	mov.w	3003ac <_tableux_input_stage+0x94>,r12	! 84
  300332:	80 a2       	mov.b	r0,@(2,r10)
  300334:	e0 00       	mov	#0,r0
  300336:	7a f4       	add	#-12,r10
  300338:	80 af       	mov.b	r0,@(15,r10)
  30033a:	4b 0b       	jsr	@r11
  30033c:	64 93       	mov	r9,r4
  30033e:	d1 1d       	mov.l	3003b4 <_tableux_input_stage+0x9c>,r1	! 3048b4 <_dupdate>
  300340:	41 0b       	jsr	@r1
  300342:	00 09       	nop	
  300344:	d1 1c       	mov.l	3003b8 <_tableux_input_stage+0xa0>,r1	! 304794 <_dclear>
  300346:	d4 1d       	mov.l	3003bc <_tableux_input_stage+0xa4>,r4	! ffff
  300348:	41 0b       	jsr	@r1
  30034a:	00 09       	nop	
  30034c:	d0 1c       	mov.l	3003c0 <_tableux_input_stage+0xa8>,r0	! 303390 <_getkey>
  30034e:	40 0b       	jsr	@r0
  300350:	00 09       	nop	
  300352:	61 0c       	extu.b	r0,r1
  300354:	31 c0       	cmp/eq	r12,r1
  300356:	8d 06       	bt.s	300366 <_tableux_input_stage+0x4e>
  300358:	64 03       	mov	r0,r4
  30035a:	28 88       	tst	r8,r8
  30035c:	8d 0c       	bt.s	300378 <_tableux_input_stage+0x60>
  30035e:	60 83       	mov	r8,r0
  300360:	88 01       	cmp/eq	#1,r0
  300362:	8d 1a       	bt.s	30039a <_tableux_input_stage+0x82>
  300364:	67 93       	mov	r9,r7
  300366:	e0 00       	mov	#0,r0
  300368:	7f 04       	add	#4,r15
  30036a:	4f 26       	lds.l	@r15+,pr
  30036c:	6c f6       	mov.l	@r15+,r12
  30036e:	6b f6       	mov.l	@r15+,r11
  300370:	6a f6       	mov.l	@r15+,r10
  300372:	69 f6       	mov.l	@r15+,r9
  300374:	00 0b       	rts	
  300376:	68 f6       	mov.l	@r15+,r8
  300378:	d0 12       	mov.l	3003c4 <_tableux_input_stage+0xac>,r0	! 3028cc <_process_key_rowcol_stage>
  30037a:	67 93       	mov	r9,r7
  30037c:	66 f3       	mov	r15,r6
  30037e:	65 f3       	mov	r15,r5
  300380:	76 03       	add	#3,r6
  300382:	40 0b       	jsr	@r0
  300384:	75 02       	add	#2,r5
  300386:	68 03       	mov	r0,r8
  300388:	84 af       	mov.b	@(15,r10),r0
  30038a:	66 93       	mov	r9,r6
  30038c:	d1 0e       	mov.l	3003c8 <_tableux_input_stage+0xb0>,r1	! 301b3c <_update_cursor>
  30038e:	65 0c       	extu.b	r0,r5
  300390:	84 ae       	mov.b	@(14,r10),r0
  300392:	41 0b       	jsr	@r1
  300394:	64 0c       	extu.b	r0,r4
  300396:	af d0       	bra	30033a <_tableux_input_stage+0x22>
  300398:	00 09       	nop	
  30039a:	d0 0c       	mov.l	3003cc <_tableux_input_stage+0xb4>,r0	! 302de8 <_process_key_tableux_stage>
  30039c:	66 f3       	mov	r15,r6
  30039e:	65 f3       	mov	r15,r5
  3003a0:	76 03       	add	#3,r6
  3003a2:	40 0b       	jsr	@r0
  3003a4:	75 02       	add	#2,r5
  3003a6:	70 01       	add	#1,r0
  3003a8:	af ee       	bra	300388 <_tableux_input_stage+0x70>
  3003aa:	68 0c       	extu.b	r0,r8
  3003ac:	00 84       	mov.b	r8,@(r0,r0)
  3003ae:	00 09       	nop	
  3003b0:	00 30       	.word 0x0030
  3003b2:	1a 90       	mov.l	r9,@(0,r10)
  3003b4:	00 30       	.word 0x0030
  3003b6:	48 b4       	.word 0x48b4
  3003b8:	00 30       	.word 0x0030
  3003ba:	47 94       	.word 0x4794
  3003bc:	00 00       	.word 0x0000
  3003be:	ff ff       	.word 0xffff
  3003c0:	00 30       	.word 0x0030
  3003c2:	33 90       	cmp/eq	r9,r3
  3003c4:	00 30       	.word 0x0030
  3003c6:	28 cc       	cmp/str	r12,r8
  3003c8:	00 30       	.word 0x0030
  3003ca:	1b 3c       	mov.l	r3,@(48,r11)
  3003cc:	00 30       	.word 0x0030
  3003ce:	2d e8       	tst	r14,r13

003003d0 <_solve_stage>:
  3003d0:	2f 86       	mov.l	r8,@-r15
  3003d2:	68 43       	mov	r4,r8
  3003d4:	2f 96       	mov.l	r9,@-r15
  3003d6:	2f a6       	mov.l	r10,@-r15
  3003d8:	2f b6       	mov.l	r11,@-r15
  3003da:	d0 18       	mov.l	30043c <_solve_stage+0x6c>,r0	! 301db0 <_extract_grid>
  3003dc:	4f 22       	sts.l	pr,@-r15
  3003de:	40 0b       	jsr	@r0
  3003e0:	7f f0       	add	#-16,r15
  3003e2:	69 03       	mov	r0,r9
  3003e4:	d0 16       	mov.l	300440 <_solve_stage+0x70>,r0	! 301bee <_extract_row_names>
  3003e6:	40 0b       	jsr	@r0
  3003e8:	64 83       	mov	r8,r4
  3003ea:	6a 03       	mov	r0,r10
  3003ec:	d0 15       	mov.l	300444 <_solve_stage+0x74>,r0	! 301ccc <_extract_column_names>
  3003ee:	40 0b       	jsr	@r0
  3003f0:	64 83       	mov	r8,r4
  3003f2:	6b 03       	mov	r0,r11
  3003f4:	84 81       	mov.b	@(1,r8),r0
  3003f6:	64 80       	mov.b	@r8,r4
  3003f8:	66 93       	mov	r9,r6
  3003fa:	65 0c       	extu.b	r0,r5
  3003fc:	d0 12       	mov.l	300448 <_solve_stage+0x78>,r0	! 300740 <_new_matrix_with_data>
  3003fe:	64 4c       	extu.b	r4,r4
  300400:	75 ff       	add	#-1,r5
  300402:	40 0b       	jsr	@r0
  300404:	74 ff       	add	#-1,r4
  300406:	d1 11       	mov.l	30044c <_solve_stage+0x7c>,r1	! 300e40 <_simplex>
  300408:	69 03       	mov	r0,r9
  30040a:	2f b2       	mov.l	r11,@r15
  30040c:	67 a3       	mov	r10,r7
  30040e:	64 02       	mov.l	@r0,r4
  300410:	62 f3       	mov	r15,r2
  300412:	55 01       	mov.l	@(4,r0),r5
  300414:	72 04       	add	#4,r2
  300416:	41 0b       	jsr	@r1
  300418:	56 02       	mov.l	@(8,r0),r6
  30041a:	d3 0d       	mov.l	300450 <_solve_stage+0x80>,r3	! 300520 <___movmemSI12_i4>
  30041c:	64 93       	mov	r9,r4
  30041e:	65 f3       	mov	r15,r5
  300420:	75 04       	add	#4,r5
  300422:	43 0b       	jsr	@r3
  300424:	66 83       	mov	r8,r6
  300426:	d0 0b       	mov.l	300454 <_solve_stage+0x84>,r0	! 301f60 <_matrix_into_tableux>
  300428:	40 0b       	jsr	@r0
  30042a:	65 a3       	mov	r10,r5
  30042c:	e0 00       	mov	#0,r0
  30042e:	7f 10       	add	#16,r15
  300430:	4f 26       	lds.l	@r15+,pr
  300432:	6b f6       	mov.l	@r15+,r11
  300434:	6a f6       	mov.l	@r15+,r10
  300436:	69 f6       	mov.l	@r15+,r9
  300438:	00 0b       	rts	
  30043a:	68 f6       	mov.l	@r15+,r8
  30043c:	00 30       	.word 0x0030
  30043e:	1d b0       	mov.l	r11,@(0,r13)
  300440:	00 30       	.word 0x0030
  300442:	1b ee       	mov.l	r14,@(56,r11)
  300444:	00 30       	.word 0x0030
  300446:	1c cc       	mov.l	r12,@(48,r12)
  300448:	00 30       	.word 0x0030
  30044a:	07 40       	.word 0x0740
  30044c:	00 30       	.word 0x0030
  30044e:	0e 40       	.word 0x0e40
  300450:	00 30       	.word 0x0030
  300452:	05 20       	.word 0x0520
  300454:	00 30       	.word 0x0030
  300456:	1f 60       	mov.l	r6,@(0,r15)

00300458 <_main>:
  300458:	d1 13       	mov.l	3004a8 <_main+0x50>,r1	! 304794 <_dclear>
  30045a:	2f 86       	mov.l	r8,@-r15
  30045c:	2f 96       	mov.l	r9,@-r15
  30045e:	4f 22       	sts.l	pr,@-r15
  300460:	d4 12       	mov.l	3004ac <_main+0x54>,r4	! ffff
  300462:	41 0b       	jsr	@r1
  300464:	00 09       	nop	
  300466:	d0 12       	mov.l	3004b0 <_main+0x58>,r0	! 300240 <_tableux_construction_stage>
  300468:	d9 12       	mov.l	3004b4 <_main+0x5c>,r9	! 303390 <_getkey>
  30046a:	40 0b       	jsr	@r0
  30046c:	00 09       	nop	
  30046e:	68 03       	mov	r0,r8
  300470:	64 03       	mov	r0,r4
  300472:	d0 11       	mov.l	3004b8 <_main+0x60>,r0	! 300318 <_tableux_input_stage>
  300474:	40 0b       	jsr	@r0
  300476:	00 09       	nop	
  300478:	d0 10       	mov.l	3004bc <_main+0x64>,r0	! 3003d0 <_solve_stage>
  30047a:	40 0b       	jsr	@r0
  30047c:	64 83       	mov	r8,r4
  30047e:	d1 10       	mov.l	3004c0 <_main+0x68>,r1	! 301a90 <_display_tableux>
  300480:	41 0b       	jsr	@r1
  300482:	64 83       	mov	r8,r4
  300484:	d1 0f       	mov.l	3004c4 <_main+0x6c>,r1	! 3048b4 <_dupdate>
  300486:	41 0b       	jsr	@r1
  300488:	00 09       	nop	
  30048a:	49 0b       	jsr	@r9
  30048c:	00 09       	nop	
  30048e:	49 0b       	jsr	@r9
  300490:	00 09       	nop	
  300492:	49 0b       	jsr	@r9
  300494:	00 09       	nop	
  300496:	d1 0c       	mov.l	3004c8 <_main+0x70>,r1	! 30195c <_free_tableux>
  300498:	41 0b       	jsr	@r1
  30049a:	64 83       	mov	r8,r4
  30049c:	e0 00       	mov	#0,r0
  30049e:	4f 26       	lds.l	@r15+,pr
  3004a0:	69 f6       	mov.l	@r15+,r9
  3004a2:	00 0b       	rts	
  3004a4:	68 f6       	mov.l	@r15+,r8
  3004a6:	00 09       	nop	
  3004a8:	00 30       	.word 0x0030
  3004aa:	47 94       	.word 0x4794
  3004ac:	00 00       	.word 0x0000
  3004ae:	ff ff       	.word 0xffff
  3004b0:	00 30       	.word 0x0030
  3004b2:	02 40       	.word 0x0240
  3004b4:	00 30       	.word 0x0030
  3004b6:	33 90       	cmp/eq	r9,r3
  3004b8:	00 30       	.word 0x0030
  3004ba:	03 18       	.word 0x0318
  3004bc:	00 30       	.word 0x0030
  3004be:	03 d0       	.word 0x03d0
  3004c0:	00 30       	.word 0x0030
  3004c2:	1a 90       	mov.l	r9,@(0,r10)
  3004c4:	00 30       	.word 0x0030
  3004c6:	48 b4       	.word 0x48b4
  3004c8:	00 30       	.word 0x0030
  3004ca:	19 5c       	mov.l	r5,@(48,r9)
	...

003004e0 <L_movmem_2mod4_end>:
  3004e0:	14 04       	mov.l	r0,@(16,r4)
  3004e2:	00 0b       	rts	
  3004e4:	14 15       	mov.l	r1,@(20,r4)
  3004e6:	00 09       	nop	

003004e8 <___movmem_i4_even>:
  3004e8:	60 56       	mov.l	@r5+,r0
  3004ea:	a0 0c       	bra	300506 <L_movmem_start_even>
  3004ec:	61 56       	mov.l	@r5+,r1

003004ee <___movmem_i4_odd>:
  3004ee:	61 56       	mov.l	@r5+,r1
  3004f0:	74 fc       	add	#-4,r4
  3004f2:	62 56       	mov.l	@r5+,r2
  3004f4:	63 56       	mov.l	@r5+,r3
  3004f6:	14 11       	mov.l	r1,@(4,r4)
  3004f8:	14 22       	mov.l	r2,@(8,r4)

003004fa <L_movmem_loop>:
  3004fa:	14 33       	mov.l	r3,@(12,r4)
  3004fc:	46 10       	dt	r6
  3004fe:	60 56       	mov.l	@r5+,r0
  300500:	8d ee       	bt.s	3004e0 <L_movmem_2mod4_end>
  300502:	61 56       	mov.l	@r5+,r1
  300504:	74 10       	add	#16,r4

00300506 <L_movmem_start_even>:
  300506:	62 56       	mov.l	@r5+,r2
  300508:	63 56       	mov.l	@r5+,r3
  30050a:	24 02       	mov.l	r0,@r4
  30050c:	46 10       	dt	r6
  30050e:	14 11       	mov.l	r1,@(4,r4)
  300510:	8f f3       	bf.s	3004fa <L_movmem_loop>
  300512:	14 22       	mov.l	r2,@(8,r4)
  300514:	00 0b       	rts	
  300516:	14 33       	mov.l	r3,@(12,r4)
  300518:	00 09       	nop	
  30051a:	00 09       	nop	
  30051c:	00 09       	nop	
  30051e:	00 09       	nop	

00300520 <___movmemSI12_i4>:
  300520:	60 52       	mov.l	@r5,r0
  300522:	51 51       	mov.l	@(4,r5),r1
  300524:	52 52       	mov.l	@(8,r5),r2
  300526:	24 02       	mov.l	r0,@r4
  300528:	14 11       	mov.l	r1,@(4,r4)
  30052a:	00 0b       	rts	
  30052c:	14 22       	mov.l	r2,@(8,r4)
  30052e:	00 09       	nop	
  300530:	00 09       	nop	
  300532:	00 09       	nop	
  300534:	00 09       	nop	
  300536:	00 09       	nop	
  300538:	00 09       	nop	
  30053a:	00 09       	nop	
  30053c:	00 09       	nop	
  30053e:	00 09       	nop	

00300540 <_free_matrix>:
  300540:	2f e6       	mov.l	r14,@-r15
  300542:	4f 22       	sts.l	pr,@-r15
  300544:	7f f8       	add	#-8,r15
  300546:	6e f3       	mov	r15,r14
  300548:	61 e3       	mov	r14,r1
  30054a:	71 c8       	add	#-56,r1
  30054c:	11 4e       	mov.l	r4,@(56,r1)
  30054e:	61 e3       	mov	r14,r1
  300550:	71 c8       	add	#-56,r1
  300552:	e2 00       	mov	#0,r2
  300554:	11 2f       	mov.l	r2,@(60,r1)
  300556:	a0 15       	bra	300584 <_free_matrix+0x44>
  300558:	00 09       	nop	
  30055a:	61 e3       	mov	r14,r1
  30055c:	71 c8       	add	#-56,r1
  30055e:	51 1e       	mov.l	@(56,r1),r1
  300560:	52 12       	mov.l	@(8,r1),r2
  300562:	61 e3       	mov	r14,r1
  300564:	71 c8       	add	#-56,r1
  300566:	51 1f       	mov.l	@(60,r1),r1
  300568:	41 08       	shll2	r1
  30056a:	31 2c       	add	r2,r1
  30056c:	61 12       	mov.l	@r1,r1
  30056e:	64 13       	mov	r1,r4
  300570:	d1 13       	mov.l	3005c0 <_free_matrix+0x80>,r1	! 309244 <_free>
  300572:	41 0b       	jsr	@r1
  300574:	00 09       	nop	
  300576:	61 e3       	mov	r14,r1
  300578:	71 c8       	add	#-56,r1
  30057a:	62 e3       	mov	r14,r2
  30057c:	72 c8       	add	#-56,r2
  30057e:	52 2f       	mov.l	@(60,r2),r2
  300580:	72 01       	add	#1,r2
  300582:	11 2f       	mov.l	r2,@(60,r1)
  300584:	61 e3       	mov	r14,r1
  300586:	71 c8       	add	#-56,r1
  300588:	51 1e       	mov.l	@(56,r1),r1
  30058a:	61 12       	mov.l	@r1,r1
  30058c:	62 e3       	mov	r14,r2
  30058e:	72 c8       	add	#-56,r2
  300590:	52 2f       	mov.l	@(60,r2),r2
  300592:	32 13       	cmp/ge	r1,r2
  300594:	8b e1       	bf	30055a <_free_matrix+0x1a>
  300596:	61 e3       	mov	r14,r1
  300598:	71 c8       	add	#-56,r1
  30059a:	51 1e       	mov.l	@(56,r1),r1
  30059c:	51 12       	mov.l	@(8,r1),r1
  30059e:	64 13       	mov	r1,r4
  3005a0:	d1 07       	mov.l	3005c0 <_free_matrix+0x80>,r1	! 309244 <_free>
  3005a2:	41 0b       	jsr	@r1
  3005a4:	00 09       	nop	
  3005a6:	61 e3       	mov	r14,r1
  3005a8:	71 c8       	add	#-56,r1
  3005aa:	54 1e       	mov.l	@(56,r1),r4
  3005ac:	d1 04       	mov.l	3005c0 <_free_matrix+0x80>,r1	! 309244 <_free>
  3005ae:	41 0b       	jsr	@r1
  3005b0:	00 09       	nop	
  3005b2:	00 09       	nop	
  3005b4:	7e 08       	add	#8,r14
  3005b6:	6f e3       	mov	r14,r15
  3005b8:	4f 26       	lds.l	@r15+,pr
  3005ba:	6e f6       	mov.l	@r15+,r14
  3005bc:	00 0b       	rts	
  3005be:	00 09       	nop	
  3005c0:	00 30       	.word 0x0030
  3005c2:	92 44       	mov.w	30064e <_new_matrix+0x8a>,r2	! 61e3

003005c4 <_new_matrix>:
  3005c4:	2f 86       	mov.l	r8,@-r15
  3005c6:	2f e6       	mov.l	r14,@-r15
  3005c8:	4f 22       	sts.l	pr,@-r15
  3005ca:	7f ec       	add	#-20,r15
  3005cc:	6e f3       	mov	r15,r14
  3005ce:	61 e3       	mov	r14,r1
  3005d0:	71 d4       	add	#-44,r1
  3005d2:	11 4c       	mov.l	r4,@(48,r1)
  3005d4:	61 e3       	mov	r14,r1
  3005d6:	71 d4       	add	#-44,r1
  3005d8:	11 5b       	mov.l	r5,@(44,r1)
  3005da:	68 e3       	mov	r14,r8
  3005dc:	78 d4       	add	#-44,r8
  3005de:	e4 0c       	mov	#12,r4
  3005e0:	d1 55       	mov.l	300738 <_new_matrix+0x174>,r1	! 309250 <_malloc>
  3005e2:	41 0b       	jsr	@r1
  3005e4:	00 09       	nop	
  3005e6:	61 03       	mov	r0,r1
  3005e8:	18 1d       	mov.l	r1,@(52,r8)
  3005ea:	61 e3       	mov	r14,r1
  3005ec:	71 d4       	add	#-44,r1
  3005ee:	51 1d       	mov.l	@(52,r1),r1
  3005f0:	21 18       	tst	r1,r1
  3005f2:	8b 02       	bf	3005fa <_new_matrix+0x36>
  3005f4:	e1 00       	mov	#0,r1
  3005f6:	a0 97       	bra	300728 <_new_matrix+0x164>
  3005f8:	00 09       	nop	
  3005fa:	61 e3       	mov	r14,r1
  3005fc:	71 d4       	add	#-44,r1
  3005fe:	51 1d       	mov.l	@(52,r1),r1
  300600:	62 e3       	mov	r14,r2
  300602:	72 d4       	add	#-44,r2
  300604:	52 2c       	mov.l	@(48,r2),r2
  300606:	21 22       	mov.l	r2,@r1
  300608:	61 e3       	mov	r14,r1
  30060a:	71 d4       	add	#-44,r1
  30060c:	51 1d       	mov.l	@(52,r1),r1
  30060e:	62 e3       	mov	r14,r2
  300610:	72 d4       	add	#-44,r2
  300612:	52 2b       	mov.l	@(44,r2),r2
  300614:	11 21       	mov.l	r2,@(4,r1)
  300616:	61 e3       	mov	r14,r1
  300618:	71 d4       	add	#-44,r1
  30061a:	51 1c       	mov.l	@(48,r1),r1
  30061c:	41 08       	shll2	r1
  30061e:	64 13       	mov	r1,r4
  300620:	d1 45       	mov.l	300738 <_new_matrix+0x174>,r1	! 309250 <_malloc>
  300622:	41 0b       	jsr	@r1
  300624:	00 09       	nop	
  300626:	61 03       	mov	r0,r1
  300628:	62 e3       	mov	r14,r2
  30062a:	72 d4       	add	#-44,r2
  30062c:	52 2d       	mov.l	@(52,r2),r2
  30062e:	12 12       	mov.l	r1,@(8,r2)
  300630:	61 e3       	mov	r14,r1
  300632:	71 d4       	add	#-44,r1
  300634:	51 1d       	mov.l	@(52,r1),r1
  300636:	51 12       	mov.l	@(8,r1),r1
  300638:	21 18       	tst	r1,r1
  30063a:	8b 08       	bf	30064e <_new_matrix+0x8a>
  30063c:	61 e3       	mov	r14,r1
  30063e:	71 d4       	add	#-44,r1
  300640:	54 1d       	mov.l	@(52,r1),r4
  300642:	d1 3e       	mov.l	30073c <_new_matrix+0x178>,r1	! 309244 <_free>
  300644:	41 0b       	jsr	@r1
  300646:	00 09       	nop	
  300648:	e1 00       	mov	#0,r1
  30064a:	a0 6d       	bra	300728 <_new_matrix+0x164>
  30064c:	00 09       	nop	
  30064e:	61 e3       	mov	r14,r1
  300650:	71 d4       	add	#-44,r1
  300652:	e2 00       	mov	#0,r2
  300654:	11 2f       	mov.l	r2,@(60,r1)
  300656:	a0 5c       	bra	300712 <_new_matrix+0x14e>
  300658:	00 09       	nop	
  30065a:	61 e3       	mov	r14,r1
  30065c:	71 d4       	add	#-44,r1
  30065e:	51 1b       	mov.l	@(44,r1),r1
  300660:	41 08       	shll2	r1
  300662:	41 08       	shll2	r1
  300664:	62 e3       	mov	r14,r2
  300666:	72 d4       	add	#-44,r2
  300668:	52 2d       	mov.l	@(52,r2),r2
  30066a:	53 22       	mov.l	@(8,r2),r3
  30066c:	62 e3       	mov	r14,r2
  30066e:	72 d4       	add	#-44,r2
  300670:	52 2f       	mov.l	@(60,r2),r2
  300672:	42 08       	shll2	r2
  300674:	68 33       	mov	r3,r8
  300676:	38 2c       	add	r2,r8
  300678:	64 13       	mov	r1,r4
  30067a:	d1 2f       	mov.l	300738 <_new_matrix+0x174>,r1	! 309250 <_malloc>
  30067c:	41 0b       	jsr	@r1
  30067e:	00 09       	nop	
  300680:	61 03       	mov	r0,r1
  300682:	28 12       	mov.l	r1,@r8
  300684:	61 e3       	mov	r14,r1
  300686:	71 d4       	add	#-44,r1
  300688:	51 1d       	mov.l	@(52,r1),r1
  30068a:	52 12       	mov.l	@(8,r1),r2
  30068c:	61 e3       	mov	r14,r1
  30068e:	71 d4       	add	#-44,r1
  300690:	51 1f       	mov.l	@(60,r1),r1
  300692:	41 08       	shll2	r1
  300694:	31 2c       	add	r2,r1
  300696:	61 12       	mov.l	@r1,r1
  300698:	21 18       	tst	r1,r1
  30069a:	8b 33       	bf	300704 <_new_matrix+0x140>
  30069c:	61 e3       	mov	r14,r1
  30069e:	71 d4       	add	#-44,r1
  3006a0:	e2 00       	mov	#0,r2
  3006a2:	11 2e       	mov.l	r2,@(56,r1)
  3006a4:	a0 15       	bra	3006d2 <_new_matrix+0x10e>
  3006a6:	00 09       	nop	
  3006a8:	61 e3       	mov	r14,r1
  3006aa:	71 d4       	add	#-44,r1
  3006ac:	51 1d       	mov.l	@(52,r1),r1
  3006ae:	52 12       	mov.l	@(8,r1),r2
  3006b0:	61 e3       	mov	r14,r1
  3006b2:	71 d4       	add	#-44,r1
  3006b4:	51 1e       	mov.l	@(56,r1),r1
  3006b6:	41 08       	shll2	r1
  3006b8:	31 2c       	add	r2,r1
  3006ba:	61 12       	mov.l	@r1,r1
  3006bc:	64 13       	mov	r1,r4
  3006be:	d1 1f       	mov.l	30073c <_new_matrix+0x178>,r1	! 309244 <_free>
  3006c0:	41 0b       	jsr	@r1
  3006c2:	00 09       	nop	
  3006c4:	61 e3       	mov	r14,r1
  3006c6:	71 d4       	add	#-44,r1
  3006c8:	62 e3       	mov	r14,r2
  3006ca:	72 d4       	add	#-44,r2
  3006cc:	52 2e       	mov.l	@(56,r2),r2
  3006ce:	72 01       	add	#1,r2
  3006d0:	11 2e       	mov.l	r2,@(56,r1)
  3006d2:	62 e3       	mov	r14,r2
  3006d4:	72 d4       	add	#-44,r2
  3006d6:	61 e3       	mov	r14,r1
  3006d8:	71 d4       	add	#-44,r1
  3006da:	52 2e       	mov.l	@(56,r2),r2
  3006dc:	51 1f       	mov.l	@(60,r1),r1
  3006de:	32 13       	cmp/ge	r1,r2
  3006e0:	8b e2       	bf	3006a8 <_new_matrix+0xe4>
  3006e2:	61 e3       	mov	r14,r1
  3006e4:	71 d4       	add	#-44,r1
  3006e6:	51 1d       	mov.l	@(52,r1),r1
  3006e8:	51 12       	mov.l	@(8,r1),r1
  3006ea:	64 13       	mov	r1,r4
  3006ec:	d1 13       	mov.l	30073c <_new_matrix+0x178>,r1	! 309244 <_free>
  3006ee:	41 0b       	jsr	@r1
  3006f0:	00 09       	nop	
  3006f2:	61 e3       	mov	r14,r1
  3006f4:	71 d4       	add	#-44,r1
  3006f6:	54 1d       	mov.l	@(52,r1),r4
  3006f8:	d1 10       	mov.l	30073c <_new_matrix+0x178>,r1	! 309244 <_free>
  3006fa:	41 0b       	jsr	@r1
  3006fc:	00 09       	nop	
  3006fe:	e1 00       	mov	#0,r1
  300700:	a0 12       	bra	300728 <_new_matrix+0x164>
  300702:	00 09       	nop	
  300704:	61 e3       	mov	r14,r1
  300706:	71 d4       	add	#-44,r1
  300708:	62 e3       	mov	r14,r2
  30070a:	72 d4       	add	#-44,r2
  30070c:	52 2f       	mov.l	@(60,r2),r2
  30070e:	72 01       	add	#1,r2
  300710:	11 2f       	mov.l	r2,@(60,r1)
  300712:	62 e3       	mov	r14,r2
  300714:	72 d4       	add	#-44,r2
  300716:	61 e3       	mov	r14,r1
  300718:	71 d4       	add	#-44,r1
  30071a:	52 2f       	mov.l	@(60,r2),r2
  30071c:	51 1c       	mov.l	@(48,r1),r1
  30071e:	32 13       	cmp/ge	r1,r2
  300720:	8b 9b       	bf	30065a <_new_matrix+0x96>
  300722:	61 e3       	mov	r14,r1
  300724:	71 d4       	add	#-44,r1
  300726:	51 1d       	mov.l	@(52,r1),r1
  300728:	60 13       	mov	r1,r0
  30072a:	7e 14       	add	#20,r14
  30072c:	6f e3       	mov	r14,r15
  30072e:	4f 26       	lds.l	@r15+,pr
  300730:	6e f6       	mov.l	@r15+,r14
  300732:	68 f6       	mov.l	@r15+,r8
  300734:	00 0b       	rts	
  300736:	00 09       	nop	
  300738:	00 30       	.word 0x0030
  30073a:	92 50       	mov.w	3007de <_new_matrix_with_data+0x9e>,r2	! 72d4
  30073c:	00 30       	.word 0x0030
  30073e:	92 44       	mov.w	3007ca <_new_matrix_with_data+0x8a>,r2	! 410b

00300740 <_new_matrix_with_data>:
  300740:	2f 86       	mov.l	r8,@-r15
  300742:	2f e6       	mov.l	r14,@-r15
  300744:	4f 22       	sts.l	pr,@-r15
  300746:	7f ec       	add	#-20,r15
  300748:	6e f3       	mov	r15,r14
  30074a:	61 e3       	mov	r14,r1
  30074c:	71 d4       	add	#-44,r1
  30074e:	11 4d       	mov.l	r4,@(52,r1)
  300750:	61 e3       	mov	r14,r1
  300752:	71 d4       	add	#-44,r1
  300754:	11 5c       	mov.l	r5,@(48,r1)
  300756:	61 e3       	mov	r14,r1
  300758:	71 d4       	add	#-44,r1
  30075a:	11 6b       	mov.l	r6,@(44,r1)
  30075c:	68 e3       	mov	r14,r8
  30075e:	78 d4       	add	#-44,r8
  300760:	62 e3       	mov	r14,r2
  300762:	72 d4       	add	#-44,r2
  300764:	61 e3       	mov	r14,r1
  300766:	71 d4       	add	#-44,r1
  300768:	55 2c       	mov.l	@(48,r2),r5
  30076a:	54 1d       	mov.l	@(52,r1),r4
  30076c:	d1 25       	mov.l	300804 <_new_matrix_with_data+0xc4>,r1	! 3005c4 <_new_matrix>
  30076e:	41 0b       	jsr	@r1
  300770:	00 09       	nop	
  300772:	61 03       	mov	r0,r1
  300774:	18 1e       	mov.l	r1,@(56,r8)
  300776:	61 e3       	mov	r14,r1
  300778:	71 d4       	add	#-44,r1
  30077a:	51 1e       	mov.l	@(56,r1),r1
  30077c:	21 18       	tst	r1,r1
  30077e:	8b 02       	bf	300786 <_new_matrix_with_data+0x46>
  300780:	e1 00       	mov	#0,r1
  300782:	a0 36       	bra	3007f2 <_new_matrix_with_data+0xb2>
  300784:	00 09       	nop	
  300786:	61 e3       	mov	r14,r1
  300788:	71 d4       	add	#-44,r1
  30078a:	e2 00       	mov	#0,r2
  30078c:	11 2f       	mov.l	r2,@(60,r1)
  30078e:	a0 25       	bra	3007dc <_new_matrix_with_data+0x9c>
  300790:	00 09       	nop	
  300792:	61 e3       	mov	r14,r1
  300794:	71 d4       	add	#-44,r1
  300796:	51 1e       	mov.l	@(56,r1),r1
  300798:	52 12       	mov.l	@(8,r1),r2
  30079a:	61 e3       	mov	r14,r1
  30079c:	71 d4       	add	#-44,r1
  30079e:	51 1f       	mov.l	@(60,r1),r1
  3007a0:	41 08       	shll2	r1
  3007a2:	31 2c       	add	r2,r1
  3007a4:	63 12       	mov.l	@r1,r3
  3007a6:	61 e3       	mov	r14,r1
  3007a8:	71 d4       	add	#-44,r1
  3007aa:	51 1f       	mov.l	@(60,r1),r1
  3007ac:	41 08       	shll2	r1
  3007ae:	62 e3       	mov	r14,r2
  3007b0:	72 d4       	add	#-44,r2
  3007b2:	52 2b       	mov.l	@(44,r2),r2
  3007b4:	31 2c       	add	r2,r1
  3007b6:	62 12       	mov.l	@r1,r2
  3007b8:	61 e3       	mov	r14,r1
  3007ba:	71 d4       	add	#-44,r1
  3007bc:	51 1c       	mov.l	@(48,r1),r1
  3007be:	41 08       	shll2	r1
  3007c0:	41 08       	shll2	r1
  3007c2:	66 13       	mov	r1,r6
  3007c4:	65 23       	mov	r2,r5
  3007c6:	64 33       	mov	r3,r4
  3007c8:	d1 0f       	mov.l	300808 <_new_matrix_with_data+0xc8>,r1	! 309100 <_memcpy>
  3007ca:	41 0b       	jsr	@r1
  3007cc:	00 09       	nop	
  3007ce:	61 e3       	mov	r14,r1
  3007d0:	71 d4       	add	#-44,r1
  3007d2:	62 e3       	mov	r14,r2
  3007d4:	72 d4       	add	#-44,r2
  3007d6:	52 2f       	mov.l	@(60,r2),r2
  3007d8:	72 01       	add	#1,r2
  3007da:	11 2f       	mov.l	r2,@(60,r1)
  3007dc:	62 e3       	mov	r14,r2
  3007de:	72 d4       	add	#-44,r2
  3007e0:	61 e3       	mov	r14,r1
  3007e2:	71 d4       	add	#-44,r1
  3007e4:	52 2f       	mov.l	@(60,r2),r2
  3007e6:	51 1d       	mov.l	@(52,r1),r1
  3007e8:	32 13       	cmp/ge	r1,r2
  3007ea:	8b d2       	bf	300792 <_new_matrix_with_data+0x52>
  3007ec:	61 e3       	mov	r14,r1
  3007ee:	71 d4       	add	#-44,r1
  3007f0:	51 1e       	mov.l	@(56,r1),r1
  3007f2:	60 13       	mov	r1,r0
  3007f4:	7e 14       	add	#20,r14
  3007f6:	6f e3       	mov	r14,r15
  3007f8:	4f 26       	lds.l	@r15+,pr
  3007fa:	6e f6       	mov.l	@r15+,r14
  3007fc:	68 f6       	mov.l	@r15+,r8
  3007fe:	00 0b       	rts	
  300800:	00 09       	nop	
  300802:	00 09       	nop	
  300804:	00 30       	.word 0x0030
  300806:	05 c4       	mov.b	r12,@(r0,r5)
  300808:	00 30       	.word 0x0030
  30080a:	91 00       	mov.w	30080e <_get+0x2>,r1	! 7ff4

0030080c <_get>:
  30080c:	2f e6       	mov.l	r14,@-r15
  30080e:	7f f4       	add	#-12,r15
  300810:	6e f3       	mov	r15,r14
  300812:	61 e3       	mov	r14,r1
  300814:	71 cc       	add	#-52,r1
  300816:	11 4f       	mov.l	r4,@(60,r1)
  300818:	61 e3       	mov	r14,r1
  30081a:	71 cc       	add	#-52,r1
  30081c:	11 5e       	mov.l	r5,@(56,r1)
  30081e:	61 e3       	mov	r14,r1
  300820:	71 cc       	add	#-52,r1
  300822:	11 6d       	mov.l	r6,@(52,r1)
  300824:	61 e3       	mov	r14,r1
  300826:	71 cc       	add	#-52,r1
  300828:	51 1f       	mov.l	@(60,r1),r1
  30082a:	53 12       	mov.l	@(8,r1),r3
  30082c:	61 e3       	mov	r14,r1
  30082e:	71 cc       	add	#-52,r1
  300830:	51 1e       	mov.l	@(56,r1),r1
  300832:	41 08       	shll2	r1
  300834:	31 3c       	add	r3,r1
  300836:	63 12       	mov.l	@r1,r3
  300838:	61 e3       	mov	r14,r1
  30083a:	71 cc       	add	#-52,r1
  30083c:	51 1d       	mov.l	@(52,r1),r1
  30083e:	41 08       	shll2	r1
  300840:	41 08       	shll2	r1
  300842:	31 3c       	add	r3,r1
  300844:	63 12       	mov.l	@r1,r3
  300846:	22 32       	mov.l	r3,@r2
  300848:	71 04       	add	#4,r1
  30084a:	63 12       	mov.l	@r1,r3
  30084c:	12 31       	mov.l	r3,@(4,r2)
  30084e:	71 04       	add	#4,r1
  300850:	63 12       	mov.l	@r1,r3
  300852:	12 32       	mov.l	r3,@(8,r2)
  300854:	71 04       	add	#4,r1
  300856:	63 12       	mov.l	@r1,r3
  300858:	12 33       	mov.l	r3,@(12,r2)
  30085a:	71 04       	add	#4,r1
  30085c:	60 23       	mov	r2,r0
  30085e:	7e 0c       	add	#12,r14
  300860:	6f e3       	mov	r14,r15
  300862:	6e f6       	mov.l	@r15+,r14
  300864:	00 0b       	rts	
  300866:	00 09       	nop	

00300868 <_set>:
  300868:	7f fc       	add	#-4,r15
  30086a:	2f e6       	mov.l	r14,@-r15
  30086c:	7f f4       	add	#-12,r15
  30086e:	6e f3       	mov	r15,r14
  300870:	61 e3       	mov	r14,r1
  300872:	71 cc       	add	#-52,r1
  300874:	11 4f       	mov.l	r4,@(60,r1)
  300876:	61 e3       	mov	r14,r1
  300878:	71 cc       	add	#-52,r1
  30087a:	11 5e       	mov.l	r5,@(56,r1)
  30087c:	61 e3       	mov	r14,r1
  30087e:	71 cc       	add	#-52,r1
  300880:	11 6d       	mov.l	r6,@(52,r1)
  300882:	1e 74       	mov.l	r7,@(16,r14)
  300884:	61 e3       	mov	r14,r1
  300886:	71 cc       	add	#-52,r1
  300888:	51 1f       	mov.l	@(60,r1),r1
  30088a:	61 12       	mov.l	@r1,r1
  30088c:	62 e3       	mov	r14,r2
  30088e:	72 cc       	add	#-52,r2
  300890:	52 2e       	mov.l	@(56,r2),r2
  300892:	32 13       	cmp/ge	r1,r2
  300894:	8b 02       	bf	30089c <_set+0x34>
  300896:	e1 00       	mov	#0,r1
  300898:	a0 2b       	bra	3008f2 <_set+0x8a>
  30089a:	00 09       	nop	
  30089c:	61 e3       	mov	r14,r1
  30089e:	71 cc       	add	#-52,r1
  3008a0:	51 1f       	mov.l	@(60,r1),r1
  3008a2:	51 11       	mov.l	@(4,r1),r1
  3008a4:	62 e3       	mov	r14,r2
  3008a6:	72 cc       	add	#-52,r2
  3008a8:	52 2d       	mov.l	@(52,r2),r2
  3008aa:	32 13       	cmp/ge	r1,r2
  3008ac:	8b 02       	bf	3008b4 <_set+0x4c>
  3008ae:	e1 00       	mov	#0,r1
  3008b0:	a0 1f       	bra	3008f2 <_set+0x8a>
  3008b2:	00 09       	nop	
  3008b4:	61 e3       	mov	r14,r1
  3008b6:	71 cc       	add	#-52,r1
  3008b8:	51 1f       	mov.l	@(60,r1),r1
  3008ba:	52 12       	mov.l	@(8,r1),r2
  3008bc:	61 e3       	mov	r14,r1
  3008be:	71 cc       	add	#-52,r1
  3008c0:	51 1e       	mov.l	@(56,r1),r1
  3008c2:	41 08       	shll2	r1
  3008c4:	31 2c       	add	r2,r1
  3008c6:	62 12       	mov.l	@r1,r2
  3008c8:	61 e3       	mov	r14,r1
  3008ca:	71 cc       	add	#-52,r1
  3008cc:	51 1d       	mov.l	@(52,r1),r1
  3008ce:	41 08       	shll2	r1
  3008d0:	41 08       	shll2	r1
  3008d2:	32 1c       	add	r1,r2
  3008d4:	61 e3       	mov	r14,r1
  3008d6:	71 10       	add	#16,r1
  3008d8:	63 12       	mov.l	@r1,r3
  3008da:	22 32       	mov.l	r3,@r2
  3008dc:	71 04       	add	#4,r1
  3008de:	63 12       	mov.l	@r1,r3
  3008e0:	12 31       	mov.l	r3,@(4,r2)
  3008e2:	71 04       	add	#4,r1
  3008e4:	63 12       	mov.l	@r1,r3
  3008e6:	12 32       	mov.l	r3,@(8,r2)
  3008e8:	71 04       	add	#4,r1
  3008ea:	63 12       	mov.l	@r1,r3
  3008ec:	12 33       	mov.l	r3,@(12,r2)
  3008ee:	71 04       	add	#4,r1
  3008f0:	e1 01       	mov	#1,r1
  3008f2:	60 13       	mov	r1,r0
  3008f4:	7e 0c       	add	#12,r14
  3008f6:	6f e3       	mov	r14,r15
  3008f8:	6e f6       	mov.l	@r15+,r14
  3008fa:	7f 04       	add	#4,r15
  3008fc:	00 0b       	rts	
  3008fe:	00 09       	nop	

00300900 <_print_mat>:
  300900:	2f 86       	mov.l	r8,@-r15
  300902:	2f e6       	mov.l	r14,@-r15
  300904:	4f 22       	sts.l	pr,@-r15
  300906:	7f dc       	add	#-36,r15
  300908:	6e f3       	mov	r15,r14
  30090a:	61 e3       	mov	r14,r1
  30090c:	71 e4       	add	#-28,r1
  30090e:	11 48       	mov.l	r4,@(32,r1)
  300910:	68 e3       	mov	r14,r8
  300912:	78 e4       	add	#-28,r8
  300914:	e4 1e       	mov	#30,r4
  300916:	d1 33       	mov.l	3009e4 <_print_mat+0xe4>,r1	! 309250 <_malloc>
  300918:	41 0b       	jsr	@r1
  30091a:	00 09       	nop	
  30091c:	61 03       	mov	r0,r1
  30091e:	18 1d       	mov.l	r1,@(52,r8)
  300920:	61 e3       	mov	r14,r1
  300922:	71 e4       	add	#-28,r1
  300924:	e2 00       	mov	#0,r2
  300926:	11 2f       	mov.l	r2,@(60,r1)
  300928:	a0 45       	bra	3009b6 <_print_mat+0xb6>
  30092a:	00 09       	nop	
  30092c:	61 e3       	mov	r14,r1
  30092e:	71 e4       	add	#-28,r1
  300930:	e2 00       	mov	#0,r2
  300932:	11 2e       	mov.l	r2,@(56,r1)
  300934:	a0 2a       	bra	30098c <_print_mat+0x8c>
  300936:	00 09       	nop	
  300938:	62 e3       	mov	r14,r2
  30093a:	72 08       	add	#8,r2
  30093c:	67 e3       	mov	r14,r7
  30093e:	77 e4       	add	#-28,r7
  300940:	63 e3       	mov	r14,r3
  300942:	73 e4       	add	#-28,r3
  300944:	61 e3       	mov	r14,r1
  300946:	71 e4       	add	#-28,r1
  300948:	56 7e       	mov.l	@(56,r7),r6
  30094a:	55 3f       	mov.l	@(60,r3),r5
  30094c:	54 18       	mov.l	@(32,r1),r4
  30094e:	d1 26       	mov.l	3009e8 <_print_mat+0xe8>,r1	! 30080c <_get>
  300950:	41 0b       	jsr	@r1
  300952:	00 09       	nop	
  300954:	61 e3       	mov	r14,r1
  300956:	71 08       	add	#8,r1
  300958:	62 e3       	mov	r14,r2
  30095a:	72 e4       	add	#-28,r2
  30095c:	52 2d       	mov.l	@(52,r2),r2
  30095e:	2f 22       	mov.l	r2,@r15
  300960:	64 12       	mov.l	@r1,r4
  300962:	55 11       	mov.l	@(4,r1),r5
  300964:	56 12       	mov.l	@(8,r1),r6
  300966:	57 13       	mov.l	@(12,r1),r7
  300968:	d1 20       	mov.l	3009ec <_print_mat+0xec>,r1	! 307798 <_BigM_str>
  30096a:	41 0b       	jsr	@r1
  30096c:	00 09       	nop	
  30096e:	61 e3       	mov	r14,r1
  300970:	71 e4       	add	#-28,r1
  300972:	d2 1f       	mov.l	3009f0 <_print_mat+0xf0>,r2	! 30b3f8
  300974:	55 1d       	mov.l	@(52,r1),r5
  300976:	64 23       	mov	r2,r4
  300978:	d1 1e       	mov.l	3009f4 <_print_mat+0xf4>,r1	! 3089c0 <_printf>
  30097a:	41 0b       	jsr	@r1
  30097c:	00 09       	nop	
  30097e:	61 e3       	mov	r14,r1
  300980:	71 e4       	add	#-28,r1
  300982:	62 e3       	mov	r14,r2
  300984:	72 e4       	add	#-28,r2
  300986:	52 2e       	mov.l	@(56,r2),r2
  300988:	72 01       	add	#1,r2
  30098a:	11 2e       	mov.l	r2,@(56,r1)
  30098c:	61 e3       	mov	r14,r1
  30098e:	71 e4       	add	#-28,r1
  300990:	51 18       	mov.l	@(32,r1),r1
  300992:	51 11       	mov.l	@(4,r1),r1
  300994:	62 e3       	mov	r14,r2
  300996:	72 e4       	add	#-28,r2
  300998:	52 2e       	mov.l	@(56,r2),r2
  30099a:	32 13       	cmp/ge	r1,r2
  30099c:	8b cc       	bf	300938 <_print_mat+0x38>
  30099e:	d1 16       	mov.l	3009f8 <_print_mat+0xf8>,r1	! 30b3fc
  3009a0:	64 13       	mov	r1,r4
  3009a2:	d1 14       	mov.l	3009f4 <_print_mat+0xf4>,r1	! 3089c0 <_printf>
  3009a4:	41 0b       	jsr	@r1
  3009a6:	00 09       	nop	
  3009a8:	61 e3       	mov	r14,r1
  3009aa:	71 e4       	add	#-28,r1
  3009ac:	62 e3       	mov	r14,r2
  3009ae:	72 e4       	add	#-28,r2
  3009b0:	52 2f       	mov.l	@(60,r2),r2
  3009b2:	72 01       	add	#1,r2
  3009b4:	11 2f       	mov.l	r2,@(60,r1)
  3009b6:	61 e3       	mov	r14,r1
  3009b8:	71 e4       	add	#-28,r1
  3009ba:	51 18       	mov.l	@(32,r1),r1
  3009bc:	61 12       	mov.l	@r1,r1
  3009be:	62 e3       	mov	r14,r2
  3009c0:	72 e4       	add	#-28,r2
  3009c2:	52 2f       	mov.l	@(60,r2),r2
  3009c4:	32 13       	cmp/ge	r1,r2
  3009c6:	8b b1       	bf	30092c <_print_mat+0x2c>
  3009c8:	61 e3       	mov	r14,r1
  3009ca:	71 e4       	add	#-28,r1
  3009cc:	54 1d       	mov.l	@(52,r1),r4
  3009ce:	d1 0b       	mov.l	3009fc <_print_mat+0xfc>,r1	! 309244 <_free>
  3009d0:	41 0b       	jsr	@r1
  3009d2:	00 09       	nop	
  3009d4:	00 09       	nop	
  3009d6:	7e 24       	add	#36,r14
  3009d8:	6f e3       	mov	r14,r15
  3009da:	4f 26       	lds.l	@r15+,pr
  3009dc:	6e f6       	mov.l	@r15+,r14
  3009de:	68 f6       	mov.l	@r15+,r8
  3009e0:	00 0b       	rts	
  3009e2:	00 09       	nop	
  3009e4:	00 30       	.word 0x0030
  3009e6:	92 50       	mov.w	300a8a <_isoptimal+0x8a>,r2	! 410b
  3009e8:	00 30       	.word 0x0030
  3009ea:	08 0c       	mov.b	@(r0,r0),r8
  3009ec:	00 30       	.word 0x0030
  3009ee:	77 98       	add	#-104,r7
  3009f0:	00 30       	.word 0x0030
  3009f2:	b3 f8       	bsr	3011e6 <_simplex+0x3a6>
  3009f4:	00 30       	.word 0x0030
  3009f6:	89 c0       	bt	30097a <_print_mat+0x7a>
  3009f8:	00 30       	.word 0x0030
  3009fa:	b3 fc       	bsr	3011f6 <_simplex+0x3b6>
  3009fc:	00 30       	.word 0x0030
  3009fe:	92 44       	mov.w	300a8a <_isoptimal+0x8a>,r2	! 410b

00300a00 <_isoptimal>:
  300a00:	2f 86       	mov.l	r8,@-r15
  300a02:	2f e6       	mov.l	r14,@-r15
  300a04:	4f 22       	sts.l	pr,@-r15
  300a06:	7f b8       	add	#-72,r15
  300a08:	6e f3       	mov	r15,r14
  300a0a:	61 e3       	mov	r14,r1
  300a0c:	71 08       	add	#8,r1
  300a0e:	11 42       	mov.l	r4,@(8,r1)
  300a10:	61 e3       	mov	r14,r1
  300a12:	71 08       	add	#8,r1
  300a14:	51 12       	mov.l	@(8,r1),r1
  300a16:	61 12       	mov.l	@r1,r1
  300a18:	63 13       	mov	r1,r3
  300a1a:	73 ff       	add	#-1,r3
  300a1c:	62 e3       	mov	r14,r2
  300a1e:	72 34       	add	#52,r2
  300a20:	61 e3       	mov	r14,r1
  300a22:	71 08       	add	#8,r1
  300a24:	e6 00       	mov	#0,r6
  300a26:	65 33       	mov	r3,r5
  300a28:	54 12       	mov.l	@(8,r1),r4
  300a2a:	d1 36       	mov.l	300b04 <_isoptimal+0x104>,r1	! 30080c <_get>
  300a2c:	41 0b       	jsr	@r1
  300a2e:	00 09       	nop	
  300a30:	61 e3       	mov	r14,r1
  300a32:	71 08       	add	#8,r1
  300a34:	e2 00       	mov	#0,r2
  300a36:	11 2f       	mov.l	r2,@(60,r1)
  300a38:	a0 43       	bra	300ac2 <_isoptimal+0xc2>
  300a3a:	00 09       	nop	
  300a3c:	61 e3       	mov	r14,r1
  300a3e:	71 08       	add	#8,r1
  300a40:	51 12       	mov.l	@(8,r1),r1
  300a42:	61 12       	mov.l	@r1,r1
  300a44:	67 13       	mov	r1,r7
  300a46:	77 ff       	add	#-1,r7
  300a48:	68 e3       	mov	r14,r8
  300a4a:	78 24       	add	#36,r8
  300a4c:	63 e3       	mov	r14,r3
  300a4e:	73 08       	add	#8,r3
  300a50:	61 e3       	mov	r14,r1
  300a52:	71 08       	add	#8,r1
  300a54:	62 e3       	mov	r14,r2
  300a56:	56 3f       	mov.l	@(60,r3),r6
  300a58:	65 73       	mov	r7,r5
  300a5a:	54 12       	mov.l	@(8,r1),r4
  300a5c:	d1 29       	mov.l	300b04 <_isoptimal+0x104>,r1	! 30080c <_get>
  300a5e:	41 0b       	jsr	@r1
  300a60:	00 09       	nop	
  300a62:	61 e3       	mov	r14,r1
  300a64:	62 12       	mov.l	@r1,r2
  300a66:	28 22       	mov.l	r2,@r8
  300a68:	71 04       	add	#4,r1
  300a6a:	62 12       	mov.l	@r1,r2
  300a6c:	18 21       	mov.l	r2,@(4,r8)
  300a6e:	71 04       	add	#4,r1
  300a70:	62 12       	mov.l	@r1,r2
  300a72:	18 22       	mov.l	r2,@(8,r8)
  300a74:	71 04       	add	#4,r1
  300a76:	62 12       	mov.l	@r1,r2
  300a78:	18 23       	mov.l	r2,@(12,r8)
  300a7a:	71 04       	add	#4,r1
  300a7c:	62 e3       	mov	r14,r2
  300a7e:	72 34       	add	#52,r2
  300a80:	61 e3       	mov	r14,r1
  300a82:	71 24       	add	#36,r1
  300a84:	65 23       	mov	r2,r5
  300a86:	64 13       	mov	r1,r4
  300a88:	d1 1f       	mov.l	300b08 <_isoptimal+0x108>,r1	! 307e68 <_BigM_lt>
  300a8a:	41 0b       	jsr	@r1
  300a8c:	00 09       	nop	
  300a8e:	61 03       	mov	r0,r1
  300a90:	21 18       	tst	r1,r1
  300a92:	89 0f       	bt	300ab4 <_isoptimal+0xb4>
  300a94:	62 e3       	mov	r14,r2
  300a96:	72 34       	add	#52,r2
  300a98:	61 e3       	mov	r14,r1
  300a9a:	71 24       	add	#36,r1
  300a9c:	63 12       	mov.l	@r1,r3
  300a9e:	22 32       	mov.l	r3,@r2
  300aa0:	71 04       	add	#4,r1
  300aa2:	63 12       	mov.l	@r1,r3
  300aa4:	12 31       	mov.l	r3,@(4,r2)
  300aa6:	71 04       	add	#4,r1
  300aa8:	63 12       	mov.l	@r1,r3
  300aaa:	12 32       	mov.l	r3,@(8,r2)
  300aac:	71 04       	add	#4,r1
  300aae:	63 12       	mov.l	@r1,r3
  300ab0:	12 33       	mov.l	r3,@(12,r2)
  300ab2:	71 04       	add	#4,r1
  300ab4:	61 e3       	mov	r14,r1
  300ab6:	71 08       	add	#8,r1
  300ab8:	62 e3       	mov	r14,r2
  300aba:	72 08       	add	#8,r2
  300abc:	52 2f       	mov.l	@(60,r2),r2
  300abe:	72 01       	add	#1,r2
  300ac0:	11 2f       	mov.l	r2,@(60,r1)
  300ac2:	61 e3       	mov	r14,r1
  300ac4:	71 08       	add	#8,r1
  300ac6:	51 12       	mov.l	@(8,r1),r1
  300ac8:	51 11       	mov.l	@(4,r1),r1
  300aca:	62 e3       	mov	r14,r2
  300acc:	72 08       	add	#8,r2
  300ace:	52 2f       	mov.l	@(60,r2),r2
  300ad0:	32 13       	cmp/ge	r1,r2
  300ad2:	8b b3       	bf	300a3c <_isoptimal+0x3c>
  300ad4:	61 e3       	mov	r14,r1
  300ad6:	71 14       	add	#20,r1
  300ad8:	62 13       	mov	r1,r2
  300ada:	d1 0c       	mov.l	300b0c <_isoptimal+0x10c>,r1	! 3076fe <_BigM_zero>
  300adc:	41 0b       	jsr	@r1
  300ade:	00 09       	nop	
  300ae0:	62 e3       	mov	r14,r2
  300ae2:	72 14       	add	#20,r2
  300ae4:	61 e3       	mov	r14,r1
  300ae6:	71 34       	add	#52,r1
  300ae8:	65 23       	mov	r2,r5
  300aea:	64 13       	mov	r1,r4
  300aec:	d1 08       	mov.l	300b10 <_isoptimal+0x110>,r1	! 308028 <_BigM_ge>
  300aee:	41 0b       	jsr	@r1
  300af0:	00 09       	nop	
  300af2:	61 03       	mov	r0,r1
  300af4:	60 13       	mov	r1,r0
  300af6:	7e 48       	add	#72,r14
  300af8:	6f e3       	mov	r14,r15
  300afa:	4f 26       	lds.l	@r15+,pr
  300afc:	6e f6       	mov.l	@r15+,r14
  300afe:	68 f6       	mov.l	@r15+,r8
  300b00:	00 0b       	rts	
  300b02:	00 09       	nop	
  300b04:	00 30       	.word 0x0030
  300b06:	08 0c       	mov.b	@(r0,r0),r8
  300b08:	00 30       	.word 0x0030
  300b0a:	7e 68       	add	#104,r14
  300b0c:	00 30       	.word 0x0030
  300b0e:	76 fe       	add	#-2,r6
  300b10:	00 30       	.word 0x0030
  300b12:	80 28       	mov.b	r0,@(8,r2)

00300b14 <_pivot_column>:
  300b14:	2f 86       	mov.l	r8,@-r15
  300b16:	2f e6       	mov.l	r14,@-r15
  300b18:	4f 22       	sts.l	pr,@-r15
  300b1a:	7f c4       	add	#-60,r15
  300b1c:	6e f3       	mov	r15,r14
  300b1e:	61 e3       	mov	r14,r1
  300b20:	71 fc       	add	#-4,r1
  300b22:	11 45       	mov.l	r4,@(20,r1)
  300b24:	61 e3       	mov	r14,r1
  300b26:	71 fc       	add	#-4,r1
  300b28:	51 15       	mov.l	@(20,r1),r1
  300b2a:	61 12       	mov.l	@r1,r1
  300b2c:	63 13       	mov	r1,r3
  300b2e:	73 ff       	add	#-1,r3
  300b30:	62 e3       	mov	r14,r2
  300b32:	72 24       	add	#36,r2
  300b34:	61 e3       	mov	r14,r1
  300b36:	71 fc       	add	#-4,r1
  300b38:	e6 00       	mov	#0,r6
  300b3a:	65 33       	mov	r3,r5
  300b3c:	54 15       	mov.l	@(20,r1),r4
  300b3e:	d1 35       	mov.l	300c14 <_pivot_column+0x100>,r1	! 30080c <_get>
  300b40:	41 0b       	jsr	@r1
  300b42:	00 09       	nop	
  300b44:	61 e3       	mov	r14,r1
  300b46:	71 fc       	add	#-4,r1
  300b48:	e2 00       	mov	#0,r2
  300b4a:	11 2f       	mov.l	r2,@(60,r1)
  300b4c:	61 e3       	mov	r14,r1
  300b4e:	71 fc       	add	#-4,r1
  300b50:	e2 00       	mov	#0,r2
  300b52:	11 2e       	mov.l	r2,@(56,r1)
  300b54:	a0 49       	bra	300bea <_pivot_column+0xd6>
  300b56:	00 09       	nop	
  300b58:	61 e3       	mov	r14,r1
  300b5a:	71 fc       	add	#-4,r1
  300b5c:	51 15       	mov.l	@(20,r1),r1
  300b5e:	61 12       	mov.l	@r1,r1
  300b60:	67 13       	mov	r1,r7
  300b62:	77 ff       	add	#-1,r7
  300b64:	68 e3       	mov	r14,r8
  300b66:	78 14       	add	#20,r8
  300b68:	63 e3       	mov	r14,r3
  300b6a:	73 fc       	add	#-4,r3
  300b6c:	61 e3       	mov	r14,r1
  300b6e:	71 fc       	add	#-4,r1
  300b70:	62 e3       	mov	r14,r2
  300b72:	56 3e       	mov.l	@(56,r3),r6
  300b74:	65 73       	mov	r7,r5
  300b76:	54 15       	mov.l	@(20,r1),r4
  300b78:	d1 26       	mov.l	300c14 <_pivot_column+0x100>,r1	! 30080c <_get>
  300b7a:	41 0b       	jsr	@r1
  300b7c:	00 09       	nop	
  300b7e:	61 e3       	mov	r14,r1
  300b80:	62 12       	mov.l	@r1,r2
  300b82:	28 22       	mov.l	r2,@r8
  300b84:	71 04       	add	#4,r1
  300b86:	62 12       	mov.l	@r1,r2
  300b88:	18 21       	mov.l	r2,@(4,r8)
  300b8a:	71 04       	add	#4,r1
  300b8c:	62 12       	mov.l	@r1,r2
  300b8e:	18 22       	mov.l	r2,@(8,r8)
  300b90:	71 04       	add	#4,r1
  300b92:	62 12       	mov.l	@r1,r2
  300b94:	18 23       	mov.l	r2,@(12,r8)
  300b96:	71 04       	add	#4,r1
  300b98:	62 e3       	mov	r14,r2
  300b9a:	72 24       	add	#36,r2
  300b9c:	61 e3       	mov	r14,r1
  300b9e:	71 14       	add	#20,r1
  300ba0:	65 23       	mov	r2,r5
  300ba2:	64 13       	mov	r1,r4
  300ba4:	d1 1c       	mov.l	300c18 <_pivot_column+0x104>,r1	! 307e68 <_BigM_lt>
  300ba6:	41 0b       	jsr	@r1
  300ba8:	00 09       	nop	
  300baa:	61 03       	mov	r0,r1
  300bac:	21 18       	tst	r1,r1
  300bae:	89 15       	bt	300bdc <_pivot_column+0xc8>
  300bb0:	62 e3       	mov	r14,r2
  300bb2:	72 24       	add	#36,r2
  300bb4:	61 e3       	mov	r14,r1
  300bb6:	71 14       	add	#20,r1
  300bb8:	63 12       	mov.l	@r1,r3
  300bba:	22 32       	mov.l	r3,@r2
  300bbc:	71 04       	add	#4,r1
  300bbe:	63 12       	mov.l	@r1,r3
  300bc0:	12 31       	mov.l	r3,@(4,r2)
  300bc2:	71 04       	add	#4,r1
  300bc4:	63 12       	mov.l	@r1,r3
  300bc6:	12 32       	mov.l	r3,@(8,r2)
  300bc8:	71 04       	add	#4,r1
  300bca:	63 12       	mov.l	@r1,r3
  300bcc:	12 33       	mov.l	r3,@(12,r2)
  300bce:	71 04       	add	#4,r1
  300bd0:	61 e3       	mov	r14,r1
  300bd2:	71 fc       	add	#-4,r1
  300bd4:	62 e3       	mov	r14,r2
  300bd6:	72 fc       	add	#-4,r2
  300bd8:	52 2e       	mov.l	@(56,r2),r2
  300bda:	11 2f       	mov.l	r2,@(60,r1)
  300bdc:	61 e3       	mov	r14,r1
  300bde:	71 fc       	add	#-4,r1
  300be0:	62 e3       	mov	r14,r2
  300be2:	72 fc       	add	#-4,r2
  300be4:	52 2e       	mov.l	@(56,r2),r2
  300be6:	72 01       	add	#1,r2
  300be8:	11 2e       	mov.l	r2,@(56,r1)
  300bea:	61 e3       	mov	r14,r1
  300bec:	71 fc       	add	#-4,r1
  300bee:	51 15       	mov.l	@(20,r1),r1
  300bf0:	51 11       	mov.l	@(4,r1),r1
  300bf2:	71 ff       	add	#-1,r1
  300bf4:	62 e3       	mov	r14,r2
  300bf6:	72 fc       	add	#-4,r2
  300bf8:	52 2e       	mov.l	@(56,r2),r2
  300bfa:	32 13       	cmp/ge	r1,r2
  300bfc:	8b ac       	bf	300b58 <_pivot_column+0x44>
  300bfe:	61 e3       	mov	r14,r1
  300c00:	71 fc       	add	#-4,r1
  300c02:	51 1f       	mov.l	@(60,r1),r1
  300c04:	60 13       	mov	r1,r0
  300c06:	7e 3c       	add	#60,r14
  300c08:	6f e3       	mov	r14,r15
  300c0a:	4f 26       	lds.l	@r15+,pr
  300c0c:	6e f6       	mov.l	@r15+,r14
  300c0e:	68 f6       	mov.l	@r15+,r8
  300c10:	00 0b       	rts	
  300c12:	00 09       	nop	
  300c14:	00 30       	.word 0x0030
  300c16:	08 0c       	mov.b	@(r0,r0),r8
  300c18:	00 30       	.word 0x0030
  300c1a:	7e 68       	add	#104,r14

00300c1c <_pivot_row>:
  300c1c:	2f 86       	mov.l	r8,@-r15
  300c1e:	2f 96       	mov.l	r9,@-r15
  300c20:	2f e6       	mov.l	r14,@-r15
  300c22:	4f 22       	sts.l	pr,@-r15
  300c24:	7f b8       	add	#-72,r15
  300c26:	7f b8       	add	#-72,r15
  300c28:	6e f3       	mov	r15,r14
  300c2a:	61 e3       	mov	r14,r1
  300c2c:	71 10       	add	#16,r1
  300c2e:	11 45       	mov.l	r4,@(20,r1)
  300c30:	61 e3       	mov	r14,r1
  300c32:	71 10       	add	#16,r1
  300c34:	11 54       	mov.l	r5,@(16,r1)
  300c36:	d1 79       	mov.l	300e1c <_pivot_row+0x200>,r1	! 308344 <_fraction_zero>
  300c38:	41 0b       	jsr	@r1
  300c3a:	00 09       	nop	
  300c3c:	68 03       	mov	r0,r8
  300c3e:	69 13       	mov	r1,r9
  300c40:	e5 01       	mov	#1,r5
  300c42:	e4 01       	mov	#1,r4
  300c44:	d1 76       	mov.l	300e20 <_pivot_row+0x204>,r1	! 3081fc <_new_fraction>
  300c46:	41 0b       	jsr	@r1
  300c48:	00 09       	nop	
  300c4a:	66 03       	mov	r0,r6
  300c4c:	67 13       	mov	r1,r7
  300c4e:	61 e3       	mov	r14,r1
  300c50:	71 58       	add	#88,r1
  300c52:	62 13       	mov	r1,r2
  300c54:	64 83       	mov	r8,r4
  300c56:	65 93       	mov	r9,r5
  300c58:	d1 72       	mov.l	300e24 <_pivot_row+0x208>,r1	! 3076a0 <_new_BigM>
  300c5a:	41 0b       	jsr	@r1
  300c5c:	00 09       	nop	
  300c5e:	62 e3       	mov	r14,r2
  300c60:	72 48       	add	#72,r2
  300c62:	61 e3       	mov	r14,r1
  300c64:	71 58       	add	#88,r1
  300c66:	63 12       	mov.l	@r1,r3
  300c68:	22 32       	mov.l	r3,@r2
  300c6a:	71 04       	add	#4,r1
  300c6c:	63 12       	mov.l	@r1,r3
  300c6e:	12 31       	mov.l	r3,@(4,r2)
  300c70:	71 04       	add	#4,r1
  300c72:	63 12       	mov.l	@r1,r3
  300c74:	12 32       	mov.l	r3,@(8,r2)
  300c76:	71 04       	add	#4,r1
  300c78:	63 12       	mov.l	@r1,r3
  300c7a:	12 33       	mov.l	r3,@(12,r2)
  300c7c:	71 04       	add	#4,r1
  300c7e:	61 e3       	mov	r14,r1
  300c80:	71 50       	add	#80,r1
  300c82:	e2 00       	mov	#0,r2
  300c84:	11 2f       	mov.l	r2,@(60,r1)
  300c86:	61 e3       	mov	r14,r1
  300c88:	71 28       	add	#40,r1
  300c8a:	62 13       	mov	r1,r2
  300c8c:	d1 66       	mov.l	300e28 <_pivot_row+0x20c>,r1	! 3076fe <_BigM_zero>
  300c8e:	41 0b       	jsr	@r1
  300c90:	00 09       	nop	
  300c92:	61 e3       	mov	r14,r1
  300c94:	71 50       	add	#80,r1
  300c96:	e2 00       	mov	#0,r2
  300c98:	11 2e       	mov.l	r2,@(56,r1)
  300c9a:	a0 a6       	bra	300dea <_pivot_row+0x1ce>
  300c9c:	00 09       	nop	
  300c9e:	61 e3       	mov	r14,r1
  300ca0:	71 10       	add	#16,r1
  300ca2:	51 14       	mov.l	@(16,r1),r1
  300ca4:	67 12       	mov.l	@r1,r7
  300ca6:	62 e3       	mov	r14,r2
  300ca8:	72 38       	add	#56,r2
  300caa:	63 e3       	mov	r14,r3
  300cac:	73 50       	add	#80,r3
  300cae:	61 e3       	mov	r14,r1
  300cb0:	71 10       	add	#16,r1
  300cb2:	66 73       	mov	r7,r6
  300cb4:	55 3e       	mov.l	@(56,r3),r5
  300cb6:	54 15       	mov.l	@(20,r1),r4
  300cb8:	d1 5c       	mov.l	300e2c <_pivot_row+0x210>,r1	! 30080c <_get>
  300cba:	41 0b       	jsr	@r1
  300cbc:	00 09       	nop	
  300cbe:	61 e3       	mov	r14,r1
  300cc0:	71 68       	add	#104,r1
  300cc2:	62 13       	mov	r1,r2
  300cc4:	d1 58       	mov.l	300e28 <_pivot_row+0x20c>,r1	! 3076fe <_BigM_zero>
  300cc6:	41 0b       	jsr	@r1
  300cc8:	00 09       	nop	
  300cca:	62 e3       	mov	r14,r2
  300ccc:	72 38       	add	#56,r2
  300cce:	61 e3       	mov	r14,r1
  300cd0:	71 68       	add	#104,r1
  300cd2:	63 12       	mov.l	@r1,r3
  300cd4:	2f 32       	mov.l	r3,@r15
  300cd6:	71 04       	add	#4,r1
  300cd8:	63 12       	mov.l	@r1,r3
  300cda:	1f 31       	mov.l	r3,@(4,r15)
  300cdc:	71 04       	add	#4,r1
  300cde:	63 12       	mov.l	@r1,r3
  300ce0:	1f 32       	mov.l	r3,@(8,r15)
  300ce2:	71 04       	add	#4,r1
  300ce4:	63 12       	mov.l	@r1,r3
  300ce6:	1f 33       	mov.l	r3,@(12,r15)
  300ce8:	71 04       	add	#4,r1
  300cea:	64 22       	mov.l	@r2,r4
  300cec:	55 21       	mov.l	@(4,r2),r5
  300cee:	56 22       	mov.l	@(8,r2),r6
  300cf0:	57 23       	mov.l	@(12,r2),r7
  300cf2:	d1 4f       	mov.l	300e30 <_pivot_row+0x214>,r1	! 307da8 <_BigM_eq>
  300cf4:	41 0b       	jsr	@r1
  300cf6:	00 09       	nop	
  300cf8:	61 03       	mov	r0,r1
  300cfa:	21 18       	tst	r1,r1
  300cfc:	89 01       	bt	300d02 <_pivot_row+0xe6>
  300cfe:	a0 6c       	bra	300dda <_pivot_row+0x1be>
  300d00:	00 09       	nop	
  300d02:	61 e3       	mov	r14,r1
  300d04:	71 10       	add	#16,r1
  300d06:	51 15       	mov.l	@(20,r1),r1
  300d08:	51 11       	mov.l	@(4,r1),r1
  300d0a:	67 13       	mov	r1,r7
  300d0c:	77 ff       	add	#-1,r7
  300d0e:	62 e3       	mov	r14,r2
  300d10:	72 78       	add	#120,r2
  300d12:	63 e3       	mov	r14,r3
  300d14:	73 50       	add	#80,r3
  300d16:	61 e3       	mov	r14,r1
  300d18:	71 10       	add	#16,r1
  300d1a:	66 73       	mov	r7,r6
  300d1c:	55 3e       	mov.l	@(56,r3),r5
  300d1e:	54 15       	mov.l	@(20,r1),r4
  300d20:	d1 42       	mov.l	300e2c <_pivot_row+0x210>,r1	! 30080c <_get>
  300d22:	41 0b       	jsr	@r1
  300d24:	00 09       	nop	
  300d26:	68 e3       	mov	r14,r8
  300d28:	78 58       	add	#88,r8
  300d2a:	63 e3       	mov	r14,r3
  300d2c:	73 78       	add	#120,r3
  300d2e:	61 e3       	mov	r14,r1
  300d30:	71 38       	add	#56,r1
  300d32:	62 12       	mov.l	@r1,r2
  300d34:	2f 22       	mov.l	r2,@r15
  300d36:	71 04       	add	#4,r1
  300d38:	62 12       	mov.l	@r1,r2
  300d3a:	1f 21       	mov.l	r2,@(4,r15)
  300d3c:	71 04       	add	#4,r1
  300d3e:	62 12       	mov.l	@r1,r2
  300d40:	1f 22       	mov.l	r2,@(8,r15)
  300d42:	71 04       	add	#4,r1
  300d44:	62 12       	mov.l	@r1,r2
  300d46:	1f 23       	mov.l	r2,@(12,r15)
  300d48:	71 04       	add	#4,r1
  300d4a:	61 e3       	mov	r14,r1
  300d4c:	71 10       	add	#16,r1
  300d4e:	62 13       	mov	r1,r2
  300d50:	64 32       	mov.l	@r3,r4
  300d52:	55 31       	mov.l	@(4,r3),r5
  300d54:	56 32       	mov.l	@(8,r3),r6
  300d56:	57 33       	mov.l	@(12,r3),r7
  300d58:	d1 36       	mov.l	300e34 <_pivot_row+0x218>,r1	! 307c18 <_div_BigM>
  300d5a:	41 0b       	jsr	@r1
  300d5c:	00 09       	nop	
  300d5e:	61 e3       	mov	r14,r1
  300d60:	71 10       	add	#16,r1
  300d62:	62 12       	mov.l	@r1,r2
  300d64:	28 22       	mov.l	r2,@r8
  300d66:	71 04       	add	#4,r1
  300d68:	62 12       	mov.l	@r1,r2
  300d6a:	18 21       	mov.l	r2,@(4,r8)
  300d6c:	71 04       	add	#4,r1
  300d6e:	62 12       	mov.l	@r1,r2
  300d70:	18 22       	mov.l	r2,@(8,r8)
  300d72:	71 04       	add	#4,r1
  300d74:	62 12       	mov.l	@r1,r2
  300d76:	18 23       	mov.l	r2,@(12,r8)
  300d78:	71 04       	add	#4,r1
  300d7a:	62 e3       	mov	r14,r2
  300d7c:	72 28       	add	#40,r2
  300d7e:	61 e3       	mov	r14,r1
  300d80:	71 58       	add	#88,r1
  300d82:	65 23       	mov	r2,r5
  300d84:	64 13       	mov	r1,r4
  300d86:	d1 2c       	mov.l	300e38 <_pivot_row+0x21c>,r1	! 308028 <_BigM_ge>
  300d88:	41 0b       	jsr	@r1
  300d8a:	00 09       	nop	
  300d8c:	61 03       	mov	r0,r1
  300d8e:	21 18       	tst	r1,r1
  300d90:	89 24       	bt	300ddc <_pivot_row+0x1c0>
  300d92:	62 e3       	mov	r14,r2
  300d94:	72 48       	add	#72,r2
  300d96:	61 e3       	mov	r14,r1
  300d98:	71 58       	add	#88,r1
  300d9a:	65 23       	mov	r2,r5
  300d9c:	64 13       	mov	r1,r4
  300d9e:	d1 27       	mov.l	300e3c <_pivot_row+0x220>,r1	! 307e68 <_BigM_lt>
  300da0:	41 0b       	jsr	@r1
  300da2:	00 09       	nop	
  300da4:	61 03       	mov	r0,r1
  300da6:	21 18       	tst	r1,r1
  300da8:	89 18       	bt	300ddc <_pivot_row+0x1c0>
  300daa:	62 e3       	mov	r14,r2
  300dac:	72 48       	add	#72,r2
  300dae:	61 e3       	mov	r14,r1
  300db0:	71 58       	add	#88,r1
  300db2:	63 12       	mov.l	@r1,r3
  300db4:	22 32       	mov.l	r3,@r2
  300db6:	71 04       	add	#4,r1
  300db8:	63 12       	mov.l	@r1,r3
  300dba:	12 31       	mov.l	r3,@(4,r2)
  300dbc:	71 04       	add	#4,r1
  300dbe:	63 12       	mov.l	@r1,r3
  300dc0:	12 32       	mov.l	r3,@(8,r2)
  300dc2:	71 04       	add	#4,r1
  300dc4:	63 12       	mov.l	@r1,r3
  300dc6:	12 33       	mov.l	r3,@(12,r2)
  300dc8:	71 04       	add	#4,r1
  300dca:	61 e3       	mov	r14,r1
  300dcc:	71 50       	add	#80,r1
  300dce:	62 e3       	mov	r14,r2
  300dd0:	72 50       	add	#80,r2
  300dd2:	52 2e       	mov.l	@(56,r2),r2
  300dd4:	11 2f       	mov.l	r2,@(60,r1)
  300dd6:	a0 01       	bra	300ddc <_pivot_row+0x1c0>
  300dd8:	00 09       	nop	
  300dda:	00 09       	nop	
  300ddc:	61 e3       	mov	r14,r1
  300dde:	71 50       	add	#80,r1
  300de0:	62 e3       	mov	r14,r2
  300de2:	72 50       	add	#80,r2
  300de4:	52 2e       	mov.l	@(56,r2),r2
  300de6:	72 01       	add	#1,r2
  300de8:	11 2e       	mov.l	r2,@(56,r1)
  300dea:	61 e3       	mov	r14,r1
  300dec:	71 10       	add	#16,r1
  300dee:	51 15       	mov.l	@(20,r1),r1
  300df0:	61 12       	mov.l	@r1,r1
  300df2:	71 ff       	add	#-1,r1
  300df4:	62 e3       	mov	r14,r2
  300df6:	72 50       	add	#80,r2
  300df8:	52 2e       	mov.l	@(56,r2),r2
  300dfa:	32 13       	cmp/ge	r1,r2
  300dfc:	89 01       	bt	300e02 <_pivot_row+0x1e6>
  300dfe:	af 4e       	bra	300c9e <_pivot_row+0x82>
  300e00:	00 09       	nop	
  300e02:	61 e3       	mov	r14,r1
  300e04:	71 50       	add	#80,r1
  300e06:	51 1f       	mov.l	@(60,r1),r1
  300e08:	60 13       	mov	r1,r0
  300e0a:	7e 48       	add	#72,r14
  300e0c:	7e 48       	add	#72,r14
  300e0e:	6f e3       	mov	r14,r15
  300e10:	4f 26       	lds.l	@r15+,pr
  300e12:	6e f6       	mov.l	@r15+,r14
  300e14:	69 f6       	mov.l	@r15+,r9
  300e16:	68 f6       	mov.l	@r15+,r8
  300e18:	00 0b       	rts	
  300e1a:	00 09       	nop	
  300e1c:	00 30       	.word 0x0030
  300e1e:	83 44       	.word 0x8344
  300e20:	00 30       	.word 0x0030
  300e22:	81 fc       	mov.w	r0,@(24,r15)
  300e24:	00 30       	.word 0x0030
  300e26:	76 a0       	add	#-96,r6
  300e28:	00 30       	.word 0x0030
  300e2a:	76 fe       	add	#-2,r6
  300e2c:	00 30       	.word 0x0030
  300e2e:	08 0c       	mov.b	@(r0,r0),r8
  300e30:	00 30       	.word 0x0030
  300e32:	7d a8       	add	#-88,r13
  300e34:	00 30       	.word 0x0030
  300e36:	7c 18       	add	#24,r12
  300e38:	00 30       	.word 0x0030
  300e3a:	80 28       	mov.b	r0,@(8,r2)
  300e3c:	00 30       	.word 0x0030
  300e3e:	7e 68       	add	#104,r14

00300e40 <_simplex>:
  300e40:	2f 86       	mov.l	r8,@-r15
  300e42:	2f 96       	mov.l	r9,@-r15
  300e44:	2f a6       	mov.l	r10,@-r15
  300e46:	2f b6       	mov.l	r11,@-r15
  300e48:	2f e6       	mov.l	r14,@-r15
  300e4a:	4f 22       	sts.l	pr,@-r15
  300e4c:	7f 84       	add	#-124,r15
  300e4e:	7f 84       	add	#-124,r15
  300e50:	6e f3       	mov	r15,r14
  300e52:	68 23       	mov	r2,r8
  300e54:	61 e3       	mov	r14,r1
  300e56:	71 14       	add	#20,r1
  300e58:	21 42       	mov.l	r4,@r1
  300e5a:	11 51       	mov.l	r5,@(4,r1)
  300e5c:	11 62       	mov.l	r6,@(8,r1)
  300e5e:	61 e3       	mov	r14,r1
  300e60:	71 f8       	add	#-8,r1
  300e62:	11 76       	mov.l	r7,@(24,r1)
  300e64:	a2 1e       	bra	3012a4 <_simplex+0x464>
  300e66:	00 09       	nop	
  300e68:	61 e3       	mov	r14,r1
  300e6a:	71 14       	add	#20,r1
  300e6c:	64 13       	mov	r1,r4
  300e6e:	d1 15       	mov.l	300ec4 <_simplex+0x84>,r1	! 300b14 <_pivot_column>
  300e70:	41 0b       	jsr	@r1
  300e72:	00 09       	nop	
  300e74:	61 03       	mov	r0,r1
  300e76:	62 e3       	mov	r14,r2
  300e78:	72 38       	add	#56,r2
  300e7a:	12 1e       	mov.l	r1,@(56,r2)
  300e7c:	99 20       	mov.w	300ec0 <_simplex+0x80>,r9	! b8
  300e7e:	39 ec       	add	r14,r9
  300e80:	62 e3       	mov	r14,r2
  300e82:	72 70       	add	#112,r2
  300e84:	61 e3       	mov	r14,r1
  300e86:	71 14       	add	#20,r1
  300e88:	65 23       	mov	r2,r5
  300e8a:	64 13       	mov	r1,r4
  300e8c:	d1 0e       	mov.l	300ec8 <_simplex+0x88>,r1	! 300c1c <_pivot_row>
  300e8e:	41 0b       	jsr	@r1
  300e90:	00 09       	nop	
  300e92:	61 03       	mov	r0,r1
  300e94:	19 1c       	mov.l	r1,@(48,r9)
  300e96:	61 e3       	mov	r14,r1
  300e98:	71 38       	add	#56,r1
  300e9a:	57 1e       	mov.l	@(56,r1),r7
  300e9c:	62 e3       	mov	r14,r2
  300e9e:	72 60       	add	#96,r2
  300ea0:	91 0e       	mov.w	300ec0 <_simplex+0x80>,r1	! b8
  300ea2:	31 ec       	add	r14,r1
  300ea4:	63 e3       	mov	r14,r3
  300ea6:	73 14       	add	#20,r3
  300ea8:	66 73       	mov	r7,r6
  300eaa:	55 1c       	mov.l	@(48,r1),r5
  300eac:	64 33       	mov	r3,r4
  300eae:	d1 07       	mov.l	300ecc <_simplex+0x8c>,r1	! 30080c <_get>
  300eb0:	41 0b       	jsr	@r1
  300eb2:	00 09       	nop	
  300eb4:	91 04       	mov.w	300ec0 <_simplex+0x80>,r1	! b8
  300eb6:	31 ec       	add	r14,r1
  300eb8:	e2 00       	mov	#0,r2
  300eba:	11 2f       	mov.l	r2,@(60,r1)
  300ebc:	a0 50       	bra	300f60 <_simplex+0x120>
  300ebe:	00 09       	nop	
  300ec0:	00 b8       	.word 0x00b8
  300ec2:	00 09       	nop	
  300ec4:	00 30       	.word 0x0030
  300ec6:	0b 14       	mov.b	r1,@(r0,r11)
  300ec8:	00 30       	.word 0x0030
  300eca:	0c 1c       	mov.b	@(r0,r1),r12
  300ecc:	00 30       	.word 0x0030
  300ece:	08 0c       	mov.b	@(r0,r0),r8
  300ed0:	62 e3       	mov	r14,r2
  300ed2:	72 50       	add	#80,r2
  300ed4:	93 c5       	mov.w	301062 <_simplex+0x222>,r3	! b8
  300ed6:	33 ec       	add	r14,r3
  300ed8:	91 c3       	mov.w	301062 <_simplex+0x222>,r1	! b8
  300eda:	31 ec       	add	r14,r1
  300edc:	67 e3       	mov	r14,r7
  300ede:	77 14       	add	#20,r7
  300ee0:	56 3f       	mov.l	@(60,r3),r6
  300ee2:	55 1c       	mov.l	@(48,r1),r5
  300ee4:	64 73       	mov	r7,r4
  300ee6:	d1 61       	mov.l	30106c <_simplex+0x22c>,r1	! 30080c <_get>
  300ee8:	41 0b       	jsr	@r1
  300eea:	00 09       	nop	
  300eec:	67 e3       	mov	r14,r7
  300eee:	77 74       	add	#116,r7
  300ef0:	63 e3       	mov	r14,r3
  300ef2:	73 50       	add	#80,r3
  300ef4:	61 e3       	mov	r14,r1
  300ef6:	71 60       	add	#96,r1
  300ef8:	62 12       	mov.l	@r1,r2
  300efa:	2f 22       	mov.l	r2,@r15
  300efc:	71 04       	add	#4,r1
  300efe:	62 12       	mov.l	@r1,r2
  300f00:	1f 21       	mov.l	r2,@(4,r15)
  300f02:	71 04       	add	#4,r1
  300f04:	62 12       	mov.l	@r1,r2
  300f06:	1f 22       	mov.l	r2,@(8,r15)
  300f08:	71 04       	add	#4,r1
  300f0a:	62 12       	mov.l	@r1,r2
  300f0c:	1f 23       	mov.l	r2,@(12,r15)
  300f0e:	71 04       	add	#4,r1
  300f10:	62 73       	mov	r7,r2
  300f12:	64 32       	mov.l	@r3,r4
  300f14:	55 31       	mov.l	@(4,r3),r5
  300f16:	56 32       	mov.l	@(8,r3),r6
  300f18:	57 33       	mov.l	@(12,r3),r7
  300f1a:	d1 55       	mov.l	301070 <_simplex+0x230>,r1	! 307c18 <_div_BigM>
  300f1c:	41 0b       	jsr	@r1
  300f1e:	00 09       	nop	
  300f20:	62 e3       	mov	r14,r2
  300f22:	72 74       	add	#116,r2
  300f24:	96 9d       	mov.w	301062 <_simplex+0x222>,r6	! b8
  300f26:	36 ec       	add	r14,r6
  300f28:	93 9b       	mov.w	301062 <_simplex+0x222>,r3	! b8
  300f2a:	33 ec       	add	r14,r3
  300f2c:	64 e3       	mov	r14,r4
  300f2e:	74 14       	add	#20,r4
  300f30:	61 23       	mov	r2,r1
  300f32:	71 04       	add	#4,r1
  300f34:	67 12       	mov.l	@r1,r7
  300f36:	2f 72       	mov.l	r7,@r15
  300f38:	71 04       	add	#4,r1
  300f3a:	67 12       	mov.l	@r1,r7
  300f3c:	1f 71       	mov.l	r7,@(4,r15)
  300f3e:	71 04       	add	#4,r1
  300f40:	67 12       	mov.l	@r1,r7
  300f42:	1f 72       	mov.l	r7,@(8,r15)
  300f44:	71 04       	add	#4,r1
  300f46:	67 22       	mov.l	@r2,r7
  300f48:	56 6f       	mov.l	@(60,r6),r6
  300f4a:	55 3c       	mov.l	@(48,r3),r5
  300f4c:	d1 49       	mov.l	301074 <_simplex+0x234>,r1	! 300868 <_set>
  300f4e:	41 0b       	jsr	@r1
  300f50:	00 09       	nop	
  300f52:	91 86       	mov.w	301062 <_simplex+0x222>,r1	! b8
  300f54:	31 ec       	add	r14,r1
  300f56:	92 84       	mov.w	301062 <_simplex+0x222>,r2	! b8
  300f58:	32 ec       	add	r14,r2
  300f5a:	52 2f       	mov.l	@(60,r2),r2
  300f5c:	72 01       	add	#1,r2
  300f5e:	11 2f       	mov.l	r2,@(60,r1)
  300f60:	61 e3       	mov	r14,r1
  300f62:	71 14       	add	#20,r1
  300f64:	51 11       	mov.l	@(4,r1),r1
  300f66:	92 7c       	mov.w	301062 <_simplex+0x222>,r2	! b8
  300f68:	32 ec       	add	r14,r2
  300f6a:	52 2f       	mov.l	@(60,r2),r2
  300f6c:	32 13       	cmp/ge	r1,r2
  300f6e:	8b af       	bf	300ed0 <_simplex+0x90>
  300f70:	61 e3       	mov	r14,r1
  300f72:	71 38       	add	#56,r1
  300f74:	57 1e       	mov.l	@(56,r1),r7
  300f76:	92 75       	mov.w	301064 <_simplex+0x224>,r2	! 84
  300f78:	32 ec       	add	r14,r2
  300f7a:	91 72       	mov.w	301062 <_simplex+0x222>,r1	! b8
  300f7c:	31 ec       	add	r14,r1
  300f7e:	63 e3       	mov	r14,r3
  300f80:	73 14       	add	#20,r3
  300f82:	66 73       	mov	r7,r6
  300f84:	55 1c       	mov.l	@(48,r1),r5
  300f86:	64 33       	mov	r3,r4
  300f88:	d1 38       	mov.l	30106c <_simplex+0x22c>,r1	! 30080c <_get>
  300f8a:	41 0b       	jsr	@r1
  300f8c:	00 09       	nop	
  300f8e:	e5 01       	mov	#1,r5
  300f90:	e4 01       	mov	#1,r4
  300f92:	d1 39       	mov.l	301078 <_simplex+0x238>,r1	! 3081fc <_new_fraction>
  300f94:	41 0b       	jsr	@r1
  300f96:	00 09       	nop	
  300f98:	6a 03       	mov	r0,r10
  300f9a:	6b 13       	mov	r1,r11
  300f9c:	d1 37       	mov.l	30107c <_simplex+0x23c>,r1	! 308344 <_fraction_zero>
  300f9e:	41 0b       	jsr	@r1
  300fa0:	00 09       	nop	
  300fa2:	66 03       	mov	r0,r6
  300fa4:	67 13       	mov	r1,r7
  300fa6:	91 5e       	mov.w	301066 <_simplex+0x226>,r1	! 94 <_gint_exch_size>
  300fa8:	31 ec       	add	r14,r1
  300faa:	62 13       	mov	r1,r2
  300fac:	64 a3       	mov	r10,r4
  300fae:	65 b3       	mov	r11,r5
  300fb0:	d1 33       	mov.l	301080 <_simplex+0x240>,r1	! 3076a0 <_new_BigM>
  300fb2:	41 0b       	jsr	@r1
  300fb4:	00 09       	nop	
  300fb6:	92 55       	mov.w	301064 <_simplex+0x224>,r2	! 84
  300fb8:	32 ec       	add	r14,r2
  300fba:	91 54       	mov.w	301066 <_simplex+0x226>,r1	! 94 <_gint_exch_size>
  300fbc:	31 ec       	add	r14,r1
  300fbe:	63 12       	mov.l	@r1,r3
  300fc0:	2f 32       	mov.l	r3,@r15
  300fc2:	71 04       	add	#4,r1
  300fc4:	63 12       	mov.l	@r1,r3
  300fc6:	1f 31       	mov.l	r3,@(4,r15)
  300fc8:	71 04       	add	#4,r1
  300fca:	63 12       	mov.l	@r1,r3
  300fcc:	1f 32       	mov.l	r3,@(8,r15)
  300fce:	71 04       	add	#4,r1
  300fd0:	63 12       	mov.l	@r1,r3
  300fd2:	1f 33       	mov.l	r3,@(12,r15)
  300fd4:	71 04       	add	#4,r1
  300fd6:	64 22       	mov.l	@r2,r4
  300fd8:	55 21       	mov.l	@(4,r2),r5
  300fda:	56 22       	mov.l	@(8,r2),r6
  300fdc:	57 23       	mov.l	@(12,r2),r7
  300fde:	d1 29       	mov.l	301084 <_simplex+0x244>,r1	! 307da8 <_BigM_eq>
  300fe0:	41 0b       	jsr	@r1
  300fe2:	00 09       	nop	
  300fe4:	61 03       	mov	r0,r1
  300fe6:	21 18       	tst	r1,r1
  300fe8:	8b 09       	bf	300ffe <_simplex+0x1be>
  300fea:	d3 27       	mov.l	301088 <_simplex+0x248>,r3	! 30b400
  300fec:	d2 27       	mov.l	30108c <_simplex+0x24c>,r2	! 30b4b8 <___PRETTY_FUNCTION__.0>
  300fee:	d1 28       	mov.l	301090 <_simplex+0x250>,r1	! 30b454
  300ff0:	67 33       	mov	r3,r7
  300ff2:	66 23       	mov	r2,r6
  300ff4:	e5 50       	mov	#80,r5
  300ff6:	64 13       	mov	r1,r4
  300ff8:	d1 26       	mov.l	301094 <_simplex+0x254>,r1	! 308948 <___assert_fail>
  300ffa:	41 0b       	jsr	@r1
  300ffc:	00 09       	nop	
  300ffe:	61 e3       	mov	r14,r1
  301000:	71 38       	add	#56,r1
  301002:	51 1e       	mov.l	@(56,r1),r1
  301004:	41 08       	shll2	r1
  301006:	93 2f       	mov.w	301068 <_simplex+0x228>,r3	! fc
  301008:	33 ec       	add	r14,r3
  30100a:	52 35       	mov.l	@(20,r3),r2
  30100c:	31 2c       	add	r2,r1
  30100e:	61 12       	mov.l	@r1,r1
  301010:	99 27       	mov.w	301062 <_simplex+0x222>,r9	! b8
  301012:	39 ec       	add	r14,r9
  301014:	64 13       	mov	r1,r4
  301016:	d1 20       	mov.l	301098 <_simplex+0x258>,r1	! 308fcc <_strdup>
  301018:	41 0b       	jsr	@r1
  30101a:	00 09       	nop	
  30101c:	61 03       	mov	r0,r1
  30101e:	19 1b       	mov.l	r1,@(44,r9)
  301020:	91 1f       	mov.w	301062 <_simplex+0x222>,r1	! b8
  301022:	31 ec       	add	r14,r1
  301024:	51 1b       	mov.l	@(44,r1),r1
  301026:	21 18       	tst	r1,r1
  301028:	8b 03       	bf	301032 <_simplex+0x1f2>
  30102a:	e4 00       	mov	#0,r4
  30102c:	d1 1b       	mov.l	30109c <_simplex+0x25c>,r1	! 308f20 <_exit>
  30102e:	41 0b       	jsr	@r1
  301030:	00 09       	nop	
  301032:	91 16       	mov.w	301062 <_simplex+0x222>,r1	! b8
  301034:	31 ec       	add	r14,r1
  301036:	51 1c       	mov.l	@(48,r1),r1
  301038:	41 08       	shll2	r1
  30103a:	62 e3       	mov	r14,r2
  30103c:	72 f8       	add	#-8,r2
  30103e:	52 26       	mov.l	@(24,r2),r2
  301040:	31 2c       	add	r2,r1
  301042:	92 0e       	mov.w	301062 <_simplex+0x222>,r2	! b8
  301044:	32 ec       	add	r14,r2
  301046:	52 2b       	mov.l	@(44,r2),r2
  301048:	21 22       	mov.l	r2,@r1
  30104a:	91 0a       	mov.w	301062 <_simplex+0x222>,r1	! b8
  30104c:	31 ec       	add	r14,r1
  30104e:	54 1b       	mov.l	@(44,r1),r4
  301050:	d1 13       	mov.l	3010a0 <_simplex+0x260>,r1	! 309244 <_free>
  301052:	41 0b       	jsr	@r1
  301054:	00 09       	nop	
  301056:	91 04       	mov.w	301062 <_simplex+0x222>,r1	! b8
  301058:	31 ec       	add	r14,r1
  30105a:	e2 00       	mov	#0,r2
  30105c:	11 2e       	mov.l	r2,@(56,r1)
  30105e:	a1 17       	bra	301290 <_simplex+0x450>
  301060:	00 09       	nop	
  301062:	00 b8       	.word 0x00b8
  301064:	00 84       	mov.b	r8,@(r0,r0)
  301066:	00 94       	mov.b	r9,@(r0,r0)
  301068:	00 fc       	mov.b	@(r0,r15),r0
  30106a:	00 09       	nop	
  30106c:	00 30       	.word 0x0030
  30106e:	08 0c       	mov.b	@(r0,r0),r8
  301070:	00 30       	.word 0x0030
  301072:	7c 18       	add	#24,r12
  301074:	00 30       	.word 0x0030
  301076:	08 68       	.word 0x0868
  301078:	00 30       	.word 0x0030
  30107a:	81 fc       	mov.w	r0,@(24,r15)
  30107c:	00 30       	.word 0x0030
  30107e:	83 44       	.word 0x8344
  301080:	00 30       	.word 0x0030
  301082:	76 a0       	add	#-96,r6
  301084:	00 30       	.word 0x0030
  301086:	7d a8       	add	#-88,r13
  301088:	00 30       	.word 0x0030
  30108a:	b4 00       	bsr	30188e <_new_tableux+0x2a6>
  30108c:	00 30       	.word 0x0030
  30108e:	b4 b8       	bsr	301a02 <_free_tableux+0xa6>
  301090:	00 30       	.word 0x0030
  301092:	b4 54       	bsr	30193e <_new_tableux+0x356>
  301094:	00 30       	.word 0x0030
  301096:	89 48       	bt	30112a <_simplex+0x2ea>
  301098:	00 30       	.word 0x0030
  30109a:	8f cc       	bf.s	301036 <_simplex+0x1f6>
  30109c:	00 30       	.word 0x0030
  30109e:	8f 20       	bf.s	3010e2 <_simplex+0x2a2>
  3010a0:	00 30       	.word 0x0030
  3010a2:	92 44       	mov.w	30112e <_simplex+0x2ee>,r2	! 2f22
  3010a4:	92 1d       	mov.w	3010e2 <_simplex+0x2a2>,r2	! b8
  3010a6:	32 ec       	add	r14,r2
  3010a8:	91 1b       	mov.w	3010e2 <_simplex+0x2a2>,r1	! b8
  3010aa:	31 ec       	add	r14,r1
  3010ac:	52 2e       	mov.l	@(56,r2),r2
  3010ae:	51 1c       	mov.l	@(48,r1),r1
  3010b0:	32 10       	cmp/eq	r1,r2
  3010b2:	8b 01       	bf	3010b8 <_simplex+0x278>
  3010b4:	a0 e4       	bra	301280 <_simplex+0x440>
  3010b6:	00 09       	nop	
  3010b8:	61 e3       	mov	r14,r1
  3010ba:	71 38       	add	#56,r1
  3010bc:	57 1e       	mov.l	@(56,r1),r7
  3010be:	62 e3       	mov	r14,r2
  3010c0:	72 40       	add	#64,r2
  3010c2:	91 0e       	mov.w	3010e2 <_simplex+0x2a2>,r1	! b8
  3010c4:	31 ec       	add	r14,r1
  3010c6:	63 e3       	mov	r14,r3
  3010c8:	73 14       	add	#20,r3
  3010ca:	66 73       	mov	r7,r6
  3010cc:	55 1e       	mov.l	@(56,r1),r5
  3010ce:	64 33       	mov	r3,r4
  3010d0:	d1 04       	mov.l	3010e4 <_simplex+0x2a4>,r1	! 30080c <_get>
  3010d2:	41 0b       	jsr	@r1
  3010d4:	00 09       	nop	
  3010d6:	91 04       	mov.w	3010e2 <_simplex+0x2a2>,r1	! b8
  3010d8:	31 ec       	add	r14,r1
  3010da:	e2 00       	mov	#0,r2
  3010dc:	11 2d       	mov.l	r2,@(52,r1)
  3010de:	a0 73       	bra	3011c8 <_simplex+0x388>
  3010e0:	00 09       	nop	
  3010e2:	00 b8       	.word 0x00b8
  3010e4:	00 30       	.word 0x0030
  3010e6:	08 0c       	mov.b	@(r0,r0),r8
  3010e8:	62 e3       	mov	r14,r2
  3010ea:	72 30       	add	#48,r2
  3010ec:	93 af       	mov.w	30124e <_simplex+0x40e>,r3	! b8
  3010ee:	33 ec       	add	r14,r3
  3010f0:	91 ad       	mov.w	30124e <_simplex+0x40e>,r1	! b8
  3010f2:	31 ec       	add	r14,r1
  3010f4:	67 e3       	mov	r14,r7
  3010f6:	77 14       	add	#20,r7
  3010f8:	56 3d       	mov.l	@(52,r3),r6
  3010fa:	55 1c       	mov.l	@(48,r1),r5
  3010fc:	64 73       	mov	r7,r4
  3010fe:	d1 56       	mov.l	301258 <_simplex+0x418>,r1	! 30080c <_get>
  301100:	41 0b       	jsr	@r1
  301102:	00 09       	nop	
  301104:	62 e3       	mov	r14,r2
  301106:	72 20       	add	#32,r2
  301108:	93 a1       	mov.w	30124e <_simplex+0x40e>,r3	! b8
  30110a:	33 ec       	add	r14,r3
  30110c:	91 9f       	mov.w	30124e <_simplex+0x40e>,r1	! b8
  30110e:	31 ec       	add	r14,r1
  301110:	67 e3       	mov	r14,r7
  301112:	77 14       	add	#20,r7
  301114:	56 3d       	mov.l	@(52,r3),r6
  301116:	55 1e       	mov.l	@(56,r1),r5
  301118:	64 73       	mov	r7,r4
  30111a:	d1 4f       	mov.l	301258 <_simplex+0x418>,r1	! 30080c <_get>
  30111c:	41 0b       	jsr	@r1
  30111e:	00 09       	nop	
  301120:	97 96       	mov.w	301250 <_simplex+0x410>,r7	! a4
  301122:	37 ec       	add	r14,r7
  301124:	63 e3       	mov	r14,r3
  301126:	73 40       	add	#64,r3
  301128:	61 e3       	mov	r14,r1
  30112a:	71 30       	add	#48,r1
  30112c:	62 12       	mov.l	@r1,r2
  30112e:	2f 22       	mov.l	r2,@r15
  301130:	71 04       	add	#4,r1
  301132:	62 12       	mov.l	@r1,r2
  301134:	1f 21       	mov.l	r2,@(4,r15)
  301136:	71 04       	add	#4,r1
  301138:	62 12       	mov.l	@r1,r2
  30113a:	1f 22       	mov.l	r2,@(8,r15)
  30113c:	71 04       	add	#4,r1
  30113e:	62 12       	mov.l	@r1,r2
  301140:	1f 23       	mov.l	r2,@(12,r15)
  301142:	71 04       	add	#4,r1
  301144:	62 73       	mov	r7,r2
  301146:	64 32       	mov.l	@r3,r4
  301148:	55 31       	mov.l	@(4,r3),r5
  30114a:	56 32       	mov.l	@(8,r3),r6
  30114c:	57 33       	mov.l	@(12,r3),r7
  30114e:	d1 43       	mov.l	30125c <_simplex+0x41c>,r1	! 307a6c <_mul_BigM>
  301150:	41 0b       	jsr	@r1
  301152:	00 09       	nop	
  301154:	97 7d       	mov.w	301252 <_simplex+0x412>,r7	! b4
  301156:	37 ec       	add	r14,r7
  301158:	63 e3       	mov	r14,r3
  30115a:	73 20       	add	#32,r3
  30115c:	91 78       	mov.w	301250 <_simplex+0x410>,r1	! a4
  30115e:	31 ec       	add	r14,r1
  301160:	62 12       	mov.l	@r1,r2
  301162:	2f 22       	mov.l	r2,@r15
  301164:	71 04       	add	#4,r1
  301166:	62 12       	mov.l	@r1,r2
  301168:	1f 21       	mov.l	r2,@(4,r15)
  30116a:	71 04       	add	#4,r1
  30116c:	62 12       	mov.l	@r1,r2
  30116e:	1f 22       	mov.l	r2,@(8,r15)
  301170:	71 04       	add	#4,r1
  301172:	62 12       	mov.l	@r1,r2
  301174:	1f 23       	mov.l	r2,@(12,r15)
  301176:	71 04       	add	#4,r1
  301178:	62 73       	mov	r7,r2
  30117a:	64 32       	mov.l	@r3,r4
  30117c:	55 31       	mov.l	@(4,r3),r5
  30117e:	56 32       	mov.l	@(8,r3),r6
  301180:	57 33       	mov.l	@(12,r3),r7
  301182:	d1 37       	mov.l	301260 <_simplex+0x420>,r1	! 307a00 <_sub_BigM>
  301184:	41 0b       	jsr	@r1
  301186:	00 09       	nop	
  301188:	92 63       	mov.w	301252 <_simplex+0x412>,r2	! b4
  30118a:	32 ec       	add	r14,r2
  30118c:	96 5f       	mov.w	30124e <_simplex+0x40e>,r6	! b8
  30118e:	36 ec       	add	r14,r6
  301190:	93 5d       	mov.w	30124e <_simplex+0x40e>,r3	! b8
  301192:	33 ec       	add	r14,r3
  301194:	64 e3       	mov	r14,r4
  301196:	74 14       	add	#20,r4
  301198:	61 23       	mov	r2,r1
  30119a:	71 04       	add	#4,r1
  30119c:	67 12       	mov.l	@r1,r7
  30119e:	2f 72       	mov.l	r7,@r15
  3011a0:	71 04       	add	#4,r1
  3011a2:	67 12       	mov.l	@r1,r7
  3011a4:	1f 71       	mov.l	r7,@(4,r15)
  3011a6:	71 04       	add	#4,r1
  3011a8:	67 12       	mov.l	@r1,r7
  3011aa:	1f 72       	mov.l	r7,@(8,r15)
  3011ac:	71 04       	add	#4,r1
  3011ae:	67 22       	mov.l	@r2,r7
  3011b0:	56 6d       	mov.l	@(52,r6),r6
  3011b2:	55 3e       	mov.l	@(56,r3),r5
  3011b4:	d1 2b       	mov.l	301264 <_simplex+0x424>,r1	! 300868 <_set>
  3011b6:	41 0b       	jsr	@r1
  3011b8:	00 09       	nop	
  3011ba:	91 48       	mov.w	30124e <_simplex+0x40e>,r1	! b8
  3011bc:	31 ec       	add	r14,r1
  3011be:	92 46       	mov.w	30124e <_simplex+0x40e>,r2	! b8
  3011c0:	32 ec       	add	r14,r2
  3011c2:	52 2d       	mov.l	@(52,r2),r2
  3011c4:	72 01       	add	#1,r2
  3011c6:	11 2d       	mov.l	r2,@(52,r1)
  3011c8:	61 e3       	mov	r14,r1
  3011ca:	71 14       	add	#20,r1
  3011cc:	51 11       	mov.l	@(4,r1),r1
  3011ce:	92 3e       	mov.w	30124e <_simplex+0x40e>,r2	! b8
  3011d0:	32 ec       	add	r14,r2
  3011d2:	52 2d       	mov.l	@(52,r2),r2
  3011d4:	32 13       	cmp/ge	r1,r2
  3011d6:	8b 87       	bf	3010e8 <_simplex+0x2a8>
  3011d8:	61 e3       	mov	r14,r1
  3011da:	71 38       	add	#56,r1
  3011dc:	57 1e       	mov.l	@(56,r1),r7
  3011de:	92 39       	mov.w	301254 <_simplex+0x414>,r2	! c4
  3011e0:	32 ec       	add	r14,r2
  3011e2:	91 34       	mov.w	30124e <_simplex+0x40e>,r1	! b8
  3011e4:	31 ec       	add	r14,r1
  3011e6:	63 e3       	mov	r14,r3
  3011e8:	73 14       	add	#20,r3
  3011ea:	66 73       	mov	r7,r6
  3011ec:	55 1e       	mov.l	@(56,r1),r5
  3011ee:	64 33       	mov	r3,r4
  3011f0:	d1 19       	mov.l	301258 <_simplex+0x418>,r1	! 30080c <_get>
  3011f2:	41 0b       	jsr	@r1
  3011f4:	00 09       	nop	
  3011f6:	91 2e       	mov.w	301256 <_simplex+0x416>,r1	! d4
  3011f8:	31 ec       	add	r14,r1
  3011fa:	62 13       	mov	r1,r2
  3011fc:	d1 1a       	mov.l	301268 <_simplex+0x428>,r1	! 3076fe <_BigM_zero>
  3011fe:	41 0b       	jsr	@r1
  301200:	00 09       	nop	
  301202:	92 27       	mov.w	301254 <_simplex+0x414>,r2	! c4
  301204:	32 ec       	add	r14,r2
  301206:	91 26       	mov.w	301256 <_simplex+0x416>,r1	! d4
  301208:	31 ec       	add	r14,r1
  30120a:	63 12       	mov.l	@r1,r3
  30120c:	2f 32       	mov.l	r3,@r15
  30120e:	71 04       	add	#4,r1
  301210:	63 12       	mov.l	@r1,r3
  301212:	1f 31       	mov.l	r3,@(4,r15)
  301214:	71 04       	add	#4,r1
  301216:	63 12       	mov.l	@r1,r3
  301218:	1f 32       	mov.l	r3,@(8,r15)
  30121a:	71 04       	add	#4,r1
  30121c:	63 12       	mov.l	@r1,r3
  30121e:	1f 33       	mov.l	r3,@(12,r15)
  301220:	71 04       	add	#4,r1
  301222:	64 22       	mov.l	@r2,r4
  301224:	55 21       	mov.l	@(4,r2),r5
  301226:	56 22       	mov.l	@(8,r2),r6
  301228:	57 23       	mov.l	@(12,r2),r7
  30122a:	d1 10       	mov.l	30126c <_simplex+0x42c>,r1	! 307da8 <_BigM_eq>
  30122c:	41 0b       	jsr	@r1
  30122e:	00 09       	nop	
  301230:	61 03       	mov	r0,r1
  301232:	21 18       	tst	r1,r1
  301234:	8b 25       	bf	301282 <_simplex+0x442>
  301236:	d3 0e       	mov.l	301270 <_simplex+0x430>,r3	! 30b488
  301238:	d2 0e       	mov.l	301274 <_simplex+0x434>,r2	! 30b4b8 <___PRETTY_FUNCTION__.0>
  30123a:	d1 0f       	mov.l	301278 <_simplex+0x438>,r1	! 30b454
  30123c:	67 33       	mov	r3,r7
  30123e:	66 23       	mov	r2,r6
  301240:	e5 63       	mov	#99,r5
  301242:	64 13       	mov	r1,r4
  301244:	d1 0d       	mov.l	30127c <_simplex+0x43c>,r1	! 308948 <___assert_fail>
  301246:	41 0b       	jsr	@r1
  301248:	00 09       	nop	
  30124a:	a0 1a       	bra	301282 <_simplex+0x442>
  30124c:	00 09       	nop	
  30124e:	00 b8       	.word 0x00b8
  301250:	00 a4       	mov.b	r10,@(r0,r0)
  301252:	00 b4       	mov.b	r11,@(r0,r0)
  301254:	00 c4       	mov.b	r12,@(r0,r0)
  301256:	00 d4       	mov.b	r13,@(r0,r0)
  301258:	00 30       	.word 0x0030
  30125a:	08 0c       	mov.b	@(r0,r0),r8
  30125c:	00 30       	.word 0x0030
  30125e:	7a 6c       	add	#108,r10
  301260:	00 30       	.word 0x0030
  301262:	7a 00       	add	#0,r10
  301264:	00 30       	.word 0x0030
  301266:	08 68       	.word 0x0868
  301268:	00 30       	.word 0x0030
  30126a:	76 fe       	add	#-2,r6
  30126c:	00 30       	.word 0x0030
  30126e:	7d a8       	add	#-88,r13
  301270:	00 30       	.word 0x0030
  301272:	b4 88       	bsr	301b86 <_update_cursor+0x4a>
  301274:	00 30       	.word 0x0030
  301276:	b4 b8       	bsr	301bea <_update_cursor+0xae>
  301278:	00 30       	.word 0x0030
  30127a:	b4 54       	bsr	301b26 <_display_tableux+0x96>
  30127c:	00 30       	.word 0x0030
  30127e:	89 48       	bt	301312 <_GINT_CALL_SET_function+0x1e>
  301280:	00 09       	nop	
  301282:	91 34       	mov.w	3012ee <_simplex+0x4ae>,r1	! b8
  301284:	31 ec       	add	r14,r1
  301286:	92 32       	mov.w	3012ee <_simplex+0x4ae>,r2	! b8
  301288:	32 ec       	add	r14,r2
  30128a:	52 2e       	mov.l	@(56,r2),r2
  30128c:	72 01       	add	#1,r2
  30128e:	11 2e       	mov.l	r2,@(56,r1)
  301290:	61 e3       	mov	r14,r1
  301292:	71 14       	add	#20,r1
  301294:	61 12       	mov.l	@r1,r1
  301296:	92 2a       	mov.w	3012ee <_simplex+0x4ae>,r2	! b8
  301298:	32 ec       	add	r14,r2
  30129a:	52 2e       	mov.l	@(56,r2),r2
  30129c:	32 13       	cmp/ge	r1,r2
  30129e:	89 01       	bt	3012a4 <_simplex+0x464>
  3012a0:	af 00       	bra	3010a4 <_simplex+0x264>
  3012a2:	00 09       	nop	
  3012a4:	61 e3       	mov	r14,r1
  3012a6:	71 14       	add	#20,r1
  3012a8:	64 13       	mov	r1,r4
  3012aa:	d1 11       	mov.l	3012f0 <_simplex+0x4b0>,r1	! 300a00 <_isoptimal>
  3012ac:	41 0b       	jsr	@r1
  3012ae:	00 09       	nop	
  3012b0:	61 03       	mov	r0,r1
  3012b2:	e6 01       	mov	#1,r6
  3012b4:	21 6a       	xor	r6,r1
  3012b6:	61 1c       	extu.b	r1,r1
  3012b8:	21 18       	tst	r1,r1
  3012ba:	89 01       	bt	3012c0 <_simplex+0x480>
  3012bc:	ad d4       	bra	300e68 <_simplex+0x28>
  3012be:	00 09       	nop	
  3012c0:	61 e3       	mov	r14,r1
  3012c2:	71 14       	add	#20,r1
  3012c4:	62 12       	mov.l	@r1,r2
  3012c6:	28 22       	mov.l	r2,@r8
  3012c8:	71 04       	add	#4,r1
  3012ca:	62 12       	mov.l	@r1,r2
  3012cc:	18 21       	mov.l	r2,@(4,r8)
  3012ce:	71 04       	add	#4,r1
  3012d0:	62 12       	mov.l	@r1,r2
  3012d2:	18 22       	mov.l	r2,@(8,r8)
  3012d4:	71 04       	add	#4,r1
  3012d6:	60 83       	mov	r8,r0
  3012d8:	7e 7c       	add	#124,r14
  3012da:	7e 7c       	add	#124,r14
  3012dc:	6f e3       	mov	r14,r15
  3012de:	4f 26       	lds.l	@r15+,pr
  3012e0:	6e f6       	mov.l	@r15+,r14
  3012e2:	6b f6       	mov.l	@r15+,r11
  3012e4:	6a f6       	mov.l	@r15+,r10
  3012e6:	69 f6       	mov.l	@r15+,r9
  3012e8:	68 f6       	mov.l	@r15+,r8
  3012ea:	00 0b       	rts	
  3012ec:	00 09       	nop	
  3012ee:	00 b8       	.word 0x00b8
  3012f0:	00 30       	.word 0x0030
  3012f2:	0a 00       	.word 0x0a00

003012f4 <_GINT_CALL_SET_function>:
  3012f4:	2f e6       	mov.l	r14,@-r15
  3012f6:	7f fc       	add	#-4,r15
  3012f8:	6e f3       	mov	r15,r14
  3012fa:	61 e3       	mov	r14,r1
  3012fc:	71 c4       	add	#-60,r1
  3012fe:	11 4f       	mov.l	r4,@(60,r1)
  301300:	61 e3       	mov	r14,r1
  301302:	71 c4       	add	#-60,r1
  301304:	51 1f       	mov.l	@(60,r1),r1
  301306:	e2 01       	mov	#1,r2
  301308:	21 22       	mov.l	r2,@r1
  30130a:	e1 00       	mov	#0,r1
  30130c:	60 13       	mov	r1,r0
  30130e:	7e 04       	add	#4,r14
  301310:	6f e3       	mov	r14,r15
  301312:	6e f6       	mov.l	@r15+,r14
  301314:	00 0b       	rts	
  301316:	00 09       	nop	

00301318 <_GINT_CALL_INC_function>:
  301318:	2f e6       	mov.l	r14,@-r15
  30131a:	7f fc       	add	#-4,r15
  30131c:	6e f3       	mov	r15,r14
  30131e:	61 e3       	mov	r14,r1
  301320:	71 c4       	add	#-60,r1
  301322:	11 4f       	mov.l	r4,@(60,r1)
  301324:	61 e3       	mov	r14,r1
  301326:	71 c4       	add	#-60,r1
  301328:	51 1f       	mov.l	@(60,r1),r1
  30132a:	61 12       	mov.l	@r1,r1
  30132c:	62 13       	mov	r1,r2
  30132e:	72 01       	add	#1,r2
  301330:	61 e3       	mov	r14,r1
  301332:	71 c4       	add	#-60,r1
  301334:	51 1f       	mov.l	@(60,r1),r1
  301336:	21 22       	mov.l	r2,@r1
  301338:	e1 00       	mov	#0,r1
  30133a:	60 13       	mov	r1,r0
  30133c:	7e 04       	add	#4,r14
  30133e:	6f e3       	mov	r14,r15
  301340:	6e f6       	mov.l	@r15+,r14
  301342:	00 0b       	rts	
  301344:	00 09       	nop	

00301346 <_GINT_CALL_SET_STOP_function>:
  301346:	2f e6       	mov.l	r14,@-r15
  301348:	7f fc       	add	#-4,r15
  30134a:	6e f3       	mov	r15,r14
  30134c:	61 e3       	mov	r14,r1
  30134e:	71 c4       	add	#-60,r1
  301350:	11 4f       	mov.l	r4,@(60,r1)
  301352:	61 e3       	mov	r14,r1
  301354:	71 c4       	add	#-60,r1
  301356:	51 1f       	mov.l	@(60,r1),r1
  301358:	e2 01       	mov	#1,r2
  30135a:	21 22       	mov.l	r2,@r1
  30135c:	e1 01       	mov	#1,r1
  30135e:	60 13       	mov	r1,r0
  301360:	7e 04       	add	#4,r14
  301362:	6f e3       	mov	r14,r15
  301364:	6e f6       	mov.l	@r15+,r14
  301366:	00 0b       	rts	
  301368:	00 09       	nop	

0030136a <_GINT_CALL_INC_STOP_function>:
  30136a:	2f e6       	mov.l	r14,@-r15
  30136c:	7f fc       	add	#-4,r15
  30136e:	6e f3       	mov	r15,r14
  301370:	61 e3       	mov	r14,r1
  301372:	71 c4       	add	#-60,r1
  301374:	11 4f       	mov.l	r4,@(60,r1)
  301376:	61 e3       	mov	r14,r1
  301378:	71 c4       	add	#-60,r1
  30137a:	51 1f       	mov.l	@(60,r1),r1
  30137c:	61 12       	mov.l	@r1,r1
  30137e:	62 13       	mov	r1,r2
  301380:	72 01       	add	#1,r2
  301382:	61 e3       	mov	r14,r1
  301384:	71 c4       	add	#-60,r1
  301386:	51 1f       	mov.l	@(60,r1),r1
  301388:	21 22       	mov.l	r2,@r1
  30138a:	e1 01       	mov	#1,r1
  30138c:	60 13       	mov	r1,r0
  30138e:	7e 04       	add	#4,r14
  301390:	6f e3       	mov	r14,r15
  301392:	6e f6       	mov.l	@r15+,r14
  301394:	00 0b       	rts	
  301396:	00 09       	nop	

00301398 <_new_viscell>:
  301398:	2f 86       	mov.l	r8,@-r15
  30139a:	2f e6       	mov.l	r14,@-r15
  30139c:	4f 22       	sts.l	pr,@-r15
  30139e:	7f e8       	add	#-24,r15
  3013a0:	6e f3       	mov	r15,r14
  3013a2:	61 e3       	mov	r14,r1
  3013a4:	71 d8       	add	#-40,r1
  3013a6:	11 4e       	mov.l	r4,@(56,r1)
  3013a8:	61 e3       	mov	r14,r1
  3013aa:	71 d8       	add	#-40,r1
  3013ac:	11 5d       	mov.l	r5,@(52,r1)
  3013ae:	61 e3       	mov	r14,r1
  3013b0:	71 d8       	add	#-40,r1
  3013b2:	11 6c       	mov.l	r6,@(48,r1)
  3013b4:	61 e3       	mov	r14,r1
  3013b6:	71 d8       	add	#-40,r1
  3013b8:	11 7b       	mov.l	r7,@(44,r1)
  3013ba:	52 e9       	mov.l	@(36,r14),r2
  3013bc:	61 e3       	mov	r14,r1
  3013be:	71 f8       	add	#-8,r1
  3013c0:	60 23       	mov	r2,r0
  3013c2:	80 18       	mov.b	r0,@(8,r1)
  3013c4:	68 e3       	mov	r14,r8
  3013c6:	78 d8       	add	#-40,r8
  3013c8:	e4 1c       	mov	#28,r4
  3013ca:	d1 2e       	mov.l	301484 <_new_viscell+0xec>,r1	! 309250 <_malloc>
  3013cc:	41 0b       	jsr	@r1
  3013ce:	00 09       	nop	
  3013d0:	61 03       	mov	r0,r1
  3013d2:	18 1f       	mov.l	r1,@(60,r8)
  3013d4:	61 e3       	mov	r14,r1
  3013d6:	71 d8       	add	#-40,r1
  3013d8:	51 1f       	mov.l	@(60,r1),r1
  3013da:	62 e3       	mov	r14,r2
  3013dc:	72 d8       	add	#-40,r2
  3013de:	52 2e       	mov.l	@(56,r2),r2
  3013e0:	21 22       	mov.l	r2,@r1
  3013e2:	61 e3       	mov	r14,r1
  3013e4:	71 d8       	add	#-40,r1
  3013e6:	51 1f       	mov.l	@(60,r1),r1
  3013e8:	62 e3       	mov	r14,r2
  3013ea:	72 d8       	add	#-40,r2
  3013ec:	52 2d       	mov.l	@(52,r2),r2
  3013ee:	11 21       	mov.l	r2,@(4,r1)
  3013f0:	61 e3       	mov	r14,r1
  3013f2:	71 d8       	add	#-40,r1
  3013f4:	51 1f       	mov.l	@(60,r1),r1
  3013f6:	62 e3       	mov	r14,r2
  3013f8:	72 d8       	add	#-40,r2
  3013fa:	52 2c       	mov.l	@(48,r2),r2
  3013fc:	11 22       	mov.l	r2,@(8,r1)
  3013fe:	61 e3       	mov	r14,r1
  301400:	71 d8       	add	#-40,r1
  301402:	51 1f       	mov.l	@(60,r1),r1
  301404:	62 e3       	mov	r14,r2
  301406:	72 d8       	add	#-40,r2
  301408:	52 2b       	mov.l	@(44,r2),r2
  30140a:	11 23       	mov.l	r2,@(12,r1)
  30140c:	61 e3       	mov	r14,r1
  30140e:	71 d8       	add	#-40,r1
  301410:	51 1f       	mov.l	@(60,r1),r1
  301412:	71 10       	add	#16,r1
  301414:	62 e3       	mov	r14,r2
  301416:	72 f8       	add	#-8,r2
  301418:	84 28       	mov.b	@(8,r2),r0
  30141a:	62 03       	mov	r0,r2
  30141c:	21 20       	mov.b	r2,@r1
  30141e:	61 e3       	mov	r14,r1
  301420:	71 d8       	add	#-40,r1
  301422:	51 1f       	mov.l	@(60,r1),r1
  301424:	71 10       	add	#16,r1
  301426:	e2 00       	mov	#0,r2
  301428:	60 23       	mov	r2,r0
  30142a:	80 11       	mov.b	r0,@(1,r1)
  30142c:	61 e3       	mov	r14,r1
  30142e:	71 d8       	add	#-40,r1
  301430:	51 1f       	mov.l	@(60,r1),r1
  301432:	71 10       	add	#16,r1
  301434:	e2 00       	mov	#0,r2
  301436:	60 23       	mov	r2,r0
  301438:	80 12       	mov.b	r0,@(2,r1)
  30143a:	61 e3       	mov	r14,r1
  30143c:	71 d8       	add	#-40,r1
  30143e:	51 1f       	mov.l	@(60,r1),r1
  301440:	e2 ff       	mov	#-1,r2
  301442:	60 23       	mov	r2,r0
  301444:	81 1a       	mov.w	r0,@(20,r1)
  301446:	e5 01       	mov	#1,r5
  301448:	e4 14       	mov	#20,r4
  30144a:	d1 0f       	mov.l	301488 <_new_viscell+0xf0>,r1	! 308ee0 <_calloc>
  30144c:	41 0b       	jsr	@r1
  30144e:	00 09       	nop	
  301450:	61 03       	mov	r0,r1
  301452:	62 e3       	mov	r14,r2
  301454:	72 d8       	add	#-40,r2
  301456:	52 2f       	mov.l	@(60,r2),r2
  301458:	12 16       	mov.l	r1,@(24,r2)
  30145a:	61 e3       	mov	r14,r1
  30145c:	71 d8       	add	#-40,r1
  30145e:	51 1f       	mov.l	@(60,r1),r1
  301460:	51 16       	mov.l	@(24,r1),r1
  301462:	55 ea       	mov.l	@(40,r14),r5
  301464:	64 13       	mov	r1,r4
  301466:	d1 09       	mov.l	30148c <_new_viscell+0xf4>,r1	! 308fb6 <_strcpy>
  301468:	41 0b       	jsr	@r1
  30146a:	00 09       	nop	
  30146c:	61 e3       	mov	r14,r1
  30146e:	71 d8       	add	#-40,r1
  301470:	51 1f       	mov.l	@(60,r1),r1
  301472:	60 13       	mov	r1,r0
  301474:	7e 18       	add	#24,r14
  301476:	6f e3       	mov	r14,r15
  301478:	4f 26       	lds.l	@r15+,pr
  30147a:	6e f6       	mov.l	@r15+,r14
  30147c:	68 f6       	mov.l	@r15+,r8
  30147e:	00 0b       	rts	
  301480:	00 09       	nop	
  301482:	00 09       	nop	
  301484:	00 30       	.word 0x0030
  301486:	92 50       	mov.w	30152a <_draw_cell_contents+0x5e>,r2	! 6523
  301488:	00 30       	.word 0x0030
  30148a:	8e e0       	ldre	30164e <_new_tableux+0x66>	! 6112
  30148c:	00 30       	.word 0x0030
  30148e:	8f b6       	bf.s	3013fe <_new_viscell+0x66>

00301490 <_free_viscell>:
  301490:	2f e6       	mov.l	r14,@-r15
  301492:	4f 22       	sts.l	pr,@-r15
  301494:	7f fc       	add	#-4,r15
  301496:	6e f3       	mov	r15,r14
  301498:	61 e3       	mov	r14,r1
  30149a:	71 c4       	add	#-60,r1
  30149c:	11 4f       	mov.l	r4,@(60,r1)
  30149e:	61 e3       	mov	r14,r1
  3014a0:	71 c4       	add	#-60,r1
  3014a2:	51 1f       	mov.l	@(60,r1),r1
  3014a4:	51 16       	mov.l	@(24,r1),r1
  3014a6:	64 13       	mov	r1,r4
  3014a8:	d1 07       	mov.l	3014c8 <_free_viscell+0x38>,r1	! 309244 <_free>
  3014aa:	41 0b       	jsr	@r1
  3014ac:	00 09       	nop	
  3014ae:	61 e3       	mov	r14,r1
  3014b0:	71 c4       	add	#-60,r1
  3014b2:	54 1f       	mov.l	@(60,r1),r4
  3014b4:	d1 04       	mov.l	3014c8 <_free_viscell+0x38>,r1	! 309244 <_free>
  3014b6:	41 0b       	jsr	@r1
  3014b8:	00 09       	nop	
  3014ba:	00 09       	nop	
  3014bc:	7e 04       	add	#4,r14
  3014be:	6f e3       	mov	r14,r15
  3014c0:	4f 26       	lds.l	@r15+,pr
  3014c2:	6e f6       	mov.l	@r15+,r14
  3014c4:	00 0b       	rts	
  3014c6:	00 09       	nop	
  3014c8:	00 30       	.word 0x0030
  3014ca:	92 44       	mov.w	301556 <_draw_cell+0xa>,r2	! 71d0

003014cc <_draw_cell_contents>:
  3014cc:	2f 86       	mov.l	r8,@-r15
  3014ce:	2f e6       	mov.l	r14,@-r15
  3014d0:	4f 22       	sts.l	pr,@-r15
  3014d2:	7f f8       	add	#-8,r15
  3014d4:	6e f3       	mov	r15,r14
  3014d6:	61 e3       	mov	r14,r1
  3014d8:	71 c8       	add	#-56,r1
  3014da:	11 4e       	mov.l	r4,@(56,r1)
  3014dc:	68 e3       	mov	r14,r8
  3014de:	78 c8       	add	#-56,r8
  3014e0:	d1 18       	mov.l	301544 <_draw_cell_contents+0x78>,r1	! 303cfc <_dfont_default>
  3014e2:	41 0b       	jsr	@r1
  3014e4:	00 09       	nop	
  3014e6:	61 03       	mov	r0,r1
  3014e8:	18 1f       	mov.l	r1,@(60,r8)
  3014ea:	61 e3       	mov	r14,r1
  3014ec:	71 c8       	add	#-56,r1
  3014ee:	51 1e       	mov.l	@(56,r1),r1
  3014f0:	62 12       	mov.l	@r1,r2
  3014f2:	e1 01       	mov	#1,r1
  3014f4:	31 2c       	add	r2,r1
  3014f6:	63 13       	mov	r1,r3
  3014f8:	73 01       	add	#1,r3
  3014fa:	61 e3       	mov	r14,r1
  3014fc:	71 c8       	add	#-56,r1
  3014fe:	51 1e       	mov.l	@(56,r1),r1
  301500:	52 11       	mov.l	@(4,r1),r2
  301502:	61 e3       	mov	r14,r1
  301504:	71 c8       	add	#-56,r1
  301506:	51 1e       	mov.l	@(56,r1),r1
  301508:	51 13       	mov.l	@(12,r1),r1
  30150a:	31 2c       	add	r2,r1
  30150c:	62 e3       	mov	r14,r2
  30150e:	72 c8       	add	#-56,r2
  301510:	52 2f       	mov.l	@(60,r2),r2
  301512:	84 25       	mov.b	@(5,r2),r0
  301514:	62 03       	mov	r0,r2
  301516:	62 2c       	extu.b	r2,r2
  301518:	31 28       	sub	r2,r1
  30151a:	62 13       	mov	r1,r2
  30151c:	72 ff       	add	#-1,r2
  30151e:	61 e3       	mov	r14,r1
  301520:	71 c8       	add	#-56,r1
  301522:	51 1e       	mov.l	@(56,r1),r1
  301524:	51 16       	mov.l	@(24,r1),r1
  301526:	67 13       	mov	r1,r7
  301528:	e6 00       	mov	#0,r6
  30152a:	65 23       	mov	r2,r5
  30152c:	64 33       	mov	r3,r4
  30152e:	d1 06       	mov.l	301548 <_draw_cell_contents+0x7c>,r1	! 303cc0 <_dtext>
  301530:	41 0b       	jsr	@r1
  301532:	00 09       	nop	
  301534:	00 09       	nop	
  301536:	7e 08       	add	#8,r14
  301538:	6f e3       	mov	r14,r15
  30153a:	4f 26       	lds.l	@r15+,pr
  30153c:	6e f6       	mov.l	@r15+,r14
  30153e:	68 f6       	mov.l	@r15+,r8
  301540:	00 0b       	rts	
  301542:	00 09       	nop	
  301544:	00 30       	.word 0x0030
  301546:	3c fc       	add	r15,r12
  301548:	00 30       	.word 0x0030
  30154a:	3c c0       	cmp/eq	r12,r12

0030154c <_draw_cell>:
  30154c:	2f e6       	mov.l	r14,@-r15
  30154e:	4f 22       	sts.l	pr,@-r15
  301550:	7f f0       	add	#-16,r15
  301552:	6e f3       	mov	r15,r14
  301554:	61 e3       	mov	r14,r1
  301556:	71 d0       	add	#-48,r1
  301558:	11 4f       	mov.l	r4,@(60,r1)
  30155a:	61 e3       	mov	r14,r1
  30155c:	71 d0       	add	#-48,r1
  30155e:	51 1f       	mov.l	@(60,r1),r1
  301560:	63 12       	mov.l	@r1,r3
  301562:	61 e3       	mov	r14,r1
  301564:	71 d0       	add	#-48,r1
  301566:	51 1f       	mov.l	@(60,r1),r1
  301568:	55 11       	mov.l	@(4,r1),r5
  30156a:	61 e3       	mov	r14,r1
  30156c:	71 d0       	add	#-48,r1
  30156e:	51 1f       	mov.l	@(60,r1),r1
  301570:	62 12       	mov.l	@r1,r2
  301572:	61 e3       	mov	r14,r1
  301574:	71 d0       	add	#-48,r1
  301576:	51 1f       	mov.l	@(60,r1),r1
  301578:	51 12       	mov.l	@(8,r1),r1
  30157a:	66 23       	mov	r2,r6
  30157c:	36 1c       	add	r1,r6
  30157e:	61 e3       	mov	r14,r1
  301580:	71 d0       	add	#-48,r1
  301582:	51 1f       	mov.l	@(60,r1),r1
  301584:	52 11       	mov.l	@(4,r1),r2
  301586:	61 e3       	mov	r14,r1
  301588:	71 d0       	add	#-48,r1
  30158a:	51 1f       	mov.l	@(60,r1),r1
  30158c:	51 13       	mov.l	@(12,r1),r1
  30158e:	67 23       	mov	r2,r7
  301590:	37 1c       	add	r1,r7
  301592:	61 e3       	mov	r14,r1
  301594:	71 d0       	add	#-48,r1
  301596:	51 1f       	mov.l	@(60,r1),r1
  301598:	85 1a       	mov.w	@(20,r1),r0
  30159a:	61 03       	mov	r0,r1
  30159c:	61 1d       	extu.w	r1,r1
  30159e:	64 13       	mov	r1,r4
  3015a0:	61 e3       	mov	r14,r1
  3015a2:	71 d0       	add	#-48,r1
  3015a4:	51 1f       	mov.l	@(60,r1),r1
  3015a6:	71 10       	add	#16,r1
  3015a8:	61 10       	mov.b	@r1,r1
  3015aa:	61 1c       	extu.b	r1,r1
  3015ac:	62 13       	mov	r1,r2
  3015ae:	32 2c       	add	r2,r2
  3015b0:	e1 01       	mov	#1,r1
  3015b2:	31 2c       	add	r2,r1
  3015b4:	e2 00       	mov	#0,r2
  3015b6:	1f 22       	mov.l	r2,@(8,r15)
  3015b8:	1f 11       	mov.l	r1,@(4,r15)
  3015ba:	2f 42       	mov.l	r4,@r15
  3015bc:	64 33       	mov	r3,r4
  3015be:	d1 08       	mov.l	3015e0 <_draw_cell+0x94>,r1	! 303be8 <_drect_border>
  3015c0:	41 0b       	jsr	@r1
  3015c2:	00 09       	nop	
  3015c4:	61 e3       	mov	r14,r1
  3015c6:	71 d0       	add	#-48,r1
  3015c8:	54 1f       	mov.l	@(60,r1),r4
  3015ca:	d1 06       	mov.l	3015e4 <_draw_cell+0x98>,r1	! 3014cc <_draw_cell_contents>
  3015cc:	41 0b       	jsr	@r1
  3015ce:	00 09       	nop	
  3015d0:	00 09       	nop	
  3015d2:	7e 10       	add	#16,r14
  3015d4:	6f e3       	mov	r14,r15
  3015d6:	4f 26       	lds.l	@r15+,pr
  3015d8:	6e f6       	mov.l	@r15+,r14
  3015da:	00 0b       	rts	
  3015dc:	00 09       	nop	
  3015de:	00 09       	nop	
  3015e0:	00 30       	.word 0x0030
  3015e2:	3b e8       	sub	r14,r11
  3015e4:	00 30       	.word 0x0030
  3015e6:	14 cc       	mov.l	r12,@(48,r4)

003015e8 <_new_tableux>:
  3015e8:	2f 86       	mov.l	r8,@-r15
  3015ea:	2f e6       	mov.l	r14,@-r15
  3015ec:	4f 22       	sts.l	pr,@-r15
  3015ee:	7f d0       	add	#-48,r15
  3015f0:	6e f3       	mov	r15,r14
  3015f2:	62 43       	mov	r4,r2
  3015f4:	63 53       	mov	r5,r3
  3015f6:	61 e3       	mov	r14,r1
  3015f8:	60 23       	mov	r2,r0
  3015fa:	80 1c       	mov.b	r0,@(12,r1)
  3015fc:	61 e3       	mov	r14,r1
  3015fe:	62 33       	mov	r3,r2
  301600:	60 23       	mov	r2,r0
  301602:	80 18       	mov.b	r0,@(8,r1)
  301604:	68 e3       	mov	r14,r8
  301606:	78 f0       	add	#-16,r8
  301608:	e4 08       	mov	#8,r4
  30160a:	d1 3b       	mov.l	3016f8 <_new_tableux+0x110>,r1	! 309250 <_malloc>
  30160c:	41 0b       	jsr	@r1
  30160e:	00 09       	nop	
  301610:	61 03       	mov	r0,r1
  301612:	18 1a       	mov.l	r1,@(40,r8)
  301614:	61 e3       	mov	r14,r1
  301616:	71 f0       	add	#-16,r1
  301618:	51 1a       	mov.l	@(40,r1),r1
  30161a:	62 e3       	mov	r14,r2
  30161c:	84 2c       	mov.b	@(12,r2),r0
  30161e:	62 03       	mov	r0,r2
  301620:	21 20       	mov.b	r2,@r1
  301622:	61 e3       	mov	r14,r1
  301624:	71 f0       	add	#-16,r1
  301626:	51 1a       	mov.l	@(40,r1),r1
  301628:	62 e3       	mov	r14,r2
  30162a:	84 28       	mov.b	@(8,r2),r0
  30162c:	62 03       	mov	r0,r2
  30162e:	60 23       	mov	r2,r0
  301630:	80 11       	mov.b	r0,@(1,r1)
  301632:	61 e3       	mov	r14,r1
  301634:	84 18       	mov.b	@(8,r1),r0
  301636:	61 03       	mov	r0,r1
  301638:	61 1c       	extu.b	r1,r1
  30163a:	d2 30       	mov.l	3016fc <_new_tableux+0x114>,r2	! 30a884 <___sdivsi3_i4i>
  30163c:	94 5b       	mov.w	3016f6 <_new_tableux+0x10e>,r4	! 18a
  30163e:	65 13       	mov	r1,r5
  301640:	42 0b       	jsr	@r2
  301642:	00 09       	nop	
  301644:	62 03       	mov	r0,r2
  301646:	61 e3       	mov	r14,r1
  301648:	71 f0       	add	#-16,r1
  30164a:	11 29       	mov.l	r2,@(36,r1)
  30164c:	d1 2c       	mov.l	301700 <_new_tableux+0x118>,r1	! 30b4c4 <_CELL_W_TO_H_RATIO>
  30164e:	61 12       	mov.l	@r1,r1
  301650:	67 13       	mov	r1,r7
  301652:	62 e3       	mov	r14,r2
  301654:	72 f0       	add	#-16,r2
  301656:	61 e3       	mov	r14,r1
  301658:	71 f0       	add	#-16,r1
  30165a:	d3 2a       	mov.l	301704 <_new_tableux+0x11c>,r3	! 30a7b4 <___udivsi3_i4i>
  30165c:	54 19       	mov.l	@(36,r1),r4
  30165e:	65 73       	mov	r7,r5
  301660:	43 0b       	jsr	@r3
  301662:	00 09       	nop	
  301664:	63 03       	mov	r0,r3
  301666:	12 38       	mov.l	r3,@(32,r2)
  301668:	61 e3       	mov	r14,r1
  30166a:	84 1c       	mov.b	@(12,r1),r0
  30166c:	61 03       	mov	r0,r1
  30166e:	61 1c       	extu.b	r1,r1
  301670:	e5 04       	mov	#4,r5
  301672:	64 13       	mov	r1,r4
  301674:	d1 24       	mov.l	301708 <_new_tableux+0x120>,r1	! 308ee0 <_calloc>
  301676:	41 0b       	jsr	@r1
  301678:	00 09       	nop	
  30167a:	61 03       	mov	r0,r1
  30167c:	62 e3       	mov	r14,r2
  30167e:	72 f0       	add	#-16,r2
  301680:	52 2a       	mov.l	@(40,r2),r2
  301682:	12 11       	mov.l	r1,@(4,r2)
  301684:	61 e3       	mov	r14,r1
  301686:	71 f0       	add	#-16,r1
  301688:	e2 00       	mov	#0,r2
  30168a:	11 2f       	mov.l	r2,@(60,r1)
  30168c:	a0 1e       	bra	3016cc <_new_tableux+0xe4>
  30168e:	00 09       	nop	
  301690:	61 e3       	mov	r14,r1
  301692:	84 18       	mov.b	@(8,r1),r0
  301694:	61 03       	mov	r0,r1
  301696:	61 1c       	extu.b	r1,r1
  301698:	71 01       	add	#1,r1
  30169a:	63 13       	mov	r1,r3
  30169c:	61 e3       	mov	r14,r1
  30169e:	71 f0       	add	#-16,r1
  3016a0:	51 1a       	mov.l	@(40,r1),r1
  3016a2:	52 11       	mov.l	@(4,r1),r2
  3016a4:	61 e3       	mov	r14,r1
  3016a6:	71 f0       	add	#-16,r1
  3016a8:	51 1f       	mov.l	@(60,r1),r1
  3016aa:	41 08       	shll2	r1
  3016ac:	68 23       	mov	r2,r8
  3016ae:	38 1c       	add	r1,r8
  3016b0:	e5 04       	mov	#4,r5
  3016b2:	64 33       	mov	r3,r4
  3016b4:	d1 14       	mov.l	301708 <_new_tableux+0x120>,r1	! 308ee0 <_calloc>
  3016b6:	41 0b       	jsr	@r1
  3016b8:	00 09       	nop	
  3016ba:	61 03       	mov	r0,r1
  3016bc:	28 12       	mov.l	r1,@r8
  3016be:	61 e3       	mov	r14,r1
  3016c0:	71 f0       	add	#-16,r1
  3016c2:	62 e3       	mov	r14,r2
  3016c4:	72 f0       	add	#-16,r2
  3016c6:	52 2f       	mov.l	@(60,r2),r2
  3016c8:	72 01       	add	#1,r2
  3016ca:	11 2f       	mov.l	r2,@(60,r1)
  3016cc:	61 e3       	mov	r14,r1
  3016ce:	84 1c       	mov.b	@(12,r1),r0
  3016d0:	61 03       	mov	r0,r1
  3016d2:	61 1c       	extu.b	r1,r1
  3016d4:	62 e3       	mov	r14,r2
  3016d6:	72 f0       	add	#-16,r2
  3016d8:	52 2f       	mov.l	@(60,r2),r2
  3016da:	32 13       	cmp/ge	r1,r2
  3016dc:	8b d8       	bf	301690 <_new_tableux+0xa8>
  3016de:	61 e3       	mov	r14,r1
  3016e0:	71 f0       	add	#-16,r1
  3016e2:	e2 00       	mov	#0,r2
  3016e4:	11 2e       	mov.l	r2,@(56,r1)
  3016e6:	a0 5a       	bra	30179e <_new_tableux+0x1b6>
  3016e8:	00 09       	nop	
  3016ea:	61 e3       	mov	r14,r1
  3016ec:	71 f0       	add	#-16,r1
  3016ee:	e2 00       	mov	#0,r2
  3016f0:	11 2d       	mov.l	r2,@(52,r1)
  3016f2:	a0 44       	bra	30177e <_new_tableux+0x196>
  3016f4:	00 09       	nop	
  3016f6:	01 8a       	sts	x0,r1
  3016f8:	00 30       	.word 0x0030
  3016fa:	92 50       	mov.w	30179e <_new_tableux+0x1b6>,r2	! 61e3
  3016fc:	00 30       	.word 0x0030
  3016fe:	a8 84       	bra	30080a <_new_matrix_with_data+0xca>
  301700:	00 30       	.word 0x0030
  301702:	b4 c4       	bsr	30208e <_matrix_into_tableux+0x12e>
  301704:	00 30       	.word 0x0030
  301706:	a7 b4       	bra	302672 <_process_key_construction_stage+0xe2>
  301708:	00 30       	.word 0x0030
  30170a:	8e e0       	ldre	3018ce <_new_tableux+0x2e6>	! 6112
  30170c:	61 e3       	mov	r14,r1
  30170e:	71 f0       	add	#-16,r1
  301710:	52 1d       	mov.l	@(52,r1),r2
  301712:	61 e3       	mov	r14,r1
  301714:	71 f0       	add	#-16,r1
  301716:	51 19       	mov.l	@(36,r1),r1
  301718:	02 17       	mul.l	r1,r2
  30171a:	01 1a       	sts	macl,r1
  30171c:	64 13       	mov	r1,r4
  30171e:	61 e3       	mov	r14,r1
  301720:	71 f0       	add	#-16,r1
  301722:	52 1e       	mov.l	@(56,r1),r2
  301724:	61 e3       	mov	r14,r1
  301726:	71 f0       	add	#-16,r1
  301728:	51 18       	mov.l	@(32,r1),r1
  30172a:	02 17       	mul.l	r1,r2
  30172c:	01 1a       	sts	macl,r1
  30172e:	65 13       	mov	r1,r5
  301730:	61 e3       	mov	r14,r1
  301732:	71 f0       	add	#-16,r1
  301734:	53 19       	mov.l	@(36,r1),r3
  301736:	61 e3       	mov	r14,r1
  301738:	71 f0       	add	#-16,r1
  30173a:	57 18       	mov.l	@(32,r1),r7
  30173c:	61 e3       	mov	r14,r1
  30173e:	71 f0       	add	#-16,r1
  301740:	51 1a       	mov.l	@(40,r1),r1
  301742:	52 11       	mov.l	@(4,r1),r2
  301744:	61 e3       	mov	r14,r1
  301746:	71 f0       	add	#-16,r1
  301748:	51 1e       	mov.l	@(56,r1),r1
  30174a:	41 08       	shll2	r1
  30174c:	31 2c       	add	r2,r1
  30174e:	62 12       	mov.l	@r1,r2
  301750:	61 e3       	mov	r14,r1
  301752:	71 f0       	add	#-16,r1
  301754:	51 1d       	mov.l	@(52,r1),r1
  301756:	41 08       	shll2	r1
  301758:	68 23       	mov	r2,r8
  30175a:	38 1c       	add	r1,r8
  30175c:	d1 79       	mov.l	301944 <_new_tableux+0x35c>,r1	! 30b4d0
  30175e:	1f 11       	mov.l	r1,@(4,r15)
  301760:	e1 00       	mov	#0,r1
  301762:	2f 12       	mov.l	r1,@r15
  301764:	66 33       	mov	r3,r6
  301766:	d1 78       	mov.l	301948 <_new_tableux+0x360>,r1	! 301398 <_new_viscell>
  301768:	41 0b       	jsr	@r1
  30176a:	00 09       	nop	
  30176c:	61 03       	mov	r0,r1
  30176e:	28 12       	mov.l	r1,@r8
  301770:	61 e3       	mov	r14,r1
  301772:	71 f0       	add	#-16,r1
  301774:	62 e3       	mov	r14,r2
  301776:	72 f0       	add	#-16,r2
  301778:	52 2d       	mov.l	@(52,r2),r2
  30177a:	72 01       	add	#1,r2
  30177c:	11 2d       	mov.l	r2,@(52,r1)
  30177e:	61 e3       	mov	r14,r1
  301780:	84 18       	mov.b	@(8,r1),r0
  301782:	61 03       	mov	r0,r1
  301784:	61 1c       	extu.b	r1,r1
  301786:	62 e3       	mov	r14,r2
  301788:	72 f0       	add	#-16,r2
  30178a:	52 2d       	mov.l	@(52,r2),r2
  30178c:	32 13       	cmp/ge	r1,r2
  30178e:	8b bd       	bf	30170c <_new_tableux+0x124>
  301790:	61 e3       	mov	r14,r1
  301792:	71 f0       	add	#-16,r1
  301794:	62 e3       	mov	r14,r2
  301796:	72 f0       	add	#-16,r2
  301798:	52 2e       	mov.l	@(56,r2),r2
  30179a:	72 01       	add	#1,r2
  30179c:	11 2e       	mov.l	r2,@(56,r1)
  30179e:	61 e3       	mov	r14,r1
  3017a0:	84 1c       	mov.b	@(12,r1),r0
  3017a2:	61 03       	mov	r0,r1
  3017a4:	61 1c       	extu.b	r1,r1
  3017a6:	62 e3       	mov	r14,r2
  3017a8:	72 f0       	add	#-16,r2
  3017aa:	52 2e       	mov.l	@(56,r2),r2
  3017ac:	32 13       	cmp/ge	r1,r2
  3017ae:	8b 9c       	bf	3016ea <_new_tableux+0x102>
  3017b0:	61 e3       	mov	r14,r1
  3017b2:	71 f0       	add	#-16,r1
  3017b4:	e2 00       	mov	#0,r2
  3017b6:	11 2c       	mov.l	r2,@(48,r1)
  3017b8:	a0 24       	bra	301804 <_new_tableux+0x21c>
  3017ba:	00 09       	nop	
  3017bc:	61 e3       	mov	r14,r1
  3017be:	71 f0       	add	#-16,r1
  3017c0:	51 1a       	mov.l	@(40,r1),r1
  3017c2:	52 11       	mov.l	@(4,r1),r2
  3017c4:	61 e3       	mov	r14,r1
  3017c6:	71 f0       	add	#-16,r1
  3017c8:	51 1c       	mov.l	@(48,r1),r1
  3017ca:	41 08       	shll2	r1
  3017cc:	31 2c       	add	r2,r1
  3017ce:	61 12       	mov.l	@r1,r1
  3017d0:	61 12       	mov.l	@r1,r1
  3017d2:	d2 5e       	mov.l	30194c <_new_tableux+0x364>,r2	! defb
  3017d4:	60 23       	mov	r2,r0
  3017d6:	81 1a       	mov.w	r0,@(20,r1)
  3017d8:	61 e3       	mov	r14,r1
  3017da:	71 f0       	add	#-16,r1
  3017dc:	51 1a       	mov.l	@(40,r1),r1
  3017de:	52 11       	mov.l	@(4,r1),r2
  3017e0:	61 e3       	mov	r14,r1
  3017e2:	71 f0       	add	#-16,r1
  3017e4:	51 1c       	mov.l	@(48,r1),r1
  3017e6:	41 08       	shll2	r1
  3017e8:	31 2c       	add	r2,r1
  3017ea:	61 12       	mov.l	@r1,r1
  3017ec:	61 12       	mov.l	@r1,r1
  3017ee:	71 10       	add	#16,r1
  3017f0:	e2 01       	mov	#1,r2
  3017f2:	60 23       	mov	r2,r0
  3017f4:	80 12       	mov.b	r0,@(2,r1)
  3017f6:	61 e3       	mov	r14,r1
  3017f8:	71 f0       	add	#-16,r1
  3017fa:	62 e3       	mov	r14,r2
  3017fc:	72 f0       	add	#-16,r2
  3017fe:	52 2c       	mov.l	@(48,r2),r2
  301800:	72 01       	add	#1,r2
  301802:	11 2c       	mov.l	r2,@(48,r1)
  301804:	61 e3       	mov	r14,r1
  301806:	84 1c       	mov.b	@(12,r1),r0
  301808:	61 03       	mov	r0,r1
  30180a:	61 1c       	extu.b	r1,r1
  30180c:	62 e3       	mov	r14,r2
  30180e:	72 f0       	add	#-16,r2
  301810:	52 2c       	mov.l	@(48,r2),r2
  301812:	32 13       	cmp/ge	r1,r2
  301814:	8b d2       	bf	3017bc <_new_tableux+0x1d4>
  301816:	61 e3       	mov	r14,r1
  301818:	71 f0       	add	#-16,r1
  30181a:	e2 00       	mov	#0,r2
  30181c:	11 2b       	mov.l	r2,@(44,r1)
  30181e:	a0 24       	bra	30186a <_new_tableux+0x282>
  301820:	00 09       	nop	
  301822:	61 e3       	mov	r14,r1
  301824:	71 f0       	add	#-16,r1
  301826:	51 1a       	mov.l	@(40,r1),r1
  301828:	51 11       	mov.l	@(4,r1),r1
  30182a:	62 12       	mov.l	@r1,r2
  30182c:	61 e3       	mov	r14,r1
  30182e:	71 f0       	add	#-16,r1
  301830:	51 1b       	mov.l	@(44,r1),r1
  301832:	41 08       	shll2	r1
  301834:	31 2c       	add	r2,r1
  301836:	61 12       	mov.l	@r1,r1
  301838:	d2 44       	mov.l	30194c <_new_tableux+0x364>,r2	! defb
  30183a:	60 23       	mov	r2,r0
  30183c:	81 1a       	mov.w	r0,@(20,r1)
  30183e:	61 e3       	mov	r14,r1
  301840:	71 f0       	add	#-16,r1
  301842:	51 1a       	mov.l	@(40,r1),r1
  301844:	51 11       	mov.l	@(4,r1),r1
  301846:	62 12       	mov.l	@r1,r2
  301848:	61 e3       	mov	r14,r1
  30184a:	71 f0       	add	#-16,r1
  30184c:	51 1b       	mov.l	@(44,r1),r1
  30184e:	41 08       	shll2	r1
  301850:	31 2c       	add	r2,r1
  301852:	61 12       	mov.l	@r1,r1
  301854:	71 10       	add	#16,r1
  301856:	e2 01       	mov	#1,r2
  301858:	60 23       	mov	r2,r0
  30185a:	80 12       	mov.b	r0,@(2,r1)
  30185c:	61 e3       	mov	r14,r1
  30185e:	71 f0       	add	#-16,r1
  301860:	62 e3       	mov	r14,r2
  301862:	72 f0       	add	#-16,r2
  301864:	52 2b       	mov.l	@(44,r2),r2
  301866:	72 01       	add	#1,r2
  301868:	11 2b       	mov.l	r2,@(44,r1)
  30186a:	61 e3       	mov	r14,r1
  30186c:	84 18       	mov.b	@(8,r1),r0
  30186e:	61 03       	mov	r0,r1
  301870:	61 1c       	extu.b	r1,r1
  301872:	62 e3       	mov	r14,r2
  301874:	72 f0       	add	#-16,r2
  301876:	52 2b       	mov.l	@(44,r2),r2
  301878:	32 13       	cmp/ge	r1,r2
  30187a:	8b d2       	bf	301822 <_new_tableux+0x23a>
  30187c:	61 e3       	mov	r14,r1
  30187e:	71 f0       	add	#-16,r1
  301880:	51 1a       	mov.l	@(40,r1),r1
  301882:	e2 01       	mov	#1,r2
  301884:	60 23       	mov	r2,r0
  301886:	80 12       	mov.b	r0,@(2,r1)
  301888:	61 e3       	mov	r14,r1
  30188a:	71 f0       	add	#-16,r1
  30188c:	51 1a       	mov.l	@(40,r1),r1
  30188e:	e2 00       	mov	#0,r2
  301890:	60 23       	mov	r2,r0
  301892:	80 13       	mov.b	r0,@(3,r1)
  301894:	61 e3       	mov	r14,r1
  301896:	71 f0       	add	#-16,r1
  301898:	51 1a       	mov.l	@(40,r1),r1
  30189a:	52 11       	mov.l	@(4,r1),r2
  30189c:	61 e3       	mov	r14,r1
  30189e:	71 f0       	add	#-16,r1
  3018a0:	51 1a       	mov.l	@(40,r1),r1
  3018a2:	84 13       	mov.b	@(3,r1),r0
  3018a4:	61 03       	mov	r0,r1
  3018a6:	61 1c       	extu.b	r1,r1
  3018a8:	41 08       	shll2	r1
  3018aa:	31 2c       	add	r2,r1
  3018ac:	62 12       	mov.l	@r1,r2
  3018ae:	61 e3       	mov	r14,r1
  3018b0:	71 f0       	add	#-16,r1
  3018b2:	51 1a       	mov.l	@(40,r1),r1
  3018b4:	84 12       	mov.b	@(2,r1),r0
  3018b6:	61 03       	mov	r0,r1
  3018b8:	61 1c       	extu.b	r1,r1
  3018ba:	41 08       	shll2	r1
  3018bc:	31 2c       	add	r2,r1
  3018be:	61 12       	mov.l	@r1,r1
  3018c0:	71 10       	add	#16,r1
  3018c2:	e2 01       	mov	#1,r2
  3018c4:	21 20       	mov.b	r2,@r1
  3018c6:	61 e3       	mov	r14,r1
  3018c8:	71 f0       	add	#-16,r1
  3018ca:	51 1a       	mov.l	@(40,r1),r1
  3018cc:	51 11       	mov.l	@(4,r1),r1
  3018ce:	61 12       	mov.l	@r1,r1
  3018d0:	61 12       	mov.l	@r1,r1
  3018d2:	d2 1f       	mov.l	301950 <_new_tableux+0x368>,r2	! 30b4d4
  3018d4:	11 26       	mov.l	r2,@(24,r1)
  3018d6:	61 e3       	mov	r14,r1
  3018d8:	71 f0       	add	#-16,r1
  3018da:	51 1a       	mov.l	@(40,r1),r1
  3018dc:	51 11       	mov.l	@(4,r1),r1
  3018de:	62 12       	mov.l	@r1,r2
  3018e0:	61 e3       	mov	r14,r1
  3018e2:	84 18       	mov.b	@(8,r1),r0
  3018e4:	61 03       	mov	r0,r1
  3018e6:	61 1c       	extu.b	r1,r1
  3018e8:	d3 1a       	mov.l	301954 <_new_tableux+0x36c>,r3	! 3fffffff
  3018ea:	31 3c       	add	r3,r1
  3018ec:	41 08       	shll2	r1
  3018ee:	31 2c       	add	r2,r1
  3018f0:	61 12       	mov.l	@r1,r1
  3018f2:	d2 19       	mov.l	301958 <_new_tableux+0x370>,r2	! 30b4dc
  3018f4:	11 26       	mov.l	r2,@(24,r1)
  3018f6:	61 e3       	mov	r14,r1
  3018f8:	71 f0       	add	#-16,r1
  3018fa:	51 1a       	mov.l	@(40,r1),r1
  3018fc:	51 11       	mov.l	@(4,r1),r1
  3018fe:	61 12       	mov.l	@r1,r1
  301900:	61 12       	mov.l	@r1,r1
  301902:	71 10       	add	#16,r1
  301904:	e2 00       	mov	#0,r2
  301906:	60 23       	mov	r2,r0
  301908:	80 12       	mov.b	r0,@(2,r1)
  30190a:	61 e3       	mov	r14,r1
  30190c:	71 f0       	add	#-16,r1
  30190e:	51 1a       	mov.l	@(40,r1),r1
  301910:	51 11       	mov.l	@(4,r1),r1
  301912:	62 12       	mov.l	@r1,r2
  301914:	61 e3       	mov	r14,r1
  301916:	84 18       	mov.b	@(8,r1),r0
  301918:	61 03       	mov	r0,r1
  30191a:	61 1c       	extu.b	r1,r1
  30191c:	d3 0d       	mov.l	301954 <_new_tableux+0x36c>,r3	! 3fffffff
  30191e:	31 3c       	add	r3,r1
  301920:	41 08       	shll2	r1
  301922:	31 2c       	add	r2,r1
  301924:	61 12       	mov.l	@r1,r1
  301926:	71 10       	add	#16,r1
  301928:	e2 00       	mov	#0,r2
  30192a:	60 23       	mov	r2,r0
  30192c:	80 12       	mov.b	r0,@(2,r1)
  30192e:	61 e3       	mov	r14,r1
  301930:	71 f0       	add	#-16,r1
  301932:	51 1a       	mov.l	@(40,r1),r1
  301934:	60 13       	mov	r1,r0
  301936:	7e 30       	add	#48,r14
  301938:	6f e3       	mov	r14,r15
  30193a:	4f 26       	lds.l	@r15+,pr
  30193c:	6e f6       	mov.l	@r15+,r14
  30193e:	68 f6       	mov.l	@r15+,r8
  301940:	00 0b       	rts	
  301942:	00 09       	nop	
  301944:	00 30       	.word 0x0030
  301946:	b4 d0       	bsr	3022ea <_process_common_keys+0x4>
  301948:	00 30       	.word 0x0030
  30194a:	13 98       	mov.l	r9,@(32,r3)
  30194c:	00 00       	.word 0x0000
  30194e:	de fb       	mov.l	301d3c <_extract_column_names+0x70>,r14	! 312c6312
  301950:	00 30       	.word 0x0030
  301952:	b4 d4       	bsr	3022fe <_process_common_keys+0x18>
  301954:	3f ff       	addv	r15,r15
  301956:	ff ff       	.word 0xffff
  301958:	00 30       	.word 0x0030
  30195a:	b4 dc       	bsr	302316 <_process_common_keys+0x30>

0030195c <_free_tableux>:
  30195c:	2f e6       	mov.l	r14,@-r15
  30195e:	4f 22       	sts.l	pr,@-r15
  301960:	7f f4       	add	#-12,r15
  301962:	6e f3       	mov	r15,r14
  301964:	61 e3       	mov	r14,r1
  301966:	71 cc       	add	#-52,r1
  301968:	11 4d       	mov.l	r4,@(52,r1)
  30196a:	61 e3       	mov	r14,r1
  30196c:	71 cc       	add	#-52,r1
  30196e:	51 1d       	mov.l	@(52,r1),r1
  301970:	21 18       	tst	r1,r1
  301972:	8b 01       	bf	301978 <_free_tableux+0x1c>
  301974:	a0 81       	bra	301a7a <_free_tableux+0x11e>
  301976:	00 09       	nop	
  301978:	61 e3       	mov	r14,r1
  30197a:	71 cc       	add	#-52,r1
  30197c:	e2 00       	mov	#0,r2
  30197e:	11 2f       	mov.l	r2,@(60,r1)
  301980:	a0 60       	bra	301a44 <_free_tableux+0xe8>
  301982:	00 09       	nop	
  301984:	61 e3       	mov	r14,r1
  301986:	71 cc       	add	#-52,r1
  301988:	e2 00       	mov	#0,r2
  30198a:	11 2e       	mov.l	r2,@(56,r1)
  30198c:	a0 39       	bra	301a02 <_free_tableux+0xa6>
  30198e:	00 09       	nop	
  301990:	61 e3       	mov	r14,r1
  301992:	71 cc       	add	#-52,r1
  301994:	51 1d       	mov.l	@(52,r1),r1
  301996:	52 11       	mov.l	@(4,r1),r2
  301998:	61 e3       	mov	r14,r1
  30199a:	71 cc       	add	#-52,r1
  30199c:	51 1f       	mov.l	@(60,r1),r1
  30199e:	41 08       	shll2	r1
  3019a0:	31 2c       	add	r2,r1
  3019a2:	61 12       	mov.l	@r1,r1
  3019a4:	21 18       	tst	r1,r1
  3019a6:	89 25       	bt	3019f4 <_free_tableux+0x98>
  3019a8:	61 e3       	mov	r14,r1
  3019aa:	71 cc       	add	#-52,r1
  3019ac:	51 1d       	mov.l	@(52,r1),r1
  3019ae:	52 11       	mov.l	@(4,r1),r2
  3019b0:	61 e3       	mov	r14,r1
  3019b2:	71 cc       	add	#-52,r1
  3019b4:	51 1f       	mov.l	@(60,r1),r1
  3019b6:	41 08       	shll2	r1
  3019b8:	31 2c       	add	r2,r1
  3019ba:	62 12       	mov.l	@r1,r2
  3019bc:	61 e3       	mov	r14,r1
  3019be:	71 cc       	add	#-52,r1
  3019c0:	51 1e       	mov.l	@(56,r1),r1
  3019c2:	41 08       	shll2	r1
  3019c4:	31 2c       	add	r2,r1
  3019c6:	61 12       	mov.l	@r1,r1
  3019c8:	21 18       	tst	r1,r1
  3019ca:	89 13       	bt	3019f4 <_free_tableux+0x98>
  3019cc:	61 e3       	mov	r14,r1
  3019ce:	71 cc       	add	#-52,r1
  3019d0:	51 1d       	mov.l	@(52,r1),r1
  3019d2:	52 11       	mov.l	@(4,r1),r2
  3019d4:	61 e3       	mov	r14,r1
  3019d6:	71 cc       	add	#-52,r1
  3019d8:	51 1f       	mov.l	@(60,r1),r1
  3019da:	41 08       	shll2	r1
  3019dc:	31 2c       	add	r2,r1
  3019de:	62 12       	mov.l	@r1,r2
  3019e0:	61 e3       	mov	r14,r1
  3019e2:	71 cc       	add	#-52,r1
  3019e4:	51 1e       	mov.l	@(56,r1),r1
  3019e6:	41 08       	shll2	r1
  3019e8:	31 2c       	add	r2,r1
  3019ea:	61 12       	mov.l	@r1,r1
  3019ec:	64 13       	mov	r1,r4
  3019ee:	d1 26       	mov.l	301a88 <_free_tableux+0x12c>,r1	! 301490 <_free_viscell>
  3019f0:	41 0b       	jsr	@r1
  3019f2:	00 09       	nop	
  3019f4:	61 e3       	mov	r14,r1
  3019f6:	71 cc       	add	#-52,r1
  3019f8:	62 e3       	mov	r14,r2
  3019fa:	72 cc       	add	#-52,r2
  3019fc:	52 2e       	mov.l	@(56,r2),r2
  3019fe:	72 01       	add	#1,r2
  301a00:	11 2e       	mov.l	r2,@(56,r1)
  301a02:	61 e3       	mov	r14,r1
  301a04:	71 cc       	add	#-52,r1
  301a06:	51 1d       	mov.l	@(52,r1),r1
  301a08:	84 11       	mov.b	@(1,r1),r0
  301a0a:	61 03       	mov	r0,r1
  301a0c:	61 1c       	extu.b	r1,r1
  301a0e:	62 13       	mov	r1,r2
  301a10:	61 e3       	mov	r14,r1
  301a12:	71 cc       	add	#-52,r1
  301a14:	51 1e       	mov.l	@(56,r1),r1
  301a16:	31 23       	cmp/ge	r2,r1
  301a18:	8b ba       	bf	301990 <_free_tableux+0x34>
  301a1a:	61 e3       	mov	r14,r1
  301a1c:	71 cc       	add	#-52,r1
  301a1e:	51 1d       	mov.l	@(52,r1),r1
  301a20:	52 11       	mov.l	@(4,r1),r2
  301a22:	61 e3       	mov	r14,r1
  301a24:	71 cc       	add	#-52,r1
  301a26:	51 1f       	mov.l	@(60,r1),r1
  301a28:	41 08       	shll2	r1
  301a2a:	31 2c       	add	r2,r1
  301a2c:	61 12       	mov.l	@r1,r1
  301a2e:	64 13       	mov	r1,r4
  301a30:	d1 16       	mov.l	301a8c <_free_tableux+0x130>,r1	! 309244 <_free>
  301a32:	41 0b       	jsr	@r1
  301a34:	00 09       	nop	
  301a36:	61 e3       	mov	r14,r1
  301a38:	71 cc       	add	#-52,r1
  301a3a:	62 e3       	mov	r14,r2
  301a3c:	72 cc       	add	#-52,r2
  301a3e:	52 2f       	mov.l	@(60,r2),r2
  301a40:	72 01       	add	#1,r2
  301a42:	11 2f       	mov.l	r2,@(60,r1)
  301a44:	61 e3       	mov	r14,r1
  301a46:	71 cc       	add	#-52,r1
  301a48:	51 1d       	mov.l	@(52,r1),r1
  301a4a:	61 10       	mov.b	@r1,r1
  301a4c:	61 1c       	extu.b	r1,r1
  301a4e:	62 13       	mov	r1,r2
  301a50:	61 e3       	mov	r14,r1
  301a52:	71 cc       	add	#-52,r1
  301a54:	51 1f       	mov.l	@(60,r1),r1
  301a56:	31 23       	cmp/ge	r2,r1
  301a58:	8b 94       	bf	301984 <_free_tableux+0x28>
  301a5a:	61 e3       	mov	r14,r1
  301a5c:	71 cc       	add	#-52,r1
  301a5e:	51 1d       	mov.l	@(52,r1),r1
  301a60:	51 11       	mov.l	@(4,r1),r1
  301a62:	64 13       	mov	r1,r4
  301a64:	d1 09       	mov.l	301a8c <_free_tableux+0x130>,r1	! 309244 <_free>
  301a66:	41 0b       	jsr	@r1
  301a68:	00 09       	nop	
  301a6a:	61 e3       	mov	r14,r1
  301a6c:	71 cc       	add	#-52,r1
  301a6e:	54 1d       	mov.l	@(52,r1),r4
  301a70:	d1 06       	mov.l	301a8c <_free_tableux+0x130>,r1	! 309244 <_free>
  301a72:	41 0b       	jsr	@r1
  301a74:	00 09       	nop	
  301a76:	a0 01       	bra	301a7c <_free_tableux+0x120>
  301a78:	00 09       	nop	
  301a7a:	00 09       	nop	
  301a7c:	7e 0c       	add	#12,r14
  301a7e:	6f e3       	mov	r14,r15
  301a80:	4f 26       	lds.l	@r15+,pr
  301a82:	6e f6       	mov.l	@r15+,r14
  301a84:	00 0b       	rts	
  301a86:	00 09       	nop	
  301a88:	00 30       	.word 0x0030
  301a8a:	14 90       	mov.l	r9,@(0,r4)
  301a8c:	00 30       	.word 0x0030
  301a8e:	92 44       	mov.w	301b1a <_display_tableux+0x8a>,r2	! 611c

00301a90 <_display_tableux>:
  301a90:	2f e6       	mov.l	r14,@-r15
  301a92:	4f 22       	sts.l	pr,@-r15
  301a94:	7f f4       	add	#-12,r15
  301a96:	6e f3       	mov	r15,r14
  301a98:	61 e3       	mov	r14,r1
  301a9a:	71 cc       	add	#-52,r1
  301a9c:	11 4d       	mov.l	r4,@(52,r1)
  301a9e:	61 e3       	mov	r14,r1
  301aa0:	71 cc       	add	#-52,r1
  301aa2:	e2 00       	mov	#0,r2
  301aa4:	11 2f       	mov.l	r2,@(60,r1)
  301aa6:	a0 34       	bra	301b12 <_display_tableux+0x82>
  301aa8:	00 09       	nop	
  301aaa:	61 e3       	mov	r14,r1
  301aac:	71 cc       	add	#-52,r1
  301aae:	e2 00       	mov	#0,r2
  301ab0:	11 2e       	mov.l	r2,@(56,r1)
  301ab2:	a0 1b       	bra	301aec <_display_tableux+0x5c>
  301ab4:	00 09       	nop	
  301ab6:	61 e3       	mov	r14,r1
  301ab8:	71 cc       	add	#-52,r1
  301aba:	51 1d       	mov.l	@(52,r1),r1
  301abc:	52 11       	mov.l	@(4,r1),r2
  301abe:	61 e3       	mov	r14,r1
  301ac0:	71 cc       	add	#-52,r1
  301ac2:	51 1f       	mov.l	@(60,r1),r1
  301ac4:	41 08       	shll2	r1
  301ac6:	31 2c       	add	r2,r1
  301ac8:	62 12       	mov.l	@r1,r2
  301aca:	61 e3       	mov	r14,r1
  301acc:	71 cc       	add	#-52,r1
  301ace:	51 1e       	mov.l	@(56,r1),r1
  301ad0:	41 08       	shll2	r1
  301ad2:	31 2c       	add	r2,r1
  301ad4:	61 12       	mov.l	@r1,r1
  301ad6:	64 13       	mov	r1,r4
  301ad8:	d1 17       	mov.l	301b38 <_display_tableux+0xa8>,r1	! 30154c <_draw_cell>
  301ada:	41 0b       	jsr	@r1
  301adc:	00 09       	nop	
  301ade:	61 e3       	mov	r14,r1
  301ae0:	71 cc       	add	#-52,r1
  301ae2:	62 e3       	mov	r14,r2
  301ae4:	72 cc       	add	#-52,r2
  301ae6:	52 2e       	mov.l	@(56,r2),r2
  301ae8:	72 01       	add	#1,r2
  301aea:	11 2e       	mov.l	r2,@(56,r1)
  301aec:	61 e3       	mov	r14,r1
  301aee:	71 cc       	add	#-52,r1
  301af0:	51 1d       	mov.l	@(52,r1),r1
  301af2:	84 11       	mov.b	@(1,r1),r0
  301af4:	61 03       	mov	r0,r1
  301af6:	61 1c       	extu.b	r1,r1
  301af8:	62 13       	mov	r1,r2
  301afa:	61 e3       	mov	r14,r1
  301afc:	71 cc       	add	#-52,r1
  301afe:	51 1e       	mov.l	@(56,r1),r1
  301b00:	31 23       	cmp/ge	r2,r1
  301b02:	8b d8       	bf	301ab6 <_display_tableux+0x26>
  301b04:	61 e3       	mov	r14,r1
  301b06:	71 cc       	add	#-52,r1
  301b08:	62 e3       	mov	r14,r2
  301b0a:	72 cc       	add	#-52,r2
  301b0c:	52 2f       	mov.l	@(60,r2),r2
  301b0e:	72 01       	add	#1,r2
  301b10:	11 2f       	mov.l	r2,@(60,r1)
  301b12:	61 e3       	mov	r14,r1
  301b14:	71 cc       	add	#-52,r1
  301b16:	51 1d       	mov.l	@(52,r1),r1
  301b18:	61 10       	mov.b	@r1,r1
  301b1a:	61 1c       	extu.b	r1,r1
  301b1c:	62 13       	mov	r1,r2
  301b1e:	61 e3       	mov	r14,r1
  301b20:	71 cc       	add	#-52,r1
  301b22:	51 1f       	mov.l	@(60,r1),r1
  301b24:	31 23       	cmp/ge	r2,r1
  301b26:	8b c0       	bf	301aaa <_display_tableux+0x1a>
  301b28:	00 09       	nop	
  301b2a:	00 09       	nop	
  301b2c:	7e 0c       	add	#12,r14
  301b2e:	6f e3       	mov	r14,r15
  301b30:	4f 26       	lds.l	@r15+,pr
  301b32:	6e f6       	mov.l	@r15+,r14
  301b34:	00 0b       	rts	
  301b36:	00 09       	nop	
  301b38:	00 30       	.word 0x0030
  301b3a:	15 4c       	mov.l	r4,@(48,r5)

00301b3c <_update_cursor>:
  301b3c:	2f e6       	mov.l	r14,@-r15
  301b3e:	7f f4       	add	#-12,r15
  301b40:	6e f3       	mov	r15,r14
  301b42:	62 43       	mov	r4,r2
  301b44:	63 53       	mov	r5,r3
  301b46:	61 e3       	mov	r14,r1
  301b48:	71 cc       	add	#-52,r1
  301b4a:	11 6d       	mov.l	r6,@(52,r1)
  301b4c:	61 e3       	mov	r14,r1
  301b4e:	71 fc       	add	#-4,r1
  301b50:	60 23       	mov	r2,r0
  301b52:	80 1c       	mov.b	r0,@(12,r1)
  301b54:	61 e3       	mov	r14,r1
  301b56:	71 fc       	add	#-4,r1
  301b58:	62 33       	mov	r3,r2
  301b5a:	60 23       	mov	r2,r0
  301b5c:	80 18       	mov.b	r0,@(8,r1)
  301b5e:	61 e3       	mov	r14,r1
  301b60:	71 cc       	add	#-52,r1
  301b62:	51 1d       	mov.l	@(52,r1),r1
  301b64:	52 11       	mov.l	@(4,r1),r2
  301b66:	61 e3       	mov	r14,r1
  301b68:	71 cc       	add	#-52,r1
  301b6a:	51 1d       	mov.l	@(52,r1),r1
  301b6c:	84 13       	mov.b	@(3,r1),r0
  301b6e:	61 03       	mov	r0,r1
  301b70:	61 1c       	extu.b	r1,r1
  301b72:	41 08       	shll2	r1
  301b74:	31 2c       	add	r2,r1
  301b76:	62 12       	mov.l	@r1,r2
  301b78:	61 e3       	mov	r14,r1
  301b7a:	71 cc       	add	#-52,r1
  301b7c:	51 1d       	mov.l	@(52,r1),r1
  301b7e:	84 12       	mov.b	@(2,r1),r0
  301b80:	61 03       	mov	r0,r1
  301b82:	61 1c       	extu.b	r1,r1
  301b84:	41 08       	shll2	r1
  301b86:	31 2c       	add	r2,r1
  301b88:	61 12       	mov.l	@r1,r1
  301b8a:	71 10       	add	#16,r1
  301b8c:	e2 00       	mov	#0,r2
  301b8e:	21 20       	mov.b	r2,@r1
  301b90:	61 e3       	mov	r14,r1
  301b92:	71 cc       	add	#-52,r1
  301b94:	51 1d       	mov.l	@(52,r1),r1
  301b96:	52 11       	mov.l	@(4,r1),r2
  301b98:	61 e3       	mov	r14,r1
  301b9a:	71 fc       	add	#-4,r1
  301b9c:	84 18       	mov.b	@(8,r1),r0
  301b9e:	61 03       	mov	r0,r1
  301ba0:	61 1c       	extu.b	r1,r1
  301ba2:	41 08       	shll2	r1
  301ba4:	31 2c       	add	r2,r1
  301ba6:	62 12       	mov.l	@r1,r2
  301ba8:	61 e3       	mov	r14,r1
  301baa:	71 fc       	add	#-4,r1
  301bac:	84 1c       	mov.b	@(12,r1),r0
  301bae:	61 03       	mov	r0,r1
  301bb0:	61 1c       	extu.b	r1,r1
  301bb2:	41 08       	shll2	r1
  301bb4:	31 2c       	add	r2,r1
  301bb6:	61 12       	mov.l	@r1,r1
  301bb8:	71 10       	add	#16,r1
  301bba:	e2 01       	mov	#1,r2
  301bbc:	21 20       	mov.b	r2,@r1
  301bbe:	61 e3       	mov	r14,r1
  301bc0:	71 cc       	add	#-52,r1
  301bc2:	51 1d       	mov.l	@(52,r1),r1
  301bc4:	62 e3       	mov	r14,r2
  301bc6:	72 fc       	add	#-4,r2
  301bc8:	84 2c       	mov.b	@(12,r2),r0
  301bca:	62 03       	mov	r0,r2
  301bcc:	60 23       	mov	r2,r0
  301bce:	80 12       	mov.b	r0,@(2,r1)
  301bd0:	61 e3       	mov	r14,r1
  301bd2:	71 cc       	add	#-52,r1
  301bd4:	51 1d       	mov.l	@(52,r1),r1
  301bd6:	62 e3       	mov	r14,r2
  301bd8:	72 fc       	add	#-4,r2
  301bda:	84 28       	mov.b	@(8,r2),r0
  301bdc:	62 03       	mov	r0,r2
  301bde:	60 23       	mov	r2,r0
  301be0:	80 13       	mov.b	r0,@(3,r1)
  301be2:	00 09       	nop	
  301be4:	7e 0c       	add	#12,r14
  301be6:	6f e3       	mov	r14,r15
  301be8:	6e f6       	mov.l	@r15+,r14
  301bea:	00 0b       	rts	
  301bec:	00 09       	nop	

00301bee <_extract_row_names>:
  301bee:	2f 86       	mov.l	r8,@-r15
  301bf0:	2f e6       	mov.l	r14,@-r15
  301bf2:	4f 22       	sts.l	pr,@-r15
  301bf4:	7f f4       	add	#-12,r15
  301bf6:	6e f3       	mov	r15,r14
  301bf8:	61 e3       	mov	r14,r1
  301bfa:	71 cc       	add	#-52,r1
  301bfc:	11 4d       	mov.l	r4,@(52,r1)
  301bfe:	61 e3       	mov	r14,r1
  301c00:	71 cc       	add	#-52,r1
  301c02:	51 1d       	mov.l	@(52,r1),r1
  301c04:	61 10       	mov.b	@r1,r1
  301c06:	61 1c       	extu.b	r1,r1
  301c08:	71 ff       	add	#-1,r1
  301c0a:	68 e3       	mov	r14,r8
  301c0c:	78 cc       	add	#-52,r8
  301c0e:	e5 04       	mov	#4,r5
  301c10:	64 13       	mov	r1,r4
  301c12:	d1 2a       	mov.l	301cbc <_extract_row_names+0xce>,r1	! 308ee0 <_calloc>
  301c14:	41 0b       	jsr	@r1
  301c16:	00 09       	nop	
  301c18:	61 03       	mov	r0,r1
  301c1a:	18 1e       	mov.l	r1,@(56,r8)
  301c1c:	61 e3       	mov	r14,r1
  301c1e:	71 cc       	add	#-52,r1
  301c20:	e2 01       	mov	#1,r2
  301c22:	11 2f       	mov.l	r2,@(60,r1)
  301c24:	a0 34       	bra	301c90 <_extract_row_names+0xa2>
  301c26:	00 09       	nop	
  301c28:	61 e3       	mov	r14,r1
  301c2a:	71 cc       	add	#-52,r1
  301c2c:	51 1f       	mov.l	@(60,r1),r1
  301c2e:	d2 24       	mov.l	301cc0 <_extract_row_names+0xd2>,r2	! 3fffffff
  301c30:	31 2c       	add	r2,r1
  301c32:	41 08       	shll2	r1
  301c34:	62 e3       	mov	r14,r2
  301c36:	72 cc       	add	#-52,r2
  301c38:	52 2e       	mov.l	@(56,r2),r2
  301c3a:	68 23       	mov	r2,r8
  301c3c:	38 1c       	add	r1,r8
  301c3e:	e4 03       	mov	#3,r4
  301c40:	d1 20       	mov.l	301cc4 <_extract_row_names+0xd6>,r1	! 309250 <_malloc>
  301c42:	41 0b       	jsr	@r1
  301c44:	00 09       	nop	
  301c46:	61 03       	mov	r0,r1
  301c48:	28 12       	mov.l	r1,@r8
  301c4a:	61 e3       	mov	r14,r1
  301c4c:	71 cc       	add	#-52,r1
  301c4e:	51 1f       	mov.l	@(60,r1),r1
  301c50:	d2 1b       	mov.l	301cc0 <_extract_row_names+0xd2>,r2	! 3fffffff
  301c52:	31 2c       	add	r2,r1
  301c54:	41 08       	shll2	r1
  301c56:	62 e3       	mov	r14,r2
  301c58:	72 cc       	add	#-52,r2
  301c5a:	52 2e       	mov.l	@(56,r2),r2
  301c5c:	31 2c       	add	r2,r1
  301c5e:	63 12       	mov.l	@r1,r3
  301c60:	61 e3       	mov	r14,r1
  301c62:	71 cc       	add	#-52,r1
  301c64:	51 1d       	mov.l	@(52,r1),r1
  301c66:	52 11       	mov.l	@(4,r1),r2
  301c68:	61 e3       	mov	r14,r1
  301c6a:	71 cc       	add	#-52,r1
  301c6c:	51 1f       	mov.l	@(60,r1),r1
  301c6e:	41 08       	shll2	r1
  301c70:	31 2c       	add	r2,r1
  301c72:	61 12       	mov.l	@r1,r1
  301c74:	61 12       	mov.l	@r1,r1
  301c76:	51 16       	mov.l	@(24,r1),r1
  301c78:	65 13       	mov	r1,r5
  301c7a:	64 33       	mov	r3,r4
  301c7c:	d1 12       	mov.l	301cc8 <_extract_row_names+0xda>,r1	! 308fb6 <_strcpy>
  301c7e:	41 0b       	jsr	@r1
  301c80:	00 09       	nop	
  301c82:	61 e3       	mov	r14,r1
  301c84:	71 cc       	add	#-52,r1
  301c86:	62 e3       	mov	r14,r2
  301c88:	72 cc       	add	#-52,r2
  301c8a:	52 2f       	mov.l	@(60,r2),r2
  301c8c:	72 01       	add	#1,r2
  301c8e:	11 2f       	mov.l	r2,@(60,r1)
  301c90:	61 e3       	mov	r14,r1
  301c92:	71 cc       	add	#-52,r1
  301c94:	51 1d       	mov.l	@(52,r1),r1
  301c96:	61 10       	mov.b	@r1,r1
  301c98:	61 1c       	extu.b	r1,r1
  301c9a:	71 ff       	add	#-1,r1
  301c9c:	62 e3       	mov	r14,r2
  301c9e:	72 cc       	add	#-52,r2
  301ca0:	52 2f       	mov.l	@(60,r2),r2
  301ca2:	32 13       	cmp/ge	r1,r2
  301ca4:	8b c0       	bf	301c28 <_extract_row_names+0x3a>
  301ca6:	61 e3       	mov	r14,r1
  301ca8:	71 cc       	add	#-52,r1
  301caa:	51 1e       	mov.l	@(56,r1),r1
  301cac:	60 13       	mov	r1,r0
  301cae:	7e 0c       	add	#12,r14
  301cb0:	6f e3       	mov	r14,r15
  301cb2:	4f 26       	lds.l	@r15+,pr
  301cb4:	6e f6       	mov.l	@r15+,r14
  301cb6:	68 f6       	mov.l	@r15+,r8
  301cb8:	00 0b       	rts	
  301cba:	00 09       	nop	
  301cbc:	00 30       	.word 0x0030
  301cbe:	8e e0       	ldre	301e82 <_extract_grid+0xd2>	! 9
  301cc0:	3f ff       	addv	r15,r15
  301cc2:	ff ff       	.word 0xffff
  301cc4:	00 30       	.word 0x0030
  301cc6:	92 50       	mov.w	301d6a <_extract_column_names+0x9e>,r2	! 522f
  301cc8:	00 30       	.word 0x0030
  301cca:	8f b6       	bf.s	301c3a <_extract_row_names+0x4c>

00301ccc <_extract_column_names>:
  301ccc:	2f 86       	mov.l	r8,@-r15
  301cce:	2f e6       	mov.l	r14,@-r15
  301cd0:	4f 22       	sts.l	pr,@-r15
  301cd2:	7f f4       	add	#-12,r15
  301cd4:	6e f3       	mov	r15,r14
  301cd6:	61 e3       	mov	r14,r1
  301cd8:	71 cc       	add	#-52,r1
  301cda:	11 4d       	mov.l	r4,@(52,r1)
  301cdc:	61 e3       	mov	r14,r1
  301cde:	71 cc       	add	#-52,r1
  301ce0:	51 1d       	mov.l	@(52,r1),r1
  301ce2:	84 11       	mov.b	@(1,r1),r0
  301ce4:	61 03       	mov	r0,r1
  301ce6:	61 1c       	extu.b	r1,r1
  301ce8:	71 ff       	add	#-1,r1
  301cea:	68 e3       	mov	r14,r8
  301cec:	78 cc       	add	#-52,r8
  301cee:	e5 04       	mov	#4,r5
  301cf0:	64 13       	mov	r1,r4
  301cf2:	d1 2b       	mov.l	301da0 <_extract_column_names+0xd4>,r1	! 308ee0 <_calloc>
  301cf4:	41 0b       	jsr	@r1
  301cf6:	00 09       	nop	
  301cf8:	61 03       	mov	r0,r1
  301cfa:	18 1e       	mov.l	r1,@(56,r8)
  301cfc:	61 e3       	mov	r14,r1
  301cfe:	71 cc       	add	#-52,r1
  301d00:	e2 01       	mov	#1,r2
  301d02:	11 2f       	mov.l	r2,@(60,r1)
  301d04:	a0 34       	bra	301d70 <_extract_column_names+0xa4>
  301d06:	00 09       	nop	
  301d08:	61 e3       	mov	r14,r1
  301d0a:	71 cc       	add	#-52,r1
  301d0c:	51 1f       	mov.l	@(60,r1),r1
  301d0e:	d2 25       	mov.l	301da4 <_extract_column_names+0xd8>,r2	! 3fffffff
  301d10:	31 2c       	add	r2,r1
  301d12:	41 08       	shll2	r1
  301d14:	62 e3       	mov	r14,r2
  301d16:	72 cc       	add	#-52,r2
  301d18:	52 2e       	mov.l	@(56,r2),r2
  301d1a:	68 23       	mov	r2,r8
  301d1c:	38 1c       	add	r1,r8
  301d1e:	e4 03       	mov	#3,r4
  301d20:	d1 21       	mov.l	301da8 <_extract_column_names+0xdc>,r1	! 309250 <_malloc>
  301d22:	41 0b       	jsr	@r1
  301d24:	00 09       	nop	
  301d26:	61 03       	mov	r0,r1
  301d28:	28 12       	mov.l	r1,@r8
  301d2a:	61 e3       	mov	r14,r1
  301d2c:	71 cc       	add	#-52,r1
  301d2e:	51 1f       	mov.l	@(60,r1),r1
  301d30:	d0 1c       	mov.l	301da4 <_extract_column_names+0xd8>,r0	! 3fffffff
  301d32:	31 0c       	add	r0,r1
  301d34:	41 08       	shll2	r1
  301d36:	62 e3       	mov	r14,r2
  301d38:	72 cc       	add	#-52,r2
  301d3a:	52 2e       	mov.l	@(56,r2),r2
  301d3c:	31 2c       	add	r2,r1
  301d3e:	63 12       	mov.l	@r1,r3
  301d40:	61 e3       	mov	r14,r1
  301d42:	71 cc       	add	#-52,r1
  301d44:	51 1d       	mov.l	@(52,r1),r1
  301d46:	51 11       	mov.l	@(4,r1),r1
  301d48:	62 12       	mov.l	@r1,r2
  301d4a:	61 e3       	mov	r14,r1
  301d4c:	71 cc       	add	#-52,r1
  301d4e:	51 1f       	mov.l	@(60,r1),r1
  301d50:	41 08       	shll2	r1
  301d52:	31 2c       	add	r2,r1
  301d54:	61 12       	mov.l	@r1,r1
  301d56:	51 16       	mov.l	@(24,r1),r1
  301d58:	65 13       	mov	r1,r5
  301d5a:	64 33       	mov	r3,r4
  301d5c:	d1 13       	mov.l	301dac <_extract_column_names+0xe0>,r1	! 308fb6 <_strcpy>
  301d5e:	41 0b       	jsr	@r1
  301d60:	00 09       	nop	
  301d62:	61 e3       	mov	r14,r1
  301d64:	71 cc       	add	#-52,r1
  301d66:	62 e3       	mov	r14,r2
  301d68:	72 cc       	add	#-52,r2
  301d6a:	52 2f       	mov.l	@(60,r2),r2
  301d6c:	72 01       	add	#1,r2
  301d6e:	11 2f       	mov.l	r2,@(60,r1)
  301d70:	61 e3       	mov	r14,r1
  301d72:	71 cc       	add	#-52,r1
  301d74:	51 1d       	mov.l	@(52,r1),r1
  301d76:	84 11       	mov.b	@(1,r1),r0
  301d78:	61 03       	mov	r0,r1
  301d7a:	61 1c       	extu.b	r1,r1
  301d7c:	71 ff       	add	#-1,r1
  301d7e:	62 e3       	mov	r14,r2
  301d80:	72 cc       	add	#-52,r2
  301d82:	52 2f       	mov.l	@(60,r2),r2
  301d84:	32 13       	cmp/ge	r1,r2
  301d86:	8b bf       	bf	301d08 <_extract_column_names+0x3c>
  301d88:	61 e3       	mov	r14,r1
  301d8a:	71 cc       	add	#-52,r1
  301d8c:	51 1e       	mov.l	@(56,r1),r1
  301d8e:	60 13       	mov	r1,r0
  301d90:	7e 0c       	add	#12,r14
  301d92:	6f e3       	mov	r14,r15
  301d94:	4f 26       	lds.l	@r15+,pr
  301d96:	6e f6       	mov.l	@r15+,r14
  301d98:	68 f6       	mov.l	@r15+,r8
  301d9a:	00 0b       	rts	
  301d9c:	00 09       	nop	
  301d9e:	00 09       	nop	
  301da0:	00 30       	.word 0x0030
  301da2:	8e e0       	ldre	301f66 <_matrix_into_tableux+0x6>	! 7fd0
  301da4:	3f ff       	addv	r15,r15
  301da6:	ff ff       	.word 0xffff
  301da8:	00 30       	.word 0x0030
  301daa:	92 50       	mov.w	301e4e <_extract_grid+0x9e>,r2	! 61e3
  301dac:	00 30       	.word 0x0030
  301dae:	8f b6       	bf.s	301d1e <_extract_column_names+0x52>

00301db0 <_extract_grid>:
  301db0:	2f 86       	mov.l	r8,@-r15
  301db2:	2f a6       	mov.l	r10,@-r15
  301db4:	2f b6       	mov.l	r11,@-r15
  301db6:	2f e6       	mov.l	r14,@-r15
  301db8:	4f 22       	sts.l	pr,@-r15
  301dba:	7f dc       	add	#-36,r15
  301dbc:	6e f3       	mov	r15,r14
  301dbe:	61 e3       	mov	r14,r1
  301dc0:	71 e4       	add	#-28,r1
  301dc2:	11 4b       	mov.l	r4,@(44,r1)
  301dc4:	61 e3       	mov	r14,r1
  301dc6:	71 e4       	add	#-28,r1
  301dc8:	51 1b       	mov.l	@(44,r1),r1
  301dca:	61 10       	mov.b	@r1,r1
  301dcc:	61 1c       	extu.b	r1,r1
  301dce:	71 ff       	add	#-1,r1
  301dd0:	68 e3       	mov	r14,r8
  301dd2:	78 e4       	add	#-28,r8
  301dd4:	e5 04       	mov	#4,r5
  301dd6:	64 13       	mov	r1,r4
  301dd8:	d1 5d       	mov.l	301f50 <_extract_grid+0x1a0>,r1	! 308ee0 <_calloc>
  301dda:	41 0b       	jsr	@r1
  301ddc:	00 09       	nop	
  301dde:	61 03       	mov	r0,r1
  301de0:	18 1c       	mov.l	r1,@(48,r8)
  301de2:	61 e3       	mov	r14,r1
  301de4:	71 e4       	add	#-28,r1
  301de6:	e2 00       	mov	#0,r2
  301de8:	11 2f       	mov.l	r2,@(60,r1)
  301dea:	a0 1f       	bra	301e2c <_extract_grid+0x7c>
  301dec:	00 09       	nop	
  301dee:	61 e3       	mov	r14,r1
  301df0:	71 e4       	add	#-28,r1
  301df2:	51 1b       	mov.l	@(44,r1),r1
  301df4:	84 11       	mov.b	@(1,r1),r0
  301df6:	61 03       	mov	r0,r1
  301df8:	61 1c       	extu.b	r1,r1
  301dfa:	71 ff       	add	#-1,r1
  301dfc:	63 13       	mov	r1,r3
  301dfe:	61 e3       	mov	r14,r1
  301e00:	71 e4       	add	#-28,r1
  301e02:	51 1f       	mov.l	@(60,r1),r1
  301e04:	41 08       	shll2	r1
  301e06:	62 e3       	mov	r14,r2
  301e08:	72 e4       	add	#-28,r2
  301e0a:	52 2c       	mov.l	@(48,r2),r2
  301e0c:	68 23       	mov	r2,r8
  301e0e:	38 1c       	add	r1,r8
  301e10:	e5 10       	mov	#16,r5
  301e12:	64 33       	mov	r3,r4
  301e14:	d1 4e       	mov.l	301f50 <_extract_grid+0x1a0>,r1	! 308ee0 <_calloc>
  301e16:	41 0b       	jsr	@r1
  301e18:	00 09       	nop	
  301e1a:	61 03       	mov	r0,r1
  301e1c:	28 12       	mov.l	r1,@r8
  301e1e:	61 e3       	mov	r14,r1
  301e20:	71 e4       	add	#-28,r1
  301e22:	62 e3       	mov	r14,r2
  301e24:	72 e4       	add	#-28,r2
  301e26:	52 2f       	mov.l	@(60,r2),r2
  301e28:	72 01       	add	#1,r2
  301e2a:	11 2f       	mov.l	r2,@(60,r1)
  301e2c:	61 e3       	mov	r14,r1
  301e2e:	71 e4       	add	#-28,r1
  301e30:	51 1b       	mov.l	@(44,r1),r1
  301e32:	61 10       	mov.b	@r1,r1
  301e34:	61 1c       	extu.b	r1,r1
  301e36:	71 ff       	add	#-1,r1
  301e38:	62 e3       	mov	r14,r2
  301e3a:	72 e4       	add	#-28,r2
  301e3c:	52 2f       	mov.l	@(60,r2),r2
  301e3e:	32 13       	cmp/ge	r1,r2
  301e40:	8b d5       	bf	301dee <_extract_grid+0x3e>
  301e42:	61 e3       	mov	r14,r1
  301e44:	71 e4       	add	#-28,r1
  301e46:	e2 00       	mov	#0,r2
  301e48:	11 2e       	mov.l	r2,@(56,r1)
  301e4a:	a0 68       	bra	301f1e <_extract_grid+0x16e>
  301e4c:	00 09       	nop	
  301e4e:	61 e3       	mov	r14,r1
  301e50:	71 e4       	add	#-28,r1
  301e52:	e2 00       	mov	#0,r2
  301e54:	11 2d       	mov.l	r2,@(52,r1)
  301e56:	a0 4f       	bra	301ef8 <_extract_grid+0x148>
  301e58:	00 09       	nop	
  301e5a:	61 e3       	mov	r14,r1
  301e5c:	71 e4       	add	#-28,r1
  301e5e:	51 1b       	mov.l	@(44,r1),r1
  301e60:	52 11       	mov.l	@(4,r1),r2
  301e62:	61 e3       	mov	r14,r1
  301e64:	71 e4       	add	#-28,r1
  301e66:	51 1e       	mov.l	@(56,r1),r1
  301e68:	41 08       	shll2	r1
  301e6a:	31 2c       	add	r2,r1
  301e6c:	62 12       	mov.l	@r1,r2
  301e6e:	61 e3       	mov	r14,r1
  301e70:	71 e4       	add	#-28,r1
  301e72:	51 1d       	mov.l	@(52,r1),r1
  301e74:	41 08       	shll2	r1
  301e76:	31 2c       	add	r2,r1
  301e78:	61 12       	mov.l	@r1,r1
  301e7a:	51 16       	mov.l	@(24,r1),r1
  301e7c:	64 13       	mov	r1,r4
  301e7e:	d1 35       	mov.l	301f54 <_extract_grid+0x1a4>,r1	! 308ed4 <_atoi>
  301e80:	41 0b       	jsr	@r1
  301e82:	00 09       	nop	
  301e84:	61 03       	mov	r0,r1
  301e86:	e5 01       	mov	#1,r5
  301e88:	64 13       	mov	r1,r4
  301e8a:	d1 33       	mov.l	301f58 <_extract_grid+0x1a8>,r1	! 3081fc <_new_fraction>
  301e8c:	41 0b       	jsr	@r1
  301e8e:	00 09       	nop	
  301e90:	6a 03       	mov	r0,r10
  301e92:	6b 13       	mov	r1,r11
  301e94:	e5 01       	mov	#1,r5
  301e96:	e4 00       	mov	#0,r4
  301e98:	d1 2f       	mov.l	301f58 <_extract_grid+0x1a8>,r1	! 3081fc <_new_fraction>
  301e9a:	41 0b       	jsr	@r1
  301e9c:	00 09       	nop	
  301e9e:	66 03       	mov	r0,r6
  301ea0:	67 13       	mov	r1,r7
  301ea2:	61 e3       	mov	r14,r1
  301ea4:	71 e4       	add	#-28,r1
  301ea6:	51 1e       	mov.l	@(56,r1),r1
  301ea8:	41 08       	shll2	r1
  301eaa:	62 e3       	mov	r14,r2
  301eac:	72 e4       	add	#-28,r2
  301eae:	52 2c       	mov.l	@(48,r2),r2
  301eb0:	31 2c       	add	r2,r1
  301eb2:	62 12       	mov.l	@r1,r2
  301eb4:	61 e3       	mov	r14,r1
  301eb6:	71 e4       	add	#-28,r1
  301eb8:	51 1d       	mov.l	@(52,r1),r1
  301eba:	41 08       	shll2	r1
  301ebc:	41 08       	shll2	r1
  301ebe:	68 23       	mov	r2,r8
  301ec0:	38 1c       	add	r1,r8
  301ec2:	61 e3       	mov	r14,r1
  301ec4:	62 13       	mov	r1,r2
  301ec6:	64 a3       	mov	r10,r4
  301ec8:	65 b3       	mov	r11,r5
  301eca:	d1 24       	mov.l	301f5c <_extract_grid+0x1ac>,r1	! 3076a0 <_new_BigM>
  301ecc:	41 0b       	jsr	@r1
  301ece:	00 09       	nop	
  301ed0:	61 e3       	mov	r14,r1
  301ed2:	62 12       	mov.l	@r1,r2
  301ed4:	28 22       	mov.l	r2,@r8
  301ed6:	71 04       	add	#4,r1
  301ed8:	62 12       	mov.l	@r1,r2
  301eda:	18 21       	mov.l	r2,@(4,r8)
  301edc:	71 04       	add	#4,r1
  301ede:	62 12       	mov.l	@r1,r2
  301ee0:	18 22       	mov.l	r2,@(8,r8)
  301ee2:	71 04       	add	#4,r1
  301ee4:	62 12       	mov.l	@r1,r2
  301ee6:	18 23       	mov.l	r2,@(12,r8)
  301ee8:	71 04       	add	#4,r1
  301eea:	61 e3       	mov	r14,r1
  301eec:	71 e4       	add	#-28,r1
  301eee:	62 e3       	mov	r14,r2
  301ef0:	72 e4       	add	#-28,r2
  301ef2:	52 2d       	mov.l	@(52,r2),r2
  301ef4:	72 01       	add	#1,r2
  301ef6:	11 2d       	mov.l	r2,@(52,r1)
  301ef8:	61 e3       	mov	r14,r1
  301efa:	71 e4       	add	#-28,r1
  301efc:	51 1b       	mov.l	@(44,r1),r1
  301efe:	84 11       	mov.b	@(1,r1),r0
  301f00:	61 03       	mov	r0,r1
  301f02:	61 1c       	extu.b	r1,r1
  301f04:	71 ff       	add	#-1,r1
  301f06:	62 e3       	mov	r14,r2
  301f08:	72 e4       	add	#-28,r2
  301f0a:	52 2d       	mov.l	@(52,r2),r2
  301f0c:	32 13       	cmp/ge	r1,r2
  301f0e:	8b a4       	bf	301e5a <_extract_grid+0xaa>
  301f10:	61 e3       	mov	r14,r1
  301f12:	71 e4       	add	#-28,r1
  301f14:	62 e3       	mov	r14,r2
  301f16:	72 e4       	add	#-28,r2
  301f18:	52 2e       	mov.l	@(56,r2),r2
  301f1a:	72 01       	add	#1,r2
  301f1c:	11 2e       	mov.l	r2,@(56,r1)
  301f1e:	61 e3       	mov	r14,r1
  301f20:	71 e4       	add	#-28,r1
  301f22:	51 1b       	mov.l	@(44,r1),r1
  301f24:	61 10       	mov.b	@r1,r1
  301f26:	61 1c       	extu.b	r1,r1
  301f28:	71 ff       	add	#-1,r1
  301f2a:	62 e3       	mov	r14,r2
  301f2c:	72 e4       	add	#-28,r2
  301f2e:	52 2e       	mov.l	@(56,r2),r2
  301f30:	32 13       	cmp/ge	r1,r2
  301f32:	8b 8c       	bf	301e4e <_extract_grid+0x9e>
  301f34:	61 e3       	mov	r14,r1
  301f36:	71 e4       	add	#-28,r1
  301f38:	51 1c       	mov.l	@(48,r1),r1
  301f3a:	60 13       	mov	r1,r0
  301f3c:	7e 24       	add	#36,r14
  301f3e:	6f e3       	mov	r14,r15
  301f40:	4f 26       	lds.l	@r15+,pr
  301f42:	6e f6       	mov.l	@r15+,r14
  301f44:	6b f6       	mov.l	@r15+,r11
  301f46:	6a f6       	mov.l	@r15+,r10
  301f48:	68 f6       	mov.l	@r15+,r8
  301f4a:	00 0b       	rts	
  301f4c:	00 09       	nop	
  301f4e:	00 09       	nop	
  301f50:	00 30       	.word 0x0030
  301f52:	8e e0       	ldre	302116 <_GINT_CALL_INC_function+0x26>	! 6fe3
  301f54:	00 30       	.word 0x0030
  301f56:	8e d4       	ldre	302102 <_GINT_CALL_INC_function+0x12>	! 6112
  301f58:	00 30       	.word 0x0030
  301f5a:	81 fc       	mov.w	r0,@(24,r15)
  301f5c:	00 30       	.word 0x0030
  301f5e:	76 a0       	add	#-96,r6

00301f60 <_matrix_into_tableux>:
  301f60:	2f 86       	mov.l	r8,@-r15
  301f62:	2f e6       	mov.l	r14,@-r15
  301f64:	4f 22       	sts.l	pr,@-r15
  301f66:	7f d0       	add	#-48,r15
  301f68:	6e f3       	mov	r15,r14
  301f6a:	61 e3       	mov	r14,r1
  301f6c:	71 f0       	add	#-16,r1
  301f6e:	11 47       	mov.l	r4,@(28,r1)
  301f70:	61 e3       	mov	r14,r1
  301f72:	71 f0       	add	#-16,r1
  301f74:	11 56       	mov.l	r5,@(24,r1)
  301f76:	61 e3       	mov	r14,r1
  301f78:	71 f0       	add	#-16,r1
  301f7a:	11 65       	mov.l	r6,@(20,r1)
  301f7c:	61 e3       	mov	r14,r1
  301f7e:	71 f0       	add	#-16,r1
  301f80:	e2 01       	mov	#1,r2
  301f82:	11 2f       	mov.l	r2,@(60,r1)
  301f84:	a0 1e       	bra	301fc4 <_matrix_into_tableux+0x64>
  301f86:	00 09       	nop	
  301f88:	61 e3       	mov	r14,r1
  301f8a:	71 f0       	add	#-16,r1
  301f8c:	51 1f       	mov.l	@(60,r1),r1
  301f8e:	d2 4b       	mov.l	3020bc <_matrix_into_tableux+0x15c>,r2	! 3fffffff
  301f90:	31 2c       	add	r2,r1
  301f92:	41 08       	shll2	r1
  301f94:	62 e3       	mov	r14,r2
  301f96:	72 f0       	add	#-16,r2
  301f98:	52 26       	mov.l	@(24,r2),r2
  301f9a:	32 1c       	add	r1,r2
  301f9c:	61 e3       	mov	r14,r1
  301f9e:	71 f0       	add	#-16,r1
  301fa0:	51 15       	mov.l	@(20,r1),r1
  301fa2:	53 11       	mov.l	@(4,r1),r3
  301fa4:	61 e3       	mov	r14,r1
  301fa6:	71 f0       	add	#-16,r1
  301fa8:	51 1f       	mov.l	@(60,r1),r1
  301faa:	41 08       	shll2	r1
  301fac:	31 3c       	add	r3,r1
  301fae:	61 12       	mov.l	@r1,r1
  301fb0:	61 12       	mov.l	@r1,r1
  301fb2:	62 22       	mov.l	@r2,r2
  301fb4:	11 26       	mov.l	r2,@(24,r1)
  301fb6:	61 e3       	mov	r14,r1
  301fb8:	71 f0       	add	#-16,r1
  301fba:	62 e3       	mov	r14,r2
  301fbc:	72 f0       	add	#-16,r2
  301fbe:	52 2f       	mov.l	@(60,r2),r2
  301fc0:	72 01       	add	#1,r2
  301fc2:	11 2f       	mov.l	r2,@(60,r1)
  301fc4:	61 e3       	mov	r14,r1
  301fc6:	71 f0       	add	#-16,r1
  301fc8:	51 17       	mov.l	@(28,r1),r1
  301fca:	61 12       	mov.l	@r1,r1
  301fcc:	62 e3       	mov	r14,r2
  301fce:	72 f0       	add	#-16,r2
  301fd0:	52 2f       	mov.l	@(60,r2),r2
  301fd2:	32 13       	cmp/ge	r1,r2
  301fd4:	8b d8       	bf	301f88 <_matrix_into_tableux+0x28>
  301fd6:	68 e3       	mov	r14,r8
  301fd8:	78 f0       	add	#-16,r8
  301fda:	e4 19       	mov	#25,r4
  301fdc:	d1 38       	mov.l	3020c0 <_matrix_into_tableux+0x160>,r1	! 309250 <_malloc>
  301fde:	41 0b       	jsr	@r1
  301fe0:	00 09       	nop	
  301fe2:	61 03       	mov	r0,r1
  301fe4:	18 1c       	mov.l	r1,@(48,r8)
  301fe6:	61 e3       	mov	r14,r1
  301fe8:	71 f0       	add	#-16,r1
  301fea:	e2 01       	mov	#1,r2
  301fec:	11 2e       	mov.l	r2,@(56,r1)
  301fee:	a0 50       	bra	302092 <_matrix_into_tableux+0x132>
  301ff0:	00 09       	nop	
  301ff2:	61 e3       	mov	r14,r1
  301ff4:	71 f0       	add	#-16,r1
  301ff6:	e2 01       	mov	#1,r2
  301ff8:	11 2d       	mov.l	r2,@(52,r1)
  301ffa:	a0 3a       	bra	302072 <_matrix_into_tableux+0x112>
  301ffc:	00 09       	nop	
  301ffe:	61 e3       	mov	r14,r1
  302000:	71 f0       	add	#-16,r1
  302002:	51 1e       	mov.l	@(56,r1),r1
  302004:	63 13       	mov	r1,r3
  302006:	73 ff       	add	#-1,r3
  302008:	61 e3       	mov	r14,r1
  30200a:	71 f0       	add	#-16,r1
  30200c:	51 1d       	mov.l	@(52,r1),r1
  30200e:	67 13       	mov	r1,r7
  302010:	77 ff       	add	#-1,r7
  302012:	62 e3       	mov	r14,r2
  302014:	72 10       	add	#16,r2
  302016:	61 e3       	mov	r14,r1
  302018:	71 f0       	add	#-16,r1
  30201a:	66 73       	mov	r7,r6
  30201c:	65 33       	mov	r3,r5
  30201e:	54 17       	mov.l	@(28,r1),r4
  302020:	d1 28       	mov.l	3020c4 <_matrix_into_tableux+0x164>,r1	! 30080c <_get>
  302022:	41 0b       	jsr	@r1
  302024:	00 09       	nop	
  302026:	61 e3       	mov	r14,r1
  302028:	71 f0       	add	#-16,r1
  30202a:	51 15       	mov.l	@(20,r1),r1
  30202c:	52 11       	mov.l	@(4,r1),r2
  30202e:	61 e3       	mov	r14,r1
  302030:	71 f0       	add	#-16,r1
  302032:	51 1e       	mov.l	@(56,r1),r1
  302034:	41 08       	shll2	r1
  302036:	31 2c       	add	r2,r1
  302038:	62 12       	mov.l	@r1,r2
  30203a:	61 e3       	mov	r14,r1
  30203c:	71 f0       	add	#-16,r1
  30203e:	51 1d       	mov.l	@(52,r1),r1
  302040:	41 08       	shll2	r1
  302042:	31 2c       	add	r2,r1
  302044:	68 12       	mov.l	@r1,r8
  302046:	61 e3       	mov	r14,r1
  302048:	71 10       	add	#16,r1
  30204a:	62 e3       	mov	r14,r2
  30204c:	72 f0       	add	#-16,r2
  30204e:	52 2c       	mov.l	@(48,r2),r2
  302050:	2f 22       	mov.l	r2,@r15
  302052:	64 12       	mov.l	@r1,r4
  302054:	55 11       	mov.l	@(4,r1),r5
  302056:	56 12       	mov.l	@(8,r1),r6
  302058:	57 13       	mov.l	@(12,r1),r7
  30205a:	d1 1b       	mov.l	3020c8 <_matrix_into_tableux+0x168>,r1	! 307798 <_BigM_str>
  30205c:	41 0b       	jsr	@r1
  30205e:	00 09       	nop	
  302060:	61 03       	mov	r0,r1
  302062:	18 16       	mov.l	r1,@(24,r8)
  302064:	61 e3       	mov	r14,r1
  302066:	71 f0       	add	#-16,r1
  302068:	62 e3       	mov	r14,r2
  30206a:	72 f0       	add	#-16,r2
  30206c:	52 2d       	mov.l	@(52,r2),r2
  30206e:	72 01       	add	#1,r2
  302070:	11 2d       	mov.l	r2,@(52,r1)
  302072:	61 e3       	mov	r14,r1
  302074:	71 f0       	add	#-16,r1
  302076:	51 17       	mov.l	@(28,r1),r1
  302078:	51 11       	mov.l	@(4,r1),r1
  30207a:	62 e3       	mov	r14,r2
  30207c:	72 f0       	add	#-16,r2
  30207e:	52 2d       	mov.l	@(52,r2),r2
  302080:	32 13       	cmp/ge	r1,r2
  302082:	8b bc       	bf	301ffe <_matrix_into_tableux+0x9e>
  302084:	61 e3       	mov	r14,r1
  302086:	71 f0       	add	#-16,r1
  302088:	62 e3       	mov	r14,r2
  30208a:	72 f0       	add	#-16,r2
  30208c:	52 2e       	mov.l	@(56,r2),r2
  30208e:	72 01       	add	#1,r2
  302090:	11 2e       	mov.l	r2,@(56,r1)
  302092:	61 e3       	mov	r14,r1
  302094:	71 f0       	add	#-16,r1
  302096:	51 17       	mov.l	@(28,r1),r1
  302098:	61 12       	mov.l	@r1,r1
  30209a:	62 e3       	mov	r14,r2
  30209c:	72 f0       	add	#-16,r2
  30209e:	52 2e       	mov.l	@(56,r2),r2
  3020a0:	32 13       	cmp/ge	r1,r2
  3020a2:	8b a6       	bf	301ff2 <_matrix_into_tableux+0x92>
  3020a4:	61 e3       	mov	r14,r1
  3020a6:	71 f0       	add	#-16,r1
  3020a8:	51 15       	mov.l	@(20,r1),r1
  3020aa:	60 13       	mov	r1,r0
  3020ac:	7e 30       	add	#48,r14
  3020ae:	6f e3       	mov	r14,r15
  3020b0:	4f 26       	lds.l	@r15+,pr
  3020b2:	6e f6       	mov.l	@r15+,r14
  3020b4:	68 f6       	mov.l	@r15+,r8
  3020b6:	00 0b       	rts	
  3020b8:	00 09       	nop	
  3020ba:	00 09       	nop	
  3020bc:	3f ff       	addv	r15,r15
  3020be:	ff ff       	.word 0xffff
  3020c0:	00 30       	.word 0x0030
  3020c2:	92 50       	mov.w	302166 <_GINT_CALL_INC_STOP_function+0x24>,r2	! 7e04
  3020c4:	00 30       	.word 0x0030
  3020c6:	08 0c       	mov.b	@(r0,r0),r8
  3020c8:	00 30       	.word 0x0030
  3020ca:	77 98       	add	#-104,r7

003020cc <_GINT_CALL_SET_function>:
  3020cc:	2f e6       	mov.l	r14,@-r15
  3020ce:	7f fc       	add	#-4,r15
  3020d0:	6e f3       	mov	r15,r14
  3020d2:	61 e3       	mov	r14,r1
  3020d4:	71 c4       	add	#-60,r1
  3020d6:	11 4f       	mov.l	r4,@(60,r1)
  3020d8:	61 e3       	mov	r14,r1
  3020da:	71 c4       	add	#-60,r1
  3020dc:	51 1f       	mov.l	@(60,r1),r1
  3020de:	e2 01       	mov	#1,r2
  3020e0:	21 22       	mov.l	r2,@r1
  3020e2:	e1 00       	mov	#0,r1
  3020e4:	60 13       	mov	r1,r0
  3020e6:	7e 04       	add	#4,r14
  3020e8:	6f e3       	mov	r14,r15
  3020ea:	6e f6       	mov.l	@r15+,r14
  3020ec:	00 0b       	rts	
  3020ee:	00 09       	nop	

003020f0 <_GINT_CALL_INC_function>:
  3020f0:	2f e6       	mov.l	r14,@-r15
  3020f2:	7f fc       	add	#-4,r15
  3020f4:	6e f3       	mov	r15,r14
  3020f6:	61 e3       	mov	r14,r1
  3020f8:	71 c4       	add	#-60,r1
  3020fa:	11 4f       	mov.l	r4,@(60,r1)
  3020fc:	61 e3       	mov	r14,r1
  3020fe:	71 c4       	add	#-60,r1
  302100:	51 1f       	mov.l	@(60,r1),r1
  302102:	61 12       	mov.l	@r1,r1
  302104:	62 13       	mov	r1,r2
  302106:	72 01       	add	#1,r2
  302108:	61 e3       	mov	r14,r1
  30210a:	71 c4       	add	#-60,r1
  30210c:	51 1f       	mov.l	@(60,r1),r1
  30210e:	21 22       	mov.l	r2,@r1
  302110:	e1 00       	mov	#0,r1
  302112:	60 13       	mov	r1,r0
  302114:	7e 04       	add	#4,r14
  302116:	6f e3       	mov	r14,r15
  302118:	6e f6       	mov.l	@r15+,r14
  30211a:	00 0b       	rts	
  30211c:	00 09       	nop	

0030211e <_GINT_CALL_SET_STOP_function>:
  30211e:	2f e6       	mov.l	r14,@-r15
  302120:	7f fc       	add	#-4,r15
  302122:	6e f3       	mov	r15,r14
  302124:	61 e3       	mov	r14,r1
  302126:	71 c4       	add	#-60,r1
  302128:	11 4f       	mov.l	r4,@(60,r1)
  30212a:	61 e3       	mov	r14,r1
  30212c:	71 c4       	add	#-60,r1
  30212e:	51 1f       	mov.l	@(60,r1),r1
  302130:	e2 01       	mov	#1,r2
  302132:	21 22       	mov.l	r2,@r1
  302134:	e1 01       	mov	#1,r1
  302136:	60 13       	mov	r1,r0
  302138:	7e 04       	add	#4,r14
  30213a:	6f e3       	mov	r14,r15
  30213c:	6e f6       	mov.l	@r15+,r14
  30213e:	00 0b       	rts	
  302140:	00 09       	nop	

00302142 <_GINT_CALL_INC_STOP_function>:
  302142:	2f e6       	mov.l	r14,@-r15
  302144:	7f fc       	add	#-4,r15
  302146:	6e f3       	mov	r15,r14
  302148:	61 e3       	mov	r14,r1
  30214a:	71 c4       	add	#-60,r1
  30214c:	11 4f       	mov.l	r4,@(60,r1)
  30214e:	61 e3       	mov	r14,r1
  302150:	71 c4       	add	#-60,r1
  302152:	51 1f       	mov.l	@(60,r1),r1
  302154:	61 12       	mov.l	@r1,r1
  302156:	62 13       	mov	r1,r2
  302158:	72 01       	add	#1,r2
  30215a:	61 e3       	mov	r14,r1
  30215c:	71 c4       	add	#-60,r1
  30215e:	51 1f       	mov.l	@(60,r1),r1
  302160:	21 22       	mov.l	r2,@r1
  302162:	e1 01       	mov	#1,r1
  302164:	60 13       	mov	r1,r0
  302166:	7e 04       	add	#4,r14
  302168:	6f e3       	mov	r14,r15
  30216a:	6e f6       	mov.l	@r15+,r14
  30216c:	00 0b       	rts	
  30216e:	00 09       	nop	

00302170 <_process_cursor_movement>:
  302170:	2f e6       	mov.l	r14,@-r15
  302172:	7f f0       	add	#-16,r15
  302174:	6e f3       	mov	r15,r14
  302176:	61 e3       	mov	r14,r1
  302178:	71 d0       	add	#-48,r1
  30217a:	11 4f       	mov.l	r4,@(60,r1)
  30217c:	61 e3       	mov	r14,r1
  30217e:	71 d0       	add	#-48,r1
  302180:	11 5e       	mov.l	r5,@(56,r1)
  302182:	61 e3       	mov	r14,r1
  302184:	71 d0       	add	#-48,r1
  302186:	11 6d       	mov.l	r6,@(52,r1)
  302188:	61 e3       	mov	r14,r1
  30218a:	71 d0       	add	#-48,r1
  30218c:	11 7c       	mov.l	r7,@(48,r1)
  30218e:	61 e3       	mov	r14,r1
  302190:	71 d0       	add	#-48,r1
  302192:	71 30       	add	#48,r1
  302194:	84 1f       	mov.b	@(15,r1),r0
  302196:	61 03       	mov	r0,r1
  302198:	61 1c       	extu.b	r1,r1
  30219a:	67 13       	mov	r1,r7
  30219c:	e2 75       	mov	#117,r2
  30219e:	e1 11       	mov	#17,r1
  3021a0:	63 23       	mov	r2,r3
  3021a2:	62 13       	mov	r1,r2
  3021a4:	61 73       	mov	r7,r1
  3021a6:	31 38       	sub	r3,r1
  3021a8:	31 26       	cmp/hi	r2,r1
  3021aa:	8b 01       	bf	3021b0 <_process_cursor_movement+0x40>
  3021ac:	a0 89       	bra	3022c2 <_process_cursor_movement+0x152>
  3021ae:	00 09       	nop	
  3021b0:	c7 02       	mova	3021bc <_process_cursor_movement+0x4c>,r0
  3021b2:	41 08       	shll2	r1
  3021b4:	01 1e       	mov.l	@(r0,r1),r1
  3021b6:	01 23       	braf	r1
  3021b8:	00 09       	nop	
  3021ba:	00 09       	nop	
  3021bc:	00 00       	.word 0x0000
  3021be:	00 72       	stc	re,r0
  3021c0:	00 00       	.word 0x0000
  3021c2:	00 d0       	.word 0x00d0
  3021c4:	00 00       	.word 0x0000
  3021c6:	01 08       	.word 0x0108
  3021c8:	00 00       	.word 0x0000
  3021ca:	01 08       	.word 0x0108
  3021cc:	00 00       	.word 0x0000
  3021ce:	01 08       	.word 0x0108
  3021d0:	00 00       	.word 0x0000
  3021d2:	01 08       	.word 0x0108
  3021d4:	00 00       	.word 0x0000
  3021d6:	01 08       	.word 0x0108
  3021d8:	00 00       	.word 0x0000
  3021da:	01 08       	.word 0x0108
  3021dc:	00 00       	.word 0x0000
  3021de:	01 08       	.word 0x0108
  3021e0:	00 00       	.word 0x0000
  3021e2:	01 08       	.word 0x0108
  3021e4:	00 00       	.word 0x0000
  3021e6:	01 08       	.word 0x0108
  3021e8:	00 00       	.word 0x0000
  3021ea:	01 08       	.word 0x0108
  3021ec:	00 00       	.word 0x0000
  3021ee:	01 08       	.word 0x0108
  3021f0:	00 00       	.word 0x0000
  3021f2:	01 08       	.word 0x0108
  3021f4:	00 00       	.word 0x0000
  3021f6:	01 08       	.word 0x0108
  3021f8:	00 00       	.word 0x0000
  3021fa:	01 08       	.word 0x0108
  3021fc:	00 00       	.word 0x0000
  3021fe:	00 a8       	.word 0x00a8
  302200:	00 00       	.word 0x0000
  302202:	00 4a       	.word 0x004a
  302204:	61 e3       	mov	r14,r1
  302206:	71 d0       	add	#-48,r1
  302208:	51 1d       	mov.l	@(52,r1),r1
  30220a:	61 10       	mov.b	@r1,r1
  30220c:	61 1c       	extu.b	r1,r1
  30220e:	21 18       	tst	r1,r1
  302210:	89 0a       	bt	302228 <_process_cursor_movement+0xb8>
  302212:	61 e3       	mov	r14,r1
  302214:	71 d0       	add	#-48,r1
  302216:	51 1d       	mov.l	@(52,r1),r1
  302218:	61 10       	mov.b	@r1,r1
  30221a:	61 1c       	extu.b	r1,r1
  30221c:	71 ff       	add	#-1,r1
  30221e:	62 1c       	extu.b	r1,r2
  302220:	61 e3       	mov	r14,r1
  302222:	71 d0       	add	#-48,r1
  302224:	51 1d       	mov.l	@(52,r1),r1
  302226:	21 20       	mov.b	r2,@r1
  302228:	a0 4e       	bra	3022c8 <_process_cursor_movement+0x158>
  30222a:	00 09       	nop	
  30222c:	61 e3       	mov	r14,r1
  30222e:	71 d0       	add	#-48,r1
  302230:	51 1d       	mov.l	@(52,r1),r1
  302232:	61 10       	mov.b	@r1,r1
  302234:	61 1c       	extu.b	r1,r1
  302236:	62 13       	mov	r1,r2
  302238:	61 e3       	mov	r14,r1
  30223a:	71 d0       	add	#-48,r1
  30223c:	51 1c       	mov.l	@(48,r1),r1
  30223e:	61 10       	mov.b	@r1,r1
  302240:	61 1c       	extu.b	r1,r1
  302242:	71 ff       	add	#-1,r1
  302244:	32 13       	cmp/ge	r1,r2
  302246:	89 0a       	bt	30225e <_process_cursor_movement+0xee>
  302248:	61 e3       	mov	r14,r1
  30224a:	71 d0       	add	#-48,r1
  30224c:	51 1d       	mov.l	@(52,r1),r1
  30224e:	61 10       	mov.b	@r1,r1
  302250:	61 1c       	extu.b	r1,r1
  302252:	71 01       	add	#1,r1
  302254:	62 1c       	extu.b	r1,r2
  302256:	61 e3       	mov	r14,r1
  302258:	71 d0       	add	#-48,r1
  30225a:	51 1d       	mov.l	@(52,r1),r1
  30225c:	21 20       	mov.b	r2,@r1
  30225e:	a0 36       	bra	3022ce <_process_cursor_movement+0x15e>
  302260:	00 09       	nop	
  302262:	61 e3       	mov	r14,r1
  302264:	71 d0       	add	#-48,r1
  302266:	51 1e       	mov.l	@(56,r1),r1
  302268:	61 10       	mov.b	@r1,r1
  30226a:	61 1c       	extu.b	r1,r1
  30226c:	21 18       	tst	r1,r1
  30226e:	89 31       	bt	3022d4 <_process_cursor_movement+0x164>
  302270:	61 e3       	mov	r14,r1
  302272:	71 d0       	add	#-48,r1
  302274:	51 1e       	mov.l	@(56,r1),r1
  302276:	61 10       	mov.b	@r1,r1
  302278:	61 1c       	extu.b	r1,r1
  30227a:	71 ff       	add	#-1,r1
  30227c:	62 1c       	extu.b	r1,r2
  30227e:	61 e3       	mov	r14,r1
  302280:	71 d0       	add	#-48,r1
  302282:	51 1e       	mov.l	@(56,r1),r1
  302284:	21 20       	mov.b	r2,@r1
  302286:	a0 25       	bra	3022d4 <_process_cursor_movement+0x164>
  302288:	00 09       	nop	
  30228a:	61 e3       	mov	r14,r1
  30228c:	71 d0       	add	#-48,r1
  30228e:	51 1e       	mov.l	@(56,r1),r1
  302290:	61 10       	mov.b	@r1,r1
  302292:	61 1c       	extu.b	r1,r1
  302294:	62 13       	mov	r1,r2
  302296:	61 e3       	mov	r14,r1
  302298:	71 d0       	add	#-48,r1
  30229a:	51 1c       	mov.l	@(48,r1),r1
  30229c:	84 11       	mov.b	@(1,r1),r0
  30229e:	61 03       	mov	r0,r1
  3022a0:	61 1c       	extu.b	r1,r1
  3022a2:	71 ff       	add	#-1,r1
  3022a4:	32 13       	cmp/ge	r1,r2
  3022a6:	89 18       	bt	3022da <_process_cursor_movement+0x16a>
  3022a8:	61 e3       	mov	r14,r1
  3022aa:	71 d0       	add	#-48,r1
  3022ac:	51 1e       	mov.l	@(56,r1),r1
  3022ae:	61 10       	mov.b	@r1,r1
  3022b0:	61 1c       	extu.b	r1,r1
  3022b2:	71 01       	add	#1,r1
  3022b4:	62 1c       	extu.b	r1,r2
  3022b6:	61 e3       	mov	r14,r1
  3022b8:	71 d0       	add	#-48,r1
  3022ba:	51 1e       	mov.l	@(56,r1),r1
  3022bc:	21 20       	mov.b	r2,@r1
  3022be:	a0 0c       	bra	3022da <_process_cursor_movement+0x16a>
  3022c0:	00 09       	nop	
  3022c2:	00 09       	nop	
  3022c4:	a0 0a       	bra	3022dc <_process_cursor_movement+0x16c>
  3022c6:	00 09       	nop	
  3022c8:	00 09       	nop	
  3022ca:	a0 07       	bra	3022dc <_process_cursor_movement+0x16c>
  3022cc:	00 09       	nop	
  3022ce:	00 09       	nop	
  3022d0:	a0 04       	bra	3022dc <_process_cursor_movement+0x16c>
  3022d2:	00 09       	nop	
  3022d4:	00 09       	nop	
  3022d6:	a0 01       	bra	3022dc <_process_cursor_movement+0x16c>
  3022d8:	00 09       	nop	
  3022da:	00 09       	nop	
  3022dc:	7e 10       	add	#16,r14
  3022de:	6f e3       	mov	r14,r15
  3022e0:	6e f6       	mov.l	@r15+,r14
  3022e2:	00 0b       	rts	
  3022e4:	00 09       	nop	

003022e6 <_process_common_keys>:
  3022e6:	2f 86       	mov.l	r8,@-r15
  3022e8:	2f e6       	mov.l	r14,@-r15
  3022ea:	4f 22       	sts.l	pr,@-r15
  3022ec:	7f e0       	add	#-32,r15
  3022ee:	6e f3       	mov	r15,r14
  3022f0:	61 e3       	mov	r14,r1
  3022f2:	71 e0       	add	#-32,r1
  3022f4:	11 4b       	mov.l	r4,@(44,r1)
  3022f6:	61 e3       	mov	r14,r1
  3022f8:	71 e0       	add	#-32,r1
  3022fa:	11 5a       	mov.l	r5,@(40,r1)
  3022fc:	61 e3       	mov	r14,r1
  3022fe:	71 e0       	add	#-32,r1
  302300:	11 69       	mov.l	r6,@(36,r1)
  302302:	61 e3       	mov	r14,r1
  302304:	71 e0       	add	#-32,r1
  302306:	11 78       	mov.l	r7,@(32,r1)
  302308:	61 e3       	mov	r14,r1
  30230a:	71 e0       	add	#-32,r1
  30230c:	71 20       	add	#32,r1
  30230e:	84 1f       	mov.b	@(15,r1),r0
  302310:	61 03       	mov	r0,r1
  302312:	61 1c       	extu.b	r1,r1
  302314:	64 13       	mov	r1,r4
  302316:	d1 99       	mov.l	30257c <_process_common_keys+0x296>,r1	! 30345a <_keycode_digit>
  302318:	41 0b       	jsr	@r1
  30231a:	00 09       	nop	
  30231c:	61 03       	mov	r0,r1
  30231e:	41 15       	cmp/pl	r1
  302320:	8b 4d       	bf	3023be <_process_common_keys+0xd8>
  302322:	61 e3       	mov	r14,r1
  302324:	71 e0       	add	#-32,r1
  302326:	51 18       	mov.l	@(32,r1),r1
  302328:	52 11       	mov.l	@(4,r1),r2
  30232a:	61 e3       	mov	r14,r1
  30232c:	71 e0       	add	#-32,r1
  30232e:	51 19       	mov.l	@(36,r1),r1
  302330:	61 10       	mov.b	@r1,r1
  302332:	61 1c       	extu.b	r1,r1
  302334:	41 08       	shll2	r1
  302336:	31 2c       	add	r2,r1
  302338:	62 12       	mov.l	@r1,r2
  30233a:	61 e3       	mov	r14,r1
  30233c:	71 e0       	add	#-32,r1
  30233e:	51 1a       	mov.l	@(40,r1),r1
  302340:	61 10       	mov.b	@r1,r1
  302342:	61 1c       	extu.b	r1,r1
  302344:	41 08       	shll2	r1
  302346:	31 2c       	add	r2,r1
  302348:	62 12       	mov.l	@r1,r2
  30234a:	61 e3       	mov	r14,r1
  30234c:	71 e0       	add	#-32,r1
  30234e:	52 26       	mov.l	@(24,r2),r2
  302350:	11 2c       	mov.l	r2,@(48,r1)
  302352:	61 e3       	mov	r14,r1
  302354:	71 e0       	add	#-32,r1
  302356:	54 1c       	mov.l	@(48,r1),r4
  302358:	d1 89       	mov.l	302580 <_process_common_keys+0x29a>,r1	! 309216 <_strlen>
  30235a:	41 0b       	jsr	@r1
  30235c:	00 09       	nop	
  30235e:	61 03       	mov	r0,r1
  302360:	e2 13       	mov	#19,r2
  302362:	31 26       	cmp/hi	r2,r1
  302364:	89 29       	bt	3023ba <_process_common_keys+0xd4>
  302366:	61 e3       	mov	r14,r1
  302368:	71 e0       	add	#-32,r1
  30236a:	51 18       	mov.l	@(32,r1),r1
  30236c:	52 11       	mov.l	@(4,r1),r2
  30236e:	61 e3       	mov	r14,r1
  302370:	71 e0       	add	#-32,r1
  302372:	51 19       	mov.l	@(36,r1),r1
  302374:	61 10       	mov.b	@r1,r1
  302376:	61 1c       	extu.b	r1,r1
  302378:	41 08       	shll2	r1
  30237a:	31 2c       	add	r2,r1
  30237c:	62 12       	mov.l	@r1,r2
  30237e:	61 e3       	mov	r14,r1
  302380:	71 e0       	add	#-32,r1
  302382:	51 1a       	mov.l	@(40,r1),r1
  302384:	61 10       	mov.b	@r1,r1
  302386:	61 1c       	extu.b	r1,r1
  302388:	41 08       	shll2	r1
  30238a:	31 2c       	add	r2,r1
  30238c:	61 12       	mov.l	@r1,r1
  30238e:	58 16       	mov.l	@(24,r1),r8
  302390:	61 e3       	mov	r14,r1
  302392:	71 e0       	add	#-32,r1
  302394:	71 20       	add	#32,r1
  302396:	84 1f       	mov.b	@(15,r1),r0
  302398:	61 03       	mov	r0,r1
  30239a:	61 1c       	extu.b	r1,r1
  30239c:	64 13       	mov	r1,r4
  30239e:	d1 77       	mov.l	30257c <_process_common_keys+0x296>,r1	! 30345a <_keycode_digit>
  3023a0:	41 0b       	jsr	@r1
  3023a2:	00 09       	nop	
  3023a4:	62 03       	mov	r0,r2
  3023a6:	61 e3       	mov	r14,r1
  3023a8:	71 e0       	add	#-32,r1
  3023aa:	d3 76       	mov.l	302584 <_process_common_keys+0x29e>,r3	! 30b4e4
  3023ac:	67 23       	mov	r2,r7
  3023ae:	56 1c       	mov.l	@(48,r1),r6
  3023b0:	65 33       	mov	r3,r5
  3023b2:	64 83       	mov	r8,r4
  3023b4:	d1 74       	mov.l	302588 <_process_common_keys+0x2a2>,r1	! 308dc4 <_sprintf>
  3023b6:	41 0b       	jsr	@r1
  3023b8:	00 09       	nop	
  3023ba:	a0 d6       	bra	30256a <_process_common_keys+0x284>
  3023bc:	00 09       	nop	
  3023be:	61 e3       	mov	r14,r1
  3023c0:	71 e0       	add	#-32,r1
  3023c2:	71 20       	add	#32,r1
  3023c4:	84 1f       	mov.b	@(15,r1),r0
  3023c6:	61 03       	mov	r0,r1
  3023c8:	62 1c       	extu.b	r1,r2
  3023ca:	e1 11       	mov	#17,r1
  3023cc:	32 10       	cmp/eq	r1,r2
  3023ce:	8b 41       	bf	302454 <_process_common_keys+0x16e>
  3023d0:	61 e3       	mov	r14,r1
  3023d2:	71 e0       	add	#-32,r1
  3023d4:	51 18       	mov.l	@(32,r1),r1
  3023d6:	52 11       	mov.l	@(4,r1),r2
  3023d8:	61 e3       	mov	r14,r1
  3023da:	71 e0       	add	#-32,r1
  3023dc:	51 19       	mov.l	@(36,r1),r1
  3023de:	61 10       	mov.b	@r1,r1
  3023e0:	61 1c       	extu.b	r1,r1
  3023e2:	41 08       	shll2	r1
  3023e4:	31 2c       	add	r2,r1
  3023e6:	62 12       	mov.l	@r1,r2
  3023e8:	61 e3       	mov	r14,r1
  3023ea:	71 e0       	add	#-32,r1
  3023ec:	51 1a       	mov.l	@(40,r1),r1
  3023ee:	61 10       	mov.b	@r1,r1
  3023f0:	61 1c       	extu.b	r1,r1
  3023f2:	41 08       	shll2	r1
  3023f4:	31 2c       	add	r2,r1
  3023f6:	62 12       	mov.l	@r1,r2
  3023f8:	61 e3       	mov	r14,r1
  3023fa:	71 e0       	add	#-32,r1
  3023fc:	52 26       	mov.l	@(24,r2),r2
  3023fe:	11 2d       	mov.l	r2,@(52,r1)
  302400:	61 e3       	mov	r14,r1
  302402:	71 e0       	add	#-32,r1
  302404:	54 1d       	mov.l	@(52,r1),r4
  302406:	d1 5e       	mov.l	302580 <_process_common_keys+0x29a>,r1	! 309216 <_strlen>
  302408:	41 0b       	jsr	@r1
  30240a:	00 09       	nop	
  30240c:	61 03       	mov	r0,r1
  30240e:	e2 13       	mov	#19,r2
  302410:	31 26       	cmp/hi	r2,r1
  302412:	89 d2       	bt	3023ba <_process_common_keys+0xd4>
  302414:	61 e3       	mov	r14,r1
  302416:	71 e0       	add	#-32,r1
  302418:	51 18       	mov.l	@(32,r1),r1
  30241a:	52 11       	mov.l	@(4,r1),r2
  30241c:	61 e3       	mov	r14,r1
  30241e:	71 e0       	add	#-32,r1
  302420:	51 19       	mov.l	@(36,r1),r1
  302422:	61 10       	mov.b	@r1,r1
  302424:	61 1c       	extu.b	r1,r1
  302426:	41 08       	shll2	r1
  302428:	31 2c       	add	r2,r1
  30242a:	62 12       	mov.l	@r1,r2
  30242c:	61 e3       	mov	r14,r1
  30242e:	71 e0       	add	#-32,r1
  302430:	51 1a       	mov.l	@(40,r1),r1
  302432:	61 10       	mov.b	@r1,r1
  302434:	61 1c       	extu.b	r1,r1
  302436:	41 08       	shll2	r1
  302438:	31 2c       	add	r2,r1
  30243a:	61 12       	mov.l	@r1,r1
  30243c:	52 16       	mov.l	@(24,r1),r2
  30243e:	61 e3       	mov	r14,r1
  302440:	71 e0       	add	#-32,r1
  302442:	d3 52       	mov.l	30258c <_process_common_keys+0x2a6>,r3	! 30b4ec
  302444:	56 1d       	mov.l	@(52,r1),r6
  302446:	65 33       	mov	r3,r5
  302448:	64 23       	mov	r2,r4
  30244a:	d1 4f       	mov.l	302588 <_process_common_keys+0x2a2>,r1	! 308dc4 <_sprintf>
  30244c:	41 0b       	jsr	@r1
  30244e:	00 09       	nop	
  302450:	a0 8b       	bra	30256a <_process_common_keys+0x284>
  302452:	00 09       	nop	
  302454:	61 e3       	mov	r14,r1
  302456:	71 e0       	add	#-32,r1
  302458:	71 20       	add	#32,r1
  30245a:	84 1f       	mov.b	@(15,r1),r0
  30245c:	61 03       	mov	r0,r1
  30245e:	62 1c       	extu.b	r1,r2
  302460:	e1 44       	mov	#68,r1
  302462:	32 10       	cmp/eq	r1,r2
  302464:	8b 3f       	bf	3024e6 <_process_common_keys+0x200>
  302466:	61 e3       	mov	r14,r1
  302468:	71 e0       	add	#-32,r1
  30246a:	51 18       	mov.l	@(32,r1),r1
  30246c:	52 11       	mov.l	@(4,r1),r2
  30246e:	61 e3       	mov	r14,r1
  302470:	71 e0       	add	#-32,r1
  302472:	51 19       	mov.l	@(36,r1),r1
  302474:	61 10       	mov.b	@r1,r1
  302476:	61 1c       	extu.b	r1,r1
  302478:	41 08       	shll2	r1
  30247a:	31 2c       	add	r2,r1
  30247c:	62 12       	mov.l	@r1,r2
  30247e:	61 e3       	mov	r14,r1
  302480:	71 e0       	add	#-32,r1
  302482:	51 1a       	mov.l	@(40,r1),r1
  302484:	61 10       	mov.b	@r1,r1
  302486:	61 1c       	extu.b	r1,r1
  302488:	41 08       	shll2	r1
  30248a:	31 2c       	add	r2,r1
  30248c:	61 12       	mov.l	@r1,r1
  30248e:	51 16       	mov.l	@(24,r1),r1
  302490:	68 e3       	mov	r14,r8
  302492:	78 e0       	add	#-32,r8
  302494:	64 13       	mov	r1,r4
  302496:	d1 3a       	mov.l	302580 <_process_common_keys+0x29a>,r1	! 309216 <_strlen>
  302498:	41 0b       	jsr	@r1
  30249a:	00 09       	nop	
  30249c:	61 03       	mov	r0,r1
  30249e:	18 1e       	mov.l	r1,@(56,r8)
  3024a0:	61 e3       	mov	r14,r1
  3024a2:	71 e0       	add	#-32,r1
  3024a4:	51 1e       	mov.l	@(56,r1),r1
  3024a6:	21 18       	tst	r1,r1
  3024a8:	89 5f       	bt	30256a <_process_common_keys+0x284>
  3024aa:	61 e3       	mov	r14,r1
  3024ac:	71 e0       	add	#-32,r1
  3024ae:	51 18       	mov.l	@(32,r1),r1
  3024b0:	52 11       	mov.l	@(4,r1),r2
  3024b2:	61 e3       	mov	r14,r1
  3024b4:	71 e0       	add	#-32,r1
  3024b6:	51 19       	mov.l	@(36,r1),r1
  3024b8:	61 10       	mov.b	@r1,r1
  3024ba:	61 1c       	extu.b	r1,r1
  3024bc:	41 08       	shll2	r1
  3024be:	31 2c       	add	r2,r1
  3024c0:	62 12       	mov.l	@r1,r2
  3024c2:	61 e3       	mov	r14,r1
  3024c4:	71 e0       	add	#-32,r1
  3024c6:	51 1a       	mov.l	@(40,r1),r1
  3024c8:	61 10       	mov.b	@r1,r1
  3024ca:	61 1c       	extu.b	r1,r1
  3024cc:	41 08       	shll2	r1
  3024ce:	31 2c       	add	r2,r1
  3024d0:	61 12       	mov.l	@r1,r1
  3024d2:	52 16       	mov.l	@(24,r1),r2
  3024d4:	61 e3       	mov	r14,r1
  3024d6:	71 e0       	add	#-32,r1
  3024d8:	51 1e       	mov.l	@(56,r1),r1
  3024da:	71 ff       	add	#-1,r1
  3024dc:	31 2c       	add	r2,r1
  3024de:	e2 00       	mov	#0,r2
  3024e0:	21 20       	mov.b	r2,@r1
  3024e2:	a0 42       	bra	30256a <_process_common_keys+0x284>
  3024e4:	00 09       	nop	
  3024e6:	61 e3       	mov	r14,r1
  3024e8:	71 e0       	add	#-32,r1
  3024ea:	71 20       	add	#32,r1
  3024ec:	84 1f       	mov.b	@(15,r1),r0
  3024ee:	61 03       	mov	r0,r1
  3024f0:	62 1c       	extu.b	r1,r2
  3024f2:	e1 25       	mov	#37,r1
  3024f4:	32 10       	cmp/eq	r1,r2
  3024f6:	8b 38       	bf	30256a <_process_common_keys+0x284>
  3024f8:	61 e3       	mov	r14,r1
  3024fa:	71 e0       	add	#-32,r1
  3024fc:	51 18       	mov.l	@(32,r1),r1
  3024fe:	52 11       	mov.l	@(4,r1),r2
  302500:	61 e3       	mov	r14,r1
  302502:	71 e0       	add	#-32,r1
  302504:	51 19       	mov.l	@(36,r1),r1
  302506:	61 10       	mov.b	@r1,r1
  302508:	61 1c       	extu.b	r1,r1
  30250a:	41 08       	shll2	r1
  30250c:	31 2c       	add	r2,r1
  30250e:	62 12       	mov.l	@r1,r2
  302510:	61 e3       	mov	r14,r1
  302512:	71 e0       	add	#-32,r1
  302514:	51 1a       	mov.l	@(40,r1),r1
  302516:	61 10       	mov.b	@r1,r1
  302518:	61 1c       	extu.b	r1,r1
  30251a:	41 08       	shll2	r1
  30251c:	31 2c       	add	r2,r1
  30251e:	61 12       	mov.l	@r1,r1
  302520:	51 16       	mov.l	@(24,r1),r1
  302522:	68 e3       	mov	r14,r8
  302524:	78 e0       	add	#-32,r8
  302526:	64 13       	mov	r1,r4
  302528:	d1 15       	mov.l	302580 <_process_common_keys+0x29a>,r1	! 309216 <_strlen>
  30252a:	41 0b       	jsr	@r1
  30252c:	00 09       	nop	
  30252e:	61 03       	mov	r0,r1
  302530:	18 1f       	mov.l	r1,@(60,r8)
  302532:	61 e3       	mov	r14,r1
  302534:	71 e0       	add	#-32,r1
  302536:	51 1f       	mov.l	@(60,r1),r1
  302538:	21 18       	tst	r1,r1
  30253a:	8b 16       	bf	30256a <_process_common_keys+0x284>
  30253c:	61 e3       	mov	r14,r1
  30253e:	71 e0       	add	#-32,r1
  302540:	51 18       	mov.l	@(32,r1),r1
  302542:	52 11       	mov.l	@(4,r1),r2
  302544:	61 e3       	mov	r14,r1
  302546:	71 e0       	add	#-32,r1
  302548:	51 19       	mov.l	@(36,r1),r1
  30254a:	61 10       	mov.b	@r1,r1
  30254c:	61 1c       	extu.b	r1,r1
  30254e:	41 08       	shll2	r1
  302550:	31 2c       	add	r2,r1
  302552:	62 12       	mov.l	@r1,r2
  302554:	61 e3       	mov	r14,r1
  302556:	71 e0       	add	#-32,r1
  302558:	51 1a       	mov.l	@(40,r1),r1
  30255a:	61 10       	mov.b	@r1,r1
  30255c:	61 1c       	extu.b	r1,r1
  30255e:	41 08       	shll2	r1
  302560:	31 2c       	add	r2,r1
  302562:	61 12       	mov.l	@r1,r1
  302564:	51 16       	mov.l	@(24,r1),r1
  302566:	e2 2d       	mov	#45,r2
  302568:	21 20       	mov.b	r2,@r1
  30256a:	00 09       	nop	
  30256c:	7e 20       	add	#32,r14
  30256e:	6f e3       	mov	r14,r15
  302570:	4f 26       	lds.l	@r15+,pr
  302572:	6e f6       	mov.l	@r15+,r14
  302574:	68 f6       	mov.l	@r15+,r8
  302576:	00 0b       	rts	
  302578:	00 09       	nop	
  30257a:	00 09       	nop	
  30257c:	00 30       	.word 0x0030
  30257e:	34 5a       	subc	r5,r4
  302580:	00 30       	.word 0x0030
  302582:	92 16       	mov.w	3025b2 <_process_key_construction_stage+0x22>,r2	! 841f
  302584:	00 30       	.word 0x0030
  302586:	b4 e4       	bsr	302f52 <_process_key_tableux_stage+0x16a>
  302588:	00 30       	.word 0x0030
  30258a:	8d c4       	bt.s	302516 <_process_common_keys+0x230>
  30258c:	00 30       	.word 0x0030
  30258e:	b4 ec       	bsr	302f6a <_process_key_tableux_stage+0x182>

00302590 <_process_key_construction_stage>:
  302590:	2f 86       	mov.l	r8,@-r15
  302592:	2f e6       	mov.l	r14,@-r15
  302594:	4f 22       	sts.l	pr,@-r15
  302596:	7f e4       	add	#-28,r15
  302598:	6e f3       	mov	r15,r14
  30259a:	61 e3       	mov	r14,r1
  30259c:	71 dc       	add	#-36,r1
  30259e:	11 4b       	mov.l	r4,@(44,r1)
  3025a0:	61 e3       	mov	r14,r1
  3025a2:	71 dc       	add	#-36,r1
  3025a4:	11 5a       	mov.l	r5,@(40,r1)
  3025a6:	61 e3       	mov	r14,r1
  3025a8:	71 dc       	add	#-36,r1
  3025aa:	11 69       	mov.l	r6,@(36,r1)
  3025ac:	61 e3       	mov	r14,r1
  3025ae:	71 dc       	add	#-36,r1
  3025b0:	71 20       	add	#32,r1
  3025b2:	84 1f       	mov.b	@(15,r1),r0
  3025b4:	61 03       	mov	r0,r1
  3025b6:	61 1c       	extu.b	r1,r1
  3025b8:	67 13       	mov	r1,r7
  3025ba:	e2 75       	mov	#117,r2
  3025bc:	e1 21       	mov	#33,r1
  3025be:	63 23       	mov	r2,r3
  3025c0:	62 13       	mov	r1,r2
  3025c2:	61 73       	mov	r7,r1
  3025c4:	31 38       	sub	r3,r1
  3025c6:	31 26       	cmp/hi	r2,r1
  3025c8:	8b 01       	bf	3025ce <_process_key_construction_stage+0x3e>
  3025ca:	a1 68       	bra	30289e <_process_key_construction_stage+0x30e>
  3025cc:	00 09       	nop	
  3025ce:	c7 02       	mova	3025d8 <_process_key_construction_stage+0x48>,r0
  3025d0:	41 08       	shll2	r1
  3025d2:	01 1e       	mov.l	@(r0,r1),r1
  3025d4:	01 23       	braf	r1
  3025d6:	00 09       	nop	
  3025d8:	00 00       	.word 0x0000
  3025da:	01 4a       	.word 0x014a
  3025dc:	00 00       	.word 0x0000
  3025de:	02 66       	mov.l	r6,@(r0,r2)
  3025e0:	00 00       	.word 0x0000
  3025e2:	02 c6       	mov.l	r12,@(r0,r2)
  3025e4:	00 00       	.word 0x0000
  3025e6:	02 c6       	mov.l	r12,@(r0,r2)
  3025e8:	00 00       	.word 0x0000
  3025ea:	02 c6       	mov.l	r12,@(r0,r2)
  3025ec:	00 00       	.word 0x0000
  3025ee:	02 c6       	mov.l	r12,@(r0,r2)
  3025f0:	00 00       	.word 0x0000
  3025f2:	02 c6       	mov.l	r12,@(r0,r2)
  3025f4:	00 00       	.word 0x0000
  3025f6:	02 c6       	mov.l	r12,@(r0,r2)
  3025f8:	00 00       	.word 0x0000
  3025fa:	02 c6       	mov.l	r12,@(r0,r2)
  3025fc:	00 00       	.word 0x0000
  3025fe:	02 c6       	mov.l	r12,@(r0,r2)
  302600:	00 00       	.word 0x0000
  302602:	02 c6       	mov.l	r12,@(r0,r2)
  302604:	00 00       	.word 0x0000
  302606:	02 c6       	mov.l	r12,@(r0,r2)
  302608:	00 00       	.word 0x0000
  30260a:	02 c6       	mov.l	r12,@(r0,r2)
  30260c:	00 00       	.word 0x0000
  30260e:	02 c6       	mov.l	r12,@(r0,r2)
  302610:	00 00       	.word 0x0000
  302612:	02 c6       	mov.l	r12,@(r0,r2)
  302614:	00 00       	.word 0x0000
  302616:	02 c6       	mov.l	r12,@(r0,r2)
  302618:	00 00       	.word 0x0000
  30261a:	02 0c       	mov.b	@(r0,r0),r2
  30261c:	00 00       	.word 0x0000
  30261e:	00 88       	clrdmxy	
  302620:	00 00       	.word 0x0000
  302622:	02 c6       	mov.l	r12,@(r0,r2)
  302624:	00 00       	.word 0x0000
  302626:	02 c6       	mov.l	r12,@(r0,r2)
  302628:	00 00       	.word 0x0000
  30262a:	02 c6       	mov.l	r12,@(r0,r2)
  30262c:	00 00       	.word 0x0000
  30262e:	02 c6       	mov.l	r12,@(r0,r2)
  302630:	00 00       	.word 0x0000
  302632:	02 c6       	mov.l	r12,@(r0,r2)
  302634:	00 00       	.word 0x0000
  302636:	02 c6       	mov.l	r12,@(r0,r2)
  302638:	00 00       	.word 0x0000
  30263a:	02 c6       	mov.l	r12,@(r0,r2)
  30263c:	00 00       	.word 0x0000
  30263e:	02 c6       	mov.l	r12,@(r0,r2)
  302640:	00 00       	.word 0x0000
  302642:	02 c6       	mov.l	r12,@(r0,r2)
  302644:	00 00       	.word 0x0000
  302646:	02 c6       	mov.l	r12,@(r0,r2)
  302648:	00 00       	.word 0x0000
  30264a:	02 c6       	mov.l	r12,@(r0,r2)
  30264c:	00 00       	.word 0x0000
  30264e:	02 c6       	mov.l	r12,@(r0,r2)
  302650:	00 00       	.word 0x0000
  302652:	02 c6       	mov.l	r12,@(r0,r2)
  302654:	00 00       	.word 0x0000
  302656:	02 c6       	mov.l	r12,@(r0,r2)
  302658:	00 00       	.word 0x0000
  30265a:	02 c6       	mov.l	r12,@(r0,r2)
  30265c:	00 00       	.word 0x0000
  30265e:	02 c0       	.word 0x02c0
  302660:	61 e3       	mov	r14,r1
  302662:	71 dc       	add	#-36,r1
  302664:	51 1a       	mov.l	@(40,r1),r1
  302666:	71 10       	add	#16,r1
  302668:	61 10       	mov.b	@r1,r1
  30266a:	61 1c       	extu.b	r1,r1
  30266c:	21 18       	tst	r1,r1
  30266e:	89 2b       	bt	3026c8 <_process_key_construction_stage+0x138>
  302670:	61 e3       	mov	r14,r1
  302672:	71 dc       	add	#-36,r1
  302674:	51 1a       	mov.l	@(40,r1),r1
  302676:	51 16       	mov.l	@(24,r1),r1
  302678:	68 e3       	mov	r14,r8
  30267a:	78 dc       	add	#-36,r8
  30267c:	62 e3       	mov	r14,r2
  30267e:	72 10       	add	#16,r2
  302680:	e6 0a       	mov	#10,r6
  302682:	65 23       	mov	r2,r5
  302684:	64 13       	mov	r1,r4
  302686:	d1 8a       	mov.l	3028b0 <_process_key_construction_stage+0x320>,r1	! 308f2c <_strtol>
  302688:	41 0b       	jsr	@r1
  30268a:	00 09       	nop	
  30268c:	61 03       	mov	r0,r1
  30268e:	18 1f       	mov.l	r1,@(60,r8)
  302690:	d1 88       	mov.l	3028b4 <_process_key_construction_stage+0x324>,r1	! 30b4ca <_MAXROWS>
  302692:	61 10       	mov.b	@r1,r1
  302694:	61 1c       	extu.b	r1,r1
  302696:	62 13       	mov	r1,r2
  302698:	61 e3       	mov	r14,r1
  30269a:	71 dc       	add	#-36,r1
  30269c:	51 1f       	mov.l	@(60,r1),r1
  30269e:	31 23       	cmp/ge	r2,r1
  3026a0:	89 3c       	bt	30271c <_process_key_construction_stage+0x18c>
  3026a2:	61 e3       	mov	r14,r1
  3026a4:	71 dc       	add	#-36,r1
  3026a6:	51 1a       	mov.l	@(40,r1),r1
  3026a8:	52 16       	mov.l	@(24,r1),r2
  3026aa:	61 e3       	mov	r14,r1
  3026ac:	71 dc       	add	#-36,r1
  3026ae:	51 1f       	mov.l	@(60,r1),r1
  3026b0:	63 13       	mov	r1,r3
  3026b2:	73 01       	add	#1,r3
  3026b4:	d1 80       	mov.l	3028b8 <_process_key_construction_stage+0x328>,r1	! 30b4f0
  3026b6:	67 33       	mov	r3,r7
  3026b8:	66 13       	mov	r1,r6
  3026ba:	e5 03       	mov	#3,r5
  3026bc:	64 23       	mov	r2,r4
  3026be:	d1 7f       	mov.l	3028bc <_process_key_construction_stage+0x32c>,r1	! 308d78 <_snprintf>
  3026c0:	41 0b       	jsr	@r1
  3026c2:	00 09       	nop	
  3026c4:	a0 2a       	bra	30271c <_process_key_construction_stage+0x18c>
  3026c6:	00 09       	nop	
  3026c8:	61 e3       	mov	r14,r1
  3026ca:	71 dc       	add	#-36,r1
  3026cc:	51 19       	mov.l	@(36,r1),r1
  3026ce:	51 16       	mov.l	@(24,r1),r1
  3026d0:	68 e3       	mov	r14,r8
  3026d2:	78 dc       	add	#-36,r8
  3026d4:	62 e3       	mov	r14,r2
  3026d6:	72 10       	add	#16,r2
  3026d8:	e6 0a       	mov	#10,r6
  3026da:	65 23       	mov	r2,r5
  3026dc:	64 13       	mov	r1,r4
  3026de:	d1 74       	mov.l	3028b0 <_process_key_construction_stage+0x320>,r1	! 308f2c <_strtol>
  3026e0:	41 0b       	jsr	@r1
  3026e2:	00 09       	nop	
  3026e4:	61 03       	mov	r0,r1
  3026e6:	18 1f       	mov.l	r1,@(60,r8)
  3026e8:	d1 75       	mov.l	3028c0 <_process_key_construction_stage+0x330>,r1	! 30b4cb <_MAXCOLS>
  3026ea:	61 10       	mov.b	@r1,r1
  3026ec:	61 1c       	extu.b	r1,r1
  3026ee:	62 13       	mov	r1,r2
  3026f0:	61 e3       	mov	r14,r1
  3026f2:	71 dc       	add	#-36,r1
  3026f4:	51 1f       	mov.l	@(60,r1),r1
  3026f6:	31 23       	cmp/ge	r2,r1
  3026f8:	89 10       	bt	30271c <_process_key_construction_stage+0x18c>
  3026fa:	61 e3       	mov	r14,r1
  3026fc:	71 dc       	add	#-36,r1
  3026fe:	51 19       	mov.l	@(36,r1),r1
  302700:	52 16       	mov.l	@(24,r1),r2
  302702:	61 e3       	mov	r14,r1
  302704:	71 dc       	add	#-36,r1
  302706:	51 1f       	mov.l	@(60,r1),r1
  302708:	63 13       	mov	r1,r3
  30270a:	73 01       	add	#1,r3
  30270c:	d1 6a       	mov.l	3028b8 <_process_key_construction_stage+0x328>,r1	! 30b4f0
  30270e:	67 33       	mov	r3,r7
  302710:	66 13       	mov	r1,r6
  302712:	e5 03       	mov	#3,r5
  302714:	64 23       	mov	r2,r4
  302716:	d1 69       	mov.l	3028bc <_process_key_construction_stage+0x32c>,r1	! 308d78 <_snprintf>
  302718:	41 0b       	jsr	@r1
  30271a:	00 09       	nop	
  30271c:	e1 00       	mov	#0,r1
  30271e:	a0 be       	bra	30289e <_process_key_construction_stage+0x30e>
  302720:	00 09       	nop	
  302722:	61 e3       	mov	r14,r1
  302724:	71 dc       	add	#-36,r1
  302726:	51 1a       	mov.l	@(40,r1),r1
  302728:	71 10       	add	#16,r1
  30272a:	61 10       	mov.b	@r1,r1
  30272c:	61 1c       	extu.b	r1,r1
  30272e:	21 18       	tst	r1,r1
  302730:	89 2b       	bt	30278a <_process_key_construction_stage+0x1fa>
  302732:	61 e3       	mov	r14,r1
  302734:	71 dc       	add	#-36,r1
  302736:	51 1a       	mov.l	@(40,r1),r1
  302738:	51 16       	mov.l	@(24,r1),r1
  30273a:	68 e3       	mov	r14,r8
  30273c:	78 dc       	add	#-36,r8
  30273e:	62 e3       	mov	r14,r2
  302740:	72 0c       	add	#12,r2
  302742:	e6 0a       	mov	#10,r6
  302744:	65 23       	mov	r2,r5
  302746:	64 13       	mov	r1,r4
  302748:	d1 59       	mov.l	3028b0 <_process_key_construction_stage+0x320>,r1	! 308f2c <_strtol>
  30274a:	41 0b       	jsr	@r1
  30274c:	00 09       	nop	
  30274e:	61 03       	mov	r0,r1
  302750:	18 1e       	mov.l	r1,@(56,r8)
  302752:	d1 5c       	mov.l	3028c4 <_process_key_construction_stage+0x334>,r1	! 30b4cc <_MINROWS>
  302754:	61 10       	mov.b	@r1,r1
  302756:	61 1c       	extu.b	r1,r1
  302758:	62 13       	mov	r1,r2
  30275a:	61 e3       	mov	r14,r1
  30275c:	71 dc       	add	#-36,r1
  30275e:	51 1e       	mov.l	@(56,r1),r1
  302760:	31 27       	cmp/gt	r2,r1
  302762:	8b 3c       	bf	3027de <_process_key_construction_stage+0x24e>
  302764:	61 e3       	mov	r14,r1
  302766:	71 dc       	add	#-36,r1
  302768:	51 1a       	mov.l	@(40,r1),r1
  30276a:	52 16       	mov.l	@(24,r1),r2
  30276c:	61 e3       	mov	r14,r1
  30276e:	71 dc       	add	#-36,r1
  302770:	51 1e       	mov.l	@(56,r1),r1
  302772:	63 13       	mov	r1,r3
  302774:	73 ff       	add	#-1,r3
  302776:	d1 50       	mov.l	3028b8 <_process_key_construction_stage+0x328>,r1	! 30b4f0
  302778:	67 33       	mov	r3,r7
  30277a:	66 13       	mov	r1,r6
  30277c:	e5 03       	mov	#3,r5
  30277e:	64 23       	mov	r2,r4
  302780:	d1 4e       	mov.l	3028bc <_process_key_construction_stage+0x32c>,r1	! 308d78 <_snprintf>
  302782:	41 0b       	jsr	@r1
  302784:	00 09       	nop	
  302786:	a0 2a       	bra	3027de <_process_key_construction_stage+0x24e>
  302788:	00 09       	nop	
  30278a:	61 e3       	mov	r14,r1
  30278c:	71 dc       	add	#-36,r1
  30278e:	51 19       	mov.l	@(36,r1),r1
  302790:	51 16       	mov.l	@(24,r1),r1
  302792:	68 e3       	mov	r14,r8
  302794:	78 dc       	add	#-36,r8
  302796:	62 e3       	mov	r14,r2
  302798:	72 0c       	add	#12,r2
  30279a:	e6 0a       	mov	#10,r6
  30279c:	65 23       	mov	r2,r5
  30279e:	64 13       	mov	r1,r4
  3027a0:	d1 43       	mov.l	3028b0 <_process_key_construction_stage+0x320>,r1	! 308f2c <_strtol>
  3027a2:	41 0b       	jsr	@r1
  3027a4:	00 09       	nop	
  3027a6:	61 03       	mov	r0,r1
  3027a8:	18 1e       	mov.l	r1,@(56,r8)
  3027aa:	d1 47       	mov.l	3028c8 <_process_key_construction_stage+0x338>,r1	! 30b4cd <_MINCOLS>
  3027ac:	61 10       	mov.b	@r1,r1
  3027ae:	61 1c       	extu.b	r1,r1
  3027b0:	62 13       	mov	r1,r2
  3027b2:	61 e3       	mov	r14,r1
  3027b4:	71 dc       	add	#-36,r1
  3027b6:	51 1e       	mov.l	@(56,r1),r1
  3027b8:	31 27       	cmp/gt	r2,r1
  3027ba:	8b 10       	bf	3027de <_process_key_construction_stage+0x24e>
  3027bc:	61 e3       	mov	r14,r1
  3027be:	71 dc       	add	#-36,r1
  3027c0:	51 19       	mov.l	@(36,r1),r1
  3027c2:	52 16       	mov.l	@(24,r1),r2
  3027c4:	61 e3       	mov	r14,r1
  3027c6:	71 dc       	add	#-36,r1
  3027c8:	51 1e       	mov.l	@(56,r1),r1
  3027ca:	63 13       	mov	r1,r3
  3027cc:	73 ff       	add	#-1,r3
  3027ce:	d1 3a       	mov.l	3028b8 <_process_key_construction_stage+0x328>,r1	! 30b4f0
  3027d0:	67 33       	mov	r3,r7
  3027d2:	66 13       	mov	r1,r6
  3027d4:	e5 03       	mov	#3,r5
  3027d6:	64 23       	mov	r2,r4
  3027d8:	d1 38       	mov.l	3028bc <_process_key_construction_stage+0x32c>,r1	! 308d78 <_snprintf>
  3027da:	41 0b       	jsr	@r1
  3027dc:	00 09       	nop	
  3027de:	e1 00       	mov	#0,r1
  3027e0:	a0 5d       	bra	30289e <_process_key_construction_stage+0x30e>
  3027e2:	00 09       	nop	
  3027e4:	61 e3       	mov	r14,r1
  3027e6:	71 dc       	add	#-36,r1
  3027e8:	51 1a       	mov.l	@(40,r1),r1
  3027ea:	71 10       	add	#16,r1
  3027ec:	61 10       	mov.b	@r1,r1
  3027ee:	61 1c       	extu.b	r1,r1
  3027f0:	21 18       	tst	r1,r1
  3027f2:	e1 ff       	mov	#-1,r1
  3027f4:	61 1a       	negc	r1,r1
  3027f6:	61 1c       	extu.b	r1,r1
  3027f8:	e2 01       	mov	#1,r2
  3027fa:	21 2a       	xor	r2,r1
  3027fc:	61 1c       	extu.b	r1,r1
  3027fe:	e0 01       	mov	#1,r0
  302800:	21 09       	and	r0,r1
  302802:	62 1c       	extu.b	r1,r2
  302804:	61 e3       	mov	r14,r1
  302806:	71 dc       	add	#-36,r1
  302808:	51 1a       	mov.l	@(40,r1),r1
  30280a:	71 10       	add	#16,r1
  30280c:	21 20       	mov.b	r2,@r1
  30280e:	61 e3       	mov	r14,r1
  302810:	71 dc       	add	#-36,r1
  302812:	51 19       	mov.l	@(36,r1),r1
  302814:	71 10       	add	#16,r1
  302816:	61 10       	mov.b	@r1,r1
  302818:	61 1c       	extu.b	r1,r1
  30281a:	21 18       	tst	r1,r1
  30281c:	e1 ff       	mov	#-1,r1
  30281e:	61 1a       	negc	r1,r1
  302820:	61 1c       	extu.b	r1,r1
  302822:	e2 01       	mov	#1,r2
  302824:	21 2a       	xor	r2,r1
  302826:	61 1c       	extu.b	r1,r1
  302828:	e0 01       	mov	#1,r0
  30282a:	21 09       	and	r0,r1
  30282c:	62 1c       	extu.b	r1,r2
  30282e:	61 e3       	mov	r14,r1
  302830:	71 dc       	add	#-36,r1
  302832:	51 19       	mov.l	@(36,r1),r1
  302834:	71 10       	add	#16,r1
  302836:	21 20       	mov.b	r2,@r1
  302838:	e1 00       	mov	#0,r1
  30283a:	a0 30       	bra	30289e <_process_key_construction_stage+0x30e>
  30283c:	00 09       	nop	
  30283e:	61 e3       	mov	r14,r1
  302840:	71 dc       	add	#-36,r1
  302842:	51 1a       	mov.l	@(40,r1),r1
  302844:	71 10       	add	#16,r1
  302846:	61 10       	mov.b	@r1,r1
  302848:	61 1c       	extu.b	r1,r1
  30284a:	21 18       	tst	r1,r1
  30284c:	e1 ff       	mov	#-1,r1
  30284e:	61 1a       	negc	r1,r1
  302850:	61 1c       	extu.b	r1,r1
  302852:	e2 01       	mov	#1,r2
  302854:	21 2a       	xor	r2,r1
  302856:	61 1c       	extu.b	r1,r1
  302858:	e0 01       	mov	#1,r0
  30285a:	21 09       	and	r0,r1
  30285c:	62 1c       	extu.b	r1,r2
  30285e:	61 e3       	mov	r14,r1
  302860:	71 dc       	add	#-36,r1
  302862:	51 1a       	mov.l	@(40,r1),r1
  302864:	71 10       	add	#16,r1
  302866:	21 20       	mov.b	r2,@r1
  302868:	61 e3       	mov	r14,r1
  30286a:	71 dc       	add	#-36,r1
  30286c:	51 19       	mov.l	@(36,r1),r1
  30286e:	71 10       	add	#16,r1
  302870:	61 10       	mov.b	@r1,r1
  302872:	61 1c       	extu.b	r1,r1
  302874:	21 18       	tst	r1,r1
  302876:	e1 ff       	mov	#-1,r1
  302878:	61 1a       	negc	r1,r1
  30287a:	61 1c       	extu.b	r1,r1
  30287c:	e2 01       	mov	#1,r2
  30287e:	21 2a       	xor	r2,r1
  302880:	61 1c       	extu.b	r1,r1
  302882:	e0 01       	mov	#1,r0
  302884:	21 09       	and	r0,r1
  302886:	62 1c       	extu.b	r1,r2
  302888:	61 e3       	mov	r14,r1
  30288a:	71 dc       	add	#-36,r1
  30288c:	51 19       	mov.l	@(36,r1),r1
  30288e:	71 10       	add	#16,r1
  302890:	21 20       	mov.b	r2,@r1
  302892:	e1 00       	mov	#0,r1
  302894:	a0 03       	bra	30289e <_process_key_construction_stage+0x30e>
  302896:	00 09       	nop	
  302898:	e1 01       	mov	#1,r1
  30289a:	a0 00       	bra	30289e <_process_key_construction_stage+0x30e>
  30289c:	00 09       	nop	
  30289e:	60 13       	mov	r1,r0
  3028a0:	7e 1c       	add	#28,r14
  3028a2:	6f e3       	mov	r14,r15
  3028a4:	4f 26       	lds.l	@r15+,pr
  3028a6:	6e f6       	mov.l	@r15+,r14
  3028a8:	68 f6       	mov.l	@r15+,r8
  3028aa:	00 0b       	rts	
  3028ac:	00 09       	nop	
  3028ae:	00 09       	nop	
  3028b0:	00 30       	.word 0x0030
  3028b2:	8f 2c       	bf.s	30290e <_process_key_rowcol_stage+0x42>
  3028b4:	00 30       	.word 0x0030
  3028b6:	b4 ca       	bsr	30324e <_regcpy+0x2>
  3028b8:	00 30       	.word 0x0030
  3028ba:	b4 f0       	bsr	30329e <__Exit+0x16>
  3028bc:	00 30       	.word 0x0030
  3028be:	8d 78       	bt.s	3029b2 <_process_key_rowcol_stage+0xe6>
  3028c0:	00 30       	.word 0x0030
  3028c2:	b4 cb       	bsr	30325c <_regcpy+0x10>
  3028c4:	00 30       	.word 0x0030
  3028c6:	b4 cc       	bsr	303262 <_regcpy+0x16>
  3028c8:	00 30       	.word 0x0030
  3028ca:	b4 cd       	bsr	303268 <_regcpy+0x1c>

003028cc <_process_key_rowcol_stage>:
  3028cc:	2f e6       	mov.l	r14,@-r15
  3028ce:	4f 22       	sts.l	pr,@-r15
  3028d0:	7f e8       	add	#-24,r15
  3028d2:	6e f3       	mov	r15,r14
  3028d4:	61 e3       	mov	r14,r1
  3028d6:	71 d8       	add	#-40,r1
  3028d8:	11 4d       	mov.l	r4,@(52,r1)
  3028da:	61 e3       	mov	r14,r1
  3028dc:	71 d8       	add	#-40,r1
  3028de:	11 5c       	mov.l	r5,@(48,r1)
  3028e0:	61 e3       	mov	r14,r1
  3028e2:	71 d8       	add	#-40,r1
  3028e4:	11 6b       	mov.l	r6,@(44,r1)
  3028e6:	62 73       	mov	r7,r2
  3028e8:	61 e3       	mov	r14,r1
  3028ea:	71 f8       	add	#-8,r1
  3028ec:	60 23       	mov	r2,r0
  3028ee:	80 18       	mov.b	r0,@(8,r1)
  3028f0:	61 e3       	mov	r14,r1
  3028f2:	71 d8       	add	#-40,r1
  3028f4:	71 30       	add	#48,r1
  3028f6:	84 17       	mov.b	@(7,r1),r0
  3028f8:	61 03       	mov	r0,r1
  3028fa:	62 1c       	extu.b	r1,r2
  3028fc:	e1 15       	mov	#21,r1
  3028fe:	32 10       	cmp/eq	r1,r2
  302900:	8b 51       	bf	3029a6 <_process_key_rowcol_stage+0xda>
  302902:	51 e8       	mov.l	@(32,r14),r1
  302904:	52 11       	mov.l	@(4,r1),r2
  302906:	61 e3       	mov	r14,r1
  302908:	71 d8       	add	#-40,r1
  30290a:	51 1b       	mov.l	@(44,r1),r1
  30290c:	61 10       	mov.b	@r1,r1
  30290e:	61 1c       	extu.b	r1,r1
  302910:	41 08       	shll2	r1
  302912:	31 2c       	add	r2,r1
  302914:	62 12       	mov.l	@r1,r2
  302916:	61 e3       	mov	r14,r1
  302918:	71 d8       	add	#-40,r1
  30291a:	51 1c       	mov.l	@(48,r1),r1
  30291c:	61 10       	mov.b	@r1,r1
  30291e:	61 1c       	extu.b	r1,r1
  302920:	41 08       	shll2	r1
  302922:	31 2c       	add	r2,r1
  302924:	61 12       	mov.l	@r1,r1
  302926:	71 10       	add	#16,r1
  302928:	84 12       	mov.b	@(2,r1),r0
  30292a:	61 03       	mov	r0,r1
  30292c:	61 1c       	extu.b	r1,r1
  30292e:	21 18       	tst	r1,r1
  302930:	89 36       	bt	3029a0 <_process_key_rowcol_stage+0xd4>
  302932:	51 e8       	mov.l	@(32,r14),r1
  302934:	52 11       	mov.l	@(4,r1),r2
  302936:	61 e3       	mov	r14,r1
  302938:	71 d8       	add	#-40,r1
  30293a:	51 1b       	mov.l	@(44,r1),r1
  30293c:	61 10       	mov.b	@r1,r1
  30293e:	61 1c       	extu.b	r1,r1
  302940:	41 08       	shll2	r1
  302942:	31 2c       	add	r2,r1
  302944:	62 12       	mov.l	@r1,r2
  302946:	61 e3       	mov	r14,r1
  302948:	71 d8       	add	#-40,r1
  30294a:	51 1c       	mov.l	@(48,r1),r1
  30294c:	61 10       	mov.b	@r1,r1
  30294e:	61 1c       	extu.b	r1,r1
  302950:	41 08       	shll2	r1
  302952:	31 2c       	add	r2,r1
  302954:	61 12       	mov.l	@r1,r1
  302956:	71 10       	add	#16,r1
  302958:	84 11       	mov.b	@(1,r1),r0
  30295a:	61 03       	mov	r0,r1
  30295c:	61 1c       	extu.b	r1,r1
  30295e:	21 18       	tst	r1,r1
  302960:	e1 ff       	mov	#-1,r1
  302962:	61 1a       	negc	r1,r1
  302964:	61 1c       	extu.b	r1,r1
  302966:	e2 01       	mov	#1,r2
  302968:	21 2a       	xor	r2,r1
  30296a:	61 1c       	extu.b	r1,r1
  30296c:	63 13       	mov	r1,r3
  30296e:	51 e8       	mov.l	@(32,r14),r1
  302970:	52 11       	mov.l	@(4,r1),r2
  302972:	61 e3       	mov	r14,r1
  302974:	71 d8       	add	#-40,r1
  302976:	51 1b       	mov.l	@(44,r1),r1
  302978:	61 10       	mov.b	@r1,r1
  30297a:	61 1c       	extu.b	r1,r1
  30297c:	41 08       	shll2	r1
  30297e:	31 2c       	add	r2,r1
  302980:	62 12       	mov.l	@r1,r2
  302982:	61 e3       	mov	r14,r1
  302984:	71 d8       	add	#-40,r1
  302986:	51 1c       	mov.l	@(48,r1),r1
  302988:	61 10       	mov.b	@r1,r1
  30298a:	61 1c       	extu.b	r1,r1
  30298c:	41 08       	shll2	r1
  30298e:	31 2c       	add	r2,r1
  302990:	61 12       	mov.l	@r1,r1
  302992:	62 33       	mov	r3,r2
  302994:	e3 01       	mov	#1,r3
  302996:	22 39       	and	r3,r2
  302998:	62 2c       	extu.b	r2,r2
  30299a:	71 10       	add	#16,r1
  30299c:	60 23       	mov	r2,r0
  30299e:	80 11       	mov.b	r0,@(1,r1)
  3029a0:	e1 00       	mov	#0,r1
  3029a2:	a1 de       	bra	302d62 <_process_key_rowcol_stage+0x496>
  3029a4:	00 09       	nop	
  3029a6:	51 e8       	mov.l	@(32,r14),r1
  3029a8:	52 11       	mov.l	@(4,r1),r2
  3029aa:	61 e3       	mov	r14,r1
  3029ac:	71 d8       	add	#-40,r1
  3029ae:	51 1b       	mov.l	@(44,r1),r1
  3029b0:	61 10       	mov.b	@r1,r1
  3029b2:	61 1c       	extu.b	r1,r1
  3029b4:	41 08       	shll2	r1
  3029b6:	31 2c       	add	r2,r1
  3029b8:	62 12       	mov.l	@r1,r2
  3029ba:	61 e3       	mov	r14,r1
  3029bc:	71 d8       	add	#-40,r1
  3029be:	51 1c       	mov.l	@(48,r1),r1
  3029c0:	61 10       	mov.b	@r1,r1
  3029c2:	61 1c       	extu.b	r1,r1
  3029c4:	41 08       	shll2	r1
  3029c6:	31 2c       	add	r2,r1
  3029c8:	61 12       	mov.l	@r1,r1
  3029ca:	71 10       	add	#16,r1
  3029cc:	84 11       	mov.b	@(1,r1),r0
  3029ce:	61 03       	mov	r0,r1
  3029d0:	61 1c       	extu.b	r1,r1
  3029d2:	e2 01       	mov	#1,r2
  3029d4:	21 2a       	xor	r2,r1
  3029d6:	61 1c       	extu.b	r1,r1
  3029d8:	21 18       	tst	r1,r1
  3029da:	89 0e       	bt	3029fa <_process_key_rowcol_stage+0x12e>
  3029dc:	63 e3       	mov	r14,r3
  3029de:	73 d8       	add	#-40,r3
  3029e0:	62 e3       	mov	r14,r2
  3029e2:	72 d8       	add	#-40,r2
  3029e4:	61 e3       	mov	r14,r1
  3029e6:	71 d8       	add	#-40,r1
  3029e8:	57 e8       	mov.l	@(32,r14),r7
  3029ea:	56 3b       	mov.l	@(44,r3),r6
  3029ec:	55 2c       	mov.l	@(48,r2),r5
  3029ee:	54 1d       	mov.l	@(52,r1),r4
  3029f0:	d1 12       	mov.l	302a3c <_process_key_rowcol_stage+0x170>,r1	! 302170 <_process_cursor_movement>
  3029f2:	41 0b       	jsr	@r1
  3029f4:	00 09       	nop	
  3029f6:	a1 b3       	bra	302d60 <_process_key_rowcol_stage+0x494>
  3029f8:	00 09       	nop	
  3029fa:	61 e3       	mov	r14,r1
  3029fc:	71 d8       	add	#-40,r1
  3029fe:	52 1d       	mov.l	@(52,r1),r2
  302a00:	91 1a       	mov.w	302a38 <_process_key_rowcol_stage+0x16c>,r1	! 400
  302a02:	21 29       	and	r2,r1
  302a04:	21 18       	tst	r1,r1
  302a06:	8b 01       	bf	302a0c <_process_key_rowcol_stage+0x140>
  302a08:	a1 9d       	bra	302d46 <_process_key_rowcol_stage+0x47a>
  302a0a:	00 09       	nop	
  302a0c:	61 e3       	mov	r14,r1
  302a0e:	71 d8       	add	#-40,r1
  302a10:	71 30       	add	#48,r1
  302a12:	84 17       	mov.b	@(7,r1),r0
  302a14:	61 03       	mov	r0,r1
  302a16:	61 1c       	extu.b	r1,r1
  302a18:	67 13       	mov	r1,r7
  302a1a:	e2 11       	mov	#17,r2
  302a1c:	e1 55       	mov	#85,r1
  302a1e:	63 23       	mov	r2,r3
  302a20:	62 13       	mov	r1,r2
  302a22:	61 73       	mov	r7,r1
  302a24:	31 38       	sub	r3,r1
  302a26:	31 26       	cmp/hi	r2,r1
  302a28:	8b 01       	bf	302a2e <_process_key_rowcol_stage+0x162>
  302a2a:	a1 51       	bra	302cd0 <_process_key_rowcol_stage+0x404>
  302a2c:	00 09       	nop	
  302a2e:	c7 04       	mova	302a40 <_process_key_rowcol_stage+0x174>,r0
  302a30:	41 08       	shll2	r1
  302a32:	01 1e       	mov.l	@(r0,r1),r1
  302a34:	01 23       	braf	r1
  302a36:	00 09       	nop	
  302a38:	04 00       	.word 0x0400
  302a3a:	00 09       	nop	
  302a3c:	00 30       	.word 0x0030
  302a3e:	21 70       	mov.b	r7,@r1
  302a40:	00 00       	.word 0x0000
  302a42:	02 8c       	mov.b	@(r0,r8),r2
  302a44:	00 00       	.word 0x0000
  302a46:	02 98       	.word 0x0298
  302a48:	00 00       	.word 0x0000
  302a4a:	02 98       	.word 0x0298
  302a4c:	00 00       	.word 0x0000
  302a4e:	02 98       	.word 0x0298
  302a50:	00 00       	.word 0x0000
  302a52:	02 98       	.word 0x0298
  302a54:	00 00       	.word 0x0000
  302a56:	02 98       	.word 0x0298
  302a58:	00 00       	.word 0x0000
  302a5a:	02 98       	.word 0x0298
  302a5c:	00 00       	.word 0x0000
  302a5e:	02 98       	.word 0x0298
  302a60:	00 00       	.word 0x0000
  302a62:	02 98       	.word 0x0298
  302a64:	00 00       	.word 0x0000
  302a66:	02 98       	.word 0x0298
  302a68:	00 00       	.word 0x0000
  302a6a:	02 98       	.word 0x0298
  302a6c:	00 00       	.word 0x0000
  302a6e:	02 98       	.word 0x0298
  302a70:	00 00       	.word 0x0000
  302a72:	02 98       	.word 0x0298
  302a74:	00 00       	.word 0x0000
  302a76:	02 98       	.word 0x0298
  302a78:	00 00       	.word 0x0000
  302a7a:	02 98       	.word 0x0298
  302a7c:	00 00       	.word 0x0000
  302a7e:	02 98       	.word 0x0298
  302a80:	00 00       	.word 0x0000
  302a82:	02 50       	.word 0x0250
  302a84:	00 00       	.word 0x0000
  302a86:	02 5c       	mov.b	@(r0,r5),r2
  302a88:	00 00       	.word 0x0000
  302a8a:	02 68       	.word 0x0268
  302a8c:	00 00       	.word 0x0000
  302a8e:	02 74       	mov.b	r7,@(r0,r2)
  302a90:	00 00       	.word 0x0000
  302a92:	02 80       	.word 0x0280
  302a94:	00 00       	.word 0x0000
  302a96:	02 98       	.word 0x0298
  302a98:	00 00       	.word 0x0000
  302a9a:	02 98       	.word 0x0298
  302a9c:	00 00       	.word 0x0000
  302a9e:	02 98       	.word 0x0298
  302aa0:	00 00       	.word 0x0000
  302aa2:	02 98       	.word 0x0298
  302aa4:	00 00       	.word 0x0000
  302aa6:	02 98       	.word 0x0298
  302aa8:	00 00       	.word 0x0000
  302aaa:	02 98       	.word 0x0298
  302aac:	00 00       	.word 0x0000
  302aae:	02 98       	.word 0x0298
  302ab0:	00 00       	.word 0x0000
  302ab2:	02 98       	.word 0x0298
  302ab4:	00 00       	.word 0x0000
  302ab6:	02 98       	.word 0x0298
  302ab8:	00 00       	.word 0x0000
  302aba:	02 98       	.word 0x0298
  302abc:	00 00       	.word 0x0000
  302abe:	02 98       	.word 0x0298
  302ac0:	00 00       	.word 0x0000
  302ac2:	02 14       	mov.b	r1,@(r0,r2)
  302ac4:	00 00       	.word 0x0000
  302ac6:	02 20       	.word 0x0220
  302ac8:	00 00       	.word 0x0000
  302aca:	02 2c       	mov.b	@(r0,r2),r2
  302acc:	00 00       	.word 0x0000
  302ace:	02 38       	.word 0x0238
  302ad0:	00 00       	.word 0x0000
  302ad2:	02 44       	mov.b	r4,@(r0,r2)
  302ad4:	00 00       	.word 0x0000
  302ad6:	02 98       	.word 0x0298
  302ad8:	00 00       	.word 0x0000
  302ada:	02 98       	.word 0x0298
  302adc:	00 00       	.word 0x0000
  302ade:	02 98       	.word 0x0298
  302ae0:	00 00       	.word 0x0000
  302ae2:	02 98       	.word 0x0298
  302ae4:	00 00       	.word 0x0000
  302ae6:	02 98       	.word 0x0298
  302ae8:	00 00       	.word 0x0000
  302aea:	02 98       	.word 0x0298
  302aec:	00 00       	.word 0x0000
  302aee:	02 98       	.word 0x0298
  302af0:	00 00       	.word 0x0000
  302af2:	02 98       	.word 0x0298
  302af4:	00 00       	.word 0x0000
  302af6:	02 98       	.word 0x0298
  302af8:	00 00       	.word 0x0000
  302afa:	02 98       	.word 0x0298
  302afc:	00 00       	.word 0x0000
  302afe:	02 98       	.word 0x0298
  302b00:	00 00       	.word 0x0000
  302b02:	01 f0       	.word 0x01f0
  302b04:	00 00       	.word 0x0000
  302b06:	01 fc       	mov.b	@(r0,r15),r1
  302b08:	00 00       	.word 0x0000
  302b0a:	02 08       	.word 0x0208
  302b0c:	00 00       	.word 0x0000
  302b0e:	02 98       	.word 0x0298
  302b10:	00 00       	.word 0x0000
  302b12:	02 98       	.word 0x0298
  302b14:	00 00       	.word 0x0000
  302b16:	02 98       	.word 0x0298
  302b18:	00 00       	.word 0x0000
  302b1a:	02 98       	.word 0x0298
  302b1c:	00 00       	.word 0x0000
  302b1e:	02 98       	.word 0x0298
  302b20:	00 00       	.word 0x0000
  302b22:	02 98       	.word 0x0298
  302b24:	00 00       	.word 0x0000
  302b26:	02 98       	.word 0x0298
  302b28:	00 00       	.word 0x0000
  302b2a:	02 98       	.word 0x0298
  302b2c:	00 00       	.word 0x0000
  302b2e:	02 98       	.word 0x0298
  302b30:	00 00       	.word 0x0000
  302b32:	02 98       	.word 0x0298
  302b34:	00 00       	.word 0x0000
  302b36:	02 98       	.word 0x0298
  302b38:	00 00       	.word 0x0000
  302b3a:	02 98       	.word 0x0298
  302b3c:	00 00       	.word 0x0000
  302b3e:	02 98       	.word 0x0298
  302b40:	00 00       	.word 0x0000
  302b42:	01 a8       	.word 0x01a8
  302b44:	00 00       	.word 0x0000
  302b46:	01 b4       	mov.b	r11,@(r0,r1)
  302b48:	00 00       	.word 0x0000
  302b4a:	01 c0       	.word 0x01c0
  302b4c:	00 00       	.word 0x0000
  302b4e:	01 cc       	mov.b	@(r0,r12),r1
  302b50:	00 00       	.word 0x0000
  302b52:	01 d8       	.word 0x01d8
  302b54:	00 00       	.word 0x0000
  302b56:	01 e4       	mov.b	r14,@(r0,r1)
  302b58:	00 00       	.word 0x0000
  302b5a:	02 98       	.word 0x0298
  302b5c:	00 00       	.word 0x0000
  302b5e:	02 98       	.word 0x0298
  302b60:	00 00       	.word 0x0000
  302b62:	02 98       	.word 0x0298
  302b64:	00 00       	.word 0x0000
  302b66:	02 98       	.word 0x0298
  302b68:	00 00       	.word 0x0000
  302b6a:	02 98       	.word 0x0298
  302b6c:	00 00       	.word 0x0000
  302b6e:	02 98       	.word 0x0298
  302b70:	00 00       	.word 0x0000
  302b72:	02 98       	.word 0x0298
  302b74:	00 00       	.word 0x0000
  302b76:	02 98       	.word 0x0298
  302b78:	00 00       	.word 0x0000
  302b7a:	02 98       	.word 0x0298
  302b7c:	00 00       	.word 0x0000
  302b7e:	02 98       	.word 0x0298
  302b80:	00 00       	.word 0x0000
  302b82:	01 60       	.word 0x0160
  302b84:	00 00       	.word 0x0000
  302b86:	01 6c       	mov.b	@(r0,r6),r1
  302b88:	00 00       	.word 0x0000
  302b8a:	01 78       	.word 0x0178
  302b8c:	00 00       	.word 0x0000
  302b8e:	01 84       	mov.b	r8,@(r0,r1)
  302b90:	00 00       	.word 0x0000
  302b92:	01 90       	.word 0x0190
  302b94:	00 00       	.word 0x0000
  302b96:	01 9c       	mov.b	@(r0,r9),r1
  302b98:	61 e3       	mov	r14,r1
  302b9a:	71 d8       	add	#-40,r1
  302b9c:	d2 74       	mov.l	302d70 <_process_key_rowcol_stage+0x4a4>,r2	! 30b4f4
  302b9e:	11 2f       	mov.l	r2,@(60,r1)
  302ba0:	a0 9b       	bra	302cda <_process_key_rowcol_stage+0x40e>
  302ba2:	00 09       	nop	
  302ba4:	61 e3       	mov	r14,r1
  302ba6:	71 d8       	add	#-40,r1
  302ba8:	d2 72       	mov.l	302d74 <_process_key_rowcol_stage+0x4a8>,r2	! 30b4f8
  302baa:	11 2f       	mov.l	r2,@(60,r1)
  302bac:	a0 95       	bra	302cda <_process_key_rowcol_stage+0x40e>
  302bae:	00 09       	nop	
  302bb0:	61 e3       	mov	r14,r1
  302bb2:	71 d8       	add	#-40,r1
  302bb4:	d2 70       	mov.l	302d78 <_process_key_rowcol_stage+0x4ac>,r2	! 30b4fc
  302bb6:	11 2f       	mov.l	r2,@(60,r1)
  302bb8:	a0 8f       	bra	302cda <_process_key_rowcol_stage+0x40e>
  302bba:	00 09       	nop	
  302bbc:	61 e3       	mov	r14,r1
  302bbe:	71 d8       	add	#-40,r1
  302bc0:	d2 6e       	mov.l	302d7c <_process_key_rowcol_stage+0x4b0>,r2	! 30b500
  302bc2:	11 2f       	mov.l	r2,@(60,r1)
  302bc4:	a0 89       	bra	302cda <_process_key_rowcol_stage+0x40e>
  302bc6:	00 09       	nop	
  302bc8:	61 e3       	mov	r14,r1
  302bca:	71 d8       	add	#-40,r1
  302bcc:	d2 6c       	mov.l	302d80 <_process_key_rowcol_stage+0x4b4>,r2	! 30b504
  302bce:	11 2f       	mov.l	r2,@(60,r1)
  302bd0:	a0 83       	bra	302cda <_process_key_rowcol_stage+0x40e>
  302bd2:	00 09       	nop	
  302bd4:	61 e3       	mov	r14,r1
  302bd6:	71 d8       	add	#-40,r1
  302bd8:	d2 6a       	mov.l	302d84 <_process_key_rowcol_stage+0x4b8>,r2	! 30b508
  302bda:	11 2f       	mov.l	r2,@(60,r1)
  302bdc:	a0 7d       	bra	302cda <_process_key_rowcol_stage+0x40e>
  302bde:	00 09       	nop	
  302be0:	61 e3       	mov	r14,r1
  302be2:	71 d8       	add	#-40,r1
  302be4:	d2 68       	mov.l	302d88 <_process_key_rowcol_stage+0x4bc>,r2	! 30b50c
  302be6:	11 2f       	mov.l	r2,@(60,r1)
  302be8:	a0 77       	bra	302cda <_process_key_rowcol_stage+0x40e>
  302bea:	00 09       	nop	
  302bec:	61 e3       	mov	r14,r1
  302bee:	71 d8       	add	#-40,r1
  302bf0:	d2 66       	mov.l	302d8c <_process_key_rowcol_stage+0x4c0>,r2	! 30b510
  302bf2:	11 2f       	mov.l	r2,@(60,r1)
  302bf4:	a0 71       	bra	302cda <_process_key_rowcol_stage+0x40e>
  302bf6:	00 09       	nop	
  302bf8:	61 e3       	mov	r14,r1
  302bfa:	71 d8       	add	#-40,r1
  302bfc:	d2 64       	mov.l	302d90 <_process_key_rowcol_stage+0x4c4>,r2	! 30b514
  302bfe:	11 2f       	mov.l	r2,@(60,r1)
  302c00:	a0 6b       	bra	302cda <_process_key_rowcol_stage+0x40e>
  302c02:	00 09       	nop	
  302c04:	61 e3       	mov	r14,r1
  302c06:	71 d8       	add	#-40,r1
  302c08:	d2 62       	mov.l	302d94 <_process_key_rowcol_stage+0x4c8>,r2	! 30b518
  302c0a:	11 2f       	mov.l	r2,@(60,r1)
  302c0c:	a0 65       	bra	302cda <_process_key_rowcol_stage+0x40e>
  302c0e:	00 09       	nop	
  302c10:	61 e3       	mov	r14,r1
  302c12:	71 d8       	add	#-40,r1
  302c14:	d2 60       	mov.l	302d98 <_process_key_rowcol_stage+0x4cc>,r2	! 30b51c
  302c16:	11 2f       	mov.l	r2,@(60,r1)
  302c18:	a0 5f       	bra	302cda <_process_key_rowcol_stage+0x40e>
  302c1a:	00 09       	nop	
  302c1c:	61 e3       	mov	r14,r1
  302c1e:	71 d8       	add	#-40,r1
  302c20:	d2 5e       	mov.l	302d9c <_process_key_rowcol_stage+0x4d0>,r2	! 30b520
  302c22:	11 2f       	mov.l	r2,@(60,r1)
  302c24:	a0 59       	bra	302cda <_process_key_rowcol_stage+0x40e>
  302c26:	00 09       	nop	
  302c28:	61 e3       	mov	r14,r1
  302c2a:	71 d8       	add	#-40,r1
  302c2c:	d2 5c       	mov.l	302da0 <_process_key_rowcol_stage+0x4d4>,r2	! 30b524
  302c2e:	11 2f       	mov.l	r2,@(60,r1)
  302c30:	a0 53       	bra	302cda <_process_key_rowcol_stage+0x40e>
  302c32:	00 09       	nop	
  302c34:	61 e3       	mov	r14,r1
  302c36:	71 d8       	add	#-40,r1
  302c38:	d2 5a       	mov.l	302da4 <_process_key_rowcol_stage+0x4d8>,r2	! 30b528
  302c3a:	11 2f       	mov.l	r2,@(60,r1)
  302c3c:	a0 4d       	bra	302cda <_process_key_rowcol_stage+0x40e>
  302c3e:	00 09       	nop	
  302c40:	61 e3       	mov	r14,r1
  302c42:	71 d8       	add	#-40,r1
  302c44:	d2 58       	mov.l	302da8 <_process_key_rowcol_stage+0x4dc>,r2	! 30b52c
  302c46:	11 2f       	mov.l	r2,@(60,r1)
  302c48:	a0 47       	bra	302cda <_process_key_rowcol_stage+0x40e>
  302c4a:	00 09       	nop	
  302c4c:	61 e3       	mov	r14,r1
  302c4e:	71 d8       	add	#-40,r1
  302c50:	d2 56       	mov.l	302dac <_process_key_rowcol_stage+0x4e0>,r2	! 30b530
  302c52:	11 2f       	mov.l	r2,@(60,r1)
  302c54:	a0 41       	bra	302cda <_process_key_rowcol_stage+0x40e>
  302c56:	00 09       	nop	
  302c58:	61 e3       	mov	r14,r1
  302c5a:	71 d8       	add	#-40,r1
  302c5c:	d2 54       	mov.l	302db0 <_process_key_rowcol_stage+0x4e4>,r2	! 30b534
  302c5e:	11 2f       	mov.l	r2,@(60,r1)
  302c60:	a0 3b       	bra	302cda <_process_key_rowcol_stage+0x40e>
  302c62:	00 09       	nop	
  302c64:	61 e3       	mov	r14,r1
  302c66:	71 d8       	add	#-40,r1
  302c68:	d2 52       	mov.l	302db4 <_process_key_rowcol_stage+0x4e8>,r2	! 30b538
  302c6a:	11 2f       	mov.l	r2,@(60,r1)
  302c6c:	a0 35       	bra	302cda <_process_key_rowcol_stage+0x40e>
  302c6e:	00 09       	nop	
  302c70:	61 e3       	mov	r14,r1
  302c72:	71 d8       	add	#-40,r1
  302c74:	d2 50       	mov.l	302db8 <_process_key_rowcol_stage+0x4ec>,r2	! 30b53c
  302c76:	11 2f       	mov.l	r2,@(60,r1)
  302c78:	a0 2f       	bra	302cda <_process_key_rowcol_stage+0x40e>
  302c7a:	00 09       	nop	
  302c7c:	61 e3       	mov	r14,r1
  302c7e:	71 d8       	add	#-40,r1
  302c80:	d2 4e       	mov.l	302dbc <_process_key_rowcol_stage+0x4f0>,r2	! 30b540
  302c82:	11 2f       	mov.l	r2,@(60,r1)
  302c84:	a0 29       	bra	302cda <_process_key_rowcol_stage+0x40e>
  302c86:	00 09       	nop	
  302c88:	61 e3       	mov	r14,r1
  302c8a:	71 d8       	add	#-40,r1
  302c8c:	d2 4c       	mov.l	302dc0 <_process_key_rowcol_stage+0x4f4>,r2	! 30b544
  302c8e:	11 2f       	mov.l	r2,@(60,r1)
  302c90:	a0 23       	bra	302cda <_process_key_rowcol_stage+0x40e>
  302c92:	00 09       	nop	
  302c94:	61 e3       	mov	r14,r1
  302c96:	71 d8       	add	#-40,r1
  302c98:	d2 4a       	mov.l	302dc4 <_process_key_rowcol_stage+0x4f8>,r2	! 30b548
  302c9a:	11 2f       	mov.l	r2,@(60,r1)
  302c9c:	a0 1d       	bra	302cda <_process_key_rowcol_stage+0x40e>
  302c9e:	00 09       	nop	
  302ca0:	61 e3       	mov	r14,r1
  302ca2:	71 d8       	add	#-40,r1
  302ca4:	d2 48       	mov.l	302dc8 <_process_key_rowcol_stage+0x4fc>,r2	! 30b54c
  302ca6:	11 2f       	mov.l	r2,@(60,r1)
  302ca8:	a0 17       	bra	302cda <_process_key_rowcol_stage+0x40e>
  302caa:	00 09       	nop	
  302cac:	61 e3       	mov	r14,r1
  302cae:	71 d8       	add	#-40,r1
  302cb0:	d2 46       	mov.l	302dcc <_process_key_rowcol_stage+0x500>,r2	! 30b550
  302cb2:	11 2f       	mov.l	r2,@(60,r1)
  302cb4:	a0 11       	bra	302cda <_process_key_rowcol_stage+0x40e>
  302cb6:	00 09       	nop	
  302cb8:	61 e3       	mov	r14,r1
  302cba:	71 d8       	add	#-40,r1
  302cbc:	d2 44       	mov.l	302dd0 <_process_key_rowcol_stage+0x504>,r2	! 30b554
  302cbe:	11 2f       	mov.l	r2,@(60,r1)
  302cc0:	a0 0b       	bra	302cda <_process_key_rowcol_stage+0x40e>
  302cc2:	00 09       	nop	
  302cc4:	61 e3       	mov	r14,r1
  302cc6:	71 d8       	add	#-40,r1
  302cc8:	d2 42       	mov.l	302dd4 <_process_key_rowcol_stage+0x508>,r2	! 30b558
  302cca:	11 2f       	mov.l	r2,@(60,r1)
  302ccc:	a0 05       	bra	302cda <_process_key_rowcol_stage+0x40e>
  302cce:	00 09       	nop	
  302cd0:	61 e3       	mov	r14,r1
  302cd2:	71 d8       	add	#-40,r1
  302cd4:	d2 40       	mov.l	302dd8 <_process_key_rowcol_stage+0x50c>,r2	! 30b55c
  302cd6:	11 2f       	mov.l	r2,@(60,r1)
  302cd8:	00 09       	nop	
  302cda:	51 e8       	mov.l	@(32,r14),r1
  302cdc:	52 11       	mov.l	@(4,r1),r2
  302cde:	61 e3       	mov	r14,r1
  302ce0:	71 d8       	add	#-40,r1
  302ce2:	51 1b       	mov.l	@(44,r1),r1
  302ce4:	61 10       	mov.b	@r1,r1
  302ce6:	61 1c       	extu.b	r1,r1
  302ce8:	41 08       	shll2	r1
  302cea:	31 2c       	add	r2,r1
  302cec:	62 12       	mov.l	@r1,r2
  302cee:	61 e3       	mov	r14,r1
  302cf0:	71 d8       	add	#-40,r1
  302cf2:	51 1c       	mov.l	@(48,r1),r1
  302cf4:	61 10       	mov.b	@r1,r1
  302cf6:	61 1c       	extu.b	r1,r1
  302cf8:	41 08       	shll2	r1
  302cfa:	31 2c       	add	r2,r1
  302cfc:	62 12       	mov.l	@r1,r2
  302cfe:	61 e3       	mov	r14,r1
  302d00:	71 d8       	add	#-40,r1
  302d02:	52 26       	mov.l	@(24,r2),r2
  302d04:	11 2e       	mov.l	r2,@(56,r1)
  302d06:	51 e8       	mov.l	@(32,r14),r1
  302d08:	52 11       	mov.l	@(4,r1),r2
  302d0a:	61 e3       	mov	r14,r1
  302d0c:	71 d8       	add	#-40,r1
  302d0e:	51 1b       	mov.l	@(44,r1),r1
  302d10:	61 10       	mov.b	@r1,r1
  302d12:	61 1c       	extu.b	r1,r1
  302d14:	41 08       	shll2	r1
  302d16:	31 2c       	add	r2,r1
  302d18:	62 12       	mov.l	@r1,r2
  302d1a:	61 e3       	mov	r14,r1
  302d1c:	71 d8       	add	#-40,r1
  302d1e:	51 1c       	mov.l	@(48,r1),r1
  302d20:	61 10       	mov.b	@r1,r1
  302d22:	61 1c       	extu.b	r1,r1
  302d24:	41 08       	shll2	r1
  302d26:	31 2c       	add	r2,r1
  302d28:	61 12       	mov.l	@r1,r1
  302d2a:	53 16       	mov.l	@(24,r1),r3
  302d2c:	62 e3       	mov	r14,r2
  302d2e:	72 d8       	add	#-40,r2
  302d30:	61 e3       	mov	r14,r1
  302d32:	71 d8       	add	#-40,r1
  302d34:	d5 29       	mov.l	302ddc <_process_key_rowcol_stage+0x510>,r5	! 30b560
  302d36:	57 2f       	mov.l	@(60,r2),r7
  302d38:	56 1e       	mov.l	@(56,r1),r6
  302d3a:	64 33       	mov	r3,r4
  302d3c:	d1 28       	mov.l	302de0 <_process_key_rowcol_stage+0x514>,r1	! 308dc4 <_sprintf>
  302d3e:	41 0b       	jsr	@r1
  302d40:	00 09       	nop	
  302d42:	a0 0d       	bra	302d60 <_process_key_rowcol_stage+0x494>
  302d44:	00 09       	nop	
  302d46:	63 e3       	mov	r14,r3
  302d48:	73 d8       	add	#-40,r3
  302d4a:	62 e3       	mov	r14,r2
  302d4c:	72 d8       	add	#-40,r2
  302d4e:	61 e3       	mov	r14,r1
  302d50:	71 d8       	add	#-40,r1
  302d52:	57 e8       	mov.l	@(32,r14),r7
  302d54:	56 3b       	mov.l	@(44,r3),r6
  302d56:	55 2c       	mov.l	@(48,r2),r5
  302d58:	54 1d       	mov.l	@(52,r1),r4
  302d5a:	d1 22       	mov.l	302de4 <_process_key_rowcol_stage+0x518>,r1	! 3022e6 <_process_common_keys>
  302d5c:	41 0b       	jsr	@r1
  302d5e:	00 09       	nop	
  302d60:	e1 00       	mov	#0,r1
  302d62:	60 13       	mov	r1,r0
  302d64:	7e 18       	add	#24,r14
  302d66:	6f e3       	mov	r14,r15
  302d68:	4f 26       	lds.l	@r15+,pr
  302d6a:	6e f6       	mov.l	@r15+,r14
  302d6c:	00 0b       	rts	
  302d6e:	00 09       	nop	
  302d70:	00 30       	.word 0x0030
  302d72:	b4 f4       	bsr	30375e <_keydev_unqueue_event+0xa2>
  302d74:	00 30       	.word 0x0030
  302d76:	b4 f8       	bsr	30376a <_keydev_unqueue_event+0xae>
  302d78:	00 30       	.word 0x0030
  302d7a:	b4 fc       	bsr	303776 <_keydev_unqueue_event+0xba>
  302d7c:	00 30       	.word 0x0030
  302d7e:	b5 00       	bsr	303782 <_keydev_unqueue_event+0xc6>
  302d80:	00 30       	.word 0x0030
  302d82:	b5 04       	bsr	30378e <_keydev_unqueue_event+0xd2>
  302d84:	00 30       	.word 0x0030
  302d86:	b5 08       	bsr	30379a <_keydev_keydown+0x6>
  302d88:	00 30       	.word 0x0030
  302d8a:	b5 0c       	bsr	3037a6 <_keydev_keydown+0x12>
  302d8c:	00 30       	.word 0x0030
  302d8e:	b5 10       	bsr	3037b2 <_keydev_keydown+0x1e>
  302d90:	00 30       	.word 0x0030
  302d92:	b5 14       	bsr	3037be <_keydev_transform+0x8>
  302d94:	00 30       	.word 0x0030
  302d96:	b5 18       	bsr	3037ca <_keydev_transform+0x14>
  302d98:	00 30       	.word 0x0030
  302d9a:	b5 1c       	bsr	3037d6 <_keydev_set_transform+0x6>
  302d9c:	00 30       	.word 0x0030
  302d9e:	b5 20       	bsr	3037e2 <_keydev_set_transform+0x12>
  302da0:	00 30       	.word 0x0030
  302da2:	b5 24       	bsr	3037ee <_keydev_set_transform+0x1e>
  302da4:	00 30       	.word 0x0030
  302da6:	b5 28       	bsr	3037fa <_keydev_set_transform+0x2a>
  302da8:	00 30       	.word 0x0030
  302daa:	b5 2c       	bsr	303806 <_keydev_set_transform+0x36>
  302dac:	00 30       	.word 0x0030
  302dae:	b5 30       	bsr	303812 <_keydev_set_standard_repeats+0x6>
  302db0:	00 30       	.word 0x0030
  302db2:	b5 34       	bsr	30381e <_keydev_set_standard_repeats+0x12>
  302db4:	00 30       	.word 0x0030
  302db6:	b5 38       	bsr	30382a <_keydev_read+0xa>
  302db8:	00 30       	.word 0x0030
  302dba:	b5 3c       	bsr	303836 <_keydev_read+0x16>
  302dbc:	00 30       	.word 0x0030
  302dbe:	b5 40       	bsr	303842 <_keydev_read+0x22>
  302dc0:	00 30       	.word 0x0030
  302dc2:	b5 44       	bsr	30384e <_keydev_read+0x2e>
  302dc4:	00 30       	.word 0x0030
  302dc6:	b5 48       	bsr	30385a <_keydev_read+0x3a>
  302dc8:	00 30       	.word 0x0030
  302dca:	b5 4c       	bsr	303866 <_keydev_read+0x46>
  302dcc:	00 30       	.word 0x0030
  302dce:	b5 50       	bsr	303872 <_keydev_read+0x52>
  302dd0:	00 30       	.word 0x0030
  302dd2:	b5 54       	bsr	30387e <_keydev_read+0x5e>
  302dd4:	00 30       	.word 0x0030
  302dd6:	b5 58       	bsr	30388a <_keydev_read+0x6a>
  302dd8:	00 30       	.word 0x0030
  302dda:	b5 5c       	bsr	303896 <_keydev_read+0x76>
  302ddc:	00 30       	.word 0x0030
  302dde:	b5 60       	bsr	3038a2 <_keydev_read+0x82>
  302de0:	00 30       	.word 0x0030
  302de2:	8d c4       	bt.s	302d6e <_process_key_rowcol_stage+0x4a2>
  302de4:	00 30       	.word 0x0030
  302de6:	22 e6       	mov.l	r14,@-r2

00302de8 <_process_key_tableux_stage>:
  302de8:	2f e6       	mov.l	r14,@-r15
  302dea:	4f 22       	sts.l	pr,@-r15
  302dec:	7f e8       	add	#-24,r15
  302dee:	6e f3       	mov	r15,r14
  302df0:	61 e3       	mov	r14,r1
  302df2:	71 d8       	add	#-40,r1
  302df4:	11 4d       	mov.l	r4,@(52,r1)
  302df6:	61 e3       	mov	r14,r1
  302df8:	71 d8       	add	#-40,r1
  302dfa:	11 5c       	mov.l	r5,@(48,r1)
  302dfc:	61 e3       	mov	r14,r1
  302dfe:	71 d8       	add	#-40,r1
  302e00:	11 6b       	mov.l	r6,@(44,r1)
  302e02:	61 e3       	mov	r14,r1
  302e04:	71 d8       	add	#-40,r1
  302e06:	11 7a       	mov.l	r7,@(40,r1)
  302e08:	61 e3       	mov	r14,r1
  302e0a:	71 d8       	add	#-40,r1
  302e0c:	71 30       	add	#48,r1
  302e0e:	84 17       	mov.b	@(7,r1),r0
  302e10:	61 03       	mov	r0,r1
  302e12:	62 1c       	extu.b	r1,r2
  302e14:	91 68       	mov.w	302ee8 <_process_key_tableux_stage+0x100>,r1	! 96
  302e16:	32 10       	cmp/eq	r1,r2
  302e18:	8b 08       	bf	302e2c <_process_key_tableux_stage+0x44>
  302e1a:	61 e3       	mov	r14,r1
  302e1c:	71 d8       	add	#-40,r1
  302e1e:	54 1a       	mov.l	@(40,r1),r4
  302e20:	d1 32       	mov.l	302eec <_process_key_tableux_stage+0x104>,r1	! 303160 <_check_stage_1>
  302e22:	41 0b       	jsr	@r1
  302e24:	00 09       	nop	
  302e26:	61 03       	mov	r0,r1
  302e28:	21 18       	tst	r1,r1
  302e2a:	8b 01       	bf	302e30 <_process_key_tableux_stage+0x48>
  302e2c:	a0 60       	bra	302ef0 <_process_key_tableux_stage+0x108>
  302e2e:	00 09       	nop	
  302e30:	61 e3       	mov	r14,r1
  302e32:	71 d8       	add	#-40,r1
  302e34:	e2 01       	mov	#1,r2
  302e36:	11 2f       	mov.l	r2,@(60,r1)
  302e38:	a0 48       	bra	302ecc <_process_key_tableux_stage+0xe4>
  302e3a:	00 09       	nop	
  302e3c:	61 e3       	mov	r14,r1
  302e3e:	71 d8       	add	#-40,r1
  302e40:	e2 01       	mov	#1,r2
  302e42:	11 2e       	mov.l	r2,@(56,r1)
  302e44:	a0 2f       	bra	302ea6 <_process_key_tableux_stage+0xbe>
  302e46:	00 09       	nop	
  302e48:	61 e3       	mov	r14,r1
  302e4a:	71 d8       	add	#-40,r1
  302e4c:	51 1a       	mov.l	@(40,r1),r1
  302e4e:	52 11       	mov.l	@(4,r1),r2
  302e50:	61 e3       	mov	r14,r1
  302e52:	71 d8       	add	#-40,r1
  302e54:	51 1f       	mov.l	@(60,r1),r1
  302e56:	41 08       	shll2	r1
  302e58:	31 2c       	add	r2,r1
  302e5a:	62 12       	mov.l	@r1,r2
  302e5c:	61 e3       	mov	r14,r1
  302e5e:	71 d8       	add	#-40,r1
  302e60:	51 1e       	mov.l	@(56,r1),r1
  302e62:	41 08       	shll2	r1
  302e64:	31 2c       	add	r2,r1
  302e66:	61 12       	mov.l	@r1,r1
  302e68:	71 10       	add	#16,r1
  302e6a:	e2 00       	mov	#0,r2
  302e6c:	60 23       	mov	r2,r0
  302e6e:	80 12       	mov.b	r0,@(2,r1)
  302e70:	61 e3       	mov	r14,r1
  302e72:	71 d8       	add	#-40,r1
  302e74:	51 1a       	mov.l	@(40,r1),r1
  302e76:	52 11       	mov.l	@(4,r1),r2
  302e78:	61 e3       	mov	r14,r1
  302e7a:	71 d8       	add	#-40,r1
  302e7c:	51 1f       	mov.l	@(60,r1),r1
  302e7e:	41 08       	shll2	r1
  302e80:	31 2c       	add	r2,r1
  302e82:	62 12       	mov.l	@r1,r2
  302e84:	61 e3       	mov	r14,r1
  302e86:	71 d8       	add	#-40,r1
  302e88:	51 1e       	mov.l	@(56,r1),r1
  302e8a:	41 08       	shll2	r1
  302e8c:	31 2c       	add	r2,r1
  302e8e:	61 12       	mov.l	@r1,r1
  302e90:	71 10       	add	#16,r1
  302e92:	e2 00       	mov	#0,r2
  302e94:	60 23       	mov	r2,r0
  302e96:	80 11       	mov.b	r0,@(1,r1)
  302e98:	61 e3       	mov	r14,r1
  302e9a:	71 d8       	add	#-40,r1
  302e9c:	62 e3       	mov	r14,r2
  302e9e:	72 d8       	add	#-40,r2
  302ea0:	52 2e       	mov.l	@(56,r2),r2
  302ea2:	72 01       	add	#1,r2
  302ea4:	11 2e       	mov.l	r2,@(56,r1)
  302ea6:	61 e3       	mov	r14,r1
  302ea8:	71 d8       	add	#-40,r1
  302eaa:	51 1a       	mov.l	@(40,r1),r1
  302eac:	84 11       	mov.b	@(1,r1),r0
  302eae:	61 03       	mov	r0,r1
  302eb0:	61 1c       	extu.b	r1,r1
  302eb2:	62 13       	mov	r1,r2
  302eb4:	61 e3       	mov	r14,r1
  302eb6:	71 d8       	add	#-40,r1
  302eb8:	51 1e       	mov.l	@(56,r1),r1
  302eba:	31 23       	cmp/ge	r2,r1
  302ebc:	8b c4       	bf	302e48 <_process_key_tableux_stage+0x60>
  302ebe:	61 e3       	mov	r14,r1
  302ec0:	71 d8       	add	#-40,r1
  302ec2:	62 e3       	mov	r14,r2
  302ec4:	72 d8       	add	#-40,r2
  302ec6:	52 2f       	mov.l	@(60,r2),r2
  302ec8:	72 01       	add	#1,r2
  302eca:	11 2f       	mov.l	r2,@(60,r1)
  302ecc:	61 e3       	mov	r14,r1
  302ece:	71 d8       	add	#-40,r1
  302ed0:	51 1a       	mov.l	@(40,r1),r1
  302ed2:	61 10       	mov.b	@r1,r1
  302ed4:	61 1c       	extu.b	r1,r1
  302ed6:	62 13       	mov	r1,r2
  302ed8:	61 e3       	mov	r14,r1
  302eda:	71 d8       	add	#-40,r1
  302edc:	51 1f       	mov.l	@(60,r1),r1
  302ede:	31 23       	cmp/ge	r2,r1
  302ee0:	8b ac       	bf	302e3c <_process_key_tableux_stage+0x54>
  302ee2:	e1 01       	mov	#1,r1
  302ee4:	a0 a2       	bra	30302c <_process_key_tableux_stage+0x244>
  302ee6:	00 09       	nop	
  302ee8:	00 96       	mov.l	r9,@(r0,r0)
  302eea:	00 09       	nop	
  302eec:	00 30       	.word 0x0030
  302eee:	31 60       	cmp/eq	r6,r1
  302ef0:	61 e3       	mov	r14,r1
  302ef2:	71 d8       	add	#-40,r1
  302ef4:	71 30       	add	#48,r1
  302ef6:	84 17       	mov.b	@(7,r1),r0
  302ef8:	61 03       	mov	r0,r1
  302efa:	62 1c       	extu.b	r1,r2
  302efc:	e1 15       	mov	#21,r1
  302efe:	32 10       	cmp/eq	r1,r2
  302f00:	8b 57       	bf	302fb2 <_process_key_tableux_stage+0x1ca>
  302f02:	61 e3       	mov	r14,r1
  302f04:	71 d8       	add	#-40,r1
  302f06:	51 1a       	mov.l	@(40,r1),r1
  302f08:	52 11       	mov.l	@(4,r1),r2
  302f0a:	61 e3       	mov	r14,r1
  302f0c:	71 d8       	add	#-40,r1
  302f0e:	51 1b       	mov.l	@(44,r1),r1
  302f10:	61 10       	mov.b	@r1,r1
  302f12:	61 1c       	extu.b	r1,r1
  302f14:	41 08       	shll2	r1
  302f16:	31 2c       	add	r2,r1
  302f18:	62 12       	mov.l	@r1,r2
  302f1a:	61 e3       	mov	r14,r1
  302f1c:	71 d8       	add	#-40,r1
  302f1e:	51 1c       	mov.l	@(48,r1),r1
  302f20:	61 10       	mov.b	@r1,r1
  302f22:	61 1c       	extu.b	r1,r1
  302f24:	41 08       	shll2	r1
  302f26:	31 2c       	add	r2,r1
  302f28:	61 12       	mov.l	@r1,r1
  302f2a:	71 10       	add	#16,r1
  302f2c:	84 12       	mov.b	@(2,r1),r0
  302f2e:	61 03       	mov	r0,r1
  302f30:	61 1c       	extu.b	r1,r1
  302f32:	21 18       	tst	r1,r1
  302f34:	89 3a       	bt	302fac <_process_key_tableux_stage+0x1c4>
  302f36:	61 e3       	mov	r14,r1
  302f38:	71 d8       	add	#-40,r1
  302f3a:	51 1a       	mov.l	@(40,r1),r1
  302f3c:	52 11       	mov.l	@(4,r1),r2
  302f3e:	61 e3       	mov	r14,r1
  302f40:	71 d8       	add	#-40,r1
  302f42:	51 1b       	mov.l	@(44,r1),r1
  302f44:	61 10       	mov.b	@r1,r1
  302f46:	61 1c       	extu.b	r1,r1
  302f48:	41 08       	shll2	r1
  302f4a:	31 2c       	add	r2,r1
  302f4c:	62 12       	mov.l	@r1,r2
  302f4e:	61 e3       	mov	r14,r1
  302f50:	71 d8       	add	#-40,r1
  302f52:	51 1c       	mov.l	@(48,r1),r1
  302f54:	61 10       	mov.b	@r1,r1
  302f56:	61 1c       	extu.b	r1,r1
  302f58:	41 08       	shll2	r1
  302f5a:	31 2c       	add	r2,r1
  302f5c:	61 12       	mov.l	@r1,r1
  302f5e:	71 10       	add	#16,r1
  302f60:	84 11       	mov.b	@(1,r1),r0
  302f62:	61 03       	mov	r0,r1
  302f64:	61 1c       	extu.b	r1,r1
  302f66:	21 18       	tst	r1,r1
  302f68:	e1 ff       	mov	#-1,r1
  302f6a:	61 1a       	negc	r1,r1
  302f6c:	61 1c       	extu.b	r1,r1
  302f6e:	e2 01       	mov	#1,r2
  302f70:	21 2a       	xor	r2,r1
  302f72:	61 1c       	extu.b	r1,r1
  302f74:	63 13       	mov	r1,r3
  302f76:	61 e3       	mov	r14,r1
  302f78:	71 d8       	add	#-40,r1
  302f7a:	51 1a       	mov.l	@(40,r1),r1
  302f7c:	52 11       	mov.l	@(4,r1),r2
  302f7e:	61 e3       	mov	r14,r1
  302f80:	71 d8       	add	#-40,r1
  302f82:	51 1b       	mov.l	@(44,r1),r1
  302f84:	61 10       	mov.b	@r1,r1
  302f86:	61 1c       	extu.b	r1,r1
  302f88:	41 08       	shll2	r1
  302f8a:	31 2c       	add	r2,r1
  302f8c:	62 12       	mov.l	@r1,r2
  302f8e:	61 e3       	mov	r14,r1
  302f90:	71 d8       	add	#-40,r1
  302f92:	51 1c       	mov.l	@(48,r1),r1
  302f94:	61 10       	mov.b	@r1,r1
  302f96:	61 1c       	extu.b	r1,r1
  302f98:	41 08       	shll2	r1
  302f9a:	31 2c       	add	r2,r1
  302f9c:	61 12       	mov.l	@r1,r1
  302f9e:	62 33       	mov	r3,r2
  302fa0:	e3 01       	mov	#1,r3
  302fa2:	22 39       	and	r3,r2
  302fa4:	62 2c       	extu.b	r2,r2
  302fa6:	71 10       	add	#16,r1
  302fa8:	60 23       	mov	r2,r0
  302faa:	80 11       	mov.b	r0,@(1,r1)
  302fac:	e1 00       	mov	#0,r1
  302fae:	a0 3d       	bra	30302c <_process_key_tableux_stage+0x244>
  302fb0:	00 09       	nop	
  302fb2:	61 e3       	mov	r14,r1
  302fb4:	71 d8       	add	#-40,r1
  302fb6:	51 1a       	mov.l	@(40,r1),r1
  302fb8:	52 11       	mov.l	@(4,r1),r2
  302fba:	61 e3       	mov	r14,r1
  302fbc:	71 d8       	add	#-40,r1
  302fbe:	51 1b       	mov.l	@(44,r1),r1
  302fc0:	61 10       	mov.b	@r1,r1
  302fc2:	61 1c       	extu.b	r1,r1
  302fc4:	41 08       	shll2	r1
  302fc6:	31 2c       	add	r2,r1
  302fc8:	62 12       	mov.l	@r1,r2
  302fca:	61 e3       	mov	r14,r1
  302fcc:	71 d8       	add	#-40,r1
  302fce:	51 1c       	mov.l	@(48,r1),r1
  302fd0:	61 10       	mov.b	@r1,r1
  302fd2:	61 1c       	extu.b	r1,r1
  302fd4:	41 08       	shll2	r1
  302fd6:	31 2c       	add	r2,r1
  302fd8:	61 12       	mov.l	@r1,r1
  302fda:	71 10       	add	#16,r1
  302fdc:	84 11       	mov.b	@(1,r1),r0
  302fde:	61 03       	mov	r0,r1
  302fe0:	61 1c       	extu.b	r1,r1
  302fe2:	e2 01       	mov	#1,r2
  302fe4:	21 2a       	xor	r2,r1
  302fe6:	61 1c       	extu.b	r1,r1
  302fe8:	21 18       	tst	r1,r1
  302fea:	89 10       	bt	30300e <_process_key_tableux_stage+0x226>
  302fec:	67 e3       	mov	r14,r7
  302fee:	77 d8       	add	#-40,r7
  302ff0:	63 e3       	mov	r14,r3
  302ff2:	73 d8       	add	#-40,r3
  302ff4:	62 e3       	mov	r14,r2
  302ff6:	72 d8       	add	#-40,r2
  302ff8:	61 e3       	mov	r14,r1
  302ffa:	71 d8       	add	#-40,r1
  302ffc:	57 7a       	mov.l	@(40,r7),r7
  302ffe:	56 3b       	mov.l	@(44,r3),r6
  303000:	55 2c       	mov.l	@(48,r2),r5
  303002:	54 1d       	mov.l	@(52,r1),r4
  303004:	d1 0d       	mov.l	30303c <_process_key_tableux_stage+0x254>,r1	! 302170 <_process_cursor_movement>
  303006:	41 0b       	jsr	@r1
  303008:	00 09       	nop	
  30300a:	a0 0f       	bra	30302c <_process_key_tableux_stage+0x244>
  30300c:	00 09       	nop	
  30300e:	67 e3       	mov	r14,r7
  303010:	77 d8       	add	#-40,r7
  303012:	63 e3       	mov	r14,r3
  303014:	73 d8       	add	#-40,r3
  303016:	62 e3       	mov	r14,r2
  303018:	72 d8       	add	#-40,r2
  30301a:	61 e3       	mov	r14,r1
  30301c:	71 d8       	add	#-40,r1
  30301e:	57 7a       	mov.l	@(40,r7),r7
  303020:	56 3b       	mov.l	@(44,r3),r6
  303022:	55 2c       	mov.l	@(48,r2),r5
  303024:	54 1d       	mov.l	@(52,r1),r4
  303026:	d1 06       	mov.l	303040 <_process_key_tableux_stage+0x258>,r1	! 3022e6 <_process_common_keys>
  303028:	41 0b       	jsr	@r1
  30302a:	00 09       	nop	
  30302c:	60 13       	mov	r1,r0
  30302e:	7e 18       	add	#24,r14
  303030:	6f e3       	mov	r14,r15
  303032:	4f 26       	lds.l	@r15+,pr
  303034:	6e f6       	mov.l	@r15+,r14
  303036:	00 0b       	rts	
  303038:	00 09       	nop	
  30303a:	00 09       	nop	
  30303c:	00 30       	.word 0x0030
  30303e:	21 70       	mov.b	r7,@r1
  303040:	00 30       	.word 0x0030
  303042:	22 e6       	mov.l	r14,@-r2

00303044 <_check_stage_0>:
  303044:	2f 86       	mov.l	r8,@-r15
  303046:	2f e6       	mov.l	r14,@-r15
  303048:	4f 22       	sts.l	pr,@-r15
  30304a:	7f f0       	add	#-16,r15
  30304c:	6e f3       	mov	r15,r14
  30304e:	61 e3       	mov	r14,r1
  303050:	71 d0       	add	#-48,r1
  303052:	11 4c       	mov.l	r4,@(48,r1)
  303054:	68 e3       	mov	r14,r8
  303056:	78 d0       	add	#-48,r8
  303058:	e5 01       	mov	#1,r5
  30305a:	e4 01       	mov	#1,r4
  30305c:	d1 3e       	mov.l	303158 <_check_stage_0+0x114>,r1	! 308ee0 <_calloc>
  30305e:	41 0b       	jsr	@r1
  303060:	00 09       	nop	
  303062:	61 03       	mov	r0,r1
  303064:	18 1d       	mov.l	r1,@(52,r8)
  303066:	61 e3       	mov	r14,r1
  303068:	71 d0       	add	#-48,r1
  30306a:	e2 00       	mov	#0,r2
  30306c:	11 2f       	mov.l	r2,@(60,r1)
  30306e:	a0 23       	bra	3030b8 <_check_stage_0+0x74>
  303070:	00 09       	nop	
  303072:	61 e3       	mov	r14,r1
  303074:	71 d0       	add	#-48,r1
  303076:	51 1c       	mov.l	@(48,r1),r1
  303078:	51 11       	mov.l	@(4,r1),r1
  30307a:	62 12       	mov.l	@r1,r2
  30307c:	61 e3       	mov	r14,r1
  30307e:	71 d0       	add	#-48,r1
  303080:	51 1f       	mov.l	@(60,r1),r1
  303082:	41 08       	shll2	r1
  303084:	31 2c       	add	r2,r1
  303086:	61 12       	mov.l	@r1,r1
  303088:	51 16       	mov.l	@(24,r1),r1
  30308a:	62 10       	mov.b	@r1,r2
  30308c:	61 e3       	mov	r14,r1
  30308e:	71 d0       	add	#-48,r1
  303090:	51 1d       	mov.l	@(52,r1),r1
  303092:	61 10       	mov.b	@r1,r1
  303094:	32 10       	cmp/eq	r1,r2
  303096:	8b 08       	bf	3030aa <_check_stage_0+0x66>
  303098:	61 e3       	mov	r14,r1
  30309a:	71 d0       	add	#-48,r1
  30309c:	54 1d       	mov.l	@(52,r1),r4
  30309e:	d1 2f       	mov.l	30315c <_check_stage_0+0x118>,r1	! 309244 <_free>
  3030a0:	41 0b       	jsr	@r1
  3030a2:	00 09       	nop	
  3030a4:	e1 00       	mov	#0,r1
  3030a6:	a0 4e       	bra	303146 <_check_stage_0+0x102>
  3030a8:	00 09       	nop	
  3030aa:	61 e3       	mov	r14,r1
  3030ac:	71 d0       	add	#-48,r1
  3030ae:	62 e3       	mov	r14,r2
  3030b0:	72 d0       	add	#-48,r2
  3030b2:	52 2f       	mov.l	@(60,r2),r2
  3030b4:	72 01       	add	#1,r2
  3030b6:	11 2f       	mov.l	r2,@(60,r1)
  3030b8:	61 e3       	mov	r14,r1
  3030ba:	71 d0       	add	#-48,r1
  3030bc:	51 1c       	mov.l	@(48,r1),r1
  3030be:	84 11       	mov.b	@(1,r1),r0
  3030c0:	61 03       	mov	r0,r1
  3030c2:	61 1c       	extu.b	r1,r1
  3030c4:	62 13       	mov	r1,r2
  3030c6:	61 e3       	mov	r14,r1
  3030c8:	71 d0       	add	#-48,r1
  3030ca:	51 1f       	mov.l	@(60,r1),r1
  3030cc:	31 23       	cmp/ge	r2,r1
  3030ce:	8b d0       	bf	303072 <_check_stage_0+0x2e>
  3030d0:	61 e3       	mov	r14,r1
  3030d2:	71 d0       	add	#-48,r1
  3030d4:	e2 00       	mov	#0,r2
  3030d6:	11 2e       	mov.l	r2,@(56,r1)
  3030d8:	a0 23       	bra	303122 <_check_stage_0+0xde>
  3030da:	00 09       	nop	
  3030dc:	61 e3       	mov	r14,r1
  3030de:	71 d0       	add	#-48,r1
  3030e0:	51 1c       	mov.l	@(48,r1),r1
  3030e2:	52 11       	mov.l	@(4,r1),r2
  3030e4:	61 e3       	mov	r14,r1
  3030e6:	71 d0       	add	#-48,r1
  3030e8:	51 1e       	mov.l	@(56,r1),r1
  3030ea:	41 08       	shll2	r1
  3030ec:	31 2c       	add	r2,r1
  3030ee:	61 12       	mov.l	@r1,r1
  3030f0:	61 12       	mov.l	@r1,r1
  3030f2:	51 16       	mov.l	@(24,r1),r1
  3030f4:	62 10       	mov.b	@r1,r2
  3030f6:	61 e3       	mov	r14,r1
  3030f8:	71 d0       	add	#-48,r1
  3030fa:	51 1d       	mov.l	@(52,r1),r1
  3030fc:	61 10       	mov.b	@r1,r1
  3030fe:	32 10       	cmp/eq	r1,r2
  303100:	8b 08       	bf	303114 <_check_stage_0+0xd0>
  303102:	61 e3       	mov	r14,r1
  303104:	71 d0       	add	#-48,r1
  303106:	54 1d       	mov.l	@(52,r1),r4
  303108:	d1 14       	mov.l	30315c <_check_stage_0+0x118>,r1	! 309244 <_free>
  30310a:	41 0b       	jsr	@r1
  30310c:	00 09       	nop	
  30310e:	e1 00       	mov	#0,r1
  303110:	a0 19       	bra	303146 <_check_stage_0+0x102>
  303112:	00 09       	nop	
  303114:	61 e3       	mov	r14,r1
  303116:	71 d0       	add	#-48,r1
  303118:	62 e3       	mov	r14,r2
  30311a:	72 d0       	add	#-48,r2
  30311c:	52 2e       	mov.l	@(56,r2),r2
  30311e:	72 01       	add	#1,r2
  303120:	11 2e       	mov.l	r2,@(56,r1)
  303122:	61 e3       	mov	r14,r1
  303124:	71 d0       	add	#-48,r1
  303126:	51 1c       	mov.l	@(48,r1),r1
  303128:	61 10       	mov.b	@r1,r1
  30312a:	61 1c       	extu.b	r1,r1
  30312c:	62 13       	mov	r1,r2
  30312e:	61 e3       	mov	r14,r1
  303130:	71 d0       	add	#-48,r1
  303132:	51 1e       	mov.l	@(56,r1),r1
  303134:	31 23       	cmp/ge	r2,r1
  303136:	8b d1       	bf	3030dc <_check_stage_0+0x98>
  303138:	61 e3       	mov	r14,r1
  30313a:	71 d0       	add	#-48,r1
  30313c:	54 1d       	mov.l	@(52,r1),r4
  30313e:	d1 07       	mov.l	30315c <_check_stage_0+0x118>,r1	! 309244 <_free>
  303140:	41 0b       	jsr	@r1
  303142:	00 09       	nop	
  303144:	e1 01       	mov	#1,r1
  303146:	60 13       	mov	r1,r0
  303148:	7e 10       	add	#16,r14
  30314a:	6f e3       	mov	r14,r15
  30314c:	4f 26       	lds.l	@r15+,pr
  30314e:	6e f6       	mov.l	@r15+,r14
  303150:	68 f6       	mov.l	@r15+,r8
  303152:	00 0b       	rts	
  303154:	00 09       	nop	
  303156:	00 09       	nop	
  303158:	00 30       	.word 0x0030
  30315a:	8e e0       	ldre	30331e <_getkey_opt+0x7a>	! 6093
  30315c:	00 30       	.word 0x0030
  30315e:	92 44       	mov.w	3031ea <_check_stage_1+0x8a>,r2	! 61e3

00303160 <_check_stage_1>:
  303160:	2f 86       	mov.l	r8,@-r15
  303162:	2f e6       	mov.l	r14,@-r15
  303164:	4f 22       	sts.l	pr,@-r15
  303166:	7f f0       	add	#-16,r15
  303168:	6e f3       	mov	r15,r14
  30316a:	61 e3       	mov	r14,r1
  30316c:	71 d0       	add	#-48,r1
  30316e:	11 4c       	mov.l	r4,@(48,r1)
  303170:	68 e3       	mov	r14,r8
  303172:	78 d0       	add	#-48,r8
  303174:	e5 01       	mov	#1,r5
  303176:	e4 01       	mov	#1,r4
  303178:	d1 32       	mov.l	303244 <_check_stage_1+0xe4>,r1	! 308ee0 <_calloc>
  30317a:	41 0b       	jsr	@r1
  30317c:	00 09       	nop	
  30317e:	61 03       	mov	r0,r1
  303180:	18 1d       	mov.l	r1,@(52,r8)
  303182:	61 e3       	mov	r14,r1
  303184:	71 d0       	add	#-48,r1
  303186:	e2 01       	mov	#1,r2
  303188:	11 2f       	mov.l	r2,@(60,r1)
  30318a:	a0 41       	bra	303210 <_check_stage_1+0xb0>
  30318c:	00 09       	nop	
  30318e:	61 e3       	mov	r14,r1
  303190:	71 d0       	add	#-48,r1
  303192:	e2 01       	mov	#1,r2
  303194:	11 2e       	mov.l	r2,@(56,r1)
  303196:	a0 28       	bra	3031ea <_check_stage_1+0x8a>
  303198:	00 09       	nop	
  30319a:	61 e3       	mov	r14,r1
  30319c:	71 d0       	add	#-48,r1
  30319e:	51 1c       	mov.l	@(48,r1),r1
  3031a0:	52 11       	mov.l	@(4,r1),r2
  3031a2:	61 e3       	mov	r14,r1
  3031a4:	71 d0       	add	#-48,r1
  3031a6:	51 1f       	mov.l	@(60,r1),r1
  3031a8:	41 08       	shll2	r1
  3031aa:	31 2c       	add	r2,r1
  3031ac:	62 12       	mov.l	@r1,r2
  3031ae:	61 e3       	mov	r14,r1
  3031b0:	71 d0       	add	#-48,r1
  3031b2:	51 1e       	mov.l	@(56,r1),r1
  3031b4:	41 08       	shll2	r1
  3031b6:	31 2c       	add	r2,r1
  3031b8:	61 12       	mov.l	@r1,r1
  3031ba:	51 16       	mov.l	@(24,r1),r1
  3031bc:	62 10       	mov.b	@r1,r2
  3031be:	61 e3       	mov	r14,r1
  3031c0:	71 d0       	add	#-48,r1
  3031c2:	51 1d       	mov.l	@(52,r1),r1
  3031c4:	61 10       	mov.b	@r1,r1
  3031c6:	32 10       	cmp/eq	r1,r2
  3031c8:	8b 08       	bf	3031dc <_check_stage_1+0x7c>
  3031ca:	61 e3       	mov	r14,r1
  3031cc:	71 d0       	add	#-48,r1
  3031ce:	54 1d       	mov.l	@(52,r1),r4
  3031d0:	d1 1d       	mov.l	303248 <_check_stage_1+0xe8>,r1	! 309244 <_free>
  3031d2:	41 0b       	jsr	@r1
  3031d4:	00 09       	nop	
  3031d6:	e1 00       	mov	#0,r1
  3031d8:	a0 2c       	bra	303234 <_check_stage_1+0xd4>
  3031da:	00 09       	nop	
  3031dc:	61 e3       	mov	r14,r1
  3031de:	71 d0       	add	#-48,r1
  3031e0:	62 e3       	mov	r14,r2
  3031e2:	72 d0       	add	#-48,r2
  3031e4:	52 2e       	mov.l	@(56,r2),r2
  3031e6:	72 01       	add	#1,r2
  3031e8:	11 2e       	mov.l	r2,@(56,r1)
  3031ea:	61 e3       	mov	r14,r1
  3031ec:	71 d0       	add	#-48,r1
  3031ee:	51 1c       	mov.l	@(48,r1),r1
  3031f0:	84 11       	mov.b	@(1,r1),r0
  3031f2:	61 03       	mov	r0,r1
  3031f4:	61 1c       	extu.b	r1,r1
  3031f6:	62 13       	mov	r1,r2
  3031f8:	61 e3       	mov	r14,r1
  3031fa:	71 d0       	add	#-48,r1
  3031fc:	51 1e       	mov.l	@(56,r1),r1
  3031fe:	31 23       	cmp/ge	r2,r1
  303200:	8b cb       	bf	30319a <_check_stage_1+0x3a>
  303202:	61 e3       	mov	r14,r1
  303204:	71 d0       	add	#-48,r1
  303206:	62 e3       	mov	r14,r2
  303208:	72 d0       	add	#-48,r2
  30320a:	52 2f       	mov.l	@(60,r2),r2
  30320c:	72 01       	add	#1,r2
  30320e:	11 2f       	mov.l	r2,@(60,r1)
  303210:	61 e3       	mov	r14,r1
  303212:	71 d0       	add	#-48,r1
  303214:	51 1c       	mov.l	@(48,r1),r1
  303216:	61 10       	mov.b	@r1,r1
  303218:	61 1c       	extu.b	r1,r1
  30321a:	62 13       	mov	r1,r2
  30321c:	61 e3       	mov	r14,r1
  30321e:	71 d0       	add	#-48,r1
  303220:	51 1f       	mov.l	@(60,r1),r1
  303222:	31 23       	cmp/ge	r2,r1
  303224:	8b b3       	bf	30318e <_check_stage_1+0x2e>
  303226:	61 e3       	mov	r14,r1
  303228:	71 d0       	add	#-48,r1
  30322a:	54 1d       	mov.l	@(52,r1),r4
  30322c:	d1 06       	mov.l	303248 <_check_stage_1+0xe8>,r1	! 309244 <_free>
  30322e:	41 0b       	jsr	@r1
  303230:	00 09       	nop	
  303232:	e1 01       	mov	#1,r1
  303234:	60 13       	mov	r1,r0
  303236:	7e 10       	add	#16,r14
  303238:	6f e3       	mov	r14,r15
  30323a:	4f 26       	lds.l	@r15+,pr
  30323c:	6e f6       	mov.l	@r15+,r14
  30323e:	68 f6       	mov.l	@r15+,r8
  303240:	00 0b       	rts	
  303242:	00 09       	nop	
  303244:	00 30       	.word 0x0030
  303246:	8e e0       	ldre	30340a <_getkey_repeat_profile+0x22>	! 37b6
  303248:	00 30       	.word 0x0030
  30324a:	92 44       	mov.w	3032d6 <_getkey_opt+0x32>,r2	! 1f63

0030324c <_regcpy>:
  30324c:	61 53       	mov	r5,r1
  30324e:	71 0f       	add	#15,r1
  303250:	41 09       	shlr2	r1
  303252:	e2 f1       	mov	#-15,r2
  303254:	41 09       	shlr2	r1
  303256:	35 23       	cmp/ge	r2,r5
  303258:	71 01       	add	#1,r1
  30325a:	89 00       	bt	30325e <_regcpy+0x12>
  30325c:	e1 01       	mov	#1,r1
  30325e:	41 10       	dt	r1
  303260:	8b 01       	bf	303266 <_regcpy+0x1a>
  303262:	00 0b       	rts	
  303264:	00 09       	nop	
  303266:	62 42       	mov.l	@r4,r2
  303268:	26 22       	mov.l	r2,@r6
  30326a:	52 41       	mov.l	@(4,r4),r2
  30326c:	16 21       	mov.l	r2,@(4,r6)
  30326e:	52 42       	mov.l	@(8,r4),r2
  303270:	16 22       	mov.l	r2,@(8,r6)
  303272:	52 43       	mov.l	@(12,r4),r2
  303274:	74 10       	add	#16,r4
  303276:	16 23       	mov.l	r2,@(12,r6)
  303278:	af f1       	bra	30325e <_regcpy+0x12>
  30327a:	76 10       	add	#16,r6

0030327c <_gint_setrestart>:
  30327c:	d1 01       	mov.l	303284 <_gint_setrestart+0x8>,r1	! 8101434 <_gint_restart>
  30327e:	00 0b       	rts	
  303280:	21 42       	mov.l	r4,@r1
  303282:	00 09       	nop	
  303284:	08 10       	.word 0x0810
  303286:	14 34       	mov.l	r3,@(16,r4)

00303288 <__Exit>:
  303288:	d1 03       	mov.l	303298 <__Exit+0x10>,r1	! 8101438 <_gint_exitcode>
  30328a:	4f 22       	sts.l	pr,@-r15
  30328c:	21 42       	mov.l	r4,@r1
  30328e:	d1 03       	mov.l	30329c <__Exit+0x14>,r1	! 309030 <_longjmp>
  303290:	d4 03       	mov.l	3032a0 <__Exit+0x18>,r4	! 8101400 <_gint_exitbuf>
  303292:	41 0b       	jsr	@r1
  303294:	e5 01       	mov	#1,r5
  303296:	00 09       	nop	
  303298:	08 10       	.word 0x0810
  30329a:	14 38       	mov.l	r3,@(32,r4)
  30329c:	00 30       	.word 0x0030
  30329e:	90 30       	mov.w	303302 <_getkey_opt+0x5e>,r0	! 4b0b
  3032a0:	08 10       	.word 0x0810
  3032a2:	14 00       	mov.l	r0,@(0,r4)

003032a4 <_getkey_opt>:
  3032a4:	2f 86       	mov.l	r8,@-r15
  3032a6:	2f 96       	mov.l	r9,@-r15
  3032a8:	69 43       	mov	r4,r9
  3032aa:	2f a6       	mov.l	r10,@-r15
  3032ac:	2f b6       	mov.l	r11,@-r15
  3032ae:	2f c6       	mov.l	r12,@-r15
  3032b0:	6c 53       	mov	r5,r12
  3032b2:	2f d6       	mov.l	r13,@-r15
  3032b4:	ed 08       	mov	#8,r13
  3032b6:	d0 30       	mov.l	303378 <_getkey_opt+0xd4>,r0	! 303b38 <_keydev_std>
  3032b8:	2d 99       	and	r9,r13
  3032ba:	4f 22       	sts.l	pr,@-r15
  3032bc:	db 2f       	mov.l	30337c <_getkey_opt+0xd8>,r11	! 3037d0 <_keydev_set_transform>
  3032be:	40 0b       	jsr	@r0
  3032c0:	7f f0       	add	#-16,r15
  3032c2:	d1 2f       	mov.l	303380 <_getkey_opt+0xdc>,r1	! 3037b6 <_keydev_transform>
  3032c4:	6a 03       	mov	r0,r10
  3032c6:	64 03       	mov	r0,r4
  3032c8:	41 0b       	jsr	@r1
  3032ca:	62 f3       	mov	r15,r2
  3032cc:	e5 03       	mov	#3,r5
  3032ce:	56 f1       	mov.l	@(4,r15),r6
  3032d0:	25 99       	and	r9,r5
  3032d2:	64 a3       	mov	r10,r4
  3032d4:	75 70       	add	#112,r5
  3032d6:	1f 63       	mov.l	r6,@(12,r15)
  3032d8:	4b 0b       	jsr	@r11
  3032da:	1f 52       	mov.l	r5,@(8,r15)
  3032dc:	d0 29       	mov.l	303384 <_getkey_opt+0xe0>,r0	! 303820 <_keydev_read>
  3032de:	40 0b       	jsr	@r0
  3032e0:	64 a3       	mov	r10,r4
  3032e2:	92 46       	mov.w	303372 <_getkey_opt+0xce>,r2	! 300
  3032e4:	63 03       	mov	r0,r3
  3032e6:	61 0c       	extu.b	r0,r1
  3032e8:	68 03       	mov	r0,r8
  3032ea:	20 28       	tst	r2,r0
  3032ec:	8f 15       	bf.s	30331a <_getkey_opt+0x76>
  3032ee:	23 29       	and	r2,r3
  3032f0:	2c c8       	tst	r12,r12
  3032f2:	8d 1f       	bt.s	303334 <_getkey_opt+0x90>
  3032f4:	2d d8       	tst	r13,r13
  3032f6:	61 c2       	mov.l	@r12,r1
  3032f8:	21 18       	tst	r1,r1
  3032fa:	8d 1b       	bt.s	303334 <_getkey_opt+0x90>
  3032fc:	2d d8       	tst	r13,r13
  3032fe:	65 f2       	mov.l	@r15,r5
  303300:	64 a3       	mov	r10,r4
  303302:	4b 0b       	jsr	@r11
  303304:	56 f1       	mov.l	@(4,r15),r6
  303306:	60 83       	mov	r8,r0
  303308:	7f 10       	add	#16,r15
  30330a:	4f 26       	lds.l	@r15+,pr
  30330c:	6d f6       	mov.l	@r15+,r13
  30330e:	6c f6       	mov.l	@r15+,r12
  303310:	6b f6       	mov.l	@r15+,r11
  303312:	6a f6       	mov.l	@r15+,r10
  303314:	69 f6       	mov.l	@r15+,r9
  303316:	00 0b       	rts	
  303318:	68 f6       	mov.l	@r15+,r8
  30331a:	33 20       	cmp/eq	r2,r3
  30331c:	8f 09       	bf.s	303332 <_getkey_opt+0x8e>
  30331e:	60 93       	mov	r9,r0
  303320:	c8 20       	tst	#32,r0
  303322:	8f 07       	bf.s	303334 <_getkey_opt+0x90>
  303324:	2d d8       	tst	r13,r13
  303326:	c8 10       	tst	#16,r0
  303328:	8d d8       	bt.s	3032dc <_getkey_opt+0x38>
  30332a:	60 13       	mov	r1,r0
  30332c:	70 8b       	add	#-117,r0
  30332e:	c8 ee       	tst	#238,r0
  303330:	8b d4       	bf	3032dc <_getkey_opt+0x38>
  303332:	2d d8       	tst	r13,r13
  303334:	8d 0b       	bt.s	30334e <_getkey_opt+0xaa>
  303336:	60 88       	swap.b	r8,r0
  303338:	91 1c       	mov.w	303374 <_getkey_opt+0xd0>,r1	! fff
  30333a:	92 1c       	mov.w	303376 <_getkey_opt+0xd2>,r2	! 184
  30333c:	21 89       	and	r8,r1
  30333e:	31 20       	cmp/eq	r2,r1
  303340:	8f 06       	bf.s	303350 <_getkey_opt+0xac>
  303342:	c8 01       	tst	#1,r0
  303344:	d1 10       	mov.l	303388 <_getkey_opt+0xe4>,r1	! 3055d0 <_gint_osmenu>
  303346:	41 0b       	jsr	@r1
  303348:	00 09       	nop	
  30334a:	af c7       	bra	3032dc <_getkey_opt+0x38>
  30334c:	00 09       	nop	
  30334e:	c8 01       	tst	#1,r0
  303350:	8d c4       	bt.s	3032dc <_getkey_opt+0x38>
  303352:	60 93       	mov	r9,r0
  303354:	c8 80       	tst	#128,r0
  303356:	8d d3       	bt.s	303300 <_getkey_opt+0x5c>
  303358:	65 f2       	mov.l	@r15,r5
  30335a:	d1 0c       	mov.l	30338c <_getkey_opt+0xe8>,r1	! 810143c <_feature_function>
  30335c:	60 12       	mov.l	@r1,r0
  30335e:	20 08       	tst	r0,r0
  303360:	8d cf       	bt.s	303302 <_getkey_opt+0x5e>
  303362:	64 a3       	mov	r10,r4
  303364:	40 0b       	jsr	@r0
  303366:	64 83       	mov	r8,r4
  303368:	20 08       	tst	r0,r0
  30336a:	8f b7       	bf.s	3032dc <_getkey_opt+0x38>
  30336c:	65 f2       	mov.l	@r15,r5
  30336e:	af c8       	bra	303302 <_getkey_opt+0x5e>
  303370:	64 a3       	mov	r10,r4
  303372:	03 00       	.word 0x0300
  303374:	0f ff       	mac.l	@r15+,@r15+
  303376:	01 84       	mov.b	r8,@(r0,r1)
  303378:	00 30       	.word 0x0030
  30337a:	3b 38       	sub	r3,r11
  30337c:	00 30       	.word 0x0030
  30337e:	37 d0       	cmp/eq	r13,r7
  303380:	00 30       	.word 0x0030
  303382:	37 b6       	cmp/hi	r11,r7
  303384:	00 30       	.word 0x0030
  303386:	38 20       	cmp/eq	r2,r8
  303388:	00 30       	.word 0x0030
  30338a:	55 d0       	mov.l	@(0,r13),r5
  30338c:	08 10       	.word 0x0810
  30338e:	14 3c       	mov.l	r3,@(48,r4)

00303390 <_getkey>:
  303390:	d0 02       	mov.l	30339c <_getkey+0xc>,r0	! 3032a4 <_getkey_opt>
  303392:	94 01       	mov.w	303398 <_getkey+0x8>,r4	! df
  303394:	40 2b       	jmp	@r0
  303396:	e5 00       	mov	#0,r5
  303398:	00 df       	mac.l	@r13+,@r0+
  30339a:	00 09       	nop	
  30339c:	00 30       	.word 0x0030
  30339e:	32 a4       	div1	r10,r2

003033a0 <_getkey_feature_function>:
  3033a0:	d1 01       	mov.l	3033a8 <_getkey_feature_function+0x8>,r1	! 810143c <_feature_function>
  3033a2:	00 0b       	rts	
  3033a4:	60 12       	mov.l	@r1,r0
  3033a6:	00 09       	nop	
  3033a8:	08 10       	.word 0x0810
  3033aa:	14 3c       	mov.l	r3,@(48,r4)

003033ac <_getkey_set_feature_function>:
  3033ac:	d1 01       	mov.l	3033b4 <_getkey_set_feature_function+0x8>,r1	! 810143c <_feature_function>
  3033ae:	00 0b       	rts	
  3033b0:	21 42       	mov.l	r4,@r1
  3033b2:	00 09       	nop	
  3033b4:	08 10       	.word 0x0810
  3033b6:	14 3c       	mov.l	r3,@(48,r4)

003033b8 <_getkey_repeat>:
  3033b8:	d0 09       	mov.l	3033e0 <_getkey_repeat+0x28>,r0	! 303b38 <_keydev_std>
  3033ba:	2f 86       	mov.l	r8,@-r15
  3033bc:	68 43       	mov	r4,r8
  3033be:	2f 96       	mov.l	r9,@-r15
  3033c0:	4f 22       	sts.l	pr,@-r15
  3033c2:	40 0b       	jsr	@r0
  3033c4:	69 53       	mov	r5,r9
  3033c6:	91 09       	mov.w	3033dc <_getkey_repeat+0x24>,r1	! 3e8
  3033c8:	64 03       	mov	r0,r4
  3033ca:	09 17       	mul.l	r1,r9
  3033cc:	06 1a       	sts	macl,r6
  3033ce:	08 17       	mul.l	r1,r8
  3033d0:	d1 04       	mov.l	3033e4 <_getkey_repeat+0x2c>,r1	! 30380c <_keydev_set_standard_repeats>
  3033d2:	05 1a       	sts	macl,r5
  3033d4:	4f 26       	lds.l	@r15+,pr
  3033d6:	69 f6       	mov.l	@r15+,r9
  3033d8:	41 2b       	jmp	@r1
  3033da:	68 f6       	mov.l	@r15+,r8
  3033dc:	03 e8       	.word 0x03e8
  3033de:	00 09       	nop	
  3033e0:	00 30       	.word 0x0030
  3033e2:	3b 38       	sub	r3,r11
  3033e4:	00 30       	.word 0x0030
  3033e6:	38 0c       	add	r0,r8

003033e8 <_getkey_repeat_profile>:
  3033e8:	d0 06       	mov.l	303404 <_getkey_repeat_profile+0x1c>,r0	! 303b38 <_keydev_std>
  3033ea:	4f 22       	sts.l	pr,@-r15
  3033ec:	40 0b       	jsr	@r0
  3033ee:	7f f8       	add	#-8,r15
  3033f0:	d1 05       	mov.l	303408 <_getkey_repeat_profile+0x20>,r1	! 3037b6 <_keydev_transform>
  3033f2:	64 03       	mov	r0,r4
  3033f4:	41 0b       	jsr	@r1
  3033f6:	62 f3       	mov	r15,r2
  3033f8:	50 f1       	mov.l	@(4,r15),r0
  3033fa:	7f 08       	add	#8,r15
  3033fc:	4f 26       	lds.l	@r15+,pr
  3033fe:	00 0b       	rts	
  303400:	00 09       	nop	
  303402:	00 09       	nop	
  303404:	00 30       	.word 0x0030
  303406:	3b 38       	sub	r3,r11
  303408:	00 30       	.word 0x0030
  30340a:	37 b6       	cmp/hi	r11,r7

0030340c <_getkey_set_repeat_profile>:
  30340c:	2f 86       	mov.l	r8,@-r15
  30340e:	68 43       	mov	r4,r8
  303410:	2f 96       	mov.l	r9,@-r15
  303412:	d9 09       	mov.l	303438 <_getkey_set_repeat_profile+0x2c>,r9	! 303b38 <_keydev_std>
  303414:	4f 22       	sts.l	pr,@-r15
  303416:	49 0b       	jsr	@r9
  303418:	7f f8       	add	#-8,r15
  30341a:	d1 08       	mov.l	30343c <_getkey_set_repeat_profile+0x30>,r1	! 3037b6 <_keydev_transform>
  30341c:	64 03       	mov	r0,r4
  30341e:	41 0b       	jsr	@r1
  303420:	62 f3       	mov	r15,r2
  303422:	49 0b       	jsr	@r9
  303424:	1f 81       	mov.l	r8,@(4,r15)
  303426:	65 f2       	mov.l	@r15,r5
  303428:	64 03       	mov	r0,r4
  30342a:	56 f1       	mov.l	@(4,r15),r6
  30342c:	d1 04       	mov.l	303440 <_getkey_set_repeat_profile+0x34>,r1	! 3037d0 <_keydev_set_transform>
  30342e:	7f 08       	add	#8,r15
  303430:	4f 26       	lds.l	@r15+,pr
  303432:	69 f6       	mov.l	@r15+,r9
  303434:	41 2b       	jmp	@r1
  303436:	68 f6       	mov.l	@r15+,r8
  303438:	00 30       	.word 0x0030
  30343a:	3b 38       	sub	r3,r11
  30343c:	00 30       	.word 0x0030
  30343e:	37 b6       	cmp/hi	r11,r7
  303440:	00 30       	.word 0x0030
  303442:	37 d0       	cmp/eq	r13,r7

00303444 <_keycode_function>:
  303444:	91 08       	mov.w	303458 <_keycode_function+0x14>,r1	! 90
  303446:	60 43       	mov	r4,r0
  303448:	c9 f0       	and	#240,r0
  30344a:	30 10       	cmp/eq	r1,r0
  30344c:	8f 02       	bf.s	303454 <_keycode_function+0x10>
  30344e:	e0 ff       	mov	#-1,r0
  303450:	60 43       	mov	r4,r0
  303452:	c9 0f       	and	#15,r0
  303454:	00 0b       	rts	
  303456:	00 09       	nop	
  303458:	00 90       	.word 0x0090

0030345a <_keycode_digit>:
  30345a:	e1 fc       	mov	#-4,r1
  30345c:	62 43       	mov	r4,r2
  30345e:	e3 0f       	mov	#15,r3
  303460:	60 43       	mov	r4,r0
  303462:	42 1c       	shad	r1,r2
  303464:	c8 0c       	tst	#12,r0
  303466:	e1 0c       	mov	#12,r1
  303468:	23 49       	and	r4,r3
  30346a:	8f 0c       	bf.s	303486 <_keycode_digit+0x2c>
  30346c:	21 49       	and	r4,r1
  30346e:	88 11       	cmp/eq	#17,r0
  303470:	89 0a       	bt	303488 <_keycode_digit+0x2e>
  303472:	60 23       	mov	r2,r0
  303474:	30 0c       	add	r0,r0
  303476:	30 2c       	add	r2,r0
  303478:	30 3c       	add	r3,r0
  30347a:	61 03       	mov	r0,r1
  30347c:	e2 08       	mov	#8,r2
  30347e:	70 f9       	add	#-7,r0
  303480:	30 26       	cmp/hi	r2,r0
  303482:	8f 01       	bf.s	303488 <_keycode_digit+0x2e>
  303484:	71 fa       	add	#-6,r1
  303486:	e1 ff       	mov	#-1,r1
  303488:	00 0b       	rts	
  30348a:	60 13       	mov	r1,r0

0030348c <_standard_repeater>:
  30348c:	d0 07       	mov.l	3034ac <_standard_repeater+0x20>,r0	! 303b38 <_keydev_std>
  30348e:	2f 86       	mov.l	r8,@-r15
  303490:	4f 22       	sts.l	pr,@-r15
  303492:	40 0b       	jsr	@r0
  303494:	68 63       	mov	r6,r8
  303496:	91 08       	mov.w	3034aa <_standard_repeater+0x1e>,r1	! bc
  303498:	28 88       	tst	r8,r8
  30349a:	8d 04       	bt.s	3034a6 <_standard_repeater+0x1a>
  30349c:	30 1c       	add	r1,r0
  30349e:	50 03       	mov.l	@(12,r0),r0
  3034a0:	4f 26       	lds.l	@r15+,pr
  3034a2:	00 0b       	rts	
  3034a4:	68 f6       	mov.l	@r15+,r8
  3034a6:	af fb       	bra	3034a0 <_standard_repeater+0x14>
  3034a8:	50 02       	mov.l	@(8,r0),r0
  3034aa:	00 bc       	mov.b	@(r0,r11),r0
  3034ac:	00 30       	.word 0x0030
  3034ae:	3b 38       	sub	r3,r11

003034b0 <_can_repeat.isra.0>:
  3034b0:	60 43       	mov	r4,r0
  3034b2:	c8 05       	tst	#5,r0
  3034b4:	8d 05       	bt.s	3034c2 <_can_repeat.isra.0+0x12>
  3034b6:	c8 0a       	tst	#10,r0
  3034b8:	91 0c       	mov.w	3034d4 <_can_repeat.isra.0+0x24>,r1	! 81
  3034ba:	35 10       	cmp/eq	r1,r5
  3034bc:	8d 07       	bt.s	3034ce <_can_repeat.isra.0+0x1e>
  3034be:	e1 00       	mov	#0,r1
  3034c0:	c8 0a       	tst	#10,r0
  3034c2:	e1 ff       	mov	#-1,r1
  3034c4:	02 29       	movt	r2
  3034c6:	60 53       	mov	r5,r0
  3034c8:	88 71       	cmp/eq	#113,r0
  3034ca:	61 1a       	negc	r1,r1
  3034cc:	21 2b       	or	r2,r1
  3034ce:	60 13       	mov	r1,r0
  3034d0:	00 0b       	rts	
  3034d2:	c9 01       	and	#1,r0
  3034d4:	00 81       	.word 0x0081

003034d6 <_keydev_init>:
  3034d6:	d0 02       	mov.l	3034e0 <_keydev_init+0xa>,r0	! 3091c0 <_memset>
  3034d8:	96 01       	mov.w	3034de <_keydev_init+0x8>,r6	! cc
  3034da:	40 2b       	jmp	@r0
  3034dc:	e5 00       	mov	#0,r5
  3034de:	00 cc       	mov.b	@(r0,r12),r0
  3034e0:	00 30       	.word 0x0030
  3034e2:	91 c0       	mov.w	303666 <_keydev_repeat_event+0x6e>,r1	! 9

003034e4 <_keydev_queue_push>:
  3034e4:	84 49       	mov.b	@(9,r4),r0
  3034e6:	d3 0d       	mov.l	30351c <_keydev_queue_push+0x38>,r3	! 8000001f
  3034e8:	61 03       	mov	r0,r1
  3034ea:	71 01       	add	#1,r1
  3034ec:	21 39       	and	r3,r1
  3034ee:	41 11       	cmp/pz	r1
  3034f0:	8d 04       	bt.s	3034fc <_keydev_queue_push+0x18>
  3034f2:	62 03       	mov	r0,r2
  3034f4:	71 ff       	add	#-1,r1
  3034f6:	e3 e0       	mov	#-32,r3
  3034f8:	21 3b       	or	r3,r1
  3034fa:	71 01       	add	#1,r1
  3034fc:	84 48       	mov.b	@(8,r4),r0
  3034fe:	30 10       	cmp/eq	r1,r0
  303500:	8b 04       	bf	30350c <_keydev_queue_push+0x28>
  303502:	51 43       	mov.l	@(12,r4),r1
  303504:	e0 00       	mov	#0,r0
  303506:	71 01       	add	#1,r1
  303508:	00 0b       	rts	
  30350a:	14 13       	mov.l	r1,@(12,r4)
  30350c:	60 23       	mov	r2,r0
  30350e:	70 11       	add	#17,r0
  303510:	40 08       	shll2	r0
  303512:	04 56       	mov.l	r5,@(r0,r4)
  303514:	60 13       	mov	r1,r0
  303516:	80 49       	mov.b	r0,@(9,r4)
  303518:	00 0b       	rts	
  30351a:	e0 01       	mov	#1,r0
  30351c:	80 00       	mov.b	r0,@(0,r0)
  30351e:	00 1f       	mac.l	@r1+,@r0+

00303520 <_keydev_process_state>:
  303520:	2f 86       	mov.l	r8,@-r15
  303522:	2f 96       	mov.l	r9,@-r15
  303524:	2f a6       	mov.l	r10,@-r15
  303526:	2f b6       	mov.l	r11,@-r15
  303528:	2f c6       	mov.l	r12,@-r15
  30352a:	6c 43       	mov	r4,r12
  30352c:	2f d6       	mov.l	r13,@-r15
  30352e:	2f e6       	mov.l	r14,@-r15
  303530:	4f 22       	sts.l	pr,@-r15
  303532:	68 42       	mov.l	@r4,r8
  303534:	7f ec       	add	#-20,r15
  303536:	91 57       	mov.w	3035e8 <_keydev_process_state+0xc8>,r1	! 200
  303538:	97 57       	mov.w	3035ea <_keydev_process_state+0xca>,r7	! ff00
  30353a:	48 28       	shll16	r8
  30353c:	28 1b       	or	r1,r8
  30353e:	1f 54       	mov.l	r5,@(16,r15)
  303540:	e1 00       	mov	#0,r1
  303542:	5e f4       	mov.l	@(16,r15),r14
  303544:	62 c3       	mov	r12,r2
  303546:	eb 08       	mov	#8,r11
  303548:	72 2c       	add	#44,r2
  30354a:	66 24       	mov.b	@r2+,r6
  30354c:	21 18       	tst	r1,r1
  30354e:	69 e4       	mov.b	@r14+,r9
  303550:	66 6c       	extu.b	r6,r6
  303552:	8d 13       	bt.s	30357c <_keydev_process_state+0x5c>
  303554:	69 9c       	extu.b	r9,r9
  303556:	66 67       	not	r6,r6
  303558:	29 69       	and	r6,r9
  30355a:	29 98       	tst	r9,r9
  30355c:	8f 10       	bf.s	303580 <_keydev_process_state+0x60>
  30355e:	6a b3       	mov	r11,r10
  303560:	96 44       	mov.w	3035ec <_keydev_process_state+0xcc>,r6	! c8
  303562:	7b 10       	add	#16,r11
  303564:	6b bc       	extu.b	r11,r11
  303566:	3b 60       	cmp/eq	r6,r11
  303568:	8f ef       	bf.s	30354a <_keydev_process_state+0x2a>
  30356a:	60 13       	mov	r1,r0
  30356c:	92 3f       	mov.w	3035ee <_keydev_process_state+0xce>,r2	! fcff
  30356e:	88 01       	cmp/eq	#1,r0
  303570:	22 89       	and	r8,r2
  303572:	98 3d       	mov.w	3035f0 <_keydev_process_state+0xd0>,r8	! 100
  303574:	8d 2e       	bt.s	3035d4 <_keydev_process_state+0xb4>
  303576:	28 2b       	or	r2,r8
  303578:	af e3       	bra	303542 <_keydev_process_state+0x22>
  30357a:	e1 01       	mov	#1,r1
  30357c:	af ec       	bra	303558 <_keydev_process_state+0x38>
  30357e:	69 97       	not	r9,r9
  303580:	9d 37       	mov.w	3035f2 <_keydev_process_state+0xd2>,r13	! 80
  303582:	d6 1c       	mov.l	3035f4 <_keydev_process_state+0xd4>,r6	! 3034e4 <_keydev_queue_push>
  303584:	7a f8       	add	#-8,r10
  303586:	6a ac       	extu.b	r10,r10
  303588:	29 d8       	tst	r13,r9
  30358a:	89 16       	bt	3035ba <_keydev_process_state+0x9a>
  30358c:	28 79       	and	r7,r8
  30358e:	1f 12       	mov.l	r1,@(8,r15)
  303590:	28 ab       	or	r10,r8
  303592:	1f 23       	mov.l	r2,@(12,r15)
  303594:	1f 61       	mov.l	r6,@(4,r15)
  303596:	65 83       	mov	r8,r5
  303598:	2f 72       	mov.l	r7,@r15
  30359a:	46 0b       	jsr	@r6
  30359c:	64 c3       	mov	r12,r4
  30359e:	20 08       	tst	r0,r0
  3035a0:	51 f2       	mov.l	@(8,r15),r1
  3035a2:	52 f3       	mov.l	@(12,r15),r2
  3035a4:	56 f1       	mov.l	@(4,r15),r6
  3035a6:	8d 08       	bt.s	3035ba <_keydev_process_state+0x9a>
  3035a8:	67 f2       	mov.l	@r15,r7
  3035aa:	21 18       	tst	r1,r1
  3035ac:	65 23       	mov	r2,r5
  3035ae:	8d 0c       	bt.s	3035ca <_keydev_process_state+0xaa>
  3035b0:	75 f0       	add	#-16,r5
  3035b2:	84 5f       	mov.b	@(15,r5),r0
  3035b4:	20 db       	or	r13,r0
  3035b6:	60 0c       	extu.b	r0,r0
  3035b8:	80 5f       	mov.b	r0,@(15,r5)
  3035ba:	7a 01       	add	#1,r10
  3035bc:	6a ac       	extu.b	r10,r10
  3035be:	4d 21       	shar	r13
  3035c0:	3b a0       	cmp/eq	r10,r11
  3035c2:	8f e2       	bf.s	30358a <_keydev_process_state+0x6a>
  3035c4:	29 d8       	tst	r13,r9
  3035c6:	af cb       	bra	303560 <_keydev_process_state+0x40>
  3035c8:	00 09       	nop	
  3035ca:	84 5f       	mov.b	@(15,r5),r0
  3035cc:	64 d7       	not	r13,r4
  3035ce:	24 09       	and	r0,r4
  3035d0:	af f2       	bra	3035b8 <_keydev_process_state+0x98>
  3035d2:	60 4c       	extu.b	r4,r0
  3035d4:	7f 14       	add	#20,r15
  3035d6:	4f 26       	lds.l	@r15+,pr
  3035d8:	6e f6       	mov.l	@r15+,r14
  3035da:	6d f6       	mov.l	@r15+,r13
  3035dc:	6c f6       	mov.l	@r15+,r12
  3035de:	6b f6       	mov.l	@r15+,r11
  3035e0:	6a f6       	mov.l	@r15+,r10
  3035e2:	69 f6       	mov.l	@r15+,r9
  3035e4:	00 0b       	rts	
  3035e6:	68 f6       	mov.l	@r15+,r8
  3035e8:	02 00       	.word 0x0200
  3035ea:	ff 00       	.word 0xff00
  3035ec:	00 c8       	setdmy	
  3035ee:	fc ff       	.word 0xfcff
  3035f0:	01 00       	.word 0x0100
  3035f2:	00 80       	.word 0x0080
  3035f4:	00 30       	.word 0x0030
  3035f6:	34 e4       	div1	r14,r4

003035f8 <_keydev_repeat_event>:
  3035f8:	2f 86       	mov.l	r8,@-r15
  3035fa:	2f 96       	mov.l	r9,@-r15
  3035fc:	69 43       	mov	r4,r9
  3035fe:	2f a6       	mov.l	r10,@-r15
  303600:	2f b6       	mov.l	r11,@-r15
  303602:	4f 22       	sts.l	pr,@-r15
  303604:	68 42       	mov.l	@r4,r8
  303606:	54 44       	mov.l	@(16,r4),r4
  303608:	6b 8d       	extu.w	r8,r11
  30360a:	60 43       	mov	r4,r0
  30360c:	c8 10       	tst	#16,r0
  30360e:	8d 22       	bt.s	303656 <_keydev_repeat_event+0x5e>
  303610:	48 28       	shll16	r8
  303612:	5a 97       	mov.l	@(28,r9),r10
  303614:	2a a8       	tst	r10,r10
  303616:	8d 1f       	bt.s	303658 <_keydev_repeat_event+0x60>
  303618:	60 83       	mov	r8,r0
  30361a:	51 9a       	mov.l	@(40,r9),r1
  30361c:	21 18       	tst	r1,r1
  30361e:	8b 1b       	bf	303658 <_keydev_repeat_event+0x60>
  303620:	d0 11       	mov.l	303668 <_keydev_repeat_event+0x70>,r0	! 3034b0 <_can_repeat.isra.0>
  303622:	40 0b       	jsr	@r0
  303624:	65 a3       	mov	r10,r5
  303626:	20 08       	tst	r0,r0
  303628:	8d 15       	bt.s	303656 <_keydev_repeat_event+0x5e>
  30362a:	e2 ff       	mov	#-1,r2
  30362c:	56 98       	mov.l	@(32,r9),r6
  30362e:	50 95       	mov.l	@(20,r9),r0
  303630:	76 01       	add	#1,r6
  303632:	19 2a       	mov.l	r2,@(40,r9)
  303634:	19 68       	mov.l	r6,@(32,r9)
  303636:	20 08       	tst	r0,r0
  303638:	8d 05       	bt.s	303646 <_keydev_repeat_event+0x4e>
  30363a:	51 99       	mov.l	@(36,r9),r1
  30363c:	3b 18       	sub	r1,r11
  30363e:	64 a3       	mov	r10,r4
  303640:	40 0b       	jsr	@r0
  303642:	65 bf       	exts.w	r11,r5
  303644:	19 0a       	mov.l	r0,@(40,r9)
  303646:	51 98       	mov.l	@(32,r9),r1
  303648:	21 18       	tst	r1,r1
  30364a:	89 04       	bt	303656 <_keydev_repeat_event+0x5e>
  30364c:	51 97       	mov.l	@(28,r9),r1
  30364e:	92 09       	mov.w	303664 <_keydev_repeat_event+0x6c>,r2	! 300
  303650:	61 1c       	extu.b	r1,r1
  303652:	28 2b       	or	r2,r8
  303654:	28 1b       	or	r1,r8
  303656:	60 83       	mov	r8,r0
  303658:	4f 26       	lds.l	@r15+,pr
  30365a:	6b f6       	mov.l	@r15+,r11
  30365c:	6a f6       	mov.l	@r15+,r10
  30365e:	69 f6       	mov.l	@r15+,r9
  303660:	00 0b       	rts	
  303662:	68 f6       	mov.l	@r15+,r8
  303664:	03 00       	.word 0x0300
  303666:	00 09       	nop	
  303668:	00 30       	.word 0x0030
  30366a:	34 b0       	cmp/eq	r11,r4

0030366c <_keydev_tick>:
  30366c:	d0 11       	mov.l	3036b4 <_keydev_tick+0x48>,r0	! 3035f8 <_keydev_repeat_event>
  30366e:	2f 86       	mov.l	r8,@-r15
  303670:	68 43       	mov	r4,r8
  303672:	2f 96       	mov.l	r9,@-r15
  303674:	4f 22       	sts.l	pr,@-r15
  303676:	40 0b       	jsr	@r0
  303678:	69 53       	mov	r5,r9
  30367a:	65 03       	mov	r0,r5
  30367c:	60 08       	swap.b	r0,r0
  30367e:	c8 03       	tst	#3,r0
  303680:	89 02       	bt	303688 <_keydev_tick+0x1c>
  303682:	d0 0d       	mov.l	3036b8 <_keydev_tick+0x4c>,r0	! 3034e4 <_keydev_queue_push>
  303684:	40 0b       	jsr	@r0
  303686:	64 83       	mov	r8,r4
  303688:	61 82       	mov.l	@r8,r1
  30368a:	71 01       	add	#1,r1
  30368c:	28 12       	mov.l	r1,@r8
  30368e:	51 87       	mov.l	@(28,r8),r1
  303690:	21 18       	tst	r1,r1
  303692:	89 0a       	bt	3036aa <_keydev_tick+0x3e>
  303694:	51 8a       	mov.l	@(40,r8),r1
  303696:	41 11       	cmp/pz	r1
  303698:	8f 04       	bf.s	3036a4 <_keydev_tick+0x38>
  30369a:	31 98       	sub	r9,r1
  30369c:	41 11       	cmp/pz	r1
  30369e:	89 00       	bt	3036a2 <_keydev_tick+0x36>
  3036a0:	e1 00       	mov	#0,r1
  3036a2:	18 1a       	mov.l	r1,@(40,r8)
  3036a4:	51 89       	mov.l	@(36,r8),r1
  3036a6:	31 9c       	add	r9,r1
  3036a8:	18 19       	mov.l	r1,@(36,r8)
  3036aa:	4f 26       	lds.l	@r15+,pr
  3036ac:	69 f6       	mov.l	@r15+,r9
  3036ae:	00 0b       	rts	
  3036b0:	68 f6       	mov.l	@r15+,r8
  3036b2:	00 09       	nop	
  3036b4:	00 30       	.word 0x0030
  3036b6:	35 f8       	sub	r15,r5
  3036b8:	00 30       	.word 0x0030
  3036ba:	34 e4       	div1	r14,r4

003036bc <_keydev_unqueue_event>:
  3036bc:	2f 86       	mov.l	r8,@-r15
  3036be:	68 43       	mov	r4,r8
  3036c0:	2f 96       	mov.l	r9,@-r15
  3036c2:	2f a6       	mov.l	r10,@-r15
  3036c4:	2f b6       	mov.l	r11,@-r15
  3036c6:	4f 22       	sts.l	pr,@-r15
  3036c8:	84 48       	mov.b	@(8,r4),r0
  3036ca:	6a 42       	mov.l	@r4,r10
  3036cc:	61 03       	mov	r0,r1
  3036ce:	84 49       	mov.b	@(9,r4),r0
  3036d0:	30 10       	cmp/eq	r1,r0
  3036d2:	8d 36       	bt.s	303742 <_keydev_unqueue_event+0x86>
  3036d4:	4a 28       	shll16	r10
  3036d6:	60 13       	mov	r1,r0
  3036d8:	70 11       	add	#17,r0
  3036da:	40 08       	shll2	r0
  3036dc:	30 4c       	add	r4,r0
  3036de:	6a 02       	mov.l	@r0,r10
  3036e0:	84 03       	mov.b	@(3,r0),r0
  3036e2:	69 0c       	extu.b	r0,r9
  3036e4:	60 13       	mov	r1,r0
  3036e6:	d1 29       	mov.l	30378c <_keydev_unqueue_event+0xd0>,r1	! 8000001f
  3036e8:	70 01       	add	#1,r0
  3036ea:	20 19       	and	r1,r0
  3036ec:	40 11       	cmp/pz	r0
  3036ee:	8d 03       	bt.s	3036f8 <_keydev_unqueue_event+0x3c>
  3036f0:	e1 e0       	mov	#-32,r1
  3036f2:	70 ff       	add	#-1,r0
  3036f4:	20 1b       	or	r1,r0
  3036f6:	70 01       	add	#1,r0
  3036f8:	93 42       	mov.w	303780 <_keydev_unqueue_event+0xc4>,r3	! ff00
  3036fa:	61 93       	mov	r9,r1
  3036fc:	97 41       	mov.w	303782 <_keydev_unqueue_event+0xc6>,r7	! 100
  3036fe:	41 09       	shlr2	r1
  303700:	2a 39       	and	r3,r10
  303702:	93 3f       	mov.w	303784 <_keydev_unqueue_event+0xc8>,r3	! 300
  303704:	2a 9b       	or	r9,r10
  303706:	92 3e       	mov.w	303786 <_keydev_unqueue_event+0xca>,r2	! 80
  303708:	80 88       	mov.b	r0,@(8,r8)
  30370a:	23 a9       	and	r10,r3
  30370c:	60 93       	mov	r9,r0
  30370e:	c9 07       	and	#7,r0
  303710:	60 0b       	neg	r0,r0
  303712:	33 70       	cmp/eq	r7,r3
  303714:	41 09       	shlr2	r1
  303716:	8f 1b       	bf.s	303750 <_keydev_unqueue_event+0x94>
  303718:	42 0c       	shad	r0,r2
  30371a:	31 8c       	add	r8,r1
  30371c:	71 38       	add	#56,r1
  30371e:	63 10       	mov.b	@r1,r3
  303720:	22 3b       	or	r3,r2
  303722:	21 20       	mov.b	r2,@r1
  303724:	5b 87       	mov.l	@(28,r8),r11
  303726:	2b b8       	tst	r11,r11
  303728:	8f 0c       	bf.s	303744 <_keydev_unqueue_event+0x88>
  30372a:	60 a3       	mov	r10,r0
  30372c:	d0 18       	mov.l	303790 <_keydev_unqueue_event+0xd4>,r0	! 3034b0 <_can_repeat.isra.0>
  30372e:	65 93       	mov	r9,r5
  303730:	40 0b       	jsr	@r0
  303732:	54 84       	mov.l	@(16,r8),r4
  303734:	20 08       	tst	r0,r0
  303736:	8d 04       	bt.s	303742 <_keydev_unqueue_event+0x86>
  303738:	e1 ff       	mov	#-1,r1
  30373a:	18 97       	mov.l	r9,@(28,r8)
  30373c:	18 18       	mov.l	r1,@(32,r8)
  30373e:	18 b9       	mov.l	r11,@(36,r8)
  303740:	18 ba       	mov.l	r11,@(40,r8)
  303742:	60 a3       	mov	r10,r0
  303744:	4f 26       	lds.l	@r15+,pr
  303746:	6b f6       	mov.l	@r15+,r11
  303748:	6a f6       	mov.l	@r15+,r10
  30374a:	69 f6       	mov.l	@r15+,r9
  30374c:	00 0b       	rts	
  30374e:	68 f6       	mov.l	@r15+,r8
  303750:	97 1a       	mov.w	303788 <_keydev_unqueue_event+0xcc>,r7	! 200
  303752:	33 70       	cmp/eq	r7,r3
  303754:	8f f6       	bf.s	303744 <_keydev_unqueue_event+0x88>
  303756:	60 a3       	mov	r10,r0
  303758:	31 8c       	add	r8,r1
  30375a:	71 38       	add	#56,r1
  30375c:	63 10       	mov.b	@r1,r3
  30375e:	62 27       	not	r2,r2
  303760:	22 39       	and	r3,r2
  303762:	21 20       	mov.b	r2,@r1
  303764:	51 87       	mov.l	@(28,r8),r1
  303766:	39 10       	cmp/eq	r1,r9
  303768:	8f ec       	bf.s	303744 <_keydev_unqueue_event+0x88>
  30376a:	e1 00       	mov	#0,r1
  30376c:	18 17       	mov.l	r1,@(28,r8)
  30376e:	e1 ff       	mov	#-1,r1
  303770:	18 18       	mov.l	r1,@(32,r8)
  303772:	78 10       	add	#16,r8
  303774:	18 15       	mov.l	r1,@(20,r8)
  303776:	18 16       	mov.l	r1,@(24,r8)
  303778:	84 88       	mov.b	@(8,r8),r0
  30377a:	c9 cf       	and	#207,r0
  30377c:	af e1       	bra	303742 <_keydev_unqueue_event+0x86>
  30377e:	80 88       	mov.b	r0,@(8,r8)
  303780:	ff 00       	.word 0xff00
  303782:	01 00       	.word 0x0100
  303784:	03 00       	.word 0x0300
  303786:	00 80       	.word 0x0080
  303788:	02 00       	.word 0x0200
  30378a:	00 09       	nop	
  30378c:	80 00       	mov.b	r0,@(0,r0)
  30378e:	00 1f       	mac.l	@r1+,@r0+
  303790:	00 30       	.word 0x0030
  303792:	34 b0       	cmp/eq	r11,r4

00303794 <_keydev_keydown>:
  303794:	e2 fc       	mov	#-4,r2
  303796:	61 53       	mov	r5,r1
  303798:	41 2c       	shad	r2,r1
  30379a:	60 53       	mov	r5,r0
  30379c:	34 1c       	add	r1,r4
  30379e:	91 09       	mov.w	3037b4 <_keydev_keydown+0x20>,r1	! 80
  3037a0:	c9 07       	and	#7,r0
  3037a2:	74 38       	add	#56,r4
  3037a4:	60 0b       	neg	r0,r0
  3037a6:	62 40       	mov.b	@r4,r2
  3037a8:	41 0c       	shad	r0,r1
  3037aa:	61 1c       	extu.b	r1,r1
  3037ac:	21 28       	tst	r2,r1
  3037ae:	e0 ff       	mov	#-1,r0
  3037b0:	00 0b       	rts	
  3037b2:	60 0a       	negc	r0,r0
  3037b4:	00 80       	.word 0x0080

003037b6 <_keydev_transform>:
  3037b6:	d0 05       	mov.l	3037cc <_keydev_transform+0x16>,r0	! 309100 <_memcpy>
  3037b8:	e6 08       	mov	#8,r6
  3037ba:	4f 22       	sts.l	pr,@-r15
  3037bc:	65 43       	mov	r4,r5
  3037be:	64 23       	mov	r2,r4
  3037c0:	40 0b       	jsr	@r0
  3037c2:	75 10       	add	#16,r5
  3037c4:	4f 26       	lds.l	@r15+,pr
  3037c6:	00 0b       	rts	
  3037c8:	00 09       	nop	
  3037ca:	00 09       	nop	
  3037cc:	00 30       	.word 0x0030
  3037ce:	91 00       	mov.w	3037d2 <_keydev_set_transform+0x2>,r1	! 7ff8

003037d0 <_keydev_set_transform>:
  3037d0:	4f 22       	sts.l	pr,@-r15
  3037d2:	7f f8       	add	#-8,r15
  3037d4:	61 53       	mov	r5,r1
  3037d6:	2f 52       	mov.l	r5,@r15
  3037d8:	74 10       	add	#16,r4
  3037da:	65 42       	mov.l	@r4,r5
  3037dc:	25 1a       	xor	r1,r5
  3037de:	60 53       	mov	r5,r0
  3037e0:	c8 01       	tst	#1,r0
  3037e2:	8d 04       	bt.s	3037ee <_keydev_set_transform+0x1e>
  3037e4:	1f 61       	mov.l	r6,@(4,r15)
  3037e6:	84 48       	mov.b	@(8,r4),r0
  3037e8:	c9 5f       	and	#95,r0
  3037ea:	80 48       	mov.b	r0,@(8,r4)
  3037ec:	60 53       	mov	r5,r0
  3037ee:	c8 02       	tst	#2,r0
  3037f0:	89 02       	bt	3037f8 <_keydev_set_transform+0x28>
  3037f2:	84 48       	mov.b	@(8,r4),r0
  3037f4:	c9 af       	and	#175,r0
  3037f6:	80 48       	mov.b	r0,@(8,r4)
  3037f8:	d0 03       	mov.l	303808 <_keydev_set_transform+0x38>,r0	! 309100 <_memcpy>
  3037fa:	e6 08       	mov	#8,r6
  3037fc:	40 0b       	jsr	@r0
  3037fe:	65 f3       	mov	r15,r5
  303800:	7f 08       	add	#8,r15
  303802:	4f 26       	lds.l	@r15+,pr
  303804:	00 0b       	rts	
  303806:	00 09       	nop	
  303808:	00 30       	.word 0x0030
  30380a:	91 00       	mov.w	30380e <_keydev_set_standard_repeats+0x2>,r1	! 314c

0030380c <_keydev_set_standard_repeats>:
  30380c:	91 05       	mov.w	30381a <_keydev_set_standard_repeats+0xe>,r1	! bc
  30380e:	31 4c       	add	r4,r1
  303810:	11 52       	mov.l	r5,@(8,r1)
  303812:	11 63       	mov.l	r6,@(12,r1)
  303814:	d1 01       	mov.l	30381c <_keydev_set_standard_repeats+0x10>,r1	! 30348c <_standard_repeater>
  303816:	00 0b       	rts	
  303818:	14 15       	mov.l	r1,@(20,r4)
  30381a:	00 bc       	mov.b	@(r0,r11),r0
  30381c:	00 30       	.word 0x0030
  30381e:	34 8c       	add	r8,r4

00303820 <_keydev_read>:
  303820:	2f 86       	mov.l	r8,@-r15
  303822:	2f 96       	mov.l	r9,@-r15
  303824:	2f a6       	mov.l	r10,@-r15
  303826:	6a 43       	mov	r4,r10
  303828:	2f b6       	mov.l	r11,@-r15
  30382a:	2f c6       	mov.l	r12,@-r15
  30382c:	2f d6       	mov.l	r13,@-r15
  30382e:	2f e6       	mov.l	r14,@-r15
  303830:	9d c3       	mov.w	3039ba <_keydev_read+0x19a>,r13	! efff
  303832:	9e c3       	mov.w	3039bc <_keydev_read+0x19c>,r14	! 300
  303834:	4f 22       	sts.l	pr,@-r15
  303836:	d0 64       	mov.l	3039c8 <_keydev_read+0x1a8>,r0	! 3036bc <_keydev_unqueue_event>
  303838:	64 a3       	mov	r10,r4
  30383a:	eb ff       	mov	#-1,r11
  30383c:	40 0b       	jsr	@r0
  30383e:	e9 ff       	mov	#-1,r9
  303840:	68 03       	mov	r0,r8
  303842:	60 08       	swap.b	r0,r0
  303844:	c8 08       	tst	#8,r0
  303846:	6b ba       	negc	r11,r11
  303848:	c8 04       	tst	#4,r0
  30384a:	69 9a       	negc	r9,r9
  30384c:	28 e8       	tst	r14,r8
  30384e:	8f 02       	bf.s	303856 <_keydev_read+0x36>
  303850:	65 8c       	extu.b	r8,r5
  303852:	a0 90       	bra	303976 <_keydev_read+0x156>
  303854:	60 83       	mov	r8,r0
  303856:	5c a4       	mov.l	@(16,r10),r12
  303858:	e1 ff       	mov	#-1,r1
  30385a:	e2 0c       	mov	#12,r2
  30385c:	60 c3       	mov	r12,r0
  30385e:	c8 0f       	tst	#15,r0
  303860:	61 1a       	negc	r1,r1
  303862:	41 2d       	shld	r2,r1
  303864:	28 d9       	and	r13,r8
  303866:	28 1b       	or	r1,r8
  303868:	60 88       	swap.b	r8,r0
  30386a:	c8 01       	tst	#1,r0
  30386c:	8d 1d       	bt.s	3038aa <_keydev_read+0x8a>
  30386e:	60 c3       	mov	r12,r0
  303870:	c8 04       	tst	#4,r0
  303872:	8d 0d       	bt.s	303890 <_keydev_read+0x70>
  303874:	c8 08       	tst	#8,r0
  303876:	91 a2       	mov.w	3039be <_keydev_read+0x19e>,r1	! 81
  303878:	35 10       	cmp/eq	r1,r5
  30387a:	8d 09       	bt.s	303890 <_keydev_read+0x70>
  30387c:	c8 08       	tst	#8,r0
  30387e:	60 a3       	mov	r10,r0
  303880:	70 40       	add	#64,r0
  303882:	84 00       	mov.b	@(0,r0),r0
  303884:	e1 ff       	mov	#-1,r1
  303886:	c8 40       	tst	#64,r0
  303888:	61 1a       	negc	r1,r1
  30388a:	2b 1b       	or	r1,r11
  30388c:	60 c3       	mov	r12,r0
  30388e:	c8 08       	tst	#8,r0
  303890:	8d 0a       	bt.s	3038a8 <_keydev_read+0x88>
  303892:	60 53       	mov	r5,r0
  303894:	88 71       	cmp/eq	#113,r0
  303896:	8d 08       	bt.s	3038aa <_keydev_read+0x8a>
  303898:	60 c3       	mov	r12,r0
  30389a:	60 a3       	mov	r10,r0
  30389c:	70 30       	add	#48,r0
  30389e:	84 0f       	mov.b	@(15,r0),r0
  3038a0:	e1 ff       	mov	#-1,r1
  3038a2:	c8 40       	tst	#64,r0
  3038a4:	61 1a       	negc	r1,r1
  3038a6:	29 1b       	or	r1,r9
  3038a8:	60 c3       	mov	r12,r0
  3038aa:	c8 01       	tst	#1,r0
  3038ac:	8d 24       	bt.s	3038f8 <_keydev_read+0xd8>
  3038ae:	60 c3       	mov	r12,r0
  3038b0:	e1 0b       	mov	#11,r1
  3038b2:	60 b3       	mov	r11,r0
  3038b4:	c9 01       	and	#1,r0
  3038b6:	92 83       	mov.w	3039c0 <_keydev_read+0x1a0>,r2	! 100
  3038b8:	40 1d       	shld	r1,r0
  3038ba:	91 82       	mov.w	3039c2 <_keydev_read+0x1a2>,r1	! f7ff
  3038bc:	28 19       	and	r1,r8
  3038be:	91 81       	mov.w	3039c4 <_keydev_read+0x1a4>,r1	! fbff
  3038c0:	28 0b       	or	r0,r8
  3038c2:	60 93       	mov	r9,r0
  3038c4:	c9 01       	and	#1,r0
  3038c6:	40 18       	shll8	r0
  3038c8:	28 19       	and	r1,r8
  3038ca:	40 08       	shll2	r0
  3038cc:	28 0b       	or	r0,r8
  3038ce:	61 83       	mov	r8,r1
  3038d0:	21 e9       	and	r14,r1
  3038d2:	31 20       	cmp/eq	r2,r1
  3038d4:	8b 58       	bf	303988 <_keydev_read+0x168>
  3038d6:	91 72       	mov.w	3039be <_keydev_read+0x19e>,r1	! 81
  3038d8:	35 10       	cmp/eq	r1,r5
  3038da:	8f 59       	bf.s	303990 <_keydev_read+0x170>
  3038dc:	61 a3       	mov	r10,r1
  3038de:	71 10       	add	#16,r1
  3038e0:	84 18       	mov.b	@(8,r1),r0
  3038e2:	c8 20       	tst	#32,r0
  3038e4:	8f 04       	bf.s	3038f0 <_keydev_read+0xd0>
  3038e6:	62 03       	mov	r0,r2
  3038e8:	e3 80       	mov	#-128,r3
  3038ea:	60 23       	mov	r2,r0
  3038ec:	20 3b       	or	r3,r0
  3038ee:	80 18       	mov.b	r0,@(8,r1)
  3038f0:	84 18       	mov.b	@(8,r1),r0
  3038f2:	c9 df       	and	#223,r0
  3038f4:	80 18       	mov.b	r0,@(8,r1)
  3038f6:	60 c3       	mov	r12,r0
  3038f8:	c8 02       	tst	#2,r0
  3038fa:	8d 23       	bt.s	303944 <_keydev_read+0x124>
  3038fc:	60 c3       	mov	r12,r0
  3038fe:	e1 0b       	mov	#11,r1
  303900:	60 b3       	mov	r11,r0
  303902:	c9 01       	and	#1,r0
  303904:	92 5c       	mov.w	3039c0 <_keydev_read+0x1a0>,r2	! 100
  303906:	40 1d       	shld	r1,r0
  303908:	91 5b       	mov.w	3039c2 <_keydev_read+0x1a2>,r1	! f7ff
  30390a:	28 19       	and	r1,r8
  30390c:	91 5a       	mov.w	3039c4 <_keydev_read+0x1a4>,r1	! fbff
  30390e:	28 0b       	or	r0,r8
  303910:	60 93       	mov	r9,r0
  303912:	c9 01       	and	#1,r0
  303914:	40 18       	shll8	r0
  303916:	28 19       	and	r1,r8
  303918:	40 08       	shll2	r0
  30391a:	28 0b       	or	r0,r8
  30391c:	61 83       	mov	r8,r1
  30391e:	21 e9       	and	r14,r1
  303920:	31 20       	cmp/eq	r2,r1
  303922:	8f 57       	bf.s	3039d4 <_keydev_read+0x1b4>
  303924:	60 53       	mov	r5,r0
  303926:	88 71       	cmp/eq	#113,r0
  303928:	8f 58       	bf.s	3039dc <_keydev_read+0x1bc>
  30392a:	61 a3       	mov	r10,r1
  30392c:	71 10       	add	#16,r1
  30392e:	84 18       	mov.b	@(8,r1),r0
  303930:	c8 10       	tst	#16,r0
  303932:	8f 03       	bf.s	30393c <_keydev_read+0x11c>
  303934:	62 03       	mov	r0,r2
  303936:	e0 40       	mov	#64,r0
  303938:	20 2b       	or	r2,r0
  30393a:	80 18       	mov.b	r0,@(8,r1)
  30393c:	84 18       	mov.b	@(8,r1),r0
  30393e:	c9 ef       	and	#239,r0
  303940:	80 18       	mov.b	r0,@(8,r1)
  303942:	60 c3       	mov	r12,r0
  303944:	c8 20       	tst	#32,r0
  303946:	8d 06       	bt.s	303956 <_keydev_read+0x136>
  303948:	e1 01       	mov	#1,r1
  30394a:	d0 20       	mov.l	3039cc <_keydev_read+0x1ac>,r0	! 3034b0 <_can_repeat.isra.0>
  30394c:	40 0b       	jsr	@r0
  30394e:	64 c3       	mov	r12,r4
  303950:	20 08       	tst	r0,r0
  303952:	8d 6e       	bt.s	303a32 <_keydev_read+0x212>
  303954:	e1 01       	mov	#1,r1
  303956:	60 c3       	mov	r12,r0
  303958:	c8 40       	tst	#64,r0
  30395a:	2b 19       	and	r1,r11
  30395c:	8f 57       	bf.s	303a0e <_keydev_read+0x1ee>
  30395e:	29 19       	and	r1,r9
  303960:	91 2f       	mov.w	3039c2 <_keydev_read+0x1a2>,r1	! f7ff
  303962:	e2 0b       	mov	#11,r2
  303964:	4b 2d       	shld	r2,r11
  303966:	28 19       	and	r1,r8
  303968:	91 2c       	mov.w	3039c4 <_keydev_read+0x1a4>,r1	! fbff
  30396a:	28 bb       	or	r11,r8
  30396c:	49 18       	shll8	r9
  30396e:	49 08       	shll2	r9
  303970:	28 19       	and	r1,r8
  303972:	28 9b       	or	r9,r8
  303974:	60 83       	mov	r8,r0
  303976:	4f 26       	lds.l	@r15+,pr
  303978:	6e f6       	mov.l	@r15+,r14
  30397a:	6d f6       	mov.l	@r15+,r13
  30397c:	6c f6       	mov.l	@r15+,r12
  30397e:	6b f6       	mov.l	@r15+,r11
  303980:	6a f6       	mov.l	@r15+,r10
  303982:	69 f6       	mov.l	@r15+,r9
  303984:	00 0b       	rts	
  303986:	68 f6       	mov.l	@r15+,r8
  303988:	92 1d       	mov.w	3039c6 <_keydev_read+0x1a6>,r2	! 200
  30398a:	31 20       	cmp/eq	r2,r1
  30398c:	8d 0e       	bt.s	3039ac <_keydev_read+0x18c>
  30398e:	61 a3       	mov	r10,r1
  303990:	51 a7       	mov.l	@(28,r10),r1
  303992:	31 50       	cmp/eq	r5,r1
  303994:	8b af       	bf	3038f6 <_keydev_read+0xd6>
  303996:	51 a6       	mov.l	@(24,r10),r1
  303998:	d2 0d       	mov.l	3039d0 <_keydev_read+0x1b0>,r2	! 20000000
  30399a:	21 28       	tst	r2,r1
  30399c:	e1 ff       	mov	#-1,r1
  30399e:	61 1a       	negc	r1,r1
  3039a0:	2b 1b       	or	r1,r11
  3039a2:	61 a3       	mov	r10,r1
  3039a4:	71 10       	add	#16,r1
  3039a6:	84 18       	mov.b	@(8,r1),r0
  3039a8:	af a4       	bra	3038f4 <_keydev_read+0xd4>
  3039aa:	c9 7f       	and	#127,r0
  3039ac:	71 10       	add	#16,r1
  3039ae:	84 18       	mov.b	@(8,r1),r0
  3039b0:	40 11       	cmp/pz	r0
  3039b2:	8d a0       	bt.s	3038f6 <_keydev_read+0xd6>
  3039b4:	c9 5f       	and	#95,r0
  3039b6:	af 9d       	bra	3038f4 <_keydev_read+0xd4>
  3039b8:	cb 20       	or	#32,r0
  3039ba:	ef ff       	mov	#-1,r15
  3039bc:	03 00       	.word 0x0300
  3039be:	00 81       	.word 0x0081
  3039c0:	01 00       	.word 0x0100
  3039c2:	f7 ff       	movs.l	a0g,@r3+r8
  3039c4:	fb ff 02 00 	pshl	#32,0x0	movx.w	a1,@r5+r8	movy.w	a1,@r7+r9
  3039c8:	00 30       	.word 0x0030
  3039ca:	36 bc       	add	r11,r6
  3039cc:	00 30       	.word 0x0030
  3039ce:	34 b0       	cmp/eq	r11,r4
  3039d0:	20 00       	mov.b	r0,@r0
  3039d2:	00 00       	.word 0x0000
  3039d4:	92 2f       	mov.w	303a36 <_keydev_read+0x216>,r2	! 200
  3039d6:	31 20       	cmp/eq	r2,r1
  3039d8:	8d 0e       	bt.s	3039f8 <_keydev_read+0x1d8>
  3039da:	62 a3       	mov	r10,r2
  3039dc:	51 a7       	mov.l	@(28,r10),r1
  3039de:	31 50       	cmp/eq	r5,r1
  3039e0:	8b af       	bf	303942 <_keydev_read+0x122>
  3039e2:	51 a6       	mov.l	@(24,r10),r1
  3039e4:	d2 15       	mov.l	303a3c <_keydev_read+0x21c>,r2	! 10000000
  3039e6:	21 28       	tst	r2,r1
  3039e8:	e1 ff       	mov	#-1,r1
  3039ea:	61 1a       	negc	r1,r1
  3039ec:	29 1b       	or	r1,r9
  3039ee:	61 a3       	mov	r10,r1
  3039f0:	71 10       	add	#16,r1
  3039f2:	84 18       	mov.b	@(8,r1),r0
  3039f4:	af a4       	bra	303940 <_keydev_read+0x120>
  3039f6:	c9 bf       	and	#191,r0
  3039f8:	72 10       	add	#16,r2
  3039fa:	84 28       	mov.b	@(8,r2),r0
  3039fc:	c8 40       	tst	#64,r0
  3039fe:	8d a0       	bt.s	303942 <_keydev_read+0x122>
  303a00:	61 03       	mov	r0,r1
  303a02:	e3 af       	mov	#-81,r3
  303a04:	60 13       	mov	r1,r0
  303a06:	20 39       	and	r3,r0
  303a08:	cb 10       	or	#16,r0
  303a0a:	af 9a       	bra	303942 <_keydev_read+0x122>
  303a0c:	80 28       	mov.b	r0,@(8,r2)
  303a0e:	92 13       	mov.w	303a38 <_keydev_read+0x218>,r2	! f7ff
  303a10:	e3 0b       	mov	#11,r3
  303a12:	61 b3       	mov	r11,r1
  303a14:	41 3d       	shld	r3,r1
  303a16:	22 89       	and	r8,r2
  303a18:	68 23       	mov	r2,r8
  303a1a:	92 0e       	mov.w	303a3a <_keydev_read+0x21a>,r2	! fbff
  303a1c:	28 1b       	or	r1,r8
  303a1e:	61 93       	mov	r9,r1
  303a20:	41 18       	shll8	r1
  303a22:	41 08       	shll2	r1
  303a24:	28 29       	and	r2,r8
  303a26:	28 1b       	or	r1,r8
  303a28:	91 05       	mov.w	303a36 <_keydev_read+0x216>,r1	! 200
  303a2a:	62 83       	mov	r8,r2
  303a2c:	22 e9       	and	r14,r2
  303a2e:	32 10       	cmp/eq	r1,r2
  303a30:	8b 96       	bf	303960 <_keydev_read+0x140>
  303a32:	af 00       	bra	303836 <_keydev_read+0x16>
  303a34:	00 09       	nop	
  303a36:	02 00       	.word 0x0200
  303a38:	f7 ff       	movs.l	a0g,@r3+r8
  303a3a:	fb ff 10 00 	psha	#0,0x0	movx.w	a1,@r5+r8	movy.w	a1,@r7+r9
	...

00303a40 <_configure>:
  303a40:	2f 86       	mov.l	r8,@-r15
  303a42:	d1 1a       	mov.l	303aac <_configure+0x6c>,r1	! 3034d6 <_keydev_init>
  303a44:	4f 22       	sts.l	pr,@-r15
  303a46:	d4 1a       	mov.l	303ab0 <_configure+0x70>,r4	! 8101440 <_keysc_dev>
  303a48:	41 0b       	jsr	@r1
  303a4a:	7f d4       	add	#-44,r15
  303a4c:	d1 19       	mov.l	303ab4 <_configure+0x74>,r1	! 3037d0 <_keydev_set_transform>
  303a4e:	e5 10       	mov	#16,r5
  303a50:	d4 17       	mov.l	303ab0 <_configure+0x70>,r4	! 8101440 <_keysc_dev>
  303a52:	41 0b       	jsr	@r1
  303a54:	e6 00       	mov	#0,r6
  303a56:	d1 18       	mov.l	303ab8 <_configure+0x78>,r1	! 30380c <_keydev_set_standard_repeats>
  303a58:	d6 18       	mov.l	303abc <_configure+0x7c>,r6	! 9c40
  303a5a:	d5 19       	mov.l	303ac0 <_configure+0x80>,r5	! 61a80
  303a5c:	d4 14       	mov.l	303ab0 <_configure+0x70>,r4	! 8101440 <_keysc_dev>
  303a5e:	41 0b       	jsr	@r1
  303a60:	00 09       	nop	
  303a62:	d0 18       	mov.l	303ac4 <_configure+0x84>,r0	! 3091c0 <_memset>
  303a64:	e6 10       	mov	#16,r6
  303a66:	d1 18       	mov.l	303ac8 <_configure+0x88>,r1	! 81018d4 <_keysc_scan_us>
  303a68:	e5 00       	mov	#0,r5
  303a6a:	64 f3       	mov	r15,r4
  303a6c:	74 1c       	add	#28,r4
  303a6e:	40 0b       	jsr	@r0
  303a70:	68 12       	mov.l	@r1,r8
  303a72:	d0 16       	mov.l	303acc <_configure+0x8c>,r0	! 309100 <_memcpy>
  303a74:	e6 10       	mov	#16,r6
  303a76:	d1 16       	mov.l	303ad0 <_configure+0x90>,r1	! 303ae8 <_keysc_tick>
  303a78:	64 f3       	mov	r15,r4
  303a7a:	65 f3       	mov	r15,r5
  303a7c:	75 1c       	add	#28,r5
  303a7e:	40 0b       	jsr	@r0
  303a80:	1f 16       	mov.l	r1,@(24,r15)
  303a82:	d0 14       	mov.l	303ad4 <_configure+0x94>,r0	! 304318 <_timer_configure>
  303a84:	e4 ff       	mov	#-1,r4
  303a86:	57 f6       	mov.l	@(24,r15),r7
  303a88:	e5 00       	mov	#0,r5
  303a8a:	40 0b       	jsr	@r0
  303a8c:	66 83       	mov	r8,r6
  303a8e:	d1 12       	mov.l	303ad8 <_configure+0x98>,r1	! 81018d0 <_keysc_tid>
  303a90:	40 11       	cmp/pz	r0
  303a92:	64 03       	mov	r0,r4
  303a94:	8f 03       	bf.s	303a9e <_configure+0x5e>
  303a96:	21 02       	mov.l	r0,@r1
  303a98:	d1 10       	mov.l	303adc <_configure+0x9c>,r1	! 304524 <_timer_start>
  303a9a:	41 0b       	jsr	@r1
  303a9c:	00 09       	nop	
  303a9e:	d1 10       	mov.l	303ae0 <_configure+0xa0>,r1	! 8101bc4 <_gint>
  303aa0:	d2 10       	mov.l	303ae4 <_configure+0xa4>,r2	! 80000004
  303aa2:	11 28       	mov.l	r2,@(32,r1)
  303aa4:	7f 2c       	add	#44,r15
  303aa6:	4f 26       	lds.l	@r15+,pr
  303aa8:	00 0b       	rts	
  303aaa:	68 f6       	mov.l	@r15+,r8
  303aac:	00 30       	.word 0x0030
  303aae:	34 d6       	cmp/hi	r13,r4
  303ab0:	08 10       	.word 0x0810
  303ab2:	14 40       	mov.l	r4,@(0,r4)
  303ab4:	00 30       	.word 0x0030
  303ab6:	37 d0       	cmp/eq	r13,r7
  303ab8:	00 30       	.word 0x0030
  303aba:	38 0c       	add	r0,r8
  303abc:	00 00       	.word 0x0000
  303abe:	9c 40       	mov.w	303b42 <_keydev_std+0xa>,r12	! 1440
  303ac0:	00 06       	mov.l	r0,@(r0,r0)
  303ac2:	1a 80       	mov.l	r8,@(0,r10)
  303ac4:	00 30       	.word 0x0030
  303ac6:	91 c0       	mov.w	303c4a <_drect_border+0x62>,r1	! 6593
  303ac8:	08 10       	.word 0x0810
  303aca:	18 d4       	mov.l	r13,@(16,r8)
  303acc:	00 30       	.word 0x0030
  303ace:	91 00       	mov.w	303ad2 <_configure+0x92>,r1	! 3ae8
  303ad0:	00 30       	.word 0x0030
  303ad2:	3a e8       	sub	r14,r10
  303ad4:	00 30       	.word 0x0030
  303ad6:	43 18       	shll8	r3
  303ad8:	08 10       	.word 0x0810
  303ada:	18 d0       	mov.l	r13,@(0,r8)
  303adc:	00 30       	.word 0x0030
  303ade:	45 24       	rotcl	r5
  303ae0:	08 10       	.word 0x0810
  303ae2:	1b c4       	mov.l	r12,@(16,r11)
  303ae4:	80 00       	mov.b	r0,@(0,r0)
  303ae6:	00 04       	mov.b	r0,@(r0,r0)

00303ae8 <_keysc_tick>:
  303ae8:	4f 22       	sts.l	pr,@-r15
  303aea:	d7 0e       	mov.l	303b24 <_keysc_tick+0x3c>,r7	! a44b0000
  303aec:	7f f4       	add	#-12,r15
  303aee:	e1 00       	mov	#0,r1
  303af0:	62 f3       	mov	r15,r2
  303af2:	2f 12       	mov.l	r1,@r15
  303af4:	1f 11       	mov.l	r1,@(4,r15)
  303af6:	1f 12       	mov.l	r1,@(8,r15)
  303af8:	e1 06       	mov	#6,r1
  303afa:	63 75       	mov.w	@r7+,r3
  303afc:	41 10       	dt	r1
  303afe:	63 38       	swap.b	r3,r3
  303b00:	22 31       	mov.w	r3,@r2
  303b02:	8f fa       	bf.s	303afa <_keysc_tick+0x12>
  303b04:	72 02       	add	#2,r2
  303b06:	d1 08       	mov.l	303b28 <_keysc_tick+0x40>,r1	! 303520 <_keydev_process_state>
  303b08:	d4 08       	mov.l	303b2c <_keysc_tick+0x44>,r4	! 8101440 <_keysc_dev>
  303b0a:	41 0b       	jsr	@r1
  303b0c:	65 f3       	mov	r15,r5
  303b0e:	d1 08       	mov.l	303b30 <_keysc_tick+0x48>,r1	! 81018d4 <_keysc_scan_us>
  303b10:	d4 06       	mov.l	303b2c <_keysc_tick+0x44>,r4	! 8101440 <_keysc_dev>
  303b12:	65 12       	mov.l	@r1,r5
  303b14:	d1 07       	mov.l	303b34 <_keysc_tick+0x4c>,r1	! 30366c <_keydev_tick>
  303b16:	41 0b       	jsr	@r1
  303b18:	00 09       	nop	
  303b1a:	e0 00       	mov	#0,r0
  303b1c:	7f 0c       	add	#12,r15
  303b1e:	4f 26       	lds.l	@r15+,pr
  303b20:	00 0b       	rts	
  303b22:	00 09       	nop	
  303b24:	a4 4b       	bra	3043be <_timer_configure+0xa6>
  303b26:	00 00       	.word 0x0000
  303b28:	00 30       	.word 0x0030
  303b2a:	35 20       	cmp/eq	r2,r5
  303b2c:	08 10       	.word 0x0810
  303b2e:	14 40       	mov.l	r4,@(0,r4)
  303b30:	08 10       	.word 0x0810
  303b32:	18 d4       	mov.l	r13,@(16,r8)
  303b34:	00 30       	.word 0x0030
  303b36:	36 6c       	add	r6,r6

00303b38 <_keydev_std>:
  303b38:	d0 01       	mov.l	303b40 <_keydev_std+0x8>,r0	! 8101440 <_keysc_dev>
  303b3a:	00 0b       	rts	
  303b3c:	00 09       	nop	
  303b3e:	00 09       	nop	
  303b40:	08 10       	.word 0x0810
  303b42:	14 40       	mov.l	r4,@(0,r4)

00303b44 <_pollevent>:
  303b44:	d0 01       	mov.l	303b4c <_pollevent+0x8>,r0	! 3036bc <_keydev_unqueue_event>
  303b46:	d4 02       	mov.l	303b50 <_pollevent+0xc>,r4	! 8101440 <_keysc_dev>
  303b48:	40 2b       	jmp	@r0
  303b4a:	00 09       	nop	
  303b4c:	00 30       	.word 0x0030
  303b4e:	36 bc       	add	r11,r6
  303b50:	08 10       	.word 0x0810
  303b52:	14 40       	mov.l	r4,@(0,r4)

00303b54 <_waitevent>:
  303b54:	2f 86       	mov.l	r8,@-r15
  303b56:	68 43       	mov	r4,r8
  303b58:	2f 96       	mov.l	r9,@-r15
  303b5a:	2f a6       	mov.l	r10,@-r15
  303b5c:	4f 22       	sts.l	pr,@-r15
  303b5e:	da 10       	mov.l	303ba0 <_waitevent+0x4c>,r10	! 303b44 <_pollevent>
  303b60:	7f fc       	add	#-4,r15
  303b62:	99 1b       	mov.w	303b9c <_waitevent+0x48>,r9	! 300
  303b64:	4a 0b       	jsr	@r10
  303b66:	00 09       	nop	
  303b68:	61 03       	mov	r0,r1
  303b6a:	21 98       	tst	r9,r1
  303b6c:	8d 07       	bt.s	303b7e <_waitevent+0x2a>
  303b6e:	20 99       	and	r9,r0
  303b70:	60 13       	mov	r1,r0
  303b72:	7f 04       	add	#4,r15
  303b74:	4f 26       	lds.l	@r15+,pr
  303b76:	6a f6       	mov.l	@r15+,r10
  303b78:	69 f6       	mov.l	@r15+,r9
  303b7a:	00 0b       	rts	
  303b7c:	68 f6       	mov.l	@r15+,r8
  303b7e:	28 88       	tst	r8,r8
  303b80:	89 02       	bt	303b88 <_waitevent+0x34>
  303b82:	61 82       	mov.l	@r8,r1
  303b84:	21 18       	tst	r1,r1
  303b86:	8b 04       	bf	303b92 <_waitevent+0x3e>
  303b88:	d1 06       	mov.l	303ba4 <_waitevent+0x50>,r1	! 305000 <_sleep>
  303b8a:	41 0b       	jsr	@r1
  303b8c:	00 09       	nop	
  303b8e:	af e9       	bra	303b64 <_waitevent+0x10>
  303b90:	00 09       	nop	
  303b92:	d1 05       	mov.l	303ba8 <_waitevent+0x54>,r1	! 8101440 <_keysc_dev>
  303b94:	61 12       	mov.l	@r1,r1
  303b96:	41 28       	shll16	r1
  303b98:	af eb       	bra	303b72 <_waitevent+0x1e>
  303b9a:	20 1b       	or	r1,r0
  303b9c:	03 00       	.word 0x0300
  303b9e:	00 09       	nop	
  303ba0:	00 30       	.word 0x0030
  303ba2:	3b 44       	div1	r4,r11
  303ba4:	00 30       	.word 0x0030
  303ba6:	50 00       	mov.l	@(0,r0),r0
  303ba8:	08 10       	.word 0x0810
  303baa:	14 40       	mov.l	r4,@(0,r4)

00303bac <_clearevents>:
  303bac:	2f 86       	mov.l	r8,@-r15
  303bae:	2f 96       	mov.l	r9,@-r15
  303bb0:	98 09       	mov.w	303bc6 <_clearevents+0x1a>,r8	! 300
  303bb2:	d9 05       	mov.l	303bc8 <_clearevents+0x1c>,r9	! 303b44 <_pollevent>
  303bb4:	4f 22       	sts.l	pr,@-r15
  303bb6:	49 0b       	jsr	@r9
  303bb8:	00 09       	nop	
  303bba:	20 88       	tst	r8,r0
  303bbc:	8b fb       	bf	303bb6 <_clearevents+0xa>
  303bbe:	4f 26       	lds.l	@r15+,pr
  303bc0:	69 f6       	mov.l	@r15+,r9
  303bc2:	00 0b       	rts	
  303bc4:	68 f6       	mov.l	@r15+,r8
  303bc6:	03 00       	.word 0x0300
  303bc8:	00 30       	.word 0x0030
  303bca:	3b 44       	div1	r4,r11

00303bcc <_keydown>:
  303bcc:	d0 04       	mov.l	303be0 <_keydown+0x14>,r0	! 303794 <_keydev_keydown>
  303bce:	65 43       	mov	r4,r5
  303bd0:	4f 22       	sts.l	pr,@-r15
  303bd2:	d4 04       	mov.l	303be4 <_keydown+0x18>,r4	! 8101440 <_keysc_dev>
  303bd4:	40 0b       	jsr	@r0
  303bd6:	00 09       	nop	
  303bd8:	4f 26       	lds.l	@r15+,pr
  303bda:	00 0b       	rts	
  303bdc:	00 09       	nop	
  303bde:	00 09       	nop	
  303be0:	00 30       	.word 0x0030
  303be2:	37 94       	div1	r9,r7
  303be4:	08 10       	.word 0x0810
  303be6:	14 40       	mov.l	r4,@(0,r4)

00303be8 <_drect_border>:
  303be8:	2f 86       	mov.l	r8,@-r15
  303bea:	34 67       	cmp/gt	r6,r4
  303bec:	2f 96       	mov.l	r9,@-r15
  303bee:	68 53       	mov	r5,r8
  303bf0:	2f a6       	mov.l	r10,@-r15
  303bf2:	69 73       	mov	r7,r9
  303bf4:	2f b6       	mov.l	r11,@-r15
  303bf6:	2f c6       	mov.l	r12,@-r15
  303bf8:	2f d6       	mov.l	r13,@-r15
  303bfa:	6d 43       	mov	r4,r13
  303bfc:	2f e6       	mov.l	r14,@-r15
  303bfe:	6e 63       	mov	r6,r14
  303c00:	4f 22       	sts.l	pr,@-r15
  303c02:	7f f4       	add	#-12,r15
  303c04:	50 fb       	mov.l	@(44,r15),r0
  303c06:	51 fc       	mov.l	@(48,r15),r1
  303c08:	8f 02       	bf.s	303c10 <_drect_border+0x28>
  303c0a:	5c fd       	mov.l	@(52,r15),r12
  303c0c:	6d 63       	mov	r6,r13
  303c0e:	6e 43       	mov	r4,r14
  303c10:	38 97       	cmp/gt	r9,r8
  303c12:	8f 02       	bf.s	303c1a <_drect_border+0x32>
  303c14:	62 83       	mov	r8,r2
  303c16:	68 93       	mov	r9,r8
  303c18:	69 23       	mov	r2,r9
  303c1a:	92 4c       	mov.w	303cb6 <_drect_border+0xce>,r2	! 18b
  303c1c:	3d 27       	cmp/gt	r2,r13
  303c1e:	8d 40       	bt.s	303ca2 <_drect_border+0xba>
  303c20:	62 e3       	mov	r14,r2
  303c22:	22 9b       	or	r9,r2
  303c24:	42 11       	cmp/pz	r2
  303c26:	8b 3c       	bf	303ca2 <_drect_border+0xba>
  303c28:	92 46       	mov.w	303cb8 <_drect_border+0xd0>,r2	! df
  303c2a:	38 27       	cmp/gt	r2,r8
  303c2c:	8d 39       	bt.s	303ca2 <_drect_border+0xba>
  303c2e:	65 83       	mov	r8,r5
  303c30:	db 22       	mov.l	303cbc <_drect_border+0xd4>,r11	! 3047b0 <_drect>
  303c32:	6a 13       	mov	r1,r10
  303c34:	7a ff       	add	#-1,r10
  303c36:	1f 02       	mov.l	r0,@(8,r15)
  303c38:	1f 11       	mov.l	r1,@(4,r15)
  303c3a:	66 e3       	mov	r14,r6
  303c3c:	64 d3       	mov	r13,r4
  303c3e:	2f c2       	mov.l	r12,@r15
  303c40:	67 a3       	mov	r10,r7
  303c42:	4b 0b       	jsr	@r11
  303c44:	37 8c       	add	r8,r7
  303c46:	67 93       	mov	r9,r7
  303c48:	66 e3       	mov	r14,r6
  303c4a:	65 93       	mov	r9,r5
  303c4c:	64 d3       	mov	r13,r4
  303c4e:	35 a8       	sub	r10,r5
  303c50:	4b 0b       	jsr	@r11
  303c52:	2f c2       	mov.l	r12,@r15
  303c54:	51 f1       	mov.l	@(4,r15),r1
  303c56:	64 d3       	mov	r13,r4
  303c58:	2f c2       	mov.l	r12,@r15
  303c5a:	66 a3       	mov	r10,r6
  303c5c:	38 1c       	add	r1,r8
  303c5e:	39 18       	sub	r1,r9
  303c60:	65 83       	mov	r8,r5
  303c62:	36 dc       	add	r13,r6
  303c64:	4b 0b       	jsr	@r11
  303c66:	67 93       	mov	r9,r7
  303c68:	2f c2       	mov.l	r12,@r15
  303c6a:	67 93       	mov	r9,r7
  303c6c:	66 e3       	mov	r14,r6
  303c6e:	65 83       	mov	r8,r5
  303c70:	64 e3       	mov	r14,r4
  303c72:	4b 0b       	jsr	@r11
  303c74:	34 a8       	sub	r10,r4
  303c76:	50 f2       	mov.l	@(8,r15),r0
  303c78:	88 ff       	cmp/eq	#-1,r0
  303c7a:	8d 12       	bt.s	303ca2 <_drect_border+0xba>
  303c7c:	51 f1       	mov.l	@(4,r15),r1
  303c7e:	66 e3       	mov	r14,r6
  303c80:	64 d3       	mov	r13,r4
  303c82:	36 18       	sub	r1,r6
  303c84:	1f 0b       	mov.l	r0,@(44,r15)
  303c86:	34 1c       	add	r1,r4
  303c88:	67 93       	mov	r9,r7
  303c8a:	65 83       	mov	r8,r5
  303c8c:	61 b3       	mov	r11,r1
  303c8e:	7f 0c       	add	#12,r15
  303c90:	4f 26       	lds.l	@r15+,pr
  303c92:	6e f6       	mov.l	@r15+,r14
  303c94:	6d f6       	mov.l	@r15+,r13
  303c96:	6c f6       	mov.l	@r15+,r12
  303c98:	6b f6       	mov.l	@r15+,r11
  303c9a:	6a f6       	mov.l	@r15+,r10
  303c9c:	69 f6       	mov.l	@r15+,r9
  303c9e:	41 2b       	jmp	@r1
  303ca0:	68 f6       	mov.l	@r15+,r8
  303ca2:	7f 0c       	add	#12,r15
  303ca4:	4f 26       	lds.l	@r15+,pr
  303ca6:	6e f6       	mov.l	@r15+,r14
  303ca8:	6d f6       	mov.l	@r15+,r13
  303caa:	6c f6       	mov.l	@r15+,r12
  303cac:	6b f6       	mov.l	@r15+,r11
  303cae:	6a f6       	mov.l	@r15+,r10
  303cb0:	69 f6       	mov.l	@r15+,r9
  303cb2:	00 0b       	rts	
  303cb4:	68 f6       	mov.l	@r15+,r8
  303cb6:	01 8b       	.word 0x018b
  303cb8:	00 df       	mac.l	@r13+,@r0+
  303cba:	00 09       	nop	
  303cbc:	00 30       	.word 0x0030
  303cbe:	47 b0       	.word 0x47b0

00303cc0 <_dtext>:
  303cc0:	4f 22       	sts.l	pr,@-r15
  303cc2:	e1 ff       	mov	#-1,r1
  303cc4:	7f f0       	add	#-16,r15
  303cc6:	1f 13       	mov.l	r1,@(12,r15)
  303cc8:	e1 00       	mov	#0,r1
  303cca:	1f 11       	mov.l	r1,@(4,r15)
  303ccc:	2f 12       	mov.l	r1,@r15
  303cce:	d1 04       	mov.l	303ce0 <_dtext+0x20>,r1	! 3049ec <_dtext_opt>
  303cd0:	1f 72       	mov.l	r7,@(8,r15)
  303cd2:	41 0b       	jsr	@r1
  303cd4:	e7 ff       	mov	#-1,r7
  303cd6:	7f 10       	add	#16,r15
  303cd8:	4f 26       	lds.l	@r15+,pr
  303cda:	00 0b       	rts	
  303cdc:	00 09       	nop	
  303cde:	00 09       	nop	
  303ce0:	00 30       	.word 0x0030
  303ce2:	49 ec       	shad	r14,r9

00303ce4 <_dfont>:
  303ce4:	d1 03       	mov.l	303cf4 <_dfont+0x10>,r1	! 81018dc <_topti_font>
  303ce6:	24 48       	tst	r4,r4
  303ce8:	8f 02       	bf.s	303cf0 <_dfont+0xc>
  303cea:	60 12       	mov.l	@r1,r0
  303cec:	d2 02       	mov.l	303cf8 <_dfont+0x14>,r2	! 81018e0 <_gint_default_font>
  303cee:	64 22       	mov.l	@r2,r4
  303cf0:	00 0b       	rts	
  303cf2:	21 42       	mov.l	r4,@r1
  303cf4:	08 10       	.word 0x0810
  303cf6:	18 dc       	mov.l	r13,@(48,r8)
  303cf8:	08 10       	.word 0x0810
  303cfa:	18 e0       	mov.l	r14,@(0,r8)

00303cfc <_dfont_default>:
  303cfc:	d1 01       	mov.l	303d04 <_dfont_default+0x8>,r1	! 81018e0 <_gint_default_font>
  303cfe:	00 0b       	rts	
  303d00:	60 12       	mov.l	@r1,r0
  303d02:	00 09       	nop	
  303d04:	08 10       	.word 0x0810
  303d06:	18 e0       	mov.l	r14,@(0,r8)

00303d08 <_topti_glyph_index>:
  303d08:	84 47       	mov.b	@(7,r4),r0
  303d0a:	e3 00       	mov	#0,r3
  303d0c:	96 20       	mov.w	303d50 <_topti_glyph_index+0x48>,r6	! fff
  303d0e:	2f 86       	mov.l	r8,@-r15
  303d10:	61 0c       	extu.b	r0,r1
  303d12:	2f 96       	mov.l	r9,@-r15
  303d14:	71 01       	add	#1,r1
  303d16:	e9 00       	mov	#0,r9
  303d18:	41 10       	dt	r1
  303d1a:	8d 13       	bt.s	303d44 <_topti_glyph_index+0x3c>
  303d1c:	e0 ff       	mov	#-1,r0
  303d1e:	57 44       	mov.l	@(16,r4),r7
  303d20:	62 33       	mov	r3,r2
  303d22:	42 08       	shll2	r2
  303d24:	60 23       	mov	r2,r0
  303d26:	02 7e       	mov.l	@(r0,r7),r2
  303d28:	e7 f4       	mov	#-12,r7
  303d2a:	68 23       	mov	r2,r8
  303d2c:	48 7d       	shld	r7,r8
  303d2e:	67 53       	mov	r5,r7
  303d30:	37 88       	sub	r8,r7
  303d32:	47 11       	cmp/pz	r7
  303d34:	8f 09       	bf.s	303d4a <_topti_glyph_index+0x42>
  303d36:	22 69       	and	r6,r2
  303d38:	32 77       	cmp/gt	r7,r2
  303d3a:	8f 07       	bf.s	303d4c <_topti_glyph_index+0x44>
  303d3c:	39 2c       	add	r2,r9
  303d3e:	39 28       	sub	r2,r9
  303d40:	60 93       	mov	r9,r0
  303d42:	30 7c       	add	r7,r0
  303d44:	69 f6       	mov.l	@r15+,r9
  303d46:	00 0b       	rts	
  303d48:	68 f6       	mov.l	@r15+,r8
  303d4a:	39 2c       	add	r2,r9
  303d4c:	af e4       	bra	303d18 <_topti_glyph_index+0x10>
  303d4e:	73 01       	add	#1,r3
  303d50:	0f ff       	mac.l	@r15+,@r15+

00303d52 <_topti_offset>:
  303d52:	84 44       	mov.b	@(4,r4),r0
  303d54:	c8 01       	tst	#1,r0
  303d56:	8f 07       	bf.s	303d68 <_topti_offset+0x16>
  303d58:	2f 86       	mov.l	r8,@-r15
  303d5a:	85 4d       	mov.w	@(26,r4),r0
  303d5c:	60 0d       	extu.w	r0,r0
  303d5e:	00 57       	mul.l	r5,r0
  303d60:	02 1a       	sts	macl,r2
  303d62:	60 23       	mov	r2,r0
  303d64:	00 0b       	rts	
  303d66:	68 f6       	mov.l	@r15+,r8
  303d68:	e1 f8       	mov	#-8,r1
  303d6a:	52 46       	mov.l	@(24,r4),r2
  303d6c:	21 59       	and	r5,r1
  303d6e:	63 53       	mov	r5,r3
  303d70:	60 13       	mov	r1,r0
  303d72:	40 09       	shlr2	r0
  303d74:	02 2d       	mov.w	@(r0,r2),r2
  303d76:	33 18       	sub	r1,r3
  303d78:	31 56       	cmp/hi	r5,r1
  303d7a:	56 47       	mov.l	@(28,r4),r6
  303d7c:	62 2d       	extu.w	r2,r2
  303d7e:	e8 fb       	mov	#-5,r8
  303d80:	8d 03       	bt.s	303d8a <_topti_offset+0x38>
  303d82:	73 01       	add	#1,r3
  303d84:	25 58       	tst	r5,r5
  303d86:	8f 02       	bf.s	303d8e <_topti_offset+0x3c>
  303d88:	43 10       	dt	r3
  303d8a:	e3 01       	mov	#1,r3
  303d8c:	43 10       	dt	r3
  303d8e:	8d e9       	bt.s	303d64 <_topti_offset+0x12>
  303d90:	60 23       	mov	r2,r0
  303d92:	60 13       	mov	r1,r0
  303d94:	07 6c       	mov.b	@(r0,r6),r7
  303d96:	84 46       	mov.b	@(6,r4),r0
  303d98:	71 01       	add	#1,r1
  303d9a:	67 7c       	extu.b	r7,r7
  303d9c:	60 0c       	extu.b	r0,r0
  303d9e:	27 0e       	mulu.w	r0,r7
  303da0:	07 1a       	sts	macl,r7
  303da2:	77 1f       	add	#31,r7
  303da4:	47 8c       	shad	r8,r7
  303da6:	af f1       	bra	303d8c <_topti_offset+0x3a>
  303da8:	32 7c       	add	r7,r2

00303daa <_topti_utf8_next>:
  303daa:	66 42       	mov.l	@r4,r6
  303dac:	e5 41       	mov	#65,r5
  303dae:	97 46       	mov.w	303e3e <_topti_utf8_next+0x94>,r7	! fd
  303db0:	61 64       	mov.b	@r6+,r1
  303db2:	61 1c       	extu.b	r1,r1
  303db4:	60 13       	mov	r1,r0
  303db6:	ca 80       	xor	#128,r0
  303db8:	30 56       	cmp/hi	r5,r0
  303dba:	8f 08       	bf.s	303dce <_topti_utf8_next+0x24>
  303dbc:	31 76       	cmp/hi	r7,r1
  303dbe:	8d 06       	bt.s	303dce <_topti_utf8_next+0x24>
  303dc0:	62 1e       	exts.b	r1,r2
  303dc2:	42 11       	cmp/pz	r2
  303dc4:	8f 09       	bf.s	303dda <_topti_utf8_next+0x30>
  303dc6:	60 13       	mov	r1,r0
  303dc8:	63 63       	mov	r6,r3
  303dca:	00 0b       	rts	
  303dcc:	24 32       	mov.l	r3,@r4
  303dce:	76 01       	add	#1,r6
  303dd0:	61 63       	mov	r6,r1
  303dd2:	71 f0       	add	#-16,r1
  303dd4:	84 1f       	mov.b	@(15,r1),r0
  303dd6:	af ed       	bra	303db4 <_topti_utf8_next+0xa>
  303dd8:	61 0c       	extu.b	r0,r1
  303dda:	93 31       	mov.w	303e40 <_topti_utf8_next+0x96>,r3	! df
  303ddc:	e0 3f       	mov	#63,r0
  303dde:	62 60       	mov.b	@r6,r2
  303de0:	31 36       	cmp/hi	r3,r1
  303de2:	8d 08       	bt.s	303df6 <_topti_utf8_next+0x4c>
  303de4:	22 09       	and	r0,r2
  303de6:	60 13       	mov	r1,r0
  303de8:	c9 1f       	and	#31,r0
  303dea:	40 18       	shll8	r0
  303dec:	63 63       	mov	r6,r3
  303dee:	40 09       	shlr2	r0
  303df0:	73 01       	add	#1,r3
  303df2:	af ea       	bra	303dca <_topti_utf8_next+0x20>
  303df4:	20 2b       	or	r2,r0
  303df6:	93 24       	mov.w	303e42 <_topti_utf8_next+0x98>,r3	! ef
  303df8:	e7 3f       	mov	#63,r7
  303dfa:	84 61       	mov.b	@(1,r6),r0
  303dfc:	31 36       	cmp/hi	r3,r1
  303dfe:	27 09       	and	r0,r7
  303e00:	8d 08       	bt.s	303e14 <_topti_utf8_next+0x6a>
  303e02:	63 63       	mov	r6,r3
  303e04:	e6 0c       	mov	#12,r6
  303e06:	41 6d       	shld	r6,r1
  303e08:	60 1d       	extu.w	r1,r0
  303e0a:	e1 06       	mov	#6,r1
  303e0c:	73 02       	add	#2,r3
  303e0e:	20 7b       	or	r7,r0
  303e10:	af ef       	bra	303df2 <_topti_utf8_next+0x48>
  303e12:	42 1d       	shld	r1,r2
  303e14:	95 16       	mov.w	303e44 <_topti_utf8_next+0x9a>,r5	! f7
  303e16:	73 03       	add	#3,r3
  303e18:	31 56       	cmp/hi	r5,r1
  303e1a:	8d d6       	bt.s	303dca <_topti_utf8_next+0x20>
  303e1c:	e0 20       	mov	#32,r0
  303e1e:	60 13       	mov	r1,r0
  303e20:	c9 07       	and	#7,r0
  303e22:	40 28       	shll16	r0
  303e24:	40 08       	shll2	r0
  303e26:	61 03       	mov	r0,r1
  303e28:	84 62       	mov.b	@(2,r6),r0
  303e2a:	e6 0c       	mov	#12,r6
  303e2c:	c9 3f       	and	#63,r0
  303e2e:	21 0b       	or	r0,r1
  303e30:	60 73       	mov	r7,r0
  303e32:	42 6d       	shld	r6,r2
  303e34:	21 2b       	or	r2,r1
  303e36:	e2 06       	mov	#6,r2
  303e38:	40 2d       	shld	r2,r0
  303e3a:	af c6       	bra	303dca <_topti_utf8_next+0x20>
  303e3c:	20 1b       	or	r1,r0
  303e3e:	00 fd       	mov.w	@(r0,r15),r0
  303e40:	00 df       	mac.l	@r13+,@r0+
  303e42:	00 ef       	mac.l	@r14+,@r0+
  303e44:	00 f7       	mul.l	r15,r0

00303e46 <_dnsize>:
  303e46:	2f 86       	mov.l	r8,@-r15
  303e48:	26 68       	tst	r6,r6
  303e4a:	2f 96       	mov.l	r9,@-r15
  303e4c:	68 63       	mov	r6,r8
  303e4e:	2f a6       	mov.l	r10,@-r15
  303e50:	6a 53       	mov	r5,r10
  303e52:	2f b6       	mov.l	r11,@-r15
  303e54:	6b 73       	mov	r7,r11
  303e56:	2f c6       	mov.l	r12,@-r15
  303e58:	6c 43       	mov	r4,r12
  303e5a:	2f d6       	mov.l	r13,@-r15
  303e5c:	2f e6       	mov.l	r14,@-r15
  303e5e:	4f 22       	sts.l	pr,@-r15
  303e60:	7f fc       	add	#-4,r15
  303e62:	2f 42       	mov.l	r4,@r15
  303e64:	8f 02       	bf.s	303e6c <_dnsize+0x26>
  303e66:	51 f9       	mov.l	@(36,r15),r1
  303e68:	d2 25       	mov.l	303f00 <_dnsize+0xba>,r2	! 81018dc <_topti_font>
  303e6a:	68 22       	mov.l	@r2,r8
  303e6c:	21 18       	tst	r1,r1
  303e6e:	8d 03       	bt.s	303e78 <_dnsize+0x32>
  303e70:	2b b8       	tst	r11,r11
  303e72:	84 85       	mov.b	@(5,r8),r0
  303e74:	60 0c       	extu.b	r0,r0
  303e76:	21 02       	mov.l	r0,@r1
  303e78:	89 1a       	bt	303eb0 <_dnsize+0x6a>
  303e7a:	84 84       	mov.b	@(4,r8),r0
  303e7c:	dd 21       	mov.l	303f04 <_dnsize+0xbe>,r13	! 303daa <_topti_utf8_next>
  303e7e:	c8 01       	tst	#1,r0
  303e80:	8f 20       	bf.s	303ec4 <_dnsize+0x7e>
  303e82:	ee 00       	mov	#0,r14
  303e84:	e9 00       	mov	#0,r9
  303e86:	4d 0b       	jsr	@r13
  303e88:	64 f3       	mov	r15,r4
  303e8a:	20 08       	tst	r0,r0
  303e8c:	8d 07       	bt.s	303e9e <_dnsize+0x58>
  303e8e:	4a 11       	cmp/pz	r10
  303e90:	8f 03       	bf.s	303e9a <_dnsize+0x54>
  303e92:	61 f2       	mov.l	@r15,r1
  303e94:	31 c8       	sub	r12,r1
  303e96:	31 a7       	cmp/gt	r10,r1
  303e98:	89 01       	bt	303e9e <_dnsize+0x58>
  303e9a:	af f4       	bra	303e86 <_dnsize+0x40>
  303e9c:	79 01       	add	#1,r9
  303e9e:	84 8c       	mov.b	@(12,r8),r0
  303ea0:	61 0c       	extu.b	r0,r1
  303ea2:	85 8c       	mov.w	@(24,r8),r0
  303ea4:	68 0d       	extu.w	r0,r8
  303ea6:	38 1c       	add	r1,r8
  303ea8:	08 97       	mul.l	r9,r8
  303eaa:	02 1a       	sts	macl,r2
  303eac:	32 18       	sub	r1,r2
  303eae:	2b 22       	mov.l	r2,@r11
  303eb0:	7f 04       	add	#4,r15
  303eb2:	4f 26       	lds.l	@r15+,pr
  303eb4:	6e f6       	mov.l	@r15+,r14
  303eb6:	6d f6       	mov.l	@r15+,r13
  303eb8:	6c f6       	mov.l	@r15+,r12
  303eba:	6b f6       	mov.l	@r15+,r11
  303ebc:	6a f6       	mov.l	@r15+,r10
  303ebe:	69 f6       	mov.l	@r15+,r9
  303ec0:	00 0b       	rts	
  303ec2:	68 f6       	mov.l	@r15+,r8
  303ec4:	4d 0b       	jsr	@r13
  303ec6:	64 f3       	mov	r15,r4
  303ec8:	20 08       	tst	r0,r0
  303eca:	65 03       	mov	r0,r5
  303ecc:	84 8c       	mov.b	@(12,r8),r0
  303ece:	8d 12       	bt.s	303ef6 <_dnsize+0xb0>
  303ed0:	69 03       	mov	r0,r9
  303ed2:	4a 11       	cmp/pz	r10
  303ed4:	8f 03       	bf.s	303ede <_dnsize+0x98>
  303ed6:	62 f2       	mov.l	@r15,r2
  303ed8:	32 c8       	sub	r12,r2
  303eda:	32 a7       	cmp/gt	r10,r2
  303edc:	89 0b       	bt	303ef6 <_dnsize+0xb0>
  303ede:	d1 0a       	mov.l	303f08 <_dnsize+0xc2>,r1	! 303d08 <_topti_glyph_index>
  303ee0:	41 0b       	jsr	@r1
  303ee2:	64 83       	mov	r8,r4
  303ee4:	40 11       	cmp/pz	r0
  303ee6:	8f ed       	bf.s	303ec4 <_dnsize+0x7e>
  303ee8:	62 9c       	extu.b	r9,r2
  303eea:	53 87       	mov.l	@(28,r8),r3
  303eec:	09 3c       	mov.b	@(r0,r3),r9
  303eee:	69 9c       	extu.b	r9,r9
  303ef0:	39 2c       	add	r2,r9
  303ef2:	af e7       	bra	303ec4 <_dnsize+0x7e>
  303ef4:	3e 9c       	add	r9,r14
  303ef6:	69 9c       	extu.b	r9,r9
  303ef8:	61 e3       	mov	r14,r1
  303efa:	31 98       	sub	r9,r1
  303efc:	af d8       	bra	303eb0 <_dnsize+0x6a>
  303efe:	2b 12       	mov.l	r1,@r11
  303f00:	08 10       	.word 0x0810
  303f02:	18 dc       	mov.l	r13,@(48,r8)
  303f04:	00 30       	.word 0x0030
  303f06:	3d aa       	subc	r10,r13
  303f08:	00 30       	.word 0x0030
  303f0a:	3d 08       	sub	r0,r13

00303f0c <_dsize>:
  303f0c:	4f 22       	sts.l	pr,@-r15
  303f0e:	d1 05       	mov.l	303f24 <_dsize+0x18>,r1	! 303e46 <_dnsize>
  303f10:	7f fc       	add	#-4,r15
  303f12:	2f 72       	mov.l	r7,@r15
  303f14:	67 63       	mov	r6,r7
  303f16:	66 53       	mov	r5,r6
  303f18:	41 0b       	jsr	@r1
  303f1a:	e5 ff       	mov	#-1,r5
  303f1c:	7f 04       	add	#4,r15
  303f1e:	4f 26       	lds.l	@r15+,pr
  303f20:	00 0b       	rts	
  303f22:	00 09       	nop	
  303f24:	00 30       	.word 0x0030
  303f26:	3e 46       	cmp/hi	r4,r14

00303f28 <_drsize>:
  303f28:	2f 86       	mov.l	r8,@-r15
  303f2a:	25 58       	tst	r5,r5
  303f2c:	2f 96       	mov.l	r9,@-r15
  303f2e:	69 53       	mov	r5,r9
  303f30:	2f a6       	mov.l	r10,@-r15
  303f32:	6a 43       	mov	r4,r10
  303f34:	2f b6       	mov.l	r11,@-r15
  303f36:	6b 73       	mov	r7,r11
  303f38:	2f c6       	mov.l	r12,@-r15
  303f3a:	6c 63       	mov	r6,r12
  303f3c:	2f d6       	mov.l	r13,@-r15
  303f3e:	2f e6       	mov.l	r14,@-r15
  303f40:	4f 22       	sts.l	pr,@-r15
  303f42:	7f fc       	add	#-4,r15
  303f44:	8f 02       	bf.s	303f4c <_drsize+0x24>
  303f46:	2f 42       	mov.l	r4,@r15
  303f48:	d1 18       	mov.l	303fac <_drsize+0x84>,r1	! 81018dc <_topti_font>
  303f4a:	69 12       	mov.l	@r1,r9
  303f4c:	dd 18       	mov.l	303fb0 <_drsize+0x88>,r13	! 303daa <_topti_utf8_next>
  303f4e:	de 19       	mov.l	303fb4 <_drsize+0x8c>,r14	! 303d08 <_topti_glyph_index>
  303f50:	a0 11       	bra	303f76 <_drsize+0x4e>
  303f52:	e8 00       	mov	#0,r8
  303f54:	6a f2       	mov.l	@r15,r10
  303f56:	4d 0b       	jsr	@r13
  303f58:	64 f3       	mov	r15,r4
  303f5a:	20 08       	tst	r0,r0
  303f5c:	8d 0d       	bt.s	303f7a <_drsize+0x52>
  303f5e:	65 03       	mov	r0,r5
  303f60:	48 15       	cmp/pl	r8
  303f62:	8b 02       	bf	303f6a <_drsize+0x42>
  303f64:	84 9c       	mov.b	@(12,r9),r0
  303f66:	60 0c       	extu.b	r0,r0
  303f68:	38 0c       	add	r0,r8
  303f6a:	84 94       	mov.b	@(4,r9),r0
  303f6c:	c8 01       	tst	#1,r0
  303f6e:	8b 12       	bf	303f96 <_drsize+0x6e>
  303f70:	85 9c       	mov.w	@(24,r9),r0
  303f72:	60 0d       	extu.w	r0,r0
  303f74:	38 0c       	add	r0,r8
  303f76:	38 c3       	cmp/ge	r12,r8
  303f78:	8b ec       	bf	303f54 <_drsize+0x2c>
  303f7a:	2b b8       	tst	r11,r11
  303f7c:	89 00       	bt	303f80 <_drsize+0x58>
  303f7e:	2b 82       	mov.l	r8,@r11
  303f80:	60 a3       	mov	r10,r0
  303f82:	7f 04       	add	#4,r15
  303f84:	4f 26       	lds.l	@r15+,pr
  303f86:	6e f6       	mov.l	@r15+,r14
  303f88:	6d f6       	mov.l	@r15+,r13
  303f8a:	6c f6       	mov.l	@r15+,r12
  303f8c:	6b f6       	mov.l	@r15+,r11
  303f8e:	6a f6       	mov.l	@r15+,r10
  303f90:	69 f6       	mov.l	@r15+,r9
  303f92:	00 0b       	rts	
  303f94:	68 f6       	mov.l	@r15+,r8
  303f96:	4e 0b       	jsr	@r14
  303f98:	64 93       	mov	r9,r4
  303f9a:	40 11       	cmp/pz	r0
  303f9c:	8f ec       	bf.s	303f78 <_drsize+0x50>
  303f9e:	38 c3       	cmp/ge	r12,r8
  303fa0:	51 97       	mov.l	@(28,r9),r1
  303fa2:	01 1c       	mov.b	@(r0,r1),r1
  303fa4:	61 1c       	extu.b	r1,r1
  303fa6:	af e6       	bra	303f76 <_drsize+0x4e>
  303fa8:	38 1c       	add	r1,r8
  303faa:	00 09       	nop	
  303fac:	08 10       	.word 0x0810
  303fae:	18 dc       	mov.l	r13,@(48,r8)
  303fb0:	00 30       	.word 0x0030
  303fb2:	3d aa       	subc	r10,r13
  303fb4:	00 30       	.word 0x0030
  303fb6:	3d 08       	sub	r0,r13

00303fb8 <_stop_callback>:
  303fb8:	00 0b       	rts	
  303fba:	e0 01       	mov	#1,r0

00303fbc <_constructor>:
  303fbc:	00 0b       	rts	
  303fbe:	00 09       	nop	

00303fc0 <_hsave>:
  303fc0:	d1 1a       	mov.l	30402c <_hsave+0x6c>,r1	! a4490004
  303fc2:	e3 06       	mov	#6,r3
  303fc4:	60 10       	mov.b	@r1,r0
  303fc6:	61 43       	mov	r4,r1
  303fc8:	71 60       	add	#96,r1
  303fca:	80 1c       	mov.b	r0,@(12,r1)
  303fcc:	d0 18       	mov.l	304030 <_hsave+0x70>,r0	! a4490008
  303fce:	61 02       	mov.l	@r0,r1
  303fd0:	24 12       	mov.l	r1,@r4
  303fd2:	51 01       	mov.l	@(4,r0),r1
  303fd4:	85 04       	mov.w	@(8,r0),r0
  303fd6:	14 11       	mov.l	r1,@(4,r4)
  303fd8:	81 44       	mov.w	r0,@(8,r4)
  303fda:	d0 16       	mov.l	304034 <_hsave+0x74>,r0	! a4490014
  303fdc:	61 02       	mov.l	@r0,r1
  303fde:	14 13       	mov.l	r1,@(12,r4)
  303fe0:	51 01       	mov.l	@(4,r0),r1
  303fe2:	85 04       	mov.w	@(8,r0),r0
  303fe4:	14 14       	mov.l	r1,@(16,r4)
  303fe6:	81 4a       	mov.w	r0,@(20,r4)
  303fe8:	d0 13       	mov.l	304038 <_hsave+0x78>,r0	! a4490020
  303fea:	61 02       	mov.l	@r0,r1
  303fec:	14 16       	mov.l	r1,@(24,r4)
  303fee:	51 01       	mov.l	@(4,r0),r1
  303ff0:	85 04       	mov.w	@(8,r0),r0
  303ff2:	14 17       	mov.l	r1,@(28,r4)
  303ff4:	61 43       	mov	r4,r1
  303ff6:	71 20       	add	#32,r1
  303ff8:	81 10       	mov.w	r0,@(0,r1)
  303ffa:	74 24       	add	#36,r4
  303ffc:	d1 0f       	mov.l	30403c <_hsave+0x7c>,r1	! a44d0030
  303ffe:	52 11       	mov.l	@(4,r1),r2
  304000:	22 28       	tst	r2,r2
  304002:	e2 ff       	mov	#-1,r2
  304004:	89 00       	bt	304008 <_hsave+0x48>
  304006:	52 11       	mov.l	@(4,r1),r2
  304008:	57 12       	mov.l	@(8,r1),r7
  30400a:	24 22       	mov.l	r2,@r4
  30400c:	27 78       	tst	r7,r7
  30400e:	89 00       	bt	304012 <_hsave+0x52>
  304010:	52 12       	mov.l	@(8,r1),r2
  304012:	84 1c       	mov.b	@(12,r1),r0
  304014:	43 10       	dt	r3
  304016:	14 21       	mov.l	r2,@(4,r4)
  304018:	c9 0d       	and	#13,r0
  30401a:	81 44       	mov.w	r0,@(8,r4)
  30401c:	60 10       	mov.b	@r1,r0
  30401e:	71 20       	add	#32,r1
  304020:	60 0c       	extu.b	r0,r0
  304022:	81 45       	mov.w	r0,@(10,r4)
  304024:	8f eb       	bf.s	303ffe <_hsave+0x3e>
  304026:	74 0c       	add	#12,r4
  304028:	00 0b       	rts	
  30402a:	00 09       	nop	
  30402c:	a4 49       	bra	3048c2 <_dupdate+0xe>
  30402e:	00 04       	mov.b	r0,@(r0,r0)
  304030:	a4 49       	bra	3048c6 <_dupdate+0x12>
  304032:	00 08       	clrt	
  304034:	a4 49       	bra	3048ca <_dupdate+0x16>
  304036:	00 14       	mov.b	r1,@(r0,r0)
  304038:	a4 49       	bra	3048ce <_dupdate+0x1a>
  30403a:	00 20       	.word 0x0020
  30403c:	a4 4d       	bra	3048da <_dupdate+0x26>
  30403e:	00 30       	.word 0x0030

00304040 <_hrestore>:
  304040:	d1 1d       	mov.l	3040b8 <_hrestore+0x78>,r1	! a4490004
  304042:	e2 00       	mov	#0,r2
  304044:	e7 06       	mov	#6,r7
  304046:	21 20       	mov.b	r2,@r1
  304048:	62 42       	mov.l	@r4,r2
  30404a:	85 44       	mov.w	@(8,r4),r0
  30404c:	11 21       	mov.l	r2,@(4,r1)
  30404e:	52 41       	mov.l	@(4,r4),r2
  304050:	11 22       	mov.l	r2,@(8,r1)
  304052:	52 43       	mov.l	@(12,r4),r2
  304054:	81 16       	mov.w	r0,@(12,r1)
  304056:	71 10       	add	#16,r1
  304058:	21 22       	mov.l	r2,@r1
  30405a:	52 44       	mov.l	@(16,r4),r2
  30405c:	85 4a       	mov.w	@(20,r4),r0
  30405e:	11 21       	mov.l	r2,@(4,r1)
  304060:	52 46       	mov.l	@(24,r4),r2
  304062:	81 14       	mov.w	r0,@(8,r1)
  304064:	60 43       	mov	r4,r0
  304066:	11 23       	mov.l	r2,@(12,r1)
  304068:	70 20       	add	#32,r0
  30406a:	52 47       	mov.l	@(28,r4),r2
  30406c:	85 00       	mov.w	@(0,r0),r0
  30406e:	11 24       	mov.l	r2,@(16,r1)
  304070:	81 1a       	mov.w	r0,@(20,r1)
  304072:	62 43       	mov	r4,r2
  304074:	d1 11       	mov.l	3040bc <_hrestore+0x7c>,r1	! a44d0030
  304076:	72 24       	add	#36,r2
  304078:	63 22       	mov.l	@r2,r3
  30407a:	11 31       	mov.l	r3,@(4,r1)
  30407c:	56 11       	mov.l	@(4,r1),r6
  30407e:	33 60       	cmp/eq	r6,r3
  304080:	8b fb       	bf	30407a <_hrestore+0x3a>
  304082:	85 25       	mov.w	@(10,r2),r0
  304084:	21 00       	mov.b	r0,@r1
  304086:	53 21       	mov.l	@(4,r2),r3
  304088:	11 32       	mov.l	r3,@(8,r1)
  30408a:	56 12       	mov.l	@(8,r1),r6
  30408c:	33 60       	cmp/eq	r6,r3
  30408e:	8b fb       	bf	304088 <_hrestore+0x48>
  304090:	85 24       	mov.w	@(8,r2),r0
  304092:	66 0d       	extu.w	r0,r6
  304094:	63 0c       	extu.b	r0,r3
  304096:	60 33       	mov	r3,r0
  304098:	80 1c       	mov.b	r0,@(12,r1)
  30409a:	84 1c       	mov.b	@(12,r1),r0
  30409c:	60 0c       	extu.b	r0,r0
  30409e:	36 00       	cmp/eq	r0,r6
  3040a0:	8f fa       	bf.s	304098 <_hrestore+0x58>
  3040a2:	60 33       	mov	r3,r0
  3040a4:	47 10       	dt	r7
  3040a6:	72 0c       	add	#12,r2
  3040a8:	8f e6       	bf.s	304078 <_hrestore+0x38>
  3040aa:	71 20       	add	#32,r1
  3040ac:	74 60       	add	#96,r4
  3040ae:	d1 02       	mov.l	3040b8 <_hrestore+0x78>,r1	! a4490004
  3040b0:	84 4c       	mov.b	@(12,r4),r0
  3040b2:	21 00       	mov.b	r0,@r1
  3040b4:	00 0b       	rts	
  3040b6:	00 09       	nop	
  3040b8:	a4 49       	bra	30494e <_dvram_init+0x3a>
  3040ba:	00 04       	mov.b	r0,@(r0,r0)
  3040bc:	a4 4d       	bra	30495a <_dvram_init+0x46>
  3040be:	00 30       	.word 0x0030

003040c0 <_configure>:
  3040c0:	2f 86       	mov.l	r8,@-r15
  3040c2:	e6 0c       	mov	#12,r6
  3040c4:	2f 96       	mov.l	r9,@-r15
  3040c6:	2f a6       	mov.l	r10,@-r15
  3040c8:	2f b6       	mov.l	r11,@-r15
  3040ca:	2f c6       	mov.l	r12,@-r15
  3040cc:	2f d6       	mov.l	r13,@-r15
  3040ce:	2f e6       	mov.l	r14,@-r15
  3040d0:	4f 22       	sts.l	pr,@-r15
  3040d2:	d0 4b       	mov.l	304200 <_configure+0x140>,r0	! 309100 <_memcpy>
  3040d4:	7f f4       	add	#-12,r15
  3040d6:	d5 4b       	mov.l	304204 <_configure+0x144>,r5	! 30b570
  3040d8:	db 4b       	mov.l	304208 <_configure+0x148>,r11	! 3051a8 <_intc_handler>
  3040da:	40 0b       	jsr	@r0
  3040dc:	64 f3       	mov	r15,r4
  3040de:	d1 4b       	mov.l	30420c <_configure+0x14c>,r1	! a4490004
  3040e0:	e2 00       	mov	#0,r2
  3040e2:	d5 4b       	mov.l	304210 <_configure+0x150>,r5	! 30b1e0 <_inth_tmu>
  3040e4:	e6 60       	mov	#96,r6
  3040e6:	21 20       	mov.b	r2,@r1
  3040e8:	94 88       	mov.w	3041fc <_configure+0x13c>,r4	! 400
  3040ea:	4b 0b       	jsr	@r11
  3040ec:	00 09       	nop	
  3040ee:	d1 49       	mov.l	304214 <_configure+0x154>,r1	! a4490008
  3040f0:	e2 00       	mov	#0,r2
  3040f2:	60 23       	mov	r2,r0
  3040f4:	81 14       	mov.w	r0,@(8,r1)
  3040f6:	85 14       	mov.w	@(8,r1),r0
  3040f8:	20 08       	tst	r0,r0
  3040fa:	8f fb       	bf.s	3040f4 <_configure+0x34>
  3040fc:	60 23       	mov	r2,r0
  3040fe:	e2 ff       	mov	#-1,r2
  304100:	21 22       	mov.l	r2,@r1
  304102:	11 21       	mov.l	r2,@(4,r1)
  304104:	e2 00       	mov	#0,r2
  304106:	d1 44       	mov.l	304218 <_configure+0x158>,r1	! a4490014
  304108:	60 23       	mov	r2,r0
  30410a:	81 14       	mov.w	r0,@(8,r1)
  30410c:	85 14       	mov.w	@(8,r1),r0
  30410e:	20 08       	tst	r0,r0
  304110:	8f fb       	bf.s	30410a <_configure+0x4a>
  304112:	60 23       	mov	r2,r0
  304114:	e2 ff       	mov	#-1,r2
  304116:	21 22       	mov.l	r2,@r1
  304118:	11 21       	mov.l	r2,@(4,r1)
  30411a:	e2 00       	mov	#0,r2
  30411c:	d1 3f       	mov.l	30421c <_configure+0x15c>,r1	! a4490020
  30411e:	60 23       	mov	r2,r0
  304120:	81 14       	mov.w	r0,@(8,r1)
  304122:	85 14       	mov.w	@(8,r1),r0
  304124:	20 08       	tst	r0,r0
  304126:	8f fb       	bf.s	304120 <_configure+0x60>
  304128:	60 23       	mov	r2,r0
  30412a:	e2 ff       	mov	#-1,r2
  30412c:	21 22       	mov.l	r2,@r1
  30412e:	e3 00       	mov	#0,r3
  304130:	11 21       	mov.l	r2,@(4,r1)
  304132:	e7 ff       	mov	#-1,r7
  304134:	d1 3a       	mov.l	304220 <_configure+0x160>,r1	! a44d0030
  304136:	e2 06       	mov	#6,r2
  304138:	21 30       	mov.b	r3,@r1
  30413a:	11 71       	mov.l	r7,@(4,r1)
  30413c:	50 11       	mov.l	@(4,r1),r0
  30413e:	88 ff       	cmp/eq	#-1,r0
  304140:	8b fb       	bf	30413a <_configure+0x7a>
  304142:	11 72       	mov.l	r7,@(8,r1)
  304144:	50 12       	mov.l	@(8,r1),r0
  304146:	88 ff       	cmp/eq	#-1,r0
  304148:	8f fb       	bf.s	304142 <_configure+0x82>
  30414a:	60 33       	mov	r3,r0
  30414c:	80 1c       	mov.b	r0,@(12,r1)
  30414e:	84 1c       	mov.b	@(12,r1),r0
  304150:	20 08       	tst	r0,r0
  304152:	8f fb       	bf.s	30414c <_configure+0x8c>
  304154:	60 33       	mov	r3,r0
  304156:	42 10       	dt	r2
  304158:	8f ee       	bf.s	304138 <_configure+0x78>
  30415a:	71 20       	add	#32,r1
  30415c:	d5 31       	mov.l	304224 <_configure+0x164>,r5	! 30b160 <_inth_etmu4>
  30415e:	e6 60       	mov	#96,r6
  304160:	94 4d       	mov.w	3041fe <_configure+0x13e>,r4	! d00
  304162:	4b 0b       	jsr	@r11
  304164:	e9 03       	mov	#3,r9
  304166:	de 30       	mov.l	304228 <_configure+0x168>,r14	! 30b1c0 <_inth_etmux>
  304168:	6d 03       	mov	r0,r13
  30416a:	dc 30       	mov.l	30422c <_configure+0x16c>,r12	! 304fa6 <_cpu_getVBR>
  30416c:	6a f3       	mov	r15,r10
  30416e:	60 93       	mov	r9,r0
  304170:	88 07       	cmp/eq	#7,r0
  304172:	8d 18       	bt.s	3041a6 <_configure+0xe6>
  304174:	e6 20       	mov	#32,r6
  304176:	64 a1       	mov.w	@r10,r4
  304178:	65 e3       	mov	r14,r5
  30417a:	4b 0b       	jsr	@r11
  30417c:	64 4d       	extu.w	r4,r4
  30417e:	4c 0b       	jsr	@r12
  304180:	68 03       	mov	r0,r8
  304182:	51 85       	mov.l	@(20,r8),r1
  304184:	31 08       	sub	r0,r1
  304186:	60 93       	mov	r9,r0
  304188:	31 dc       	add	r13,r1
  30418a:	81 89       	mov.w	r0,@(18,r8)
  30418c:	18 15       	mov.l	r1,@(20,r8)
  30418e:	e1 14       	mov	#20,r1
  304190:	09 17       	mul.l	r1,r9
  304192:	51 86       	mov.l	@(24,r8),r1
  304194:	d0 26       	mov.l	304230 <_configure+0x170>,r0	! a44cffdc
  304196:	02 1a       	sts	macl,r2
  304198:	31 2c       	add	r2,r1
  30419a:	e2 05       	mov	#5,r2
  30419c:	18 16       	mov.l	r1,@(24,r8)
  30419e:	61 93       	mov	r9,r1
  3041a0:	41 2d       	shld	r2,r1
  3041a2:	31 0c       	add	r0,r1
  3041a4:	18 17       	mov.l	r1,@(28,r8)
  3041a6:	79 01       	add	#1,r9
  3041a8:	60 93       	mov	r9,r0
  3041aa:	88 09       	cmp/eq	#9,r0
  3041ac:	8f e0       	bf.s	304170 <_configure+0xb0>
  3041ae:	7a 02       	add	#2,r10
  3041b0:	d8 20       	mov.l	304234 <_configure+0x174>,r8	! 305134 <_intc_priority>
  3041b2:	e5 0d       	mov	#13,r5
  3041b4:	48 0b       	jsr	@r8
  3041b6:	e4 00       	mov	#0,r4
  3041b8:	e5 0b       	mov	#11,r5
  3041ba:	48 0b       	jsr	@r8
  3041bc:	e4 01       	mov	#1,r4
  3041be:	e5 09       	mov	#9,r5
  3041c0:	48 0b       	jsr	@r8
  3041c2:	e4 02       	mov	#2,r4
  3041c4:	e5 07       	mov	#7,r5
  3041c6:	48 0b       	jsr	@r8
  3041c8:	e4 03       	mov	#3,r4
  3041ca:	e5 07       	mov	#7,r5
  3041cc:	48 0b       	jsr	@r8
  3041ce:	e4 04       	mov	#4,r4
  3041d0:	e5 07       	mov	#7,r5
  3041d2:	48 0b       	jsr	@r8
  3041d4:	e4 05       	mov	#5,r4
  3041d6:	e5 07       	mov	#7,r5
  3041d8:	48 0b       	jsr	@r8
  3041da:	e4 06       	mov	#6,r4
  3041dc:	e5 07       	mov	#7,r5
  3041de:	48 0b       	jsr	@r8
  3041e0:	e4 07       	mov	#7,r4
  3041e2:	e5 07       	mov	#7,r5
  3041e4:	61 83       	mov	r8,r1
  3041e6:	e4 08       	mov	#8,r4
  3041e8:	7f 0c       	add	#12,r15
  3041ea:	4f 26       	lds.l	@r15+,pr
  3041ec:	6e f6       	mov.l	@r15+,r14
  3041ee:	6d f6       	mov.l	@r15+,r13
  3041f0:	6c f6       	mov.l	@r15+,r12
  3041f2:	6b f6       	mov.l	@r15+,r11
  3041f4:	6a f6       	mov.l	@r15+,r10
  3041f6:	69 f6       	mov.l	@r15+,r9
  3041f8:	41 2b       	jmp	@r1
  3041fa:	68 f6       	mov.l	@r15+,r8
  3041fc:	04 00       	.word 0x0400
  3041fe:	0d 00       	.word 0x0d00
  304200:	00 30       	.word 0x0030
  304202:	91 00       	mov.w	304206 <_configure+0x146>,r1	! b570
  304204:	00 30       	.word 0x0030
  304206:	b5 70       	bsr	304cea <_hsave+0xa>
  304208:	00 30       	.word 0x0030
  30420a:	51 a8       	mov.l	@(32,r10),r1
  30420c:	a4 49       	bra	304aa2 <_dtext_opt+0xb6>
  30420e:	00 04       	mov.b	r0,@(r0,r0)
  304210:	00 30       	.word 0x0030
  304212:	b1 e0       	bsr	3045d6 <_timer_stop+0x6e>
  304214:	a4 49       	bra	304aaa <_dtext_opt+0xbe>
  304216:	00 08       	clrt	
  304218:	a4 49       	bra	304aae <_dtext_opt+0xc2>
  30421a:	00 14       	mov.b	r1,@(r0,r0)
  30421c:	a4 49       	bra	304ab2 <_dtext_opt+0xc6>
  30421e:	00 20       	.word 0x0020
  304220:	a4 4d       	bra	304abe <_dtext_opt+0xd2>
  304222:	00 30       	.word 0x0030
  304224:	00 30       	.word 0x0030
  304226:	b1 60       	bsr	3044ea <_timer_configure+0x1d2>
  304228:	00 30       	.word 0x0030
  30422a:	b1 c0       	bsr	3045ae <_timer_stop+0x46>
  30422c:	00 30       	.word 0x0030
  30422e:	4f a6       	lds.l	@r15+,y0
  304230:	a4 4c       	bra	304acc <_dtext_opt+0xe0>
  304232:	ff dc       	.word 0xffdc
  304234:	00 30       	.word 0x0030
  304236:	51 34       	mov.l	@(16,r3),r1

00304238 <_timer_control>:
  304238:	e1 02       	mov	#2,r1
  30423a:	34 17       	cmp/gt	r1,r4
  30423c:	8d 0a       	bt.s	304254 <_timer_control+0x1c>
  30423e:	60 53       	mov	r5,r0
  304240:	d2 08       	mov.l	304264 <_timer_control+0x2c>,r2	! a4490004
  304242:	e1 01       	mov	#1,r1
  304244:	41 4d       	shld	r4,r1
  304246:	63 20       	mov.b	@r2,r3
  304248:	40 4d       	shld	r4,r0
  30424a:	21 3b       	or	r3,r1
  30424c:	21 0a       	xor	r0,r1
  30424e:	22 10       	mov.b	r1,@r2
  304250:	00 0b       	rts	
  304252:	00 09       	nop	
  304254:	e1 05       	mov	#5,r1
  304256:	44 1d       	shld	r1,r4
  304258:	d1 03       	mov.l	304268 <_timer_control+0x30>,r1	! a44cffd0
  30425a:	ca 01       	xor	#1,r0
  30425c:	34 1c       	add	r1,r4
  30425e:	24 00       	mov.b	r0,@r4
  304260:	00 0b       	rts	
  304262:	00 09       	nop	
  304264:	a4 49       	bra	304afa <_dtext_opt+0x10e>
  304266:	00 04       	mov.b	r0,@(r0,r0)
  304268:	a4 4c       	bra	304b04 <_dtext_opt+0x118>
  30426a:	ff d0       	.word 0xffd0

0030426c <_timer_delay>:
  30426c:	2f 86       	mov.l	r8,@-r15
  30426e:	e1 02       	mov	#2,r1
  304270:	2f 96       	mov.l	r9,@-r15
  304272:	34 17       	cmp/gt	r1,r4
  304274:	2f a6       	mov.l	r10,@-r15
  304276:	69 63       	mov	r6,r9
  304278:	4f 22       	sts.l	pr,@-r15
  30427a:	6a 53       	mov	r5,r10
  30427c:	8d 41       	bt.s	304302 <_timer_delay+0x96>
  30427e:	68 73       	mov	r7,r8
  304280:	d0 21       	mov.l	304308 <_timer_delay+0x9c>,r0	! 304cf4 <_clock_freq>
  304282:	40 0b       	jsr	@r0
  304284:	00 09       	nop	
  304286:	51 08       	mov.l	@(32,r0),r1
  304288:	62 13       	mov	r1,r2
  30428a:	42 00       	shll	r2
  30428c:	32 2a       	subc	r2,r2
  30428e:	28 88       	tst	r8,r8
  304290:	8f 18       	bf.s	3042c4 <_timer_delay+0x58>
  304292:	e0 1e       	mov	#30,r0
  304294:	63 23       	mov	r2,r3
  304296:	41 09       	shlr2	r1
  304298:	43 0d       	shld	r0,r3
  30429a:	21 3b       	or	r3,r1
  30429c:	42 09       	shlr2	r2
  30429e:	02 97       	mul.l	r9,r2
  3042a0:	d0 1a       	mov.l	30430c <_timer_delay+0xa0>,r0	! 30abd8 <___udivdi3>
  3042a2:	e6 00       	mov	#0,r6
  3042a4:	d7 1a       	mov.l	304310 <_timer_delay+0xa4>,r7	! f4240
  3042a6:	02 1a       	sts	macl,r2
  3042a8:	0a 17       	mul.l	r1,r10
  3042aa:	03 1a       	sts	macl,r3
  3042ac:	31 95       	dmulu.l	r9,r1
  3042ae:	32 3c       	add	r3,r2
  3042b0:	04 0a       	sts	mach,r4
  3042b2:	05 1a       	sts	macl,r5
  3042b4:	40 0b       	jsr	@r0
  3042b6:	34 2c       	add	r2,r4
  3042b8:	60 13       	mov	r1,r0
  3042ba:	4f 26       	lds.l	@r15+,pr
  3042bc:	6a f6       	mov.l	@r15+,r10
  3042be:	69 f6       	mov.l	@r15+,r9
  3042c0:	00 0b       	rts	
  3042c2:	68 f6       	mov.l	@r15+,r8
  3042c4:	60 83       	mov	r8,r0
  3042c6:	88 10       	cmp/eq	#16,r0
  3042c8:	8d 0c       	bt.s	3042e4 <_timer_delay+0x78>
  3042ca:	63 23       	mov	r2,r3
  3042cc:	88 20       	cmp/eq	#32,r0
  3042ce:	8d 10       	bt.s	3042f2 <_timer_delay+0x86>
  3042d0:	e3 fa       	mov	#-6,r3
  3042d2:	88 30       	cmp/eq	#48,r0
  3042d4:	8f e3       	bf.s	30429e <_timer_delay+0x32>
  3042d6:	63 23       	mov	r2,r3
  3042d8:	43 28       	shll16	r3
  3042da:	43 18       	shll8	r3
  3042dc:	41 19       	shlr8	r1
  3042de:	42 19       	shlr8	r2
  3042e0:	af dd       	bra	30429e <_timer_delay+0x32>
  3042e2:	21 3b       	or	r3,r1
  3042e4:	41 09       	shlr2	r1
  3042e6:	e7 1c       	mov	#28,r7
  3042e8:	41 09       	shlr2	r1
  3042ea:	43 7d       	shld	r7,r3
  3042ec:	21 3b       	or	r3,r1
  3042ee:	af d5       	bra	30429c <_timer_delay+0x30>
  3042f0:	42 09       	shlr2	r2
  3042f2:	e7 1a       	mov	#26,r7
  3042f4:	41 3d       	shld	r3,r1
  3042f6:	63 23       	mov	r2,r3
  3042f8:	e0 fa       	mov	#-6,r0
  3042fa:	43 7d       	shld	r7,r3
  3042fc:	21 3b       	or	r3,r1
  3042fe:	af ce       	bra	30429e <_timer_delay+0x32>
  304300:	42 0d       	shld	r0,r2
  304302:	d1 04       	mov.l	304314 <_timer_delay+0xa8>,r1	! 8000
  304304:	af cb       	bra	30429e <_timer_delay+0x32>
  304306:	e2 00       	mov	#0,r2
  304308:	00 30       	.word 0x0030
  30430a:	4c f4       	.word 0x4cf4
  30430c:	00 30       	.word 0x0030
  30430e:	ab d8       	bra	303ac2 <_configure+0x82>
  304310:	00 0f       	mac.l	@r0+,@r0+
  304312:	42 40       	.word 0x4240
  304314:	00 00       	.word 0x0000
  304316:	80 00       	mov.b	r0,@(0,r0)

00304318 <_timer_configure>:
  304318:	7f fc       	add	#-4,r15
  30431a:	27 78       	tst	r7,r7
  30431c:	2f 86       	mov.l	r8,@-r15
  30431e:	2f 96       	mov.l	r9,@-r15
  304320:	69 63       	mov	r6,r9
  304322:	2f a6       	mov.l	r10,@-r15
  304324:	2f b6       	mov.l	r11,@-r15
  304326:	6b 43       	mov	r4,r11
  304328:	2f c6       	mov.l	r12,@-r15
  30432a:	6c 53       	mov	r5,r12
  30432c:	2f d6       	mov.l	r13,@-r15
  30432e:	6d 73       	mov	r7,r13
  304330:	2f e6       	mov.l	r14,@-r15
  304332:	4f 22       	sts.l	pr,@-r15
  304334:	7f e8       	add	#-24,r15
  304336:	8f 07       	bf.s	304348 <_timer_configure+0x30>
  304338:	1f 7e       	mov.l	r7,@(56,r15)
  30433a:	d0 6f       	mov.l	3044f8 <_timer_configure+0x1e0>,r0	! 3091c0 <_memset>
  30433c:	e6 14       	mov	#20,r6
  30433e:	e5 00       	mov	#0,r5
  304340:	64 f3       	mov	r15,r4
  304342:	dd 6e       	mov.l	3044fc <_timer_configure+0x1e4>,r13	! 303fb8 <_stop_callback>
  304344:	40 0b       	jsr	@r0
  304346:	74 38       	add	#56,r4
  304348:	d4 6d       	mov.l	304500 <_timer_configure+0x1e8>,r4	! a4490004
  30434a:	60 b3       	mov	r11,r0
  30434c:	c9 0f       	and	#15,r0
  30434e:	e8 08       	mov	#8,r8
  304350:	2f 02       	mov.l	r0,@r15
  304352:	e1 02       	mov	#2,r1
  304354:	ee 0c       	mov	#12,r14
  304356:	e5 09       	mov	#9,r5
  304358:	4b 11       	cmp/pz	r11
  30435a:	8f 37       	bf.s	3043cc <_timer_configure+0xb4>
  30435c:	60 b3       	mov	r11,r0
  30435e:	60 f2       	mov.l	@r15,r0
  304360:	30 80       	cmp/eq	r8,r0
  304362:	8b 54       	bf	30440e <_timer_configure+0xf6>
  304364:	38 17       	cmp/gt	r1,r8
  304366:	8d 47       	bt.s	3043f8 <_timer_configure+0xe0>
  304368:	e3 05       	mov	#5,r3
  30436a:	08 e7       	mul.l	r14,r8
  30436c:	d2 65       	mov.l	304504 <_timer_configure+0x1ec>,r2	! a4490008
  30436e:	00 1a       	sts	macl,r0
  304370:	30 2c       	add	r2,r0
  304372:	85 04       	mov.w	@(8,r0),r0
  304374:	c8 20       	tst	#32,r0
  304376:	8b 4a       	bf	30440e <_timer_configure+0xf6>
  304378:	62 40       	mov.b	@r4,r2
  30437a:	63 8b       	neg	r8,r3
  30437c:	ea 01       	mov	#1,r10
  30437e:	62 2c       	extu.b	r2,r2
  304380:	42 3c       	shad	r3,r2
  304382:	60 23       	mov	r2,r0
  304384:	c8 01       	tst	#1,r0
  304386:	8f 42       	bf.s	30440e <_timer_configure+0xf6>
  304388:	2a 29       	and	r2,r10
  30438a:	4b 11       	cmp/pz	r11
  30438c:	8d 4e       	bt.s	30442c <_timer_configure+0x114>
  30438e:	3c a6       	cmp/hi	r10,r12
  304390:	8d 04       	bt.s	30439c <_timer_configure+0x84>
  304392:	2c c8       	tst	r12,r12
  304394:	d1 5c       	mov.l	304508 <_timer_configure+0x1f0>,r1	! 14dc9380
  304396:	39 16       	cmp/hi	r1,r9
  304398:	8f 10       	bf.s	3043bc <_timer_configure+0xa4>
  30439a:	2c c8       	tst	r12,r12
  30439c:	8f 05       	bf.s	3043aa <_timer_configure+0x92>
  30439e:	e1 01       	mov	#1,r1
  3043a0:	d1 5a       	mov.l	30450c <_timer_configure+0x1f4>,r1	! 553c1180
  3043a2:	39 16       	cmp/hi	r1,r9
  3043a4:	8f 0a       	bf.s	3043bc <_timer_configure+0xa4>
  3043a6:	ea 10       	mov	#16,r10
  3043a8:	e1 01       	mov	#1,r1
  3043aa:	3c 12       	cmp/hs	r1,r12
  3043ac:	8f 05       	bf.s	3043ba <_timer_configure+0xa2>
  3043ae:	3c 16       	cmp/hi	r1,r12
  3043b0:	8d 04       	bt.s	3043bc <_timer_configure+0xa4>
  3043b2:	ea 30       	mov	#48,r10
  3043b4:	d1 56       	mov.l	304510 <_timer_configure+0x1f8>,r1	! 54f04600
  3043b6:	39 16       	cmp/hi	r1,r9
  3043b8:	89 00       	bt	3043bc <_timer_configure+0xa4>
  3043ba:	ea 20       	mov	#32,r10
  3043bc:	d0 55       	mov.l	304514 <_timer_configure+0x1fc>,r0	! 30426c <_timer_delay>
  3043be:	66 93       	mov	r9,r6
  3043c0:	67 a3       	mov	r10,r7
  3043c2:	65 c3       	mov	r12,r5
  3043c4:	40 0b       	jsr	@r0
  3043c6:	64 83       	mov	r8,r4
  3043c8:	a0 35       	bra	304436 <_timer_configure+0x11e>
  3043ca:	69 03       	mov	r0,r9
  3043cc:	88 ff       	cmp/eq	#-1,r0
  3043ce:	8f 0c       	bf.s	3043ea <_timer_configure+0xd2>
  3043d0:	88 fe       	cmp/eq	#-2,r0
  3043d2:	31 83       	cmp/ge	r8,r1
  3043d4:	8d c6       	bt.s	304364 <_timer_configure+0x4c>
  3043d6:	e2 00       	mov	#0,r2
  3043d8:	66 c3       	mov	r12,r6
  3043da:	e3 63       	mov	#99,r3
  3043dc:	67 93       	mov	r9,r7
  3043de:	36 20       	cmp/eq	r2,r6
  3043e0:	8f 01       	bf.s	3043e6 <_timer_configure+0xce>
  3043e2:	36 26       	cmp/hi	r2,r6
  3043e4:	37 36       	cmp/hi	r3,r7
  3043e6:	af bc       	bra	304362 <_timer_configure+0x4a>
  3043e8:	00 09       	nop	
  3043ea:	8d ba       	bt.s	304362 <_timer_configure+0x4a>
  3043ec:	31 83       	cmp/ge	r8,r1
  3043ee:	88 fd       	cmp/eq	#-3,r0
  3043f0:	8f 0d       	bf.s	30440e <_timer_configure+0xf6>
  3043f2:	38 17       	cmp/gt	r1,r8
  3043f4:	af b5       	bra	304362 <_timer_configure+0x4a>
  3043f6:	00 09       	nop	
  3043f8:	d0 47       	mov.l	304518 <_timer_configure+0x200>,r0	! a44cffd0
  3043fa:	62 83       	mov	r8,r2
  3043fc:	42 3d       	shld	r3,r2
  3043fe:	32 0c       	add	r0,r2
  304400:	84 2c       	mov.b	@(12,r2),r0
  304402:	c8 01       	tst	#1,r0
  304404:	8b 03       	bf	30440e <_timer_configure+0xf6>
  304406:	62 20       	mov.b	@r2,r2
  304408:	22 28       	tst	r2,r2
  30440a:	8d 55       	bt.s	3044b8 <_timer_configure+0x1a0>
  30440c:	4b 11       	cmp/pz	r11
  30440e:	45 10       	dt	r5
  304410:	8f a2       	bf.s	304358 <_timer_configure+0x40>
  304412:	78 ff       	add	#-1,r8
  304414:	60 83       	mov	r8,r0
  304416:	7f 18       	add	#24,r15
  304418:	4f 26       	lds.l	@r15+,pr
  30441a:	6e f6       	mov.l	@r15+,r14
  30441c:	6d f6       	mov.l	@r15+,r13
  30441e:	6c f6       	mov.l	@r15+,r12
  304420:	6b f6       	mov.l	@r15+,r11
  304422:	6a f6       	mov.l	@r15+,r10
  304424:	69 f6       	mov.l	@r15+,r9
  304426:	68 f6       	mov.l	@r15+,r8
  304428:	00 0b       	rts	
  30442a:	7f 04       	add	#4,r15
  30442c:	60 b3       	mov	r11,r0
  30442e:	40 09       	shlr2	r0
  304430:	40 09       	shlr2	r0
  304432:	ea 0f       	mov	#15,r10
  304434:	2a 09       	and	r0,r10
  304436:	db 39       	mov.l	30451c <_timer_configure+0x204>,r11	! 309100 <_memcpy>
  304438:	e6 14       	mov	#20,r6
  30443a:	1f de       	mov.l	r13,@(56,r15)
  30443c:	65 f3       	mov	r15,r5
  30443e:	64 f3       	mov	r15,r4
  304440:	75 38       	add	#56,r5
  304442:	74 04       	add	#4,r4
  304444:	4b 0b       	jsr	@r11
  304446:	6c 93       	mov	r9,r12
  304448:	e1 02       	mov	#2,r1
  30444a:	38 17       	cmp/gt	r1,r8
  30444c:	8d 38       	bt.s	3044c0 <_timer_configure+0x1a8>
  30444e:	e2 05       	mov	#5,r2
  304450:	e1 0c       	mov	#12,r1
  304452:	d2 2c       	mov.l	304504 <_timer_configure+0x1ec>,r2	! a4490008
  304454:	08 17       	mul.l	r1,r8
  304456:	01 1a       	sts	macl,r1
  304458:	31 2c       	add	r2,r1
  30445a:	85 14       	mov.w	@(8,r1),r0
  30445c:	c8 20       	tst	#32,r0
  30445e:	8f d9       	bf.s	304414 <_timer_configure+0xfc>
  304460:	72 fc       	add	#-4,r2
  304462:	60 20       	mov.b	@r2,r0
  304464:	62 8b       	neg	r8,r2
  304466:	60 0c       	extu.b	r0,r0
  304468:	40 2c       	shad	r2,r0
  30446a:	c8 01       	tst	#1,r0
  30446c:	8f d3       	bf.s	304416 <_timer_configure+0xfe>
  30446e:	60 83       	mov	r8,r0
  304470:	21 92       	mov.l	r9,@r1
  304472:	e3 f8       	mov	#-8,r3
  304474:	11 91       	mov.l	r9,@(4,r1)
  304476:	85 14       	mov.w	@(8,r1),r0
  304478:	62 03       	mov	r0,r2
  30447a:	60 a3       	mov	r10,r0
  30447c:	22 39       	and	r3,r2
  30447e:	c9 07       	and	#7,r0
  304480:	20 2b       	or	r2,r0
  304482:	92 38       	mov.w	3044f6 <_timer_configure+0x1de>,r2	! feff
  304484:	81 14       	mov.w	r0,@(8,r1)
  304486:	85 14       	mov.w	@(8,r1),r0
  304488:	20 29       	and	r2,r0
  30448a:	81 14       	mov.w	r0,@(8,r1)
  30448c:	85 14       	mov.w	@(8,r1),r0
  30448e:	60 08       	swap.b	r0,r0
  304490:	c8 01       	tst	#1,r0
  304492:	8b f8       	bf	304486 <_timer_configure+0x16e>
  304494:	85 14       	mov.w	@(8,r1),r0
  304496:	e2 e7       	mov	#-25,r2
  304498:	cb 20       	or	#32,r0
  30449a:	81 14       	mov.w	r0,@(8,r1)
  30449c:	85 14       	mov.w	@(8,r1),r0
  30449e:	20 29       	and	r2,r0
  3044a0:	81 14       	mov.w	r0,@(8,r1)
  3044a2:	e1 14       	mov	#20,r1
  3044a4:	d4 1e       	mov.l	304520 <_timer_configure+0x208>,r4	! 810150c <_tmu_callbacks>
  3044a6:	08 17       	mul.l	r1,r8
  3044a8:	65 f3       	mov	r15,r5
  3044aa:	e6 14       	mov	#20,r6
  3044ac:	75 04       	add	#4,r5
  3044ae:	01 1a       	sts	macl,r1
  3044b0:	4b 0b       	jsr	@r11
  3044b2:	34 1c       	add	r1,r4
  3044b4:	af af       	bra	304416 <_timer_configure+0xfe>
  3044b6:	60 83       	mov	r8,r0
  3044b8:	8d bd       	bt.s	304436 <_timer_configure+0x11e>
  3044ba:	ea 00       	mov	#0,r10
  3044bc:	af 7e       	bra	3043bc <_timer_configure+0xa4>
  3044be:	00 09       	nop	
  3044c0:	d3 15       	mov.l	304518 <_timer_configure+0x200>,r3	! a44cffd0
  3044c2:	61 83       	mov	r8,r1
  3044c4:	41 2d       	shld	r2,r1
  3044c6:	31 3c       	add	r3,r1
  3044c8:	84 1c       	mov.b	@(12,r1),r0
  3044ca:	c8 01       	tst	#1,r0
  3044cc:	8f a2       	bf.s	304414 <_timer_configure+0xfc>
  3044ce:	e2 fd       	mov	#-3,r2
  3044d0:	84 1c       	mov.b	@(12,r1),r0
  3044d2:	20 29       	and	r2,r0
  3044d4:	80 1c       	mov.b	r0,@(12,r1)
  3044d6:	84 1c       	mov.b	@(12,r1),r0
  3044d8:	c8 02       	tst	#2,r0
  3044da:	8b f9       	bf	3044d0 <_timer_configure+0x1b8>
  3044dc:	11 c1       	mov.l	r12,@(4,r1)
  3044de:	52 11       	mov.l	@(4,r1),r2
  3044e0:	3c 20       	cmp/eq	r2,r12
  3044e2:	8b fb       	bf	3044dc <_timer_configure+0x1c4>
  3044e4:	11 c2       	mov.l	r12,@(8,r1)
  3044e6:	52 12       	mov.l	@(8,r1),r2
  3044e8:	3c 20       	cmp/eq	r2,r12
  3044ea:	8b fb       	bf	3044e4 <_timer_configure+0x1cc>
  3044ec:	84 1c       	mov.b	@(12,r1),r0
  3044ee:	cb 01       	or	#1,r0
  3044f0:	80 1c       	mov.b	r0,@(12,r1)
  3044f2:	af d7       	bra	3044a4 <_timer_configure+0x18c>
  3044f4:	e1 14       	mov	#20,r1
  3044f6:	fe ff       	.word 0xfeff
  3044f8:	00 30       	.word 0x0030
  3044fa:	91 c0       	mov.w	30467e <_timer_spinwait+0x2a>,r1	! 4f26
  3044fc:	00 30       	.word 0x0030
  3044fe:	3f b8       	sub	r11,r15
  304500:	a4 49       	bra	304d96 <_cpg_set_overclock_setting+0x4e>
  304502:	00 04       	mov.b	r0,@(r0,r0)
  304504:	a4 49       	bra	304d9a <_cpg_set_overclock_setting+0x52>
  304506:	00 08       	clrt	
  304508:	14 dc       	mov.l	r13,@(48,r4)
  30450a:	93 80       	mov.w	30460e <_timer_wait+0x2e>,r3	! 6af6
  30450c:	55 3c       	mov.l	@(48,r3),r5
  30450e:	11 80       	mov.l	r8,@(0,r1)
  304510:	54 f0       	mov.l	@(0,r15),r4
  304512:	46 00       	shll	r6
  304514:	00 30       	.word 0x0030
  304516:	42 6c       	shad	r6,r2
  304518:	a4 4c       	bra	304db4 <_cpg_set_overclock_setting+0x6c>
  30451a:	ff d0       	.word 0xffd0
  30451c:	00 30       	.word 0x0030
  30451e:	91 00       	mov.w	304522 <_timer_configure+0x20a>,r1	! 150c
  304520:	08 10       	.word 0x0810
  304522:	15 0c       	mov.l	r0,@(48,r5)

00304524 <_timer_start>:
  304524:	d1 01       	mov.l	30452c <_timer_start+0x8>,r1	! 304238 <_timer_control>
  304526:	41 2b       	jmp	@r1
  304528:	e5 00       	mov	#0,r5
  30452a:	00 09       	nop	
  30452c:	00 30       	.word 0x0030
  30452e:	42 38       	.word 0x4238

00304530 <_timer_reload>:
  304530:	e1 02       	mov	#2,r1
  304532:	34 17       	cmp/gt	r1,r4
  304534:	8d 08       	bt.s	304548 <_timer_reload+0x18>
  304536:	e1 05       	mov	#5,r1
  304538:	e1 0c       	mov	#12,r1
  30453a:	d2 06       	mov.l	304554 <_timer_reload+0x24>,r2	! a4490008
  30453c:	04 17       	mul.l	r1,r4
  30453e:	01 1a       	sts	macl,r1
  304540:	31 2c       	add	r2,r1
  304542:	21 52       	mov.l	r5,@r1
  304544:	00 0b       	rts	
  304546:	00 09       	nop	
  304548:	d2 03       	mov.l	304558 <_timer_reload+0x28>,r2	! a44cffd0
  30454a:	44 1d       	shld	r1,r4
  30454c:	34 2c       	add	r2,r4
  30454e:	14 51       	mov.l	r5,@(4,r4)
  304550:	00 0b       	rts	
  304552:	00 09       	nop	
  304554:	a4 49       	bra	304dea <_clock_get_speed+0x22>
  304556:	00 08       	clrt	
  304558:	a4 4c       	bra	304df4 <_clock_get_speed+0x2c>
  30455a:	ff d0       	.word 0xffd0

0030455c <_timer_pause>:
  30455c:	d1 01       	mov.l	304564 <_timer_pause+0x8>,r1	! 304238 <_timer_control>
  30455e:	41 2b       	jmp	@r1
  304560:	e5 01       	mov	#1,r5
  304562:	00 09       	nop	
  304564:	00 30       	.word 0x0030
  304566:	42 38       	.word 0x4238

00304568 <_timer_stop>:
  304568:	d1 1a       	mov.l	3045d4 <_timer_stop+0x6c>,r1	! 30455c <_timer_pause>
  30456a:	2f 86       	mov.l	r8,@-r15
  30456c:	4f 22       	sts.l	pr,@-r15
  30456e:	41 0b       	jsr	@r1
  304570:	68 43       	mov	r4,r8
  304572:	e1 02       	mov	#2,r1
  304574:	38 17       	cmp/gt	r1,r8
  304576:	8d 13       	bt.s	3045a0 <_timer_stop+0x38>
  304578:	e1 05       	mov	#5,r1
  30457a:	e1 0c       	mov	#12,r1
  30457c:	d2 16       	mov.l	3045d8 <_timer_stop+0x70>,r2	! a4490008
  30457e:	08 17       	mul.l	r1,r8
  304580:	01 1a       	sts	macl,r1
  304582:	31 2c       	add	r2,r1
  304584:	85 14       	mov.w	@(8,r1),r0
  304586:	e2 df       	mov	#-33,r2
  304588:	20 29       	and	r2,r0
  30458a:	92 22       	mov.w	3045d2 <_timer_stop+0x6a>,r2	! feff
  30458c:	81 14       	mov.w	r0,@(8,r1)
  30458e:	85 14       	mov.w	@(8,r1),r0
  304590:	20 29       	and	r2,r0
  304592:	81 14       	mov.w	r0,@(8,r1)
  304594:	e2 ff       	mov	#-1,r2
  304596:	21 22       	mov.l	r2,@r1
  304598:	11 21       	mov.l	r2,@(4,r1)
  30459a:	4f 26       	lds.l	@r15+,pr
  30459c:	00 0b       	rts	
  30459e:	68 f6       	mov.l	@r15+,r8
  3045a0:	d4 0e       	mov.l	3045dc <_timer_stop+0x74>,r4	! a44cffd0
  3045a2:	48 1d       	shld	r1,r8
  3045a4:	34 8c       	add	r8,r4
  3045a6:	84 4c       	mov.b	@(12,r4),r0
  3045a8:	e1 ff       	mov	#-1,r1
  3045aa:	c9 fe       	and	#254,r0
  3045ac:	80 4c       	mov.b	r0,@(12,r4)
  3045ae:	14 11       	mov.l	r1,@(4,r4)
  3045b0:	50 41       	mov.l	@(4,r4),r0
  3045b2:	88 ff       	cmp/eq	#-1,r0
  3045b4:	8b fb       	bf	3045ae <_timer_stop+0x46>
  3045b6:	e1 ff       	mov	#-1,r1
  3045b8:	14 12       	mov.l	r1,@(8,r4)
  3045ba:	50 42       	mov.l	@(8,r4),r0
  3045bc:	88 ff       	cmp/eq	#-1,r0
  3045be:	8b fb       	bf	3045b8 <_timer_stop+0x50>
  3045c0:	e1 fd       	mov	#-3,r1
  3045c2:	84 4c       	mov.b	@(12,r4),r0
  3045c4:	20 19       	and	r1,r0
  3045c6:	80 4c       	mov.b	r0,@(12,r4)
  3045c8:	84 4c       	mov.b	@(12,r4),r0
  3045ca:	c8 02       	tst	#2,r0
  3045cc:	8b f9       	bf	3045c2 <_timer_stop+0x5a>
  3045ce:	af e4       	bra	30459a <_timer_stop+0x32>
  3045d0:	00 09       	nop	
  3045d2:	fe ff       	.word 0xfeff
  3045d4:	00 30       	.word 0x0030
  3045d6:	45 5c       	shad	r5,r5
  3045d8:	a4 49       	bra	304e6e <_clock_set_speed+0xa>
  3045da:	00 08       	clrt	
  3045dc:	a4 4c       	bra	304e78 <_clock_set_speed+0x14>
  3045de:	ff d0       	.word 0xffd0

003045e0 <_timer_wait>:
  3045e0:	2f 86       	mov.l	r8,@-r15
  3045e2:	e1 02       	mov	#2,r1
  3045e4:	2f 96       	mov.l	r9,@-r15
  3045e6:	34 17       	cmp/gt	r1,r4
  3045e8:	2f a6       	mov.l	r10,@-r15
  3045ea:	2f b6       	mov.l	r11,@-r15
  3045ec:	8d 1a       	bt.s	304624 <_timer_wait+0x44>
  3045ee:	4f 22       	sts.l	pr,@-r15
  3045f0:	e1 0c       	mov	#12,r1
  3045f2:	da 14       	mov.l	304644 <_timer_wait+0x64>,r10	! a4490004
  3045f4:	04 17       	mul.l	r1,r4
  3045f6:	db 14       	mov.l	304648 <_timer_wait+0x68>,r11	! 305000 <_sleep>
  3045f8:	e8 01       	mov	#1,r8
  3045fa:	d1 14       	mov.l	30464c <_timer_wait+0x6c>,r1	! a4490008
  3045fc:	48 4d       	shld	r4,r8
  3045fe:	09 1a       	sts	macl,r9
  304600:	39 1c       	add	r1,r9
  304602:	61 a0       	mov.b	@r10,r1
  304604:	62 8c       	extu.b	r8,r2
  304606:	22 18       	tst	r1,r2
  304608:	8b 05       	bf	304616 <_timer_wait+0x36>
  30460a:	4f 26       	lds.l	@r15+,pr
  30460c:	6b f6       	mov.l	@r15+,r11
  30460e:	6a f6       	mov.l	@r15+,r10
  304610:	69 f6       	mov.l	@r15+,r9
  304612:	00 0b       	rts	
  304614:	68 f6       	mov.l	@r15+,r8
  304616:	85 94       	mov.w	@(8,r9),r0
  304618:	c8 20       	tst	#32,r0
  30461a:	89 f2       	bt	304602 <_timer_wait+0x22>
  30461c:	4b 0b       	jsr	@r11
  30461e:	00 09       	nop	
  304620:	af ef       	bra	304602 <_timer_wait+0x22>
  304622:	00 09       	nop	
  304624:	d8 0a       	mov.l	304650 <_timer_wait+0x70>,r8	! a44cffd0
  304626:	e1 05       	mov	#5,r1
  304628:	d9 07       	mov.l	304648 <_timer_wait+0x68>,r9	! 305000 <_sleep>
  30462a:	44 1d       	shld	r1,r4
  30462c:	38 4c       	add	r4,r8
  30462e:	61 80       	mov.b	@r8,r1
  304630:	21 18       	tst	r1,r1
  304632:	89 ea       	bt	30460a <_timer_wait+0x2a>
  304634:	84 8c       	mov.b	@(12,r8),r0
  304636:	c8 01       	tst	#1,r0
  304638:	89 f9       	bt	30462e <_timer_wait+0x4e>
  30463a:	49 0b       	jsr	@r9
  30463c:	00 09       	nop	
  30463e:	af f6       	bra	30462e <_timer_wait+0x4e>
  304640:	00 09       	nop	
  304642:	00 09       	nop	
  304644:	a4 49       	bra	304eda <_clock_set_speed+0x76>
  304646:	00 04       	mov.b	r0,@(r0,r0)
  304648:	00 30       	.word 0x0030
  30464a:	50 00       	mov.l	@(0,r0),r0
  30464c:	a4 49       	bra	304ee2 <_clock_set_speed+0x7e>
  30464e:	00 08       	clrt	
  304650:	a4 4c       	bra	304eec <_clock_set_speed+0x88>
  304652:	ff d0       	.word 0xffd0

00304654 <_timer_spinwait>:
  304654:	2f 86       	mov.l	r8,@-r15
  304656:	e1 02       	mov	#2,r1
  304658:	34 17       	cmp/gt	r1,r4
  30465a:	8d 13       	bt.s	304684 <_timer_spinwait+0x30>
  30465c:	4f 22       	sts.l	pr,@-r15
  30465e:	e1 0c       	mov	#12,r1
  304660:	04 17       	mul.l	r1,r4
  304662:	d1 12       	mov.l	3046ac <_timer_spinwait+0x58>,r1	! a4490008
  304664:	08 1a       	sts	macl,r8
  304666:	38 1c       	add	r1,r8
  304668:	85 84       	mov.w	@(8,r8),r0
  30466a:	e1 df       	mov	#-33,r1
  30466c:	20 19       	and	r1,r0
  30466e:	d1 10       	mov.l	3046b0 <_timer_spinwait+0x5c>,r1	! 304524 <_timer_start>
  304670:	81 84       	mov.w	r0,@(8,r8)
  304672:	41 0b       	jsr	@r1
  304674:	00 09       	nop	
  304676:	85 84       	mov.w	@(8,r8),r0
  304678:	60 08       	swap.b	r0,r0
  30467a:	c8 01       	tst	#1,r0
  30467c:	89 fb       	bt	304676 <_timer_spinwait+0x22>
  30467e:	4f 26       	lds.l	@r15+,pr
  304680:	00 0b       	rts	
  304682:	68 f6       	mov.l	@r15+,r8
  304684:	e1 05       	mov	#5,r1
  304686:	68 43       	mov	r4,r8
  304688:	48 1d       	shld	r1,r8
  30468a:	d1 0a       	mov.l	3046b4 <_timer_spinwait+0x60>,r1	! a44cffd0
  30468c:	38 1c       	add	r1,r8
  30468e:	e1 fe       	mov	#-2,r1
  304690:	84 8c       	mov.b	@(12,r8),r0
  304692:	20 19       	and	r1,r0
  304694:	80 8c       	mov.b	r0,@(12,r8)
  304696:	84 8c       	mov.b	@(12,r8),r0
  304698:	c8 01       	tst	#1,r0
  30469a:	8b f9       	bf	304690 <_timer_spinwait+0x3c>
  30469c:	d1 04       	mov.l	3046b0 <_timer_spinwait+0x5c>,r1	! 304524 <_timer_start>
  30469e:	41 0b       	jsr	@r1
  3046a0:	00 09       	nop	
  3046a2:	84 8c       	mov.b	@(12,r8),r0
  3046a4:	c8 02       	tst	#2,r0
  3046a6:	89 fc       	bt	3046a2 <_timer_spinwait+0x4e>
  3046a8:	af e9       	bra	30467e <_timer_spinwait+0x2a>
  3046aa:	00 09       	nop	
  3046ac:	a4 49       	bra	304f42 <_cpu_atomic_start+0x32>
  3046ae:	00 08       	clrt	
  3046b0:	00 30       	.word 0x0030
  3046b2:	45 24       	rotcl	r5
  3046b4:	a4 4c       	bra	304f50 <_cpu_atomic_start+0x40>
  3046b6:	ff d0       	.word 0xffd0

003046b8 <_timer_rescale>:
  3046b8:	2f 86       	mov.l	r8,@-r15
  3046ba:	2f 96       	mov.l	r9,@-r15
  3046bc:	69 53       	mov	r5,r9
  3046be:	2f a6       	mov.l	r10,@-r15
  3046c0:	6a 43       	mov	r4,r10
  3046c2:	2f b6       	mov.l	r11,@-r15
  3046c4:	2f c6       	mov.l	r12,@-r15
  3046c6:	d8 13       	mov.l	304714 <_timer_rescale+0x5c>,r8	! a4490008
  3046c8:	db 13       	mov.l	304718 <_timer_rescale+0x60>,r11	! 30abd8 <___udivdi3>
  3046ca:	dc 14       	mov.l	30471c <_timer_rescale+0x64>,r12	! a449002c
  3046cc:	4f 22       	sts.l	pr,@-r15
  3046ce:	50 81       	mov.l	@(4,r8),r0
  3046d0:	88 ff       	cmp/eq	#-1,r0
  3046d2:	8b 02       	bf	3046da <_timer_rescale+0x22>
  3046d4:	60 82       	mov.l	@r8,r0
  3046d6:	88 ff       	cmp/eq	#-1,r0
  3046d8:	89 12       	bt	304700 <_timer_rescale+0x48>
  3046da:	60 82       	mov.l	@r8,r0
  3046dc:	88 ff       	cmp/eq	#-1,r0
  3046de:	89 07       	bt	3046f0 <_timer_rescale+0x38>
  3046e0:	61 82       	mov.l	@r8,r1
  3046e2:	e6 00       	mov	#0,r6
  3046e4:	67 a3       	mov	r10,r7
  3046e6:	31 95       	dmulu.l	r9,r1
  3046e8:	05 1a       	sts	macl,r5
  3046ea:	4b 0b       	jsr	@r11
  3046ec:	04 0a       	sts	mach,r4
  3046ee:	28 12       	mov.l	r1,@r8
  3046f0:	51 81       	mov.l	@(4,r8),r1
  3046f2:	e6 00       	mov	#0,r6
  3046f4:	67 a3       	mov	r10,r7
  3046f6:	31 95       	dmulu.l	r9,r1
  3046f8:	05 1a       	sts	macl,r5
  3046fa:	4b 0b       	jsr	@r11
  3046fc:	04 0a       	sts	mach,r4
  3046fe:	18 11       	mov.l	r1,@(4,r8)
  304700:	78 0c       	add	#12,r8
  304702:	38 c0       	cmp/eq	r12,r8
  304704:	8b e3       	bf	3046ce <_timer_rescale+0x16>
  304706:	4f 26       	lds.l	@r15+,pr
  304708:	6c f6       	mov.l	@r15+,r12
  30470a:	6b f6       	mov.l	@r15+,r11
  30470c:	6a f6       	mov.l	@r15+,r10
  30470e:	69 f6       	mov.l	@r15+,r9
  304710:	00 0b       	rts	
  304712:	68 f6       	mov.l	@r15+,r8
  304714:	a4 49       	bra	304faa <_cpu_getVBR+0x4>
  304716:	00 08       	clrt	
  304718:	00 30       	.word 0x0030
  30471a:	ab d8       	bra	303ece <_dnsize+0x88>
  30471c:	a4 49       	bra	304fb2 <_cpu_setCPUOPM+0x6>
  30471e:	00 2c       	mov.b	@(r0,r2),r0

00304720 <_timer_setup>:
  304720:	2f 86       	mov.l	r8,@-r15
  304722:	e1 40       	mov	#64,r1
  304724:	2f 96       	mov.l	r9,@-r15
  304726:	68 43       	mov	r4,r8
  304728:	2f a6       	mov.l	r10,@-r15
  30472a:	69 63       	mov	r6,r9
  30472c:	2f b6       	mov.l	r11,@-r15
  30472e:	6a 53       	mov	r5,r10
  304730:	2f c6       	mov.l	r12,@-r15
  304732:	6b 73       	mov	r7,r11
  304734:	4f 22       	sts.l	pr,@-r15
  304736:	d0 10       	mov.l	304778 <_timer_setup+0x58>,r0	! 3091c0 <_memset>
  304738:	7f d8       	add	#-40,r15
  30473a:	31 fc       	add	r15,r1
  30473c:	64 f3       	mov	r15,r4
  30473e:	5c 10       	mov.l	@(0,r1),r12
  304740:	e6 0c       	mov	#12,r6
  304742:	1f 14       	mov.l	r1,@(16,r15)
  304744:	e5 00       	mov	#0,r5
  304746:	40 0b       	jsr	@r0
  304748:	74 1c       	add	#28,r4
  30474a:	d0 0c       	mov.l	30477c <_timer_setup+0x5c>,r0	! 309100 <_memcpy>
  30474c:	64 f3       	mov	r15,r4
  30474e:	1f b5       	mov.l	r11,@(20,r15)
  304750:	e6 10       	mov	#16,r6
  304752:	1f c6       	mov.l	r12,@(24,r15)
  304754:	65 f3       	mov	r15,r5
  304756:	40 0b       	jsr	@r0
  304758:	75 18       	add	#24,r5
  30475a:	d0 09       	mov.l	304780 <_timer_setup+0x60>,r0	! 304318 <_timer_configure>
  30475c:	65 a3       	mov	r10,r5
  30475e:	57 f5       	mov.l	@(20,r15),r7
  304760:	66 93       	mov	r9,r6
  304762:	40 0b       	jsr	@r0
  304764:	64 83       	mov	r8,r4
  304766:	7f 28       	add	#40,r15
  304768:	4f 26       	lds.l	@r15+,pr
  30476a:	6c f6       	mov.l	@r15+,r12
  30476c:	6b f6       	mov.l	@r15+,r11
  30476e:	6a f6       	mov.l	@r15+,r10
  304770:	69 f6       	mov.l	@r15+,r9
  304772:	00 0b       	rts	
  304774:	68 f6       	mov.l	@r15+,r8
  304776:	00 09       	nop	
  304778:	00 30       	.word 0x0030
  30477a:	91 c0       	mov.w	3048fe <_dupdate+0x4a>,r1	! 9
  30477c:	00 30       	.word 0x0030
  30477e:	91 00       	mov.w	304782 <_timer_setup+0x62>,r1	! 4318
  304780:	00 30       	.word 0x0030
  304782:	43 18       	shll8	r3

00304784 <_timer_timeout>:
  304784:	24 48       	tst	r4,r4
  304786:	89 02       	bt	30478e <_timer_timeout+0xa>
  304788:	61 42       	mov.l	@r4,r1
  30478a:	71 01       	add	#1,r1
  30478c:	24 12       	mov.l	r1,@r4
  30478e:	00 0b       	rts	
  304790:	e0 01       	mov	#1,r0
  304792:	00 09       	nop	

00304794 <_dclear>:
  304794:	d1 03       	mov.l	3047a4 <_dclear+0x10>,r1	! 81015c0 <_gint_vram>
  304796:	65 4d       	extu.w	r4,r5
  304798:	d0 03       	mov.l	3047a8 <_dclear+0x14>,r0	! 30505c <_dma_memset>
  30479a:	44 28       	shll16	r4
  30479c:	25 4b       	or	r4,r5
  30479e:	d6 03       	mov.l	3047ac <_dclear+0x18>,r6	! 2b500
  3047a0:	40 2b       	jmp	@r0
  3047a2:	64 12       	mov.l	@r1,r4
  3047a4:	08 10       	.word 0x0810
  3047a6:	15 c0       	mov.l	r12,@(0,r5)
  3047a8:	00 30       	.word 0x0030
  3047aa:	50 5c       	mov.l	@(48,r5),r0
  3047ac:	00 02       	stc	sr,r0
  3047ae:	b5 00       	bsr	3051b2 <_intc_handler+0xa>

003047b0 <_drect>:
  3047b0:	2f 86       	mov.l	r8,@-r15
  3047b2:	2f 96       	mov.l	r9,@-r15
  3047b4:	2f a6       	mov.l	r10,@-r15
  3047b6:	50 f3       	mov.l	@(12,r15),r0
  3047b8:	88 ff       	cmp/eq	#-1,r0
  3047ba:	8d 3e       	bt.s	30483a <_drect+0x8a>
  3047bc:	34 67       	cmp/gt	r6,r4
  3047be:	8f 03       	bf.s	3047c8 <_drect+0x18>
  3047c0:	35 77       	cmp/gt	r7,r5
  3047c2:	61 43       	mov	r4,r1
  3047c4:	64 63       	mov	r6,r4
  3047c6:	66 13       	mov	r1,r6
  3047c8:	8f 02       	bf.s	3047d0 <_drect+0x20>
  3047ca:	61 53       	mov	r5,r1
  3047cc:	65 73       	mov	r7,r5
  3047ce:	67 13       	mov	r1,r7
  3047d0:	91 6a       	mov.w	3048a8 <_drect+0xf8>,r1	! 18b
  3047d2:	34 17       	cmp/gt	r1,r4
  3047d4:	89 31       	bt	30483a <_drect+0x8a>
  3047d6:	61 63       	mov	r6,r1
  3047d8:	21 7b       	or	r7,r1
  3047da:	41 11       	cmp/pz	r1
  3047dc:	8b 2d       	bf	30483a <_drect+0x8a>
  3047de:	91 64       	mov.w	3048aa <_drect+0xfa>,r1	! df
  3047e0:	35 17       	cmp/gt	r1,r5
  3047e2:	8d 2a       	bt.s	30483a <_drect+0x8a>
  3047e4:	44 11       	cmp/pz	r4
  3047e6:	89 00       	bt	3047ea <_drect+0x3a>
  3047e8:	e4 00       	mov	#0,r4
  3047ea:	91 5d       	mov.w	3048a8 <_drect+0xf8>,r1	! 18b
  3047ec:	36 17       	cmp/gt	r1,r6
  3047ee:	8b 00       	bf	3047f2 <_drect+0x42>
  3047f0:	66 13       	mov	r1,r6
  3047f2:	45 11       	cmp/pz	r5
  3047f4:	89 00       	bt	3047f8 <_drect+0x48>
  3047f6:	e5 00       	mov	#0,r5
  3047f8:	91 58       	mov.w	3048ac <_drect+0xfc>,r1	! 318
  3047fa:	05 17       	mul.l	r1,r5
  3047fc:	d1 2c       	mov.l	3048b0 <_drect+0x100>,r1	! 81015c0 <_gint_vram>
  3047fe:	02 1a       	sts	macl,r2
  304800:	61 12       	mov.l	@r1,r1
  304802:	31 2c       	add	r2,r1
  304804:	92 51       	mov.w	3048aa <_drect+0xfa>,r2	! df
  304806:	37 27       	cmp/gt	r2,r7
  304808:	8b 00       	bf	30480c <_drect+0x5c>
  30480a:	67 23       	mov	r2,r7
  30480c:	37 58       	sub	r5,r7
  30480e:	62 43       	mov	r4,r2
  304810:	e5 fe       	mov	#-2,r5
  304812:	68 63       	mov	r6,r8
  304814:	72 01       	add	#1,r2
  304816:	25 29       	and	r2,r5
  304818:	78 01       	add	#1,r8
  30481a:	63 53       	mov	r5,r3
  30481c:	e2 fe       	mov	#-2,r2
  30481e:	22 89       	and	r8,r2
  304820:	32 58       	sub	r5,r2
  304822:	42 21       	shar	r2
  304824:	33 3c       	add	r3,r3
  304826:	88 fe       	cmp/eq	#-2,r0
  304828:	77 01       	add	#1,r7
  30482a:	33 1c       	add	r1,r3
  30482c:	34 4c       	add	r4,r4
  30482e:	8f 08       	bf.s	304842 <_drect+0x92>
  304830:	36 6c       	add	r6,r6
  304832:	77 01       	add	#1,r7
  304834:	47 10       	dt	r7
  304836:	8f 1b       	bf.s	304870 <_drect+0xc0>
  304838:	42 11       	cmp/pz	r2
  30483a:	6a f6       	mov.l	@r15+,r10
  30483c:	69 f6       	mov.l	@r15+,r9
  30483e:	00 0b       	rts	
  304840:	68 f6       	mov.l	@r15+,r8
  304842:	68 03       	mov	r0,r8
  304844:	48 28       	shll16	r8
  304846:	28 0b       	or	r0,r8
  304848:	6a 0d       	extu.w	r0,r10
  30484a:	77 01       	add	#1,r7
  30484c:	47 10       	dt	r7
  30484e:	8d f4       	bt.s	30483a <_drect+0x8a>
  304850:	42 11       	cmp/pz	r2
  304852:	60 43       	mov	r4,r0
  304854:	01 a5       	mov.w	r10,@(r0,r1)
  304856:	60 63       	mov	r6,r0
  304858:	01 a5       	mov.w	r10,@(r0,r1)
  30485a:	65 23       	mov	r2,r5
  30485c:	69 33       	mov	r3,r9
  30485e:	75 01       	add	#1,r5
  304860:	89 00       	bt	304864 <_drect+0xb4>
  304862:	e5 01       	mov	#1,r5
  304864:	45 10       	dt	r5
  304866:	8b 1c       	bf	3048a2 <_drect+0xf2>
  304868:	95 20       	mov.w	3048ac <_drect+0xfc>,r5	! 318
  30486a:	33 5c       	add	r5,r3
  30486c:	af ee       	bra	30484c <_drect+0x9c>
  30486e:	31 5c       	add	r5,r1
  304870:	60 43       	mov	r4,r0
  304872:	05 1d       	mov.w	@(r0,r1),r5
  304874:	65 57       	not	r5,r5
  304876:	01 55       	mov.w	r5,@(r0,r1)
  304878:	60 63       	mov	r6,r0
  30487a:	05 1d       	mov.w	@(r0,r1),r5
  30487c:	65 57       	not	r5,r5
  30487e:	01 55       	mov.w	r5,@(r0,r1)
  304880:	65 23       	mov	r2,r5
  304882:	60 33       	mov	r3,r0
  304884:	75 01       	add	#1,r5
  304886:	89 00       	bt	30488a <_drect+0xda>
  304888:	e5 01       	mov	#1,r5
  30488a:	45 10       	dt	r5
  30488c:	8b 03       	bf	304896 <_drect+0xe6>
  30488e:	90 0d       	mov.w	3048ac <_drect+0xfc>,r0	! 318
  304890:	33 0c       	add	r0,r3
  304892:	af cf       	bra	304834 <_drect+0x84>
  304894:	31 0c       	add	r0,r1
  304896:	68 06       	mov.l	@r0+,r8
  304898:	69 03       	mov	r0,r9
  30489a:	79 c0       	add	#-64,r9
  30489c:	68 87       	not	r8,r8
  30489e:	af f4       	bra	30488a <_drect+0xda>
  3048a0:	19 8f       	mov.l	r8,@(60,r9)
  3048a2:	29 82       	mov.l	r8,@r9
  3048a4:	af de       	bra	304864 <_drect+0xb4>
  3048a6:	79 04       	add	#4,r9
  3048a8:	01 8b       	.word 0x018b
  3048aa:	00 df       	mac.l	@r13+,@r0+
  3048ac:	03 18       	.word 0x0318
  3048ae:	00 09       	nop	
  3048b0:	08 10       	.word 0x0810
  3048b2:	15 c0       	mov.l	r12,@(0,r5)

003048b4 <_dupdate>:
  3048b4:	4f 22       	sts.l	pr,@-r15
  3048b6:	d1 12       	mov.l	304900 <_dupdate+0x4c>,r1	! 3049ac <_dgetvram>
  3048b8:	7f e4       	add	#-28,r15
  3048ba:	64 f3       	mov	r15,r4
  3048bc:	65 f3       	mov	r15,r5
  3048be:	41 0b       	jsr	@r1
  3048c0:	75 04       	add	#4,r5
  3048c2:	62 f2       	mov.l	@r15,r2
  3048c4:	e5 00       	mov	#0,r5
  3048c6:	51 f1       	mov.l	@(4,r15),r1
  3048c8:	96 18       	mov.w	3048fc <_dupdate+0x48>,r6	! e0
  3048ca:	32 10       	cmp/eq	r1,r2
  3048cc:	d1 0d       	mov.l	304904 <_dupdate+0x50>,r1	! 81015c0 <_gint_vram>
  3048ce:	64 12       	mov.l	@r1,r4
  3048d0:	d1 0d       	mov.l	304908 <_dupdate+0x54>,r1	! 306884 <_r61524_display>
  3048d2:	41 0b       	jsr	@r1
  3048d4:	07 29       	movt	r7
  3048d6:	d1 0d       	mov.l	30490c <_dupdate+0x58>,r1	! 306660 <_dupdate_get_hook>
  3048d8:	62 f3       	mov	r15,r2
  3048da:	41 0b       	jsr	@r1
  3048dc:	72 08       	add	#8,r2
  3048de:	50 f2       	mov.l	@(8,r15),r0
  3048e0:	20 08       	tst	r0,r0
  3048e2:	8d 04       	bt.s	3048ee <_dupdate+0x3a>
  3048e4:	57 f6       	mov.l	@(24,r15),r7
  3048e6:	56 f5       	mov.l	@(20,r15),r6
  3048e8:	55 f4       	mov.l	@(16,r15),r5
  3048ea:	40 0b       	jsr	@r0
  3048ec:	54 f3       	mov.l	@(12,r15),r4
  3048ee:	d1 08       	mov.l	304910 <_dupdate+0x5c>,r1	! 3049cc <_dvram_switch>
  3048f0:	41 0b       	jsr	@r1
  3048f2:	00 09       	nop	
  3048f4:	7f 1c       	add	#28,r15
  3048f6:	4f 26       	lds.l	@r15+,pr
  3048f8:	00 0b       	rts	
  3048fa:	00 09       	nop	
  3048fc:	00 e0       	.word 0x00e0
  3048fe:	00 09       	nop	
  304900:	00 30       	.word 0x0030
  304902:	49 ac       	shad	r10,r9
  304904:	08 10       	.word 0x0810
  304906:	15 c0       	mov.l	r12,@(0,r5)
  304908:	00 30       	.word 0x0030
  30490a:	68 84       	mov.b	@r8+,r8
  30490c:	00 30       	.word 0x0030
  30490e:	66 60       	mov.b	@r6,r6
  304910:	00 30       	.word 0x0030
  304912:	49 cc       	shad	r12,r9

00304914 <_dvram_init>:
  304914:	d0 0d       	mov.l	30494c <_dvram_init+0x38>,r0	! 309250 <_malloc>
  304916:	d4 0e       	mov.l	304950 <_dvram_init+0x3c>,r4	! 2b560
  304918:	4f 22       	sts.l	pr,@-r15
  30491a:	40 0b       	jsr	@r0
  30491c:	00 09       	nop	
  30491e:	20 08       	tst	r0,r0
  304920:	8d 10       	bt.s	304944 <_dvram_init+0x30>
  304922:	e1 00       	mov	#0,r1
  304924:	e2 e0       	mov	#-32,r2
  304926:	61 03       	mov	r0,r1
  304928:	71 1f       	add	#31,r1
  30492a:	21 29       	and	r2,r1
  30492c:	d2 09       	mov.l	304954 <_dvram_init+0x40>,r2	! 1fffffff
  30492e:	71 20       	add	#32,r1
  304930:	21 29       	and	r2,r1
  304932:	d2 09       	mov.l	304958 <_dvram_init+0x44>,r2	! a0000000
  304934:	21 2b       	or	r2,r1
  304936:	d2 09       	mov.l	30495c <_dvram_init+0x48>,r2	! 81015c8 <_vram_1>
  304938:	22 12       	mov.l	r1,@r2
  30493a:	d2 09       	mov.l	304960 <_dvram_init+0x4c>,r2	! 81015c4 <_vram_2>
  30493c:	22 12       	mov.l	r1,@r2
  30493e:	d2 09       	mov.l	304964 <_dvram_init+0x50>,r2	! 81015c0 <_gint_vram>
  304940:	22 12       	mov.l	r1,@r2
  304942:	e1 01       	mov	#1,r1
  304944:	60 13       	mov	r1,r0
  304946:	4f 26       	lds.l	@r15+,pr
  304948:	00 0b       	rts	
  30494a:	00 09       	nop	
  30494c:	00 30       	.word 0x0030
  30494e:	92 50       	mov.w	3049f2 <_dtext_opt+0x6>,r2	! 2fa6
  304950:	00 02       	stc	sr,r0
  304952:	b5 60       	bsr	305416 <_kinit+0x146>
  304954:	1f ff       	mov.l	r15,@(60,r15)
  304956:	ff ff       	.word 0xffff
  304958:	a0 00       	bra	30495c <_dvram_init+0x48>
  30495a:	00 00       	.word 0x0000
  30495c:	08 10       	.word 0x0810
  30495e:	15 c8       	mov.l	r12,@(32,r5)
  304960:	08 10       	.word 0x0810
  304962:	15 c4       	mov.l	r12,@(16,r5)
  304964:	08 10       	.word 0x0810
  304966:	15 c0       	mov.l	r12,@(0,r5)

00304968 <_dsetvram>:
  304968:	61 43       	mov	r4,r1
  30496a:	21 5b       	or	r5,r1
  30496c:	21 18       	tst	r1,r1
  30496e:	8d 0e       	bt.s	30498e <_dsetvram+0x26>
  304970:	24 48       	tst	r4,r4
  304972:	8d 0e       	bt.s	304992 <_dsetvram+0x2a>
  304974:	25 58       	tst	r5,r5
  304976:	8b 00       	bf	30497a <_dsetvram+0x12>
  304978:	65 43       	mov	r4,r5
  30497a:	d1 09       	mov.l	3049a0 <_dsetvram+0x38>,r1	! 81015c0 <_gint_vram>
  30497c:	d3 09       	mov.l	3049a4 <_dsetvram+0x3c>,r3	! 81015c8 <_vram_1>
  30497e:	67 12       	mov.l	@r1,r7
  304980:	62 32       	mov.l	@r3,r2
  304982:	37 20       	cmp/eq	r2,r7
  304984:	d2 08       	mov.l	3049a8 <_dsetvram+0x40>,r2	! 81015c4 <_vram_2>
  304986:	8b 06       	bf	304996 <_dsetvram+0x2e>
  304988:	21 42       	mov.l	r4,@r1
  30498a:	23 42       	mov.l	r4,@r3
  30498c:	22 52       	mov.l	r5,@r2
  30498e:	00 0b       	rts	
  304990:	00 09       	nop	
  304992:	af f2       	bra	30497a <_dsetvram+0x12>
  304994:	64 53       	mov	r5,r4
  304996:	66 22       	mov.l	@r2,r6
  304998:	37 60       	cmp/eq	r6,r7
  30499a:	8b f6       	bf	30498a <_dsetvram+0x22>
  30499c:	af f5       	bra	30498a <_dsetvram+0x22>
  30499e:	21 52       	mov.l	r5,@r1
  3049a0:	08 10       	.word 0x0810
  3049a2:	15 c0       	mov.l	r12,@(0,r5)
  3049a4:	08 10       	.word 0x0810
  3049a6:	15 c8       	mov.l	r12,@(32,r5)
  3049a8:	08 10       	.word 0x0810
  3049aa:	15 c4       	mov.l	r12,@(16,r5)

003049ac <_dgetvram>:
  3049ac:	24 48       	tst	r4,r4
  3049ae:	8d 03       	bt.s	3049b8 <_dgetvram+0xc>
  3049b0:	25 58       	tst	r5,r5
  3049b2:	d1 04       	mov.l	3049c4 <_dgetvram+0x18>,r1	! 81015c8 <_vram_1>
  3049b4:	61 12       	mov.l	@r1,r1
  3049b6:	24 12       	mov.l	r1,@r4
  3049b8:	89 02       	bt	3049c0 <_dgetvram+0x14>
  3049ba:	d1 03       	mov.l	3049c8 <_dgetvram+0x1c>,r1	! 81015c4 <_vram_2>
  3049bc:	61 12       	mov.l	@r1,r1
  3049be:	25 12       	mov.l	r1,@r5
  3049c0:	00 0b       	rts	
  3049c2:	00 09       	nop	
  3049c4:	08 10       	.word 0x0810
  3049c6:	15 c8       	mov.l	r12,@(32,r5)
  3049c8:	08 10       	.word 0x0810
  3049ca:	15 c4       	mov.l	r12,@(16,r5)

003049cc <_dvram_switch>:
  3049cc:	d1 04       	mov.l	3049e0 <_dvram_switch+0x14>,r1	! 81015c8 <_vram_1>
  3049ce:	d2 05       	mov.l	3049e4 <_dvram_switch+0x18>,r2	! 81015c0 <_gint_vram>
  3049d0:	61 12       	mov.l	@r1,r1
  3049d2:	63 22       	mov.l	@r2,r3
  3049d4:	33 10       	cmp/eq	r1,r3
  3049d6:	8b 01       	bf	3049dc <_dvram_switch+0x10>
  3049d8:	d1 03       	mov.l	3049e8 <_dvram_switch+0x1c>,r1	! 81015c4 <_vram_2>
  3049da:	61 12       	mov.l	@r1,r1
  3049dc:	00 0b       	rts	
  3049de:	22 12       	mov.l	r1,@r2
  3049e0:	08 10       	.word 0x0810
  3049e2:	15 c8       	mov.l	r12,@(32,r5)
  3049e4:	08 10       	.word 0x0810
  3049e6:	15 c0       	mov.l	r12,@(0,r5)
  3049e8:	08 10       	.word 0x0810
  3049ea:	15 c4       	mov.l	r12,@(16,r5)

003049ec <_dtext_opt>:
  3049ec:	2f 86       	mov.l	r8,@-r15
  3049ee:	e0 40       	mov	#64,r0
  3049f0:	2f 96       	mov.l	r9,@-r15
  3049f2:	2f a6       	mov.l	r10,@-r15
  3049f4:	6a 73       	mov	r7,r10
  3049f6:	2f b6       	mov.l	r11,@-r15
  3049f8:	6b 43       	mov	r4,r11
  3049fa:	2f c6       	mov.l	r12,@-r15
  3049fc:	2f d6       	mov.l	r13,@-r15
  3049fe:	2f e6       	mov.l	r14,@-r15
  304a00:	4f 22       	sts.l	pr,@-r15
  304a02:	7f cc       	add	#-52,r15
  304a04:	d9 70       	mov.l	304bc8 <_dtext_opt+0x1dc>,r9	! 81018dc <_topti_font>
  304a06:	30 fc       	add	r15,r0
  304a08:	1f 64       	mov.l	r6,@(16,r15)
  304a0a:	5d 05       	mov.l	@(20,r0),r13
  304a0c:	58 06       	mov.l	@(24,r0),r8
  304a0e:	63 d3       	mov	r13,r3
  304a10:	23 8b       	or	r8,r3
  304a12:	23 38       	tst	r3,r3
  304a14:	8d 1a       	bt.s	304a4c <_dtext_opt+0x60>
  304a16:	6c 53       	mov	r5,r12
  304a18:	63 f3       	mov	r15,r3
  304a1a:	73 30       	add	#48,r3
  304a1c:	2f 32       	mov.l	r3,@r15
  304a1e:	67 f3       	mov	r15,r7
  304a20:	d3 6a       	mov.l	304bcc <_dtext_opt+0x1e0>,r3	! 303e46 <_dnsize>
  304a22:	77 2c       	add	#44,r7
  304a24:	55 08       	mov.l	@(32,r0),r5
  304a26:	54 07       	mov.l	@(28,r0),r4
  304a28:	43 0b       	jsr	@r3
  304a2a:	66 92       	mov.l	@r9,r6
  304a2c:	60 d3       	mov	r13,r0
  304a2e:	88 02       	cmp/eq	#2,r0
  304a30:	89 01       	bt	304a36 <_dtext_opt+0x4a>
  304a32:	a0 80       	bra	304b36 <_dtext_opt+0x14a>
  304a34:	88 01       	cmp/eq	#1,r0
  304a36:	53 fb       	mov.l	@(44,r15),r3
  304a38:	3b 38       	sub	r3,r11
  304a3a:	7b 01       	add	#1,r11
  304a3c:	60 83       	mov	r8,r0
  304a3e:	88 02       	cmp/eq	#2,r0
  304a40:	89 01       	bt	304a46 <_dtext_opt+0x5a>
  304a42:	a0 7e       	bra	304b42 <_dtext_opt+0x156>
  304a44:	88 01       	cmp/eq	#1,r0
  304a46:	53 fc       	mov.l	@(48,r15),r3
  304a48:	3c 38       	sub	r3,r12
  304a4a:	7c 01       	add	#1,r12
  304a4c:	e0 5c       	mov	#92,r0
  304a4e:	93 b6       	mov.w	304bbe <_dtext_opt+0x1d2>,r3	! 18b
  304a50:	01 fe       	mov.l	@(r0,r15),r1
  304a52:	3b 37       	cmp/gt	r3,r11
  304a54:	69 92       	mov.l	@r9,r9
  304a56:	8d 3b       	bt.s	304ad0 <_dtext_opt+0xe4>
  304a58:	1f 1c       	mov.l	r1,@(48,r15)
  304a5a:	93 b1       	mov.w	304bc0 <_dtext_opt+0x1d4>,r3	! df
  304a5c:	3c 37       	cmp/gt	r3,r12
  304a5e:	89 37       	bt	304ad0 <_dtext_opt+0xe4>
  304a60:	84 96       	mov.b	@(6,r9),r0
  304a62:	67 c3       	mov	r12,r7
  304a64:	68 0c       	extu.b	r0,r8
  304a66:	37 8c       	add	r8,r7
  304a68:	47 15       	cmp/pl	r7
  304a6a:	8b 31       	bf	304ad0 <_dtext_opt+0xe4>
  304a6c:	73 01       	add	#1,r3
  304a6e:	37 37       	cmp/gt	r3,r7
  304a70:	8f 02       	bf.s	304a78 <_dtext_opt+0x8c>
  304a72:	e2 00       	mov	#0,r2
  304a74:	68 33       	mov	r3,r8
  304a76:	38 c8       	sub	r12,r8
  304a78:	4c 11       	cmp/pz	r12
  304a7a:	8d 04       	bt.s	304a86 <_dtext_opt+0x9a>
  304a7c:	1f 25       	mov.l	r2,@(20,r15)
  304a7e:	61 cb       	neg	r12,r1
  304a80:	38 cc       	add	r12,r8
  304a82:	1f 15       	mov.l	r1,@(20,r15)
  304a84:	ec 00       	mov	#0,r12
  304a86:	d3 52       	mov.l	304bd0 <_dtext_opt+0x1e4>,r3	! 81015c0 <_gint_vram>
  304a88:	4a 11       	cmp/pz	r10
  304a8a:	52 95       	mov.l	@(20,r9),r2
  304a8c:	63 32       	mov.l	@r3,r3
  304a8e:	1f 26       	mov.l	r2,@(24,r15)
  304a90:	02 29       	movt	r2
  304a92:	1f 37       	mov.l	r3,@(28,r15)
  304a94:	93 95       	mov.w	304bc2 <_dtext_opt+0x1d6>,r3	! 318
  304a96:	1f 2a       	mov.l	r2,@(40,r15)
  304a98:	0c 37       	mul.l	r3,r12
  304a9a:	53 f4       	mov.l	@(16,r15),r3
  304a9c:	01 1a       	sts	macl,r1
  304a9e:	43 28       	shll16	r3
  304aa0:	23 ab       	or	r10,r3
  304aa2:	1f 18       	mov.l	r1,@(32,r15)
  304aa4:	e1 00       	mov	#0,r1
  304aa6:	1f 39       	mov.l	r3,@(36,r15)
  304aa8:	de 4a       	mov.l	304bd4 <_dtext_opt+0x1e8>,r14	! 303daa <_topti_utf8_next>
  304aaa:	dd 4b       	mov.l	304bd8 <_dtext_opt+0x1ec>,r13	! 303d08 <_topti_glyph_index>
  304aac:	1f 13       	mov.l	r1,@(12,r15)
  304aae:	64 f3       	mov	r15,r4
  304ab0:	4e 0b       	jsr	@r14
  304ab2:	74 30       	add	#48,r4
  304ab4:	20 08       	tst	r0,r0
  304ab6:	51 f3       	mov.l	@(12,r15),r1
  304ab8:	8d 0a       	bt.s	304ad0 <_dtext_opt+0xe4>
  304aba:	65 03       	mov	r0,r5
  304abc:	e0 60       	mov	#96,r0
  304abe:	02 fe       	mov.l	@(r0,r15),r2
  304ac0:	42 11       	cmp/pz	r2
  304ac2:	8f 07       	bf.s	304ad4 <_dtext_opt+0xe8>
  304ac4:	e0 5c       	mov	#92,r0
  304ac6:	53 fc       	mov.l	@(48,r15),r3
  304ac8:	00 fe       	mov.l	@(r0,r15),r0
  304aca:	33 08       	sub	r0,r3
  304acc:	32 33       	cmp/ge	r3,r2
  304ace:	89 01       	bt	304ad4 <_dtext_opt+0xe8>
  304ad0:	a0 8e       	bra	304bf0 <_dtext_opt+0x204>
  304ad2:	00 09       	nop	
  304ad4:	1f 13       	mov.l	r1,@(12,r15)
  304ad6:	4d 0b       	jsr	@r13
  304ad8:	64 93       	mov	r9,r4
  304ada:	40 11       	cmp/pz	r0
  304adc:	51 f3       	mov.l	@(12,r15),r1
  304ade:	8f e5       	bf.s	304aac <_dtext_opt+0xc0>
  304ae0:	63 03       	mov	r0,r3
  304ae2:	84 94       	mov.b	@(4,r9),r0
  304ae4:	c8 01       	tst	#1,r0
  304ae6:	8d 32       	bt.s	304b4e <_dtext_opt+0x162>
  304ae8:	60 33       	mov	r3,r0
  304aea:	56 97       	mov.l	@(28,r9),r6
  304aec:	0e 6c       	mov.b	@(r0,r6),r14
  304aee:	6e ec       	extu.b	r14,r14
  304af0:	21 18       	tst	r1,r1
  304af2:	6d 13       	mov	r1,r13
  304af4:	8d 10       	bt.s	304b18 <_dtext_opt+0x12c>
  304af6:	3d bc       	add	r11,r13
  304af8:	51 fa       	mov.l	@(40,r15),r1
  304afa:	67 1c       	extu.b	r1,r7
  304afc:	27 78       	tst	r7,r7
  304afe:	8d 0b       	bt.s	304b18 <_dtext_opt+0x12c>
  304b00:	67 c3       	mov	r12,r7
  304b02:	d2 36       	mov.l	304bdc <_dtext_opt+0x1f0>,r2	! 3047b0 <_drect>
  304b04:	37 8c       	add	r8,r7
  304b06:	1f 33       	mov.l	r3,@(12,r15)
  304b08:	2f a2       	mov.l	r10,@r15
  304b0a:	77 ff       	add	#-1,r7
  304b0c:	66 d3       	mov	r13,r6
  304b0e:	65 c3       	mov	r12,r5
  304b10:	76 ff       	add	#-1,r6
  304b12:	42 0b       	jsr	@r2
  304b14:	64 b3       	mov	r11,r4
  304b16:	53 f3       	mov.l	@(12,r15),r3
  304b18:	92 51       	mov.w	304bbe <_dtext_opt+0x1d2>,r2	! 18b
  304b1a:	3d 27       	cmp/gt	r2,r13
  304b1c:	8d 68       	bt.s	304bf0 <_dtext_opt+0x204>
  304b1e:	65 33       	mov	r3,r5
  304b20:	d0 2f       	mov.l	304be0 <_dtext_opt+0x1f4>,r0	! 303d52 <_topti_offset>
  304b22:	64 93       	mov	r9,r4
  304b24:	6b e3       	mov	r14,r11
  304b26:	40 0b       	jsr	@r0
  304b28:	3b dc       	add	r13,r11
  304b2a:	4b 15       	cmp/pl	r11
  304b2c:	8d 12       	bt.s	304b54 <_dtext_opt+0x168>
  304b2e:	65 03       	mov	r0,r5
  304b30:	84 9c       	mov.b	@(12,r9),r0
  304b32:	af b9       	bra	304aa8 <_dtext_opt+0xbc>
  304b34:	61 0c       	extu.b	r0,r1
  304b36:	8b 02       	bf	304b3e <_dtext_opt+0x152>
  304b38:	53 fb       	mov.l	@(44,r15),r3
  304b3a:	43 21       	shar	r3
  304b3c:	3b 38       	sub	r3,r11
  304b3e:	af 7e       	bra	304a3e <_dtext_opt+0x52>
  304b40:	60 83       	mov	r8,r0
  304b42:	8f 02       	bf.s	304b4a <_dtext_opt+0x15e>
  304b44:	53 fc       	mov.l	@(48,r15),r3
  304b46:	43 21       	shar	r3
  304b48:	3c 38       	sub	r3,r12
  304b4a:	af 80       	bra	304a4e <_dtext_opt+0x62>
  304b4c:	e0 5c       	mov	#92,r0
  304b4e:	85 9c       	mov.w	@(24,r9),r0
  304b50:	af ce       	bra	304af0 <_dtext_opt+0x104>
  304b52:	6e 0d       	extu.w	r0,r14
  304b54:	4d 11       	cmp/pz	r13
  304b56:	8d 24       	bt.s	304ba2 <_dtext_opt+0x1b6>
  304b58:	e6 00       	mov	#0,r6
  304b5a:	66 db       	neg	r13,r6
  304b5c:	63 b3       	mov	r11,r3
  304b5e:	97 31       	mov.w	304bc4 <_dtext_opt+0x1d8>,r7	! 18c
  304b60:	64 33       	mov	r3,r4
  304b62:	34 dc       	add	r13,r4
  304b64:	34 77       	cmp/gt	r7,r4
  304b66:	8f 02       	bf.s	304b6e <_dtext_opt+0x182>
  304b68:	52 f5       	mov.l	@(20,r15),r2
  304b6a:	63 73       	mov	r7,r3
  304b6c:	33 d8       	sub	r13,r3
  304b6e:	45 08       	shll2	r5
  304b70:	51 f6       	mov.l	@(24,r15),r1
  304b72:	3d dc       	add	r13,r13
  304b74:	0e 27       	mul.l	r2,r14
  304b76:	35 1c       	add	r1,r5
  304b78:	51 f8       	mov.l	@(32,r15),r1
  304b7a:	54 f7       	mov.l	@(28,r15),r4
  304b7c:	4a 11       	cmp/pz	r10
  304b7e:	07 1a       	sts	macl,r7
  304b80:	3d 1c       	add	r1,r13
  304b82:	3e 38       	sub	r3,r14
  304b84:	37 6c       	add	r6,r7
  304b86:	36 6c       	add	r6,r6
  304b88:	3d 6c       	add	r6,r13
  304b8a:	8d 0c       	bt.s	304ba6 <_dtext_opt+0x1ba>
  304b8c:	34 dc       	add	r13,r4
  304b8e:	2f 32       	mov.l	r3,@r15
  304b90:	56 f4       	mov.l	@(16,r15),r6
  304b92:	d3 14       	mov.l	304be4 <_dtext_opt+0x1f8>,r3	! 306a3e <_topti_glyph_fg>
  304b94:	1f e1       	mov.l	r14,@(4,r15)
  304b96:	1f 72       	mov.l	r7,@(8,r15)
  304b98:	67 83       	mov	r8,r7
  304b9a:	43 0b       	jsr	@r3
  304b9c:	00 09       	nop	
  304b9e:	af c8       	bra	304b32 <_dtext_opt+0x146>
  304ba0:	84 9c       	mov.b	@(12,r9),r0
  304ba2:	af dc       	bra	304b5e <_dtext_opt+0x172>
  304ba4:	63 e3       	mov	r14,r3
  304ba6:	52 f4       	mov.l	@(16,r15),r2
  304ba8:	1f 72       	mov.l	r7,@(8,r15)
  304baa:	67 83       	mov	r8,r7
  304bac:	2f 32       	mov.l	r3,@r15
  304bae:	42 11       	cmp/pz	r2
  304bb0:	1f e1       	mov.l	r14,@(4,r15)
  304bb2:	d3 0d       	mov.l	304be8 <_dtext_opt+0x1fc>,r3	! 306a00 <_topti_glyph_fg_bg>
  304bb4:	8d f1       	bt.s	304b9a <_dtext_opt+0x1ae>
  304bb6:	56 f9       	mov.l	@(36,r15),r6
  304bb8:	d3 0c       	mov.l	304bec <_dtext_opt+0x200>,r3	! 306a78 <_topti_glyph_bg>
  304bba:	af ee       	bra	304b9a <_dtext_opt+0x1ae>
  304bbc:	66 a3       	mov	r10,r6
  304bbe:	01 8b       	.word 0x018b
  304bc0:	00 df       	mac.l	@r13+,@r0+
  304bc2:	03 18       	.word 0x0318
  304bc4:	01 8c       	mov.b	@(r0,r8),r1
  304bc6:	00 09       	nop	
  304bc8:	08 10       	.word 0x0810
  304bca:	18 dc       	mov.l	r13,@(48,r8)
  304bcc:	00 30       	.word 0x0030
  304bce:	3e 46       	cmp/hi	r4,r14
  304bd0:	08 10       	.word 0x0810
  304bd2:	15 c0       	mov.l	r12,@(0,r5)
  304bd4:	00 30       	.word 0x0030
  304bd6:	3d aa       	subc	r10,r13
  304bd8:	00 30       	.word 0x0030
  304bda:	3d 08       	sub	r0,r13
  304bdc:	00 30       	.word 0x0030
  304bde:	47 b0       	.word 0x47b0
  304be0:	00 30       	.word 0x0030
  304be2:	3d 52       	cmp/hs	r5,r13
  304be4:	00 30       	.word 0x0030
  304be6:	6a 3e       	exts.b	r3,r10
  304be8:	00 30       	.word 0x0030
  304bea:	6a 00       	mov.b	@r0,r10
  304bec:	00 30       	.word 0x0030
  304bee:	6a 78       	swap.b	r7,r10
  304bf0:	7f 34       	add	#52,r15
  304bf2:	4f 26       	lds.l	@r15+,pr
  304bf4:	6e f6       	mov.l	@r15+,r14
  304bf6:	6d f6       	mov.l	@r15+,r13
  304bf8:	6c f6       	mov.l	@r15+,r12
  304bfa:	6b f6       	mov.l	@r15+,r11
  304bfc:	6a f6       	mov.l	@r15+,r10
  304bfe:	69 f6       	mov.l	@r15+,r9
  304c00:	00 0b       	rts	
  304c02:	68 f6       	mov.l	@r15+,r8

00304c04 <_sh7305_probe>:
  304c04:	2f 86       	mov.l	r8,@-r15
  304c06:	d8 26       	mov.l	304ca0 <_sh7305_probe+0x9c>,r8	! a4150000
  304c08:	d7 26       	mov.l	304ca4 <_sh7305_probe+0xa0>,r7	! 8101ba0 <_freq>
  304c0a:	60 82       	mov.l	@r8,r0
  304c0c:	d1 26       	mov.l	304ca8 <_sh7305_probe+0xa4>,r1	! a4150040
  304c0e:	40 29       	shlr16	r0
  304c10:	93 45       	mov.w	304c9e <_sh7305_probe+0x9a>,r3	! 7ff
  304c12:	40 19       	shlr8	r0
  304c14:	c9 3f       	and	#63,r0
  304c16:	66 03       	mov	r0,r6
  304c18:	76 01       	add	#1,r6
  304c1a:	17 61       	mov.l	r6,@(4,r7)
  304c1c:	52 14       	mov.l	@(16,r1),r2
  304c1e:	50 14       	mov.l	@(16,r1),r0
  304c20:	e1 f2       	mov	#-14,r1
  304c22:	22 39       	and	r3,r2
  304c24:	40 1d       	shld	r1,r0
  304c26:	c9 03       	and	#3,r0
  304c28:	88 01       	cmp/eq	#1,r0
  304c2a:	8b 00       	bf	304c2e <_sh7305_probe+0x2a>
  304c2c:	42 21       	shar	r2
  304c2e:	65 82       	mov.l	@r8,r5
  304c30:	e3 0f       	mov	#15,r3
  304c32:	61 82       	mov.l	@r8,r1
  304c34:	45 19       	shlr8	r5
  304c36:	60 82       	mov.l	@r8,r0
  304c38:	25 39       	and	r3,r5
  304c3a:	27 22       	mov.l	r2,@r7
  304c3c:	e3 ec       	mov	#-20,r3
  304c3e:	41 3d       	shld	r3,r1
  304c40:	e3 0f       	mov	#15,r3
  304c42:	21 39       	and	r3,r1
  304c44:	75 01       	add	#1,r5
  304c46:	e3 01       	mov	#1,r3
  304c48:	64 33       	mov	r3,r4
  304c4a:	71 01       	add	#1,r1
  304c4c:	44 5d       	shld	r5,r4
  304c4e:	c9 0f       	and	#15,r0
  304c50:	17 42       	mov.l	r4,@(8,r7)
  304c52:	64 33       	mov	r3,r4
  304c54:	44 1d       	shld	r1,r4
  304c56:	17 43       	mov.l	r4,@(12,r7)
  304c58:	64 03       	mov	r0,r4
  304c5a:	74 01       	add	#1,r4
  304c5c:	43 4d       	shld	r4,r3
  304c5e:	17 34       	mov.l	r3,@(16,r7)
  304c60:	53 89       	mov.l	@(36,r8),r3
  304c62:	60 38       	swap.b	r3,r0
  304c64:	c8 10       	tst	#16,r0
  304c66:	8d 17       	bt.s	304c98 <_sh7305_probe+0x94>
  304c68:	e3 0f       	mov	#15,r3
  304c6a:	42 3d       	shld	r3,r2
  304c6c:	d3 0c       	mov.l	304ca0 <_sh7305_probe+0x9c>,r3	! a4150000
  304c6e:	53 39       	mov.l	@(36,r3),r3
  304c70:	60 38       	swap.b	r3,r0
  304c72:	c8 40       	tst	#64,r0
  304c74:	8d 01       	bt.s	304c7a <_sh7305_probe+0x76>
  304c76:	02 67       	mul.l	r6,r2
  304c78:	02 1a       	sts	macl,r2
  304c7a:	d3 0c       	mov.l	304cac <_sh7305_probe+0xa8>,r3	! 8000
  304c7c:	65 5b       	neg	r5,r5
  304c7e:	61 1b       	neg	r1,r1
  304c80:	17 35       	mov.l	r3,@(20,r7)
  304c82:	64 4b       	neg	r4,r4
  304c84:	63 23       	mov	r2,r3
  304c86:	43 5c       	shad	r5,r3
  304c88:	17 36       	mov.l	r3,@(24,r7)
  304c8a:	63 23       	mov	r2,r3
  304c8c:	42 4c       	shad	r4,r2
  304c8e:	43 1c       	shad	r1,r3
  304c90:	17 28       	mov.l	r2,@(32,r7)
  304c92:	17 37       	mov.l	r3,@(28,r7)
  304c94:	00 0b       	rts	
  304c96:	68 f6       	mov.l	@r15+,r8
  304c98:	d2 04       	mov.l	304cac <_sh7305_probe+0xa8>,r2	! 8000
  304c9a:	af e7       	bra	304c6c <_sh7305_probe+0x68>
  304c9c:	00 09       	nop	
  304c9e:	07 ff       	mac.l	@r15+,@r7+
  304ca0:	a4 15       	bra	3054ce <_kquit+0x2e>
  304ca2:	00 00       	.word 0x0000
  304ca4:	08 10       	.word 0x0810
  304ca6:	1b a0       	mov.l	r10,@(0,r11)
  304ca8:	a4 15       	bra	3054d6 <_kquit+0x36>
  304caa:	00 40       	.word 0x0040
  304cac:	00 00       	.word 0x0000
  304cae:	80 00       	mov.b	r0,@(0,r0)

00304cb0 <_configure>:
  304cb0:	d2 03       	mov.l	304cc0 <_configure+0x10>,r2	! a4150040
  304cb2:	d3 04       	mov.l	304cc4 <_configure+0x14>,r3	! 7fffffff
  304cb4:	51 21       	mov.l	@(4,r2),r1
  304cb6:	21 39       	and	r3,r1
  304cb8:	12 11       	mov.l	r1,@(4,r2)
  304cba:	d1 03       	mov.l	304cc8 <_configure+0x18>,r1	! 304c04 <_sh7305_probe>
  304cbc:	41 2b       	jmp	@r1
  304cbe:	00 09       	nop	
  304cc0:	a4 15       	bra	3054ee <_kquit+0x4e>
  304cc2:	00 40       	.word 0x0040
  304cc4:	7f ff       	add	#-1,r15
  304cc6:	ff ff       	.word 0xffff
  304cc8:	00 30       	.word 0x0030
  304cca:	4c 04       	rotl	r12

00304ccc <_hrestore>:
  304ccc:	d1 02       	mov.l	304cd8 <_hrestore+0xc>,r1	! a4150040
  304cce:	62 46       	mov.l	@r4+,r2
  304cd0:	11 21       	mov.l	r2,@(4,r1)
  304cd2:	d1 02       	mov.l	304cdc <_hrestore+0x10>,r1	! 304d48 <_cpg_set_overclock_setting>
  304cd4:	41 2b       	jmp	@r1
  304cd6:	00 09       	nop	
  304cd8:	a4 15       	bra	305506 <___osmenu+0x16>
  304cda:	00 40       	.word 0x0040
  304cdc:	00 30       	.word 0x0030
  304cde:	4d 48       	.word 0x4d48

00304ce0 <_hsave>:
  304ce0:	d1 02       	mov.l	304cec <_hsave+0xc>,r1	! a4150040
  304ce2:	51 11       	mov.l	@(4,r1),r1
  304ce4:	24 12       	mov.l	r1,@r4
  304ce6:	d1 02       	mov.l	304cf0 <_hsave+0x10>,r1	! 304d0c <_cpg_get_overclock_setting>
  304ce8:	41 2b       	jmp	@r1
  304cea:	74 04       	add	#4,r4
  304cec:	a4 15       	bra	30551a <___osmenu+0x2a>
  304cee:	00 40       	.word 0x0040
  304cf0:	00 30       	.word 0x0030
  304cf2:	4d 0c       	shad	r0,r13

00304cf4 <_clock_freq>:
  304cf4:	d0 01       	mov.l	304cfc <_clock_freq+0x8>,r0	! 8101ba0 <_freq>
  304cf6:	00 0b       	rts	
  304cf8:	00 09       	nop	
  304cfa:	00 09       	nop	
  304cfc:	08 10       	.word 0x0810
  304cfe:	1b a0       	mov.l	r10,@(0,r11)

00304d00 <_cpg_compute_freq>:
  304d00:	d1 01       	mov.l	304d08 <_cpg_compute_freq+0x8>,r1	! 304c04 <_sh7305_probe>
  304d02:	41 2b       	jmp	@r1
  304d04:	00 09       	nop	
  304d06:	00 09       	nop	
  304d08:	00 30       	.word 0x0030
  304d0a:	4c 04       	rotl	r12

00304d0c <_cpg_get_overclock_setting>:
  304d0c:	d1 0c       	mov.l	304d40 <_cpg_get_overclock_setting+0x34>,r1	! a4150000
  304d0e:	62 13       	mov	r1,r2
  304d10:	72 40       	add	#64,r2
  304d12:	52 24       	mov.l	@(16,r2),r2
  304d14:	24 22       	mov.l	r2,@r4
  304d16:	61 12       	mov.l	@r1,r1
  304d18:	14 11       	mov.l	r1,@(4,r4)
  304d1a:	d1 0a       	mov.l	304d44 <_cpg_get_overclock_setting+0x38>,r1	! fec10000
  304d1c:	52 11       	mov.l	@(4,r1),r2
  304d1e:	14 22       	mov.l	r2,@(8,r4)
  304d20:	52 19       	mov.l	@(36,r1),r2
  304d22:	14 26       	mov.l	r2,@(24,r4)
  304d24:	52 12       	mov.l	@(8,r1),r2
  304d26:	14 23       	mov.l	r2,@(12,r4)
  304d28:	52 1a       	mov.l	@(40,r1),r2
  304d2a:	14 27       	mov.l	r2,@(28,r4)
  304d2c:	52 13       	mov.l	@(12,r1),r2
  304d2e:	14 24       	mov.l	r2,@(16,r4)
  304d30:	52 1b       	mov.l	@(44,r1),r2
  304d32:	14 28       	mov.l	r2,@(32,r4)
  304d34:	52 15       	mov.l	@(20,r1),r2
  304d36:	14 25       	mov.l	r2,@(20,r4)
  304d38:	51 1d       	mov.l	@(52,r1),r1
  304d3a:	00 0b       	rts	
  304d3c:	14 19       	mov.l	r1,@(36,r4)
  304d3e:	00 09       	nop	
  304d40:	a4 15       	bra	30556e <___osmenu+0x7e>
  304d42:	00 00       	.word 0x0000
  304d44:	fe c1       	.word 0xfec1
	...

00304d48 <_cpg_set_overclock_setting>:
  304d48:	d1 19       	mov.l	304db0 <_cpg_set_overclock_setting+0x68>,r1	! fec10000
  304d4a:	93 2f       	mov.w	304dac <_cpg_set_overclock_setting+0x64>,r3	! f87f
  304d4c:	52 19       	mov.l	@(36,r1),r2
  304d4e:	d7 19       	mov.l	304db4 <_cpg_set_overclock_setting+0x6c>,r7	! a4150040
  304d50:	22 39       	and	r3,r2
  304d52:	93 2c       	mov.w	304dae <_cpg_set_overclock_setting+0x66>,r3	! 580
  304d54:	d6 18       	mov.l	304db8 <_cpg_set_overclock_setting+0x70>,r6	! 80000000
  304d56:	22 3b       	or	r3,r2
  304d58:	11 29       	mov.l	r2,@(36,r1)
  304d5a:	63 42       	mov.l	@r4,r3
  304d5c:	d2 17       	mov.l	304dbc <_cpg_set_overclock_setting+0x74>,r2	! a4150000
  304d5e:	17 34       	mov.l	r3,@(16,r7)
  304d60:	53 41       	mov.l	@(4,r4),r3
  304d62:	22 32       	mov.l	r3,@r2
  304d64:	63 22       	mov.l	@r2,r3
  304d66:	23 6b       	or	r6,r3
  304d68:	22 32       	mov.l	r3,@r2
  304d6a:	52 78       	mov.l	@(32,r7),r2
  304d6c:	22 28       	tst	r2,r2
  304d6e:	8b fc       	bf	304d6a <_cpg_set_overclock_setting+0x22>
  304d70:	53 42       	mov.l	@(8,r4),r3
  304d72:	11 31       	mov.l	r3,@(4,r1)
  304d74:	53 46       	mov.l	@(24,r4),r3
  304d76:	11 39       	mov.l	r3,@(36,r1)
  304d78:	53 43       	mov.l	@(12,r4),r3
  304d7a:	11 32       	mov.l	r3,@(8,r1)
  304d7c:	53 47       	mov.l	@(28,r4),r3
  304d7e:	11 3a       	mov.l	r3,@(40,r1)
  304d80:	53 44       	mov.l	@(16,r4),r3
  304d82:	11 33       	mov.l	r3,@(12,r1)
  304d84:	53 48       	mov.l	@(32,r4),r3
  304d86:	11 3b       	mov.l	r3,@(44,r1)
  304d88:	50 1b       	mov.l	@(44,r1),r0
  304d8a:	e1 f9       	mov	#-7,r1
  304d8c:	40 1d       	shld	r1,r0
  304d8e:	c9 03       	and	#3,r0
  304d90:	88 01       	cmp/eq	#1,r0
  304d92:	8b 08       	bf	304da6 <_cpg_set_overclock_setting+0x5e>
  304d94:	d1 0a       	mov.l	304dc0 <_cpg_set_overclock_setting+0x78>,r1	! fec15040
  304d96:	21 20       	mov.b	r2,@r1
  304d98:	52 45       	mov.l	@(20,r4),r2
  304d9a:	d1 05       	mov.l	304db0 <_cpg_set_overclock_setting+0x68>,r1	! fec10000
  304d9c:	11 25       	mov.l	r2,@(20,r1)
  304d9e:	52 49       	mov.l	@(36,r4),r2
  304da0:	11 2d       	mov.l	r2,@(52,r1)
  304da2:	00 0b       	rts	
  304da4:	00 09       	nop	
  304da6:	d1 07       	mov.l	304dc4 <_cpg_set_overclock_setting+0x7c>,r1	! fec15060
  304da8:	af f5       	bra	304d96 <_cpg_set_overclock_setting+0x4e>
  304daa:	00 09       	nop	
  304dac:	f8 7f 05 80 	pshl	#88,0x0	movx.w	a0,@r4+r8	movy.w	a1,@r6+r9
  304db0:	fe c1       	.word 0xfec1
  304db2:	00 00       	.word 0x0000
  304db4:	a4 15       	bra	3055e2 <_gint_osmenu+0x12>
  304db6:	00 40       	.word 0x0040
  304db8:	80 00       	mov.b	r0,@(0,r0)
  304dba:	00 00       	.word 0x0000
  304dbc:	a4 15       	bra	3055ea <_gint_osmenu+0x1a>
  304dbe:	00 00       	.word 0x0000
  304dc0:	fe c1       	.word 0xfec1
  304dc2:	50 40       	mov.l	@(0,r4),r0
  304dc4:	fe c1       	.word 0xfec1
  304dc6:	50 60       	mov.l	@(0,r6),r0

00304dc8 <_clock_get_speed>:
  304dc8:	d1 20       	mov.l	304e4c <_clock_get_speed+0x84>,r1	! 8101bc4 <_gint>
  304dca:	50 13       	mov.l	@(12,r1),r0
  304dcc:	88 05       	cmp/eq	#5,r0
  304dce:	8d 03       	bt.s	304dd8 <_clock_get_speed+0x10>
  304dd0:	88 04       	cmp/eq	#4,r0
  304dd2:	89 35       	bt	304e40 <_clock_get_speed+0x78>
  304dd4:	00 0b       	rts	
  304dd6:	e0 00       	mov	#0,r0
  304dd8:	d1 1d       	mov.l	304e50 <_clock_get_speed+0x88>,r1	! 81019ac <_settings_cg50>
  304dda:	d6 1e       	mov.l	304e54 <_clock_get_speed+0x8c>,r6	! a4150000
  304ddc:	e0 00       	mov	#0,r0
  304dde:	d7 1e       	mov.l	304e58 <_clock_get_speed+0x90>,r7	! a4150040
  304de0:	e3 05       	mov	#5,r3
  304de2:	d2 1e       	mov.l	304e5c <_clock_get_speed+0x94>,r2	! fec10000
  304de4:	54 74       	mov.l	@(16,r7),r4
  304de6:	65 12       	mov.l	@r1,r5
  304de8:	34 50       	cmp/eq	r5,r4
  304dea:	8f 24       	bf.s	304e36 <_clock_get_speed+0x6e>
  304dec:	70 01       	add	#1,r0
  304dee:	64 62       	mov.l	@r6,r4
  304df0:	55 11       	mov.l	@(4,r1),r5
  304df2:	34 50       	cmp/eq	r5,r4
  304df4:	8b 1f       	bf	304e36 <_clock_get_speed+0x6e>
  304df6:	54 21       	mov.l	@(4,r2),r4
  304df8:	55 12       	mov.l	@(8,r1),r5
  304dfa:	34 50       	cmp/eq	r5,r4
  304dfc:	8b 1b       	bf	304e36 <_clock_get_speed+0x6e>
  304dfe:	54 22       	mov.l	@(8,r2),r4
  304e00:	55 13       	mov.l	@(12,r1),r5
  304e02:	34 50       	cmp/eq	r5,r4
  304e04:	8b 17       	bf	304e36 <_clock_get_speed+0x6e>
  304e06:	54 23       	mov.l	@(12,r2),r4
  304e08:	55 14       	mov.l	@(16,r1),r5
  304e0a:	34 50       	cmp/eq	r5,r4
  304e0c:	8b 13       	bf	304e36 <_clock_get_speed+0x6e>
  304e0e:	54 25       	mov.l	@(20,r2),r4
  304e10:	55 15       	mov.l	@(20,r1),r5
  304e12:	34 50       	cmp/eq	r5,r4
  304e14:	8b 0f       	bf	304e36 <_clock_get_speed+0x6e>
  304e16:	54 29       	mov.l	@(36,r2),r4
  304e18:	55 16       	mov.l	@(24,r1),r5
  304e1a:	34 50       	cmp/eq	r5,r4
  304e1c:	8b 0b       	bf	304e36 <_clock_get_speed+0x6e>
  304e1e:	54 2a       	mov.l	@(40,r2),r4
  304e20:	55 17       	mov.l	@(28,r1),r5
  304e22:	34 50       	cmp/eq	r5,r4
  304e24:	8b 07       	bf	304e36 <_clock_get_speed+0x6e>
  304e26:	54 2b       	mov.l	@(44,r2),r4
  304e28:	55 18       	mov.l	@(32,r1),r5
  304e2a:	34 50       	cmp/eq	r5,r4
  304e2c:	8b 03       	bf	304e36 <_clock_get_speed+0x6e>
  304e2e:	54 2d       	mov.l	@(52,r2),r4
  304e30:	55 19       	mov.l	@(36,r1),r5
  304e32:	34 50       	cmp/eq	r5,r4
  304e34:	89 07       	bt	304e46 <_clock_get_speed+0x7e>
  304e36:	43 10       	dt	r3
  304e38:	8f d4       	bf.s	304de4 <_clock_get_speed+0x1c>
  304e3a:	71 28       	add	#40,r1
  304e3c:	af ca       	bra	304dd4 <_clock_get_speed+0xc>
  304e3e:	00 09       	nop	
  304e40:	d1 07       	mov.l	304e60 <_clock_get_speed+0x98>,r1	! 81018e4 <_settings_cg20>
  304e42:	af ca       	bra	304dda <_clock_get_speed+0x12>
  304e44:	00 09       	nop	
  304e46:	00 0b       	rts	
  304e48:	00 09       	nop	
  304e4a:	00 09       	nop	
  304e4c:	08 10       	.word 0x0810
  304e4e:	1b c4       	mov.l	r12,@(16,r11)
  304e50:	08 10       	.word 0x0810
  304e52:	19 ac       	mov.l	r10,@(48,r9)
  304e54:	a4 15       	bra	305682 <_BFile_Close+0xe>
  304e56:	00 00       	.word 0x0000
  304e58:	a4 15       	bra	305686 <_BFile_Size+0x2>
  304e5a:	00 40       	.word 0x0040
  304e5c:	fe c1       	.word 0xfec1
  304e5e:	00 00       	.word 0x0000
  304e60:	08 10       	.word 0x0810
  304e62:	18 e4       	mov.l	r14,@(16,r8)

00304e64 <_clock_set_speed>:
  304e64:	2f 86       	mov.l	r8,@-r15
  304e66:	e1 04       	mov	#4,r1
  304e68:	2f 96       	mov.l	r9,@-r15
  304e6a:	62 43       	mov	r4,r2
  304e6c:	2f a6       	mov.l	r10,@-r15
  304e6e:	72 ff       	add	#-1,r2
  304e70:	4f 22       	sts.l	pr,@-r15
  304e72:	32 16       	cmp/hi	r1,r2
  304e74:	8d 30       	bt.s	304ed8 <_clock_set_speed+0x74>
  304e76:	68 43       	mov	r4,r8
  304e78:	d0 1a       	mov.l	304ee4 <_clock_set_speed+0x80>,r0	! 304dc8 <_clock_get_speed>
  304e7a:	40 0b       	jsr	@r0
  304e7c:	00 09       	nop	
  304e7e:	30 80       	cmp/eq	r8,r0
  304e80:	89 2a       	bt	304ed8 <_clock_set_speed+0x74>
  304e82:	d1 19       	mov.l	304ee8 <_clock_set_speed+0x84>,r1	! 8101bc4 <_gint>
  304e84:	50 13       	mov.l	@(12,r1),r0
  304e86:	88 05       	cmp/eq	#5,r0
  304e88:	8d 05       	bt.s	304e96 <_clock_set_speed+0x32>
  304e8a:	88 04       	cmp/eq	#4,r0
  304e8c:	8f 24       	bf.s	304ed8 <_clock_set_speed+0x74>
  304e8e:	e1 28       	mov	#40,r1
  304e90:	d4 16       	mov.l	304eec <_clock_set_speed+0x88>,r4	! 81018e4 <_settings_cg20>
  304e92:	a0 02       	bra	304e9a <_clock_set_speed+0x36>
  304e94:	00 09       	nop	
  304e96:	d4 16       	mov.l	304ef0 <_clock_set_speed+0x8c>,r4	! 81019ac <_settings_cg50>
  304e98:	e1 28       	mov	#40,r1
  304e9a:	d9 16       	mov.l	304ef4 <_clock_set_speed+0x90>,r9	! 304cf4 <_clock_freq>
  304e9c:	08 17       	mul.l	r1,r8
  304e9e:	68 43       	mov	r4,r8
  304ea0:	01 1a       	sts	macl,r1
  304ea2:	71 d8       	add	#-40,r1
  304ea4:	49 0b       	jsr	@r9
  304ea6:	38 1c       	add	r1,r8
  304ea8:	d1 13       	mov.l	304ef8 <_clock_set_speed+0x94>,r1	! 305848 <_gint_world_sync>
  304eaa:	41 0b       	jsr	@r1
  304eac:	5a 08       	mov.l	@(32,r0),r10
  304eae:	d1 13       	mov.l	304efc <_clock_set_speed+0x98>,r1	! 304f10 <_cpu_atomic_start>
  304eb0:	41 0b       	jsr	@r1
  304eb2:	00 09       	nop	
  304eb4:	d1 12       	mov.l	304f00 <_clock_set_speed+0x9c>,r1	! 304d48 <_cpg_set_overclock_setting>
  304eb6:	41 0b       	jsr	@r1
  304eb8:	64 83       	mov	r8,r4
  304eba:	d1 12       	mov.l	304f04 <_clock_set_speed+0xa0>,r1	! 304d00 <_cpg_compute_freq>
  304ebc:	41 0b       	jsr	@r1
  304ebe:	00 09       	nop	
  304ec0:	49 0b       	jsr	@r9
  304ec2:	00 09       	nop	
  304ec4:	d1 10       	mov.l	304f08 <_clock_set_speed+0xa4>,r1	! 3046b8 <_timer_rescale>
  304ec6:	64 a3       	mov	r10,r4
  304ec8:	41 0b       	jsr	@r1
  304eca:	55 08       	mov.l	@(32,r0),r5
  304ecc:	d1 0f       	mov.l	304f0c <_clock_set_speed+0xa8>,r1	! 304f54 <_cpu_atomic_end>
  304ece:	4f 26       	lds.l	@r15+,pr
  304ed0:	6a f6       	mov.l	@r15+,r10
  304ed2:	69 f6       	mov.l	@r15+,r9
  304ed4:	41 2b       	jmp	@r1
  304ed6:	68 f6       	mov.l	@r15+,r8
  304ed8:	4f 26       	lds.l	@r15+,pr
  304eda:	6a f6       	mov.l	@r15+,r10
  304edc:	69 f6       	mov.l	@r15+,r9
  304ede:	00 0b       	rts	
  304ee0:	68 f6       	mov.l	@r15+,r8
  304ee2:	00 09       	nop	
  304ee4:	00 30       	.word 0x0030
  304ee6:	4d c8       	.word 0x4dc8
  304ee8:	08 10       	.word 0x0810
  304eea:	1b c4       	mov.l	r12,@(16,r11)
  304eec:	08 10       	.word 0x0810
  304eee:	18 e4       	mov.l	r14,@(16,r8)
  304ef0:	08 10       	.word 0x0810
  304ef2:	19 ac       	mov.l	r10,@(48,r9)
  304ef4:	00 30       	.word 0x0030
  304ef6:	4c f4       	.word 0x4cf4
  304ef8:	00 30       	.word 0x0030
  304efa:	58 48       	mov.l	@(32,r4),r8
  304efc:	00 30       	.word 0x0030
  304efe:	4f 10       	dt	r15
  304f00:	00 30       	.word 0x0030
  304f02:	4d 48       	.word 0x4d48
  304f04:	00 30       	.word 0x0030
  304f06:	4d 00       	shll	r13
  304f08:	00 30       	.word 0x0030
  304f0a:	46 b8       	.word 0x46b8
  304f0c:	00 30       	.word 0x0030
  304f0e:	4f 54       	.word 0x4f54

00304f10 <_cpu_atomic_start>:
  304f10:	d0 0c       	mov.l	304f44 <_cpu_atomic_start+0x34>,r0	! 304fd4 <_cpu_getSR>
  304f12:	2f 86       	mov.l	r8,@-r15
  304f14:	4f 22       	sts.l	pr,@-r15
  304f16:	40 0b       	jsr	@r0
  304f18:	e8 0f       	mov	#15,r8
  304f1a:	91 11       	mov.w	304f40 <_cpu_atomic_start+0x30>,r1	! f0
  304f1c:	64 03       	mov	r0,r4
  304f1e:	40 09       	shlr2	r0
  304f20:	24 1b       	or	r1,r4
  304f22:	d1 09       	mov.l	304f48 <_cpu_atomic_start+0x38>,r1	! 304fda <_cpu_setSR>
  304f24:	40 09       	shlr2	r0
  304f26:	41 0b       	jsr	@r1
  304f28:	28 09       	and	r0,r8
  304f2a:	d2 08       	mov.l	304f4c <_cpu_atomic_start+0x3c>,r2	! 81015cc <_atomic_level>
  304f2c:	61 22       	mov.l	@r2,r1
  304f2e:	21 18       	tst	r1,r1
  304f30:	8b 01       	bf	304f36 <_cpu_atomic_start+0x26>
  304f32:	d3 07       	mov.l	304f50 <_cpu_atomic_start+0x40>,r3	! 81015d0 <_saved_IMASK>
  304f34:	23 82       	mov.l	r8,@r3
  304f36:	71 01       	add	#1,r1
  304f38:	22 12       	mov.l	r1,@r2
  304f3a:	4f 26       	lds.l	@r15+,pr
  304f3c:	00 0b       	rts	
  304f3e:	68 f6       	mov.l	@r15+,r8
  304f40:	00 f0       	.word 0x00f0
  304f42:	00 09       	nop	
  304f44:	00 30       	.word 0x0030
  304f46:	4f d4       	.word 0x4fd4
  304f48:	00 30       	.word 0x0030
  304f4a:	4f da       	.word 0x4fda
  304f4c:	08 10       	.word 0x0810
  304f4e:	15 cc       	mov.l	r12,@(48,r5)
  304f50:	08 10       	.word 0x0810
  304f52:	15 d0       	mov.l	r13,@(0,r5)

00304f54 <_cpu_atomic_end>:
  304f54:	d0 0b       	mov.l	304f84 <_cpu_atomic_end+0x30>,r0	! 304fd4 <_cpu_getSR>
  304f56:	4f 22       	sts.l	pr,@-r15
  304f58:	40 0b       	jsr	@r0
  304f5a:	00 09       	nop	
  304f5c:	d2 0a       	mov.l	304f88 <_cpu_atomic_end+0x34>,r2	! 81015cc <_atomic_level>
  304f5e:	64 03       	mov	r0,r4
  304f60:	61 22       	mov.l	@r2,r1
  304f62:	41 10       	dt	r1
  304f64:	8f 09       	bf.s	304f7a <_cpu_atomic_end+0x26>
  304f66:	22 12       	mov.l	r1,@r2
  304f68:	d2 08       	mov.l	304f8c <_cpu_atomic_end+0x38>,r2	! 81015d0 <_saved_IMASK>
  304f6a:	93 09       	mov.w	304f80 <_cpu_atomic_end+0x2c>,r3	! ff0f
  304f6c:	60 22       	mov.l	@r2,r0
  304f6e:	24 39       	and	r3,r4
  304f70:	22 12       	mov.l	r1,@r2
  304f72:	c9 0f       	and	#15,r0
  304f74:	40 08       	shll2	r0
  304f76:	40 08       	shll2	r0
  304f78:	24 0b       	or	r0,r4
  304f7a:	d1 05       	mov.l	304f90 <_cpu_atomic_end+0x3c>,r1	! 304fda <_cpu_setSR>
  304f7c:	41 2b       	jmp	@r1
  304f7e:	4f 26       	lds.l	@r15+,pr
  304f80:	ff 0f       	.word 0xff0f
  304f82:	00 09       	nop	
  304f84:	00 30       	.word 0x0030
  304f86:	4f d4       	.word 0x4fd4
  304f88:	08 10       	.word 0x0810
  304f8a:	15 cc       	mov.l	r12,@(48,r5)
  304f8c:	08 10       	.word 0x0810
  304f8e:	15 d0       	mov.l	r13,@(0,r5)
  304f90:	00 30       	.word 0x0030
  304f92:	4f da       	.word 0x4fda
	...

00304fa0 <_cpu_setVBR>:
  304fa0:	44 2e       	ldc	r4,vbr
  304fa2:	00 0b       	rts	
  304fa4:	00 09       	nop	

00304fa6 <_cpu_getVBR>:
  304fa6:	00 22       	stc	vbr,r0
  304fa8:	00 0b       	rts	
  304faa:	00 09       	nop	

00304fac <_cpu_setCPUOPM>:
  304fac:	d0 08       	mov.l	304fd0 <_cpu_getCPUOPM+0x12>,r0	! ff2f0000
  304fae:	20 42       	mov.l	r4,@r0
  304fb0:	65 02       	mov.l	@r0,r5
  304fb2:	e0 a0       	mov	#-96,r0
  304fb4:	40 28       	shll16	r0
  304fb6:	40 18       	shll8	r0
  304fb8:	00 e3       	icbi	@r0
  304fba:	00 0b       	rts	
  304fbc:	00 09       	nop	

00304fbe <_cpu_getCPUOPM>:
  304fbe:	d0 04       	mov.l	304fd0 <_cpu_getCPUOPM+0x12>,r0	! ff2f0000
  304fc0:	00 0b       	rts	
  304fc2:	60 02       	mov.l	@r0,r0
  304fc4:	00 09       	nop	
  304fc6:	00 09       	nop	
  304fc8:	00 09       	nop	
  304fca:	00 09       	nop	
  304fcc:	00 09       	nop	
  304fce:	00 09       	nop	
  304fd0:	ff 2f       	.word 0xff2f
	...

00304fd4 <_cpu_getSR>:
  304fd4:	00 02       	stc	sr,r0
  304fd6:	00 0b       	rts	
  304fd8:	00 09       	nop	

00304fda <_cpu_setSR>:
  304fda:	d0 05       	mov.l	304ff0 <_cpu_setSR+0x16>,r0	! 700010f0
  304fdc:	61 07       	not	r0,r1
  304fde:	02 02       	stc	sr,r2
  304fe0:	22 19       	and	r1,r2
  304fe2:	24 09       	and	r0,r4
  304fe4:	22 4b       	or	r4,r2
  304fe6:	42 0e       	ldc	r2,sr
  304fe8:	00 0b       	rts	
  304fea:	00 09       	nop	
  304fec:	00 09       	nop	
  304fee:	00 09       	nop	
  304ff0:	70 00       	add	#0,r0
  304ff2:	10 f0       	mov.l	r15,@(0,r0)
  304ff4:	00 09       	nop	
  304ff6:	00 09       	nop	
  304ff8:	00 09       	nop	
  304ffa:	00 09       	nop	
  304ffc:	00 09       	nop	
  304ffe:	00 09       	nop	

00305000 <_sleep>:
  305000:	d1 03       	mov.l	305010 <_sleep+0x10>,r1	! 81015d4 <_cpu_sleep_block_counter>
  305002:	61 12       	mov.l	@r1,r1
  305004:	41 15       	cmp/pl	r1
  305006:	89 00       	bt	30500a <_sleep+0xa>
  305008:	00 1b       	sleep	
  30500a:	00 0b       	rts	
  30500c:	00 09       	nop	
  30500e:	00 09       	nop	
  305010:	08 10       	.word 0x0810
  305012:	15 d4       	mov.l	r13,@(16,r5)

00305014 <_sleep_block>:
  305014:	d1 05       	mov.l	30502c <_sleep_block+0x18>,r1	! 304f10 <_cpu_atomic_start>
  305016:	4f 22       	sts.l	pr,@-r15
  305018:	41 0b       	jsr	@r1
  30501a:	00 09       	nop	
  30501c:	d2 04       	mov.l	305030 <_sleep_block+0x1c>,r2	! 81015d4 <_cpu_sleep_block_counter>
  30501e:	61 22       	mov.l	@r2,r1
  305020:	71 01       	add	#1,r1
  305022:	22 12       	mov.l	r1,@r2
  305024:	d1 03       	mov.l	305034 <_sleep_block+0x20>,r1	! 304f54 <_cpu_atomic_end>
  305026:	41 2b       	jmp	@r1
  305028:	4f 26       	lds.l	@r15+,pr
  30502a:	00 09       	nop	
  30502c:	00 30       	.word 0x0030
  30502e:	4f 10       	dt	r15
  305030:	08 10       	.word 0x0810
  305032:	15 d4       	mov.l	r13,@(16,r5)
  305034:	00 30       	.word 0x0030
  305036:	4f 54       	.word 0x4f54

00305038 <_sleep_unblock>:
  305038:	d1 05       	mov.l	305050 <_sleep_unblock+0x18>,r1	! 304f10 <_cpu_atomic_start>
  30503a:	4f 22       	sts.l	pr,@-r15
  30503c:	41 0b       	jsr	@r1
  30503e:	00 09       	nop	
  305040:	d2 04       	mov.l	305054 <_sleep_unblock+0x1c>,r2	! 81015d4 <_cpu_sleep_block_counter>
  305042:	61 22       	mov.l	@r2,r1
  305044:	71 ff       	add	#-1,r1
  305046:	22 12       	mov.l	r1,@r2
  305048:	d1 03       	mov.l	305058 <_sleep_unblock+0x20>,r1	! 304f54 <_cpu_atomic_end>
  30504a:	41 2b       	jmp	@r1
  30504c:	4f 26       	lds.l	@r15+,pr
  30504e:	00 09       	nop	
  305050:	00 30       	.word 0x0030
  305052:	4f 10       	dt	r15
  305054:	08 10       	.word 0x0810
  305056:	15 d4       	mov.l	r13,@(16,r5)
  305058:	00 30       	.word 0x0030
  30505a:	4f 54       	.word 0x4f54

0030505c <_dma_memset>:
  30505c:	2f 86       	mov.l	r8,@-r15
  30505e:	68 43       	mov	r4,r8
  305060:	d1 11       	mov.l	3050a8 <_dma_memset+0x4c>,r1	! e5200000 <_ILbuf>
  305062:	4f 22       	sts.l	pr,@-r15
  305064:	d2 11       	mov.l	3050ac <_dma_memset+0x50>,r2	! 1e00000
  305066:	21 52       	mov.l	r5,@r1
  305068:	11 51       	mov.l	r5,@(4,r1)
  30506a:	32 4c       	add	r4,r2
  30506c:	11 52       	mov.l	r5,@(8,r1)
  30506e:	11 53       	mov.l	r5,@(12,r1)
  305070:	11 54       	mov.l	r5,@(16,r1)
  305072:	11 55       	mov.l	r5,@(20,r1)
  305074:	11 56       	mov.l	r5,@(24,r1)
  305076:	11 57       	mov.l	r5,@(28,r1)
  305078:	d1 0d       	mov.l	3050b0 <_dma_memset+0x54>,r1	! 1fffff
  30507a:	32 16       	cmp/hi	r1,r2
  30507c:	8f 11       	bf.s	3050a2 <_dma_memset+0x46>
  30507e:	7f f4       	add	#-12,r15
  305080:	e1 fb       	mov	#-5,r1
  305082:	46 1d       	shld	r1,r6
  305084:	e5 04       	mov	#4,r5
  305086:	d0 0b       	mov.l	3050b4 <_dma_memset+0x58>,r0	! 3070f0 <_dma_transfer_sync>
  305088:	e1 01       	mov	#1,r1
  30508a:	1f 12       	mov.l	r1,@(8,r15)
  30508c:	e1 00       	mov	#0,r1
  30508e:	d7 06       	mov.l	3050a8 <_dma_memset+0x4c>,r7	! e5200000 <_ILbuf>
  305090:	e4 01       	mov	#1,r4
  305092:	1f 81       	mov.l	r8,@(4,r15)
  305094:	40 0b       	jsr	@r0
  305096:	2f 12       	mov.l	r1,@r15
  305098:	60 83       	mov	r8,r0
  30509a:	7f 0c       	add	#12,r15
  30509c:	4f 26       	lds.l	@r15+,pr
  30509e:	00 0b       	rts	
  3050a0:	68 f6       	mov.l	@r15+,r8
  3050a2:	46 09       	shlr2	r6
  3050a4:	af ef       	bra	305086 <_dma_memset+0x2a>
  3050a6:	e5 02       	mov	#2,r5
  3050a8:	e5 20       	mov	#32,r5
  3050aa:	00 00       	.word 0x0000
  3050ac:	01 e0       	.word 0x01e0
  3050ae:	00 00       	.word 0x0000
  3050b0:	00 1f       	mac.l	@r1+,@r0+
  3050b2:	ff ff       	.word 0xffff
  3050b4:	00 30       	.word 0x0030
  3050b6:	70 f0       	add	#-16,r0

003050b8 <_configure>:
  3050b8:	d1 04       	mov.l	3050cc <_configure+0x14>,r1	! 8101a74 <_SH7305_INTC>
  3050ba:	e3 00       	mov	#0,r3
  3050bc:	62 12       	mov.l	@r1,r2
  3050be:	e1 0c       	mov	#12,r1
  3050c0:	22 31       	mov.w	r3,@r2
  3050c2:	41 10       	dt	r1
  3050c4:	8f fc       	bf.s	3050c0 <_configure+0x8>
  3050c6:	72 04       	add	#4,r2
  3050c8:	00 0b       	rts	
  3050ca:	00 09       	nop	
  3050cc:	08 10       	.word 0x0810
  3050ce:	1a 74       	mov.l	r7,@(16,r10)

003050d0 <_hsave>:
  3050d0:	d7 0a       	mov.l	3050fc <_hsave+0x2c>,r7	! 8101a74 <_SH7305_INTC>
  3050d2:	61 43       	mov	r4,r1
  3050d4:	e2 0c       	mov	#12,r2
  3050d6:	63 72       	mov.l	@r7,r3
  3050d8:	71 18       	add	#24,r1
  3050da:	66 31       	mov.w	@r3,r6
  3050dc:	42 10       	dt	r2
  3050de:	73 04       	add	#4,r3
  3050e0:	24 61       	mov.w	r6,@r4
  3050e2:	8f fa       	bf.s	3050da <_hsave+0xa>
  3050e4:	74 02       	add	#2,r4
  3050e6:	53 71       	mov.l	@(4,r7),r3
  3050e8:	e2 0d       	mov	#13,r2
  3050ea:	67 30       	mov.b	@r3,r7
  3050ec:	42 10       	dt	r2
  3050ee:	73 04       	add	#4,r3
  3050f0:	21 70       	mov.b	r7,@r1
  3050f2:	8f fa       	bf.s	3050ea <_hsave+0x1a>
  3050f4:	71 01       	add	#1,r1
  3050f6:	00 0b       	rts	
  3050f8:	00 09       	nop	
  3050fa:	00 09       	nop	
  3050fc:	08 10       	.word 0x0810
  3050fe:	1a 74       	mov.l	r7,@(16,r10)

00305100 <_hrestore>:
  305100:	d2 0b       	mov.l	305130 <_hrestore+0x30>,r2	! 8101a74 <_SH7305_INTC>
  305102:	61 43       	mov	r4,r1
  305104:	e3 0c       	mov	#12,r3
  305106:	67 22       	mov.l	@r2,r7
  305108:	71 18       	add	#24,r1
  30510a:	66 45       	mov.w	@r4+,r6
  30510c:	43 10       	dt	r3
  30510e:	27 61       	mov.w	r6,@r7
  305110:	8f fb       	bf.s	30510a <_hrestore+0xa>
  305112:	77 04       	add	#4,r7
  305114:	56 22       	mov.l	@(8,r2),r6
  305116:	e0 00       	mov	#0,r0
  305118:	53 21       	mov.l	@(4,r2),r3
  30511a:	e5 ff       	mov	#-1,r5
  30511c:	e2 0d       	mov	#13,r2
  30511e:	06 54       	mov.b	r5,@(r0,r6)
  305120:	42 10       	dt	r2
  305122:	67 14       	mov.b	@r1+,r7
  305124:	03 74       	mov.b	r7,@(r0,r3)
  305126:	8f fa       	bf.s	30511e <_hrestore+0x1e>
  305128:	70 04       	add	#4,r0
  30512a:	00 0b       	rts	
  30512c:	00 09       	nop	
  30512e:	00 09       	nop	
  305130:	08 10       	.word 0x0810
  305132:	1a 74       	mov.l	r7,@(16,r10)

00305134 <_intc_priority>:
  305134:	e2 0c       	mov	#12,r2
  305136:	d1 1a       	mov.l	3051a0 <_intc_priority+0x6c>,r1	! 30ba44 <_info>
  305138:	04 27       	mul.l	r2,r4
  30513a:	2f 86       	mov.l	r8,@-r15
  30513c:	e6 00       	mov	#0,r6
  30513e:	e7 fc       	mov	#-4,r7
  305140:	03 1a       	sts	macl,r3
  305142:	33 1c       	add	r1,r3
  305144:	62 35       	mov.w	@r3+,r2
  305146:	63 31       	mov.w	@r3,r3
  305148:	62 2d       	extu.w	r2,r2
  30514a:	63 3d       	extu.w	r3,r3
  30514c:	43 7c       	shad	r7,r3
  30514e:	23 38       	tst	r3,r3
  305150:	8f 23       	bf.s	30519a <_intc_priority+0x66>
  305152:	45 15       	cmp/pl	r5
  305154:	d8 13       	mov.l	3051a4 <_intc_priority+0x70>,r8	! 8101a74 <_SH7305_INTC>
  305156:	42 08       	shll2	r2
  305158:	67 82       	mov.l	@r8,r7
  30515a:	37 2c       	add	r2,r7
  30515c:	63 71       	mov.w	@r7,r3
  30515e:	62 6b       	neg	r6,r2
  305160:	60 71       	mov.w	@r7,r0
  305162:	63 3d       	extu.w	r3,r3
  305164:	43 2c       	shad	r2,r3
  305166:	e2 0f       	mov	#15,r2
  305168:	23 29       	and	r2,r3
  30516a:	42 6d       	shld	r6,r2
  30516c:	62 27       	not	r2,r2
  30516e:	22 09       	and	r0,r2
  305170:	60 53       	mov	r5,r0
  305172:	40 6d       	shld	r6,r0
  305174:	22 0b       	or	r0,r2
  305176:	27 21       	mov.w	r2,@r7
  305178:	8f 0c       	bf.s	305194 <_intc_priority+0x60>
  30517a:	e2 0c       	mov	#12,r2
  30517c:	04 27       	mul.l	r2,r4
  30517e:	02 1a       	sts	macl,r2
  305180:	31 2c       	add	r2,r1
  305182:	85 13       	mov.w	@(6,r1),r0
  305184:	62 0d       	extu.w	r0,r2
  305186:	22 28       	tst	r2,r2
  305188:	89 04       	bt	305194 <_intc_priority+0x60>
  30518a:	85 12       	mov.w	@(4,r1),r0
  30518c:	51 82       	mov.l	@(8,r8),r1
  30518e:	60 0d       	extu.w	r0,r0
  305190:	40 08       	shll2	r0
  305192:	01 24       	mov.b	r2,@(r0,r1)
  305194:	60 33       	mov	r3,r0
  305196:	00 0b       	rts	
  305198:	68 f6       	mov.l	@r15+,r8
  30519a:	af d7       	bra	30514c <_intc_priority+0x18>
  30519c:	76 04       	add	#4,r6
  30519e:	00 09       	nop	
  3051a0:	00 30       	.word 0x0030
  3051a2:	ba 44       	bsr	30462e <_timer_wait+0x4e>
  3051a4:	08 10       	.word 0x0810
  3051a6:	1a 74       	mov.l	r7,@(16,r10)

003051a8 <_intc_handler>:
  3051a8:	2f 86       	mov.l	r8,@-r15
  3051aa:	2f 96       	mov.l	r9,@-r15
  3051ac:	69 63       	mov	r6,r9
  3051ae:	91 20       	mov.w	3051f2 <_intc_handler+0x4a>,r1	! 3ff
  3051b0:	2f a6       	mov.l	r10,@-r15
  3051b2:	6a 53       	mov	r5,r10
  3051b4:	34 17       	cmp/gt	r1,r4
  3051b6:	8f 16       	bf.s	3051e6 <_intc_handler+0x3e>
  3051b8:	4f 22       	sts.l	pr,@-r15
  3051ba:	e1 e0       	mov	#-32,r1
  3051bc:	68 43       	mov	r4,r8
  3051be:	28 19       	and	r1,r8
  3051c0:	91 18       	mov.w	3051f4 <_intc_handler+0x4c>,r1	! fc0
  3051c2:	62 83       	mov	r8,r2
  3051c4:	32 6c       	add	r6,r2
  3051c6:	32 16       	cmp/hi	r1,r2
  3051c8:	89 0d       	bt	3051e6 <_intc_handler+0x3e>
  3051ca:	d0 0b       	mov.l	3051f8 <_intc_handler+0x50>,r0	! 304fa6 <_cpu_getVBR>
  3051cc:	40 0b       	jsr	@r0
  3051ce:	00 09       	nop	
  3051d0:	94 11       	mov.w	3051f6 <_intc_handler+0x4e>,r4	! 240
  3051d2:	66 93       	mov	r9,r6
  3051d4:	65 a3       	mov	r10,r5
  3051d6:	34 8c       	add	r8,r4
  3051d8:	34 0c       	add	r0,r4
  3051da:	d0 08       	mov.l	3051fc <_intc_handler+0x54>,r0	! 309100 <_memcpy>
  3051dc:	4f 26       	lds.l	@r15+,pr
  3051de:	6a f6       	mov.l	@r15+,r10
  3051e0:	69 f6       	mov.l	@r15+,r9
  3051e2:	40 2b       	jmp	@r0
  3051e4:	68 f6       	mov.l	@r15+,r8
  3051e6:	e0 00       	mov	#0,r0
  3051e8:	4f 26       	lds.l	@r15+,pr
  3051ea:	6a f6       	mov.l	@r15+,r10
  3051ec:	69 f6       	mov.l	@r15+,r9
  3051ee:	00 0b       	rts	
  3051f0:	68 f6       	mov.l	@r15+,r8
  3051f2:	03 ff       	mac.l	@r15+,@r3+
  3051f4:	0f c0       	.word 0x0fc0
  3051f6:	02 40       	.word 0x0240
  3051f8:	00 30       	.word 0x0030
  3051fa:	4f a6       	lds.l	@r15+,y0
  3051fc:	00 30       	.word 0x0030
  3051fe:	91 00       	mov.w	305202 <_intc_handler_function+0x2>,r1	! d00e

00305200 <_intc_handler_function>:
  305200:	7f f4       	add	#-12,r15
  305202:	d0 0e       	mov.l	30523c <_intc_handler_function+0x3c>,r0	! 3051a8 <_intc_handler>
  305204:	2f 86       	mov.l	r8,@-r15
  305206:	4f 22       	sts.l	pr,@-r15
  305208:	1f 52       	mov.l	r5,@(8,r15)
  30520a:	1f 63       	mov.l	r6,@(12,r15)
  30520c:	e6 20       	mov	#32,r6
  30520e:	d5 0c       	mov.l	305240 <_intc_handler_function+0x40>,r5	! 30b100 <_intc_generic_handler>
  305210:	40 0b       	jsr	@r0
  305212:	1f 74       	mov.l	r7,@(16,r15)
  305214:	20 08       	tst	r0,r0
  305216:	68 03       	mov	r0,r8
  305218:	8d 0b       	bt.s	305232 <_intc_handler_function+0x32>
  30521a:	e0 00       	mov	#0,r0
  30521c:	d0 09       	mov.l	305244 <_intc_handler_function+0x44>,r0	! 309100 <_memcpy>
  30521e:	e6 14       	mov	#20,r6
  305220:	65 f3       	mov	r15,r5
  305222:	64 83       	mov	r8,r4
  305224:	75 08       	add	#8,r5
  305226:	40 0b       	jsr	@r0
  305228:	74 08       	add	#8,r4
  30522a:	d1 07       	mov.l	305248 <_intc_handler_function+0x48>,r1	! 8101b94 <_gint_inth_callback>
  30522c:	e0 01       	mov	#1,r0
  30522e:	61 12       	mov.l	@r1,r1
  305230:	18 17       	mov.l	r1,@(28,r8)
  305232:	4f 26       	lds.l	@r15+,pr
  305234:	68 f6       	mov.l	@r15+,r8
  305236:	00 0b       	rts	
  305238:	7f 0c       	add	#12,r15
  30523a:	00 09       	nop	
  30523c:	00 30       	.word 0x0030
  30523e:	51 a8       	mov.l	@(32,r10),r1
  305240:	00 30       	.word 0x0030
  305242:	b1 00       	bsr	305446 <_kinit+0x176>
  305244:	00 30       	.word 0x0030
  305246:	91 00       	mov.w	30524a <_intc_handler_function+0x4a>,r1	! 1b94
  305248:	08 10       	.word 0x0810
  30524a:	1b 94       	mov.l	r9,@(16,r11)

0030524c <_hw_detect>:
  30524c:	2f 86       	mov.l	r8,@-r15
  30524e:	e2 02       	mov	#2,r2
  305250:	d8 14       	mov.l	3052a4 <_hw_detect+0x58>,r8	! 8101bc4 <_gint>
  305252:	e6 08       	mov	#8,r6
  305254:	4f 22       	sts.l	pr,@-r15
  305256:	d1 14       	mov.l	3052a8 <_hw_detect+0x5c>,r1	! ff000030
  305258:	28 22       	mov.l	r2,@r8
  30525a:	61 12       	mov.l	@r1,r1
  30525c:	d3 13       	mov.l	3052ac <_hw_detect+0x60>,r3	! 8bffffff
  30525e:	18 11       	mov.l	r1,@(4,r8)
  305260:	d1 13       	mov.l	3052b0 <_hw_detect+0x64>,r1	! ff000044
  305262:	d0 14       	mov.l	3052b4 <_hw_detect+0x68>,r0	! 309060 <_memcmp>
  305264:	61 12       	mov.l	@r1,r1
  305266:	d5 14       	mov.l	3052b8 <_hw_detect+0x6c>,r5	! 30bb4c
  305268:	18 12       	mov.l	r1,@(8,r8)
  30526a:	61 f3       	mov	r15,r1
  30526c:	31 36       	cmp/hi	r3,r1
  30526e:	d4 13       	mov.l	3052bc <_hw_detect+0x70>,r4	! 8001ffd0
  305270:	01 29       	movt	r1
  305272:	18 2b       	mov.l	r2,@(44,r8)
  305274:	71 04       	add	#4,r1
  305276:	40 0b       	jsr	@r0
  305278:	18 13       	mov.l	r1,@(12,r8)
  30527a:	20 08       	tst	r0,r0
  30527c:	8f 0b       	bf.s	305296 <_hw_detect+0x4a>
  30527e:	e1 06       	mov	#6,r1
  305280:	18 13       	mov.l	r1,@(12,r8)
  305282:	d1 0f       	mov.l	3052c0 <_hw_detect+0x74>,r1	! 800000
  305284:	18 14       	mov.l	r1,@(16,r8)
  305286:	e5 00       	mov	#0,r5
  305288:	d1 0e       	mov.l	3052c4 <_hw_detect+0x78>,r1	! 2000000
  30528a:	e4 00       	mov	#0,r4
  30528c:	18 15       	mov.l	r1,@(20,r8)
  30528e:	d1 0e       	mov.l	3052c8 <_hw_detect+0x7c>,r1	! 3064a0 <_utlb_mapped_memory>
  305290:	4f 26       	lds.l	@r15+,pr
  305292:	41 2b       	jmp	@r1
  305294:	68 f6       	mov.l	@r15+,r8
  305296:	50 83       	mov.l	@(12,r8),r0
  305298:	88 04       	cmp/eq	#4,r0
  30529a:	8b f2       	bf	305282 <_hw_detect+0x36>
  30529c:	d1 0b       	mov.l	3052cc <_hw_detect+0x80>,r1	! 200000
  30529e:	af f2       	bra	305286 <_hw_detect+0x3a>
  3052a0:	18 14       	mov.l	r1,@(16,r8)
  3052a2:	00 09       	nop	
  3052a4:	08 10       	.word 0x0810
  3052a6:	1b c4       	mov.l	r12,@(16,r11)
  3052a8:	ff 00       	.word 0xff00
  3052aa:	00 30       	.word 0x0030
  3052ac:	8b ff       	bf	3052ae <_hw_detect+0x62>
  3052ae:	ff ff       	.word 0xffff
  3052b0:	ff 00       	.word 0xff00
  3052b2:	00 44       	mov.b	r4,@(r0,r0)
  3052b4:	00 30       	.word 0x0030
  3052b6:	90 60       	mov.w	30537a <_kinit+0xaa>,r0	! d83e
  3052b8:	00 30       	.word 0x0030
  3052ba:	bb 4c       	bsr	304956 <_dvram_init+0x42>
  3052bc:	80 01       	mov.b	r0,@(1,r0)
  3052be:	ff d0       	.word 0xffd0
  3052c0:	00 80       	.word 0x0080
  3052c2:	00 00       	.word 0x0000
  3052c4:	02 00       	.word 0x0200
  3052c6:	00 00       	.word 0x0000
  3052c8:	00 30       	.word 0x0030
  3052ca:	64 a0       	mov.b	@r10,r4
  3052cc:	00 20       	.word 0x0020
	...

003052d0 <_kinit>:
  3052d0:	2f 86       	mov.l	r8,@-r15
  3052d2:	2f 96       	mov.l	r9,@-r15
  3052d4:	2f a6       	mov.l	r10,@-r15
  3052d6:	2f b6       	mov.l	r11,@-r15
  3052d8:	2f c6       	mov.l	r12,@-r15
  3052da:	db 4f       	mov.l	305418 <_kinit+0x148>,r11	! 3065e4 <_mmu_uram>
  3052dc:	2f d6       	mov.l	r13,@-r15
  3052de:	2f e6       	mov.l	r14,@-r15
  3052e0:	4f 22       	sts.l	pr,@-r15
  3052e2:	4b 0b       	jsr	@r11
  3052e4:	ec 01       	mov	#1,r12
  3052e6:	d8 4d       	mov.l	30541c <_kinit+0x14c>,r8	! 309100 <_memcpy>
  3052e8:	4b 0b       	jsr	@r11
  3052ea:	69 03       	mov	r0,r9
  3052ec:	6a 03       	mov	r0,r10
  3052ee:	d0 4c       	mov.l	305420 <_kinit+0x150>,r0	! 306604 <_mmu_uram_size>
  3052f0:	40 0b       	jsr	@r0
  3052f2:	00 09       	nop	
  3052f4:	91 8a       	mov.w	30540c <_kinit+0x13c>,r1	! c000
  3052f6:	94 8a       	mov.w	30540e <_kinit+0x13e>,r4	! 100
  3052f8:	30 1c       	add	r1,r0
  3052fa:	d1 4a       	mov.l	305424 <_kinit+0x154>,r1	! 81015d8 <_gint_stack_top>
  3052fc:	3a 0c       	add	r0,r10
  3052fe:	d6 4a       	mov.l	305428 <_kinit+0x158>,r6	! 94 <_gint_exch_size>
  305300:	21 a2       	mov.l	r10,@r1
  305302:	d5 4a       	mov.l	30542c <_kinit+0x15c>,r5	! 300140 <_gint_exch>
  305304:	48 0b       	jsr	@r8
  305306:	34 9c       	add	r9,r4
  305308:	94 82       	mov.w	305410 <_kinit+0x140>,r4	! 400
  30530a:	d6 49       	mov.l	305430 <_kinit+0x160>,r6	! 70 <_gint_tlbh_size>
  30530c:	d5 49       	mov.l	305434 <_kinit+0x164>,r5	! 3001d0 <_gint_tlbh>
  30530e:	48 0b       	jsr	@r8
  305310:	34 9c       	add	r9,r4
  305312:	94 7e       	mov.w	305412 <_kinit+0x142>,r4	! 600
  305314:	e6 40       	mov	#64,r6
  305316:	d5 48       	mov.l	305438 <_kinit+0x168>,r5	! 30b120 <_gint_inth_7305>
  305318:	48 0b       	jsr	@r8
  30531a:	34 9c       	add	r9,r4
  30531c:	d1 47       	mov.l	30543c <_kinit+0x16c>,r1	! 306258 <_kmalloc_init>
  30531e:	d8 48       	mov.l	305440 <_kinit+0x170>,r8	! 810161c <_static_ram.1>
  305320:	41 0b       	jsr	@r1
  305322:	00 09       	nop	
  305324:	d1 47       	mov.l	305444 <_kinit+0x174>,r1	! 30bb58
  305326:	18 c7       	mov.l	r12,@(28,r8)
  305328:	4b 0b       	jsr	@r11
  30532a:	18 13       	mov.l	r1,@(12,r8)
  30532c:	18 a5       	mov.l	r10,@(20,r8)
  30532e:	e5 01       	mov	#1,r5
  305330:	d1 45       	mov.l	305448 <_kinit+0x178>,r1	! 1c10
  305332:	64 83       	mov	r8,r4
  305334:	da 45       	mov.l	30544c <_kinit+0x17c>,r10	! 306128 <_kmalloc_init_arena>
  305336:	31 0c       	add	r0,r1
  305338:	db 45       	mov.l	305450 <_kinit+0x180>,r11	! 3063fc <_kmalloc_add_arena>
  30533a:	4a 0b       	jsr	@r10
  30533c:	18 14       	mov.l	r1,@(16,r8)
  30533e:	4b 0b       	jsr	@r11
  305340:	64 83       	mov	r8,r4
  305342:	d2 44       	mov.l	305454 <_kinit+0x184>,r2	! 81015e8 <_os_stack.0>
  305344:	d1 44       	mov.l	305458 <_kinit+0x188>,r1	! 30bb60
  305346:	12 c7       	mov.l	r12,@(28,r2)
  305348:	12 13       	mov.l	r1,@(12,r2)
  30534a:	d1 44       	mov.l	30545c <_kinit+0x18c>,r1	! 8101bc4 <_gint>
  30534c:	50 13       	mov.l	@(12,r1),r0
  30534e:	e1 fd       	mov	#-3,r1
  305350:	20 19       	and	r1,r0
  305352:	88 04       	cmp/eq	#4,r0
  305354:	89 27       	bt	3053a6 <_kinit+0xd6>
  305356:	d1 42       	mov.l	305460 <_kinit+0x190>,r1	! 8c0f0000
  305358:	d3 42       	mov.l	305464 <_kinit+0x194>,r3	! 57800
  30535a:	e5 01       	mov	#1,r5
  30535c:	12 14       	mov.l	r1,@(16,r2)
  30535e:	31 3c       	add	r3,r1
  305360:	d4 3c       	mov.l	305454 <_kinit+0x184>,r4	! 81015e8 <_os_stack.0>
  305362:	4a 0b       	jsr	@r10
  305364:	12 15       	mov.l	r1,@(20,r2)
  305366:	d8 40       	mov.l	305468 <_kinit+0x198>,r8	! 3057b0 <_gint_world_alloc>
  305368:	d4 3a       	mov.l	305454 <_kinit+0x184>,r4	! 81015e8 <_os_stack.0>
  30536a:	4b 0b       	jsr	@r11
  30536c:	00 09       	nop	
  30536e:	48 0b       	jsr	@r8
  305370:	00 09       	nop	
  305372:	da 3e       	mov.l	30546c <_kinit+0x19c>,r10	! 81015e4 <_gint_world_os>
  305374:	db 3e       	mov.l	305470 <_kinit+0x1a0>,r11	! 81015e0 <_gint_world_addin>
  305376:	48 0b       	jsr	@r8
  305378:	2a 02       	mov.l	r0,@r10
  30537a:	d8 3e       	mov.l	305474 <_kinit+0x1a4>,r8	! 30b260 <_drv_cpu>
  30537c:	e2 fc       	mov	#-4,r2
  30537e:	d1 3e       	mov.l	305478 <_kinit+0x1a8>,r1	! 30b3e0 <_gint_drivers_end>
  305380:	2b 02       	mov.l	r0,@r11
  305382:	31 88       	sub	r8,r1
  305384:	d0 3d       	mov.l	30547c <_kinit+0x1ac>,r0	! 309250 <_malloc>
  305386:	41 2c       	shad	r2,r1
  305388:	d2 3d       	mov.l	305480 <_kinit+0x1b0>,r2	! aaaaaaab
  30538a:	de 3e       	mov.l	305484 <_kinit+0x1b4>,r14	! 81015dc <_gint_driver_flags>
  30538c:	01 27       	mul.l	r2,r1
  30538e:	0c 1a       	sts	macl,r12
  305390:	40 0b       	jsr	@r0
  305392:	04 1a       	sts	macl,r4
  305394:	2e 02       	mov.l	r0,@r14
  305396:	d0 3c       	mov.l	305488 <_kinit+0x1b8>,r0	! 304914 <_dvram_init>
  305398:	40 0b       	jsr	@r0
  30539a:	00 09       	nop	
  30539c:	20 08       	tst	r0,r0
  30539e:	8b 05       	bf	3053ac <_kinit+0xdc>
  3053a0:	d1 3a       	mov.l	30548c <_kinit+0x1bc>,r1	! 308ebc <_abort>
  3053a2:	41 0b       	jsr	@r1
  3053a4:	00 09       	nop	
  3053a6:	d1 3a       	mov.l	305490 <_kinit+0x1c0>,r1	! 880f0000
  3053a8:	af d6       	bra	305358 <_kinit+0x88>
  3053aa:	00 09       	nop	
  3053ac:	61 a2       	mov.l	@r10,r1
  3053ae:	21 18       	tst	r1,r1
  3053b0:	89 06       	bt	3053c0 <_kinit+0xf0>
  3053b2:	61 b2       	mov.l	@r11,r1
  3053b4:	21 18       	tst	r1,r1
  3053b6:	89 03       	bt	3053c0 <_kinit+0xf0>
  3053b8:	61 e2       	mov.l	@r14,r1
  3053ba:	21 18       	tst	r1,r1
  3053bc:	8f 15       	bf.s	3053ea <_kinit+0x11a>
  3053be:	ed 00       	mov	#0,r13
  3053c0:	d1 34       	mov.l	305494 <_kinit+0x1c4>,r1	! 307510 <_gint_panic>
  3053c2:	94 27       	mov.w	305414 <_kinit+0x144>,r4	! 1060
  3053c4:	41 0b       	jsr	@r1
  3053c6:	00 09       	nop	
  3053c8:	51 81       	mov.l	@(4,r8),r1
  3053ca:	21 18       	tst	r1,r1
  3053cc:	8d 03       	bt.s	3053d6 <_kinit+0x106>
  3053ce:	60 83       	mov	r8,r0
  3053d0:	41 0b       	jsr	@r1
  3053d2:	00 09       	nop	
  3053d4:	60 83       	mov	r8,r0
  3053d6:	70 20       	add	#32,r0
  3053d8:	84 0e       	mov.b	@(14,r0),r0
  3053da:	e2 01       	mov	#1,r2
  3053dc:	61 e2       	mov.l	@r14,r1
  3053de:	78 30       	add	#48,r8
  3053e0:	c9 10       	and	#16,r0
  3053e2:	22 0b       	or	r0,r2
  3053e4:	60 d3       	mov	r13,r0
  3053e6:	7d 01       	add	#1,r13
  3053e8:	01 24       	mov.b	r2,@(r0,r1)
  3053ea:	3c d7       	cmp/gt	r13,r12
  3053ec:	89 ec       	bt	3053c8 <_kinit+0xf8>
  3053ee:	d1 2a       	mov.l	305498 <_kinit+0x1c8>,r1	! 306b70 <_cpu_configure_VBR>
  3053f0:	41 0b       	jsr	@r1
  3053f2:	64 93       	mov	r9,r4
  3053f4:	65 b2       	mov.l	@r11,r5
  3053f6:	64 a2       	mov.l	@r10,r4
  3053f8:	d1 28       	mov.l	30549c <_kinit+0x1cc>,r1	! 305894 <_gint_world_switch_in>
  3053fa:	4f 26       	lds.l	@r15+,pr
  3053fc:	6e f6       	mov.l	@r15+,r14
  3053fe:	6d f6       	mov.l	@r15+,r13
  305400:	6c f6       	mov.l	@r15+,r12
  305402:	6b f6       	mov.l	@r15+,r11
  305404:	6a f6       	mov.l	@r15+,r10
  305406:	69 f6       	mov.l	@r15+,r9
  305408:	41 2b       	jmp	@r1
  30540a:	68 f6       	mov.l	@r15+,r8
  30540c:	c0 00       	mov.b	r0,@(0,gbr)
  30540e:	01 00       	.word 0x0100
  305410:	04 00       	.word 0x0400
  305412:	06 00       	.word 0x0600
  305414:	10 60       	mov.l	r6,@(0,r0)
  305416:	00 09       	nop	
  305418:	00 30       	.word 0x0030
  30541a:	65 e4       	mov.b	@r14+,r5
  30541c:	00 30       	.word 0x0030
  30541e:	91 00       	mov.w	305422 <_kinit+0x152>,r1	! 6604
  305420:	00 30       	.word 0x0030
  305422:	66 04       	mov.b	@r0+,r6
  305424:	08 10       	.word 0x0810
  305426:	15 d8       	mov.l	r13,@(32,r5)
  305428:	00 00       	.word 0x0000
  30542a:	00 94       	mov.b	r9,@(r0,r0)
  30542c:	00 30       	.word 0x0030
  30542e:	01 40       	.word 0x0140
  305430:	00 00       	.word 0x0000
  305432:	00 70       	.word 0x0070
  305434:	00 30       	.word 0x0030
  305436:	01 d0       	.word 0x01d0
  305438:	00 30       	.word 0x0030
  30543a:	b1 20       	bsr	30567e <_BFile_Close+0xa>
  30543c:	00 30       	.word 0x0030
  30543e:	62 58       	swap.b	r5,r2
  305440:	08 10       	.word 0x0810
  305442:	16 1c       	mov.l	r1,@(48,r6)
  305444:	00 30       	.word 0x0030
  305446:	bb 58       	bsr	304afa <_dtext_opt+0x10e>
  305448:	00 00       	.word 0x0000
  30544a:	1c 10       	mov.l	r1,@(0,r12)
  30544c:	00 30       	.word 0x0030
  30544e:	61 28       	swap.b	r2,r1
  305450:	00 30       	.word 0x0030
  305452:	63 fc       	extu.b	r15,r3
  305454:	08 10       	.word 0x0810
  305456:	15 e8       	mov.l	r14,@(32,r5)
  305458:	00 30       	.word 0x0030
  30545a:	bb 60       	bsr	304b1e <_dtext_opt+0x132>
  30545c:	08 10       	.word 0x0810
  30545e:	1b c4       	mov.l	r12,@(16,r11)
  305460:	8c 0f       	ldrs	305482 <_kinit+0x1b2>	! aaab
  305462:	00 00       	.word 0x0000
  305464:	00 05       	mov.w	r0,@(r0,r0)
  305466:	78 00       	add	#0,r8
  305468:	00 30       	.word 0x0030
  30546a:	57 b0       	mov.l	@(0,r11),r7
  30546c:	08 10       	.word 0x0810
  30546e:	15 e4       	mov.l	r14,@(16,r5)
  305470:	08 10       	.word 0x0810
  305472:	15 e0       	mov.l	r14,@(0,r5)
  305474:	00 30       	.word 0x0030
  305476:	b2 60       	bsr	30593a <_gint_world_switch_in+0xa6>
  305478:	00 30       	.word 0x0030
  30547a:	b3 e0       	bsr	305c3e <_merge+0x42>
  30547c:	00 30       	.word 0x0030
  30547e:	92 50       	mov.w	305522 <___osmenu+0x32>,r2	! 6565
  305480:	aa aa       	bra	3049d8 <_dvram_switch+0xc>
  305482:	aa ab       	bra	3049dc <_dvram_switch+0x10>
  305484:	08 10       	.word 0x0810
  305486:	15 dc       	mov.l	r13,@(48,r5)
  305488:	00 30       	.word 0x0030
  30548a:	49 14       	setrc	r9
  30548c:	00 30       	.word 0x0030
  30548e:	8e bc       	ldre	30560a <_gint_osmenu+0x3a>	! 0 <_sxyram>
  305490:	88 0f       	cmp/eq	#15,r0
  305492:	00 00       	.word 0x0000
  305494:	00 30       	.word 0x0030
  305496:	75 10       	add	#16,r5
  305498:	00 30       	.word 0x0030
  30549a:	6b 70       	mov.b	@r7,r11
  30549c:	00 30       	.word 0x0030
  30549e:	58 94       	mov.l	@(16,r9),r8

003054a0 <_kquit>:
  3054a0:	2f 86       	mov.l	r8,@-r15
  3054a2:	d1 0d       	mov.l	3054d8 <_kquit+0x38>,r1	! 305998 <_gint_world_switch_out>
  3054a4:	2f 96       	mov.l	r9,@-r15
  3054a6:	d8 0d       	mov.l	3054dc <_kquit+0x3c>,r8	! 81015e0 <_gint_world_addin>
  3054a8:	d9 0d       	mov.l	3054e0 <_kquit+0x40>,r9	! 81015e4 <_gint_world_os>
  3054aa:	2f a6       	mov.l	r10,@-r15
  3054ac:	4f 22       	sts.l	pr,@-r15
  3054ae:	65 92       	mov.l	@r9,r5
  3054b0:	41 0b       	jsr	@r1
  3054b2:	64 82       	mov.l	@r8,r4
  3054b4:	da 0b       	mov.l	3054e4 <_kquit+0x44>,r10	! 30583c <_gint_world_free>
  3054b6:	4a 0b       	jsr	@r10
  3054b8:	64 92       	mov.l	@r9,r4
  3054ba:	4a 0b       	jsr	@r10
  3054bc:	64 82       	mov.l	@r8,r4
  3054be:	d1 0a       	mov.l	3054e8 <_kquit+0x48>,r1	! 309244 <_free>
  3054c0:	da 0a       	mov.l	3054ec <_kquit+0x4c>,r10	! 81015dc <_gint_driver_flags>
  3054c2:	41 0b       	jsr	@r1
  3054c4:	64 a2       	mov.l	@r10,r4
  3054c6:	e1 00       	mov	#0,r1
  3054c8:	29 12       	mov.l	r1,@r9
  3054ca:	28 12       	mov.l	r1,@r8
  3054cc:	2a 12       	mov.l	r1,@r10
  3054ce:	4f 26       	lds.l	@r15+,pr
  3054d0:	6a f6       	mov.l	@r15+,r10
  3054d2:	69 f6       	mov.l	@r15+,r9
  3054d4:	00 0b       	rts	
  3054d6:	68 f6       	mov.l	@r15+,r8
  3054d8:	00 30       	.word 0x0030
  3054da:	59 98       	mov.l	@(32,r9),r9
  3054dc:	08 10       	.word 0x0810
  3054de:	15 e0       	mov.l	r14,@(0,r5)
  3054e0:	08 10       	.word 0x0810
  3054e2:	15 e4       	mov.l	r14,@(16,r5)
  3054e4:	00 30       	.word 0x0030
  3054e6:	58 3c       	mov.l	@(48,r3),r8
  3054e8:	00 30       	.word 0x0030
  3054ea:	92 44       	mov.w	305576 <___osmenu+0x86>,r2	! 180
  3054ec:	08 10       	.word 0x0810
  3054ee:	15 dc       	mov.l	r13,@(48,r5)

003054f0 <___osmenu>:
  3054f0:	d1 22       	mov.l	30557c <___osmenu+0x8c>,r1	! 305764 <___ClearKeyBuffer>
  3054f2:	4f 22       	sts.l	pr,@-r15
  3054f4:	41 0b       	jsr	@r1
  3054f6:	7f e4       	add	#-28,r15
  3054f8:	d1 21       	mov.l	305580 <___osmenu+0x90>,r1	! 3049ac <_dgetvram>
  3054fa:	65 f3       	mov	r15,r5
  3054fc:	64 f3       	mov	r15,r4
  3054fe:	75 10       	add	#16,r5
  305500:	41 0b       	jsr	@r1
  305502:	74 0c       	add	#12,r4
  305504:	d0 1f       	mov.l	305584 <___osmenu+0x94>,r0	! 305774 <___GetVRAMAddress>
  305506:	40 0b       	jsr	@r0
  305508:	00 09       	nop	
  30550a:	d2 1f       	mov.l	305588 <___osmenu+0x98>,r2	! 81015c0 <_gint_vram>
  30550c:	51 f3       	mov.l	@(12,r15),r1
  30550e:	62 22       	mov.l	@r2,r2
  305510:	32 10       	cmp/eq	r1,r2
  305512:	8f 02       	bf.s	30551a <___osmenu+0x2a>
  305514:	71 0c       	add	#12,r1
  305516:	51 f4       	mov.l	@(16,r15),r1
  305518:	71 0c       	add	#12,r1
  30551a:	97 2b       	mov.w	305574 <___osmenu+0x84>,r7	! d8
  30551c:	92 2b       	mov.w	305576 <___osmenu+0x86>,r2	! 180
  30551e:	63 03       	mov	r0,r3
  305520:	66 13       	mov	r1,r6
  305522:	65 65       	mov.w	@r6+,r5
  305524:	42 10       	dt	r2
  305526:	23 51       	mov.w	r5,@r3
  305528:	8f fb       	bf.s	305522 <___osmenu+0x32>
  30552a:	73 02       	add	#2,r3
  30552c:	92 24       	mov.w	305578 <___osmenu+0x88>,r2	! 300
  30552e:	47 10       	dt	r7
  305530:	30 2c       	add	r2,r0
  305532:	72 18       	add	#24,r2
  305534:	8f f2       	bf.s	30551c <___osmenu+0x2c>
  305536:	31 2c       	add	r2,r1
  305538:	d0 14       	mov.l	30558c <___osmenu+0x9c>,r0	! 305704 <___Timer_Install>
  30553a:	e4 00       	mov	#0,r4
  30553c:	d5 14       	mov.l	305590 <___osmenu+0xa0>,r5	! 3055a0 <___osmenu_handler>
  30553e:	40 0b       	jsr	@r0
  305540:	e6 00       	mov	#0,r6
  305542:	d1 14       	mov.l	305594 <___osmenu+0xa4>,r1	! 8101650 <___osmenu_id>
  305544:	40 15       	cmp/pl	r0
  305546:	64 03       	mov	r0,r4
  305548:	8f 10       	bf.s	30556c <___osmenu+0x7c>
  30554a:	21 02       	mov.l	r0,@r1
  30554c:	d0 12       	mov.l	305598 <___osmenu+0xa8>,r0	! 305714 <___Timer_Start>
  30554e:	40 0b       	jsr	@r0
  305550:	00 09       	nop	
  305552:	d0 12       	mov.l	30559c <___osmenu+0xac>,r0	! 305754 <___GetKeyWait>
  305554:	61 f3       	mov	r15,r1
  305556:	71 0a       	add	#10,r1
  305558:	65 f3       	mov	r15,r5
  30555a:	1f 11       	mov.l	r1,@(4,r15)
  30555c:	e1 00       	mov	#0,r1
  30555e:	64 f3       	mov	r15,r4
  305560:	2f 12       	mov.l	r1,@r15
  305562:	e7 01       	mov	#1,r7
  305564:	e6 00       	mov	#0,r6
  305566:	75 18       	add	#24,r5
  305568:	40 0b       	jsr	@r0
  30556a:	74 14       	add	#20,r4
  30556c:	7f 1c       	add	#28,r15
  30556e:	4f 26       	lds.l	@r15+,pr
  305570:	00 0b       	rts	
  305572:	00 09       	nop	
  305574:	00 d8       	.word 0x00d8
  305576:	01 80       	.word 0x0180
  305578:	03 00       	.word 0x0300
  30557a:	00 09       	nop	
  30557c:	00 30       	.word 0x0030
  30557e:	57 64       	mov.l	@(16,r6),r7
  305580:	00 30       	.word 0x0030
  305582:	49 ac       	shad	r10,r9
  305584:	00 30       	.word 0x0030
  305586:	57 74       	mov.l	@(16,r7),r7
  305588:	08 10       	.word 0x0810
  30558a:	15 c0       	mov.l	r12,@(0,r5)
  30558c:	00 30       	.word 0x0030
  30558e:	57 04       	mov.l	@(16,r0),r7
  305590:	00 30       	.word 0x0030
  305592:	55 a0       	mov.l	@(0,r10),r5
  305594:	08 10       	.word 0x0810
  305596:	16 50       	mov.l	r5,@(0,r6)
  305598:	00 30       	.word 0x0030
  30559a:	57 14       	mov.l	@(16,r1),r7
  30559c:	00 30       	.word 0x0030
  30559e:	57 54       	mov.l	@(16,r5),r7

003055a0 <___osmenu_handler>:
  3055a0:	d0 07       	mov.l	3055c0 <___osmenu_handler+0x20>,r0	! 305744 <___PutKeyCode>
  3055a2:	e6 00       	mov	#0,r6
  3055a4:	2f 86       	mov.l	r8,@-r15
  3055a6:	e5 09       	mov	#9,r5
  3055a8:	4f 22       	sts.l	pr,@-r15
  3055aa:	d8 06       	mov.l	3055c4 <___osmenu_handler+0x24>,r8	! 8101650 <___osmenu_id>
  3055ac:	40 0b       	jsr	@r0
  3055ae:	e4 04       	mov	#4,r4
  3055b0:	d0 05       	mov.l	3055c8 <___osmenu_handler+0x28>,r0	! 305724 <___Timer_Stop>
  3055b2:	40 0b       	jsr	@r0
  3055b4:	64 82       	mov.l	@r8,r4
  3055b6:	64 82       	mov.l	@r8,r4
  3055b8:	d0 04       	mov.l	3055cc <___osmenu_handler+0x2c>,r0	! 305734 <___Timer_Deinstall>
  3055ba:	4f 26       	lds.l	@r15+,pr
  3055bc:	40 2b       	jmp	@r0
  3055be:	68 f6       	mov.l	@r15+,r8
  3055c0:	00 30       	.word 0x0030
  3055c2:	57 44       	mov.l	@(16,r4),r7
  3055c4:	08 10       	.word 0x0810
  3055c6:	16 50       	mov.l	r5,@(0,r6)
  3055c8:	00 30       	.word 0x0030
  3055ca:	57 24       	mov.l	@(16,r2),r7
  3055cc:	00 30       	.word 0x0030
  3055ce:	57 34       	mov.l	@(16,r3),r7

003055d0 <_gint_osmenu>:
  3055d0:	4f 22       	sts.l	pr,@-r15
  3055d2:	d0 09       	mov.l	3055f8 <_gint_osmenu+0x28>,r0	! 3091c0 <_memset>
  3055d4:	7f e8       	add	#-24,r15
  3055d6:	e6 10       	mov	#16,r6
  3055d8:	64 f3       	mov	r15,r4
  3055da:	e5 00       	mov	#0,r5
  3055dc:	40 0b       	jsr	@r0
  3055de:	74 08       	add	#8,r4
  3055e0:	d0 06       	mov.l	3055fc <_gint_osmenu+0x2c>,r0	! 305a74 <_gint_world_switch>
  3055e2:	51 f5       	mov.l	@(20,r15),r1
  3055e4:	d4 06       	mov.l	305600 <_gint_osmenu+0x30>,r4	! 3054f0 <___osmenu>
  3055e6:	55 f2       	mov.l	@(8,r15),r5
  3055e8:	56 f3       	mov.l	@(12,r15),r6
  3055ea:	57 f4       	mov.l	@(16,r15),r7
  3055ec:	40 0b       	jsr	@r0
  3055ee:	2f 12       	mov.l	r1,@r15
  3055f0:	7f 18       	add	#24,r15
  3055f2:	4f 26       	lds.l	@r15+,pr
  3055f4:	00 0b       	rts	
  3055f6:	00 09       	nop	
  3055f8:	00 30       	.word 0x0030
  3055fa:	91 c0       	mov.w	30577e <___GetVRAMAddress+0xa>,r1	! 9
  3055fc:	00 30       	.word 0x0030
  3055fe:	5a 74       	mov.l	@(16,r7),r10
  305600:	00 30       	.word 0x0030
  305602:	54 f0       	mov.l	@(0,r15),r4
	...

00305610 <___malloc>:
  305610:	d2 64       	mov.l	3057a4 <syscall_table>,r2	! 80020070
  305612:	d0 03       	mov.l	305620 <___malloc+0x10>,r0	! 1f44
  305614:	42 2b       	jmp	@r2
  305616:	00 09       	nop	
  305618:	00 09       	nop	
  30561a:	00 09       	nop	
  30561c:	00 09       	nop	
  30561e:	00 09       	nop	
  305620:	00 00       	.word 0x0000
  305622:	1f 44       	mov.l	r4,@(16,r15)

00305624 <___free>:
  305624:	d2 5f       	mov.l	3057a4 <syscall_table>,r2	! 80020070
  305626:	d0 02       	mov.l	305630 <___free+0xc>,r0	! 1f42
  305628:	42 2b       	jmp	@r2
  30562a:	00 09       	nop	
  30562c:	00 09       	nop	
  30562e:	00 09       	nop	
  305630:	00 00       	.word 0x0000
  305632:	1f 42       	mov.l	r4,@(8,r15)

00305634 <___realloc>:
  305634:	d2 5b       	mov.l	3057a4 <syscall_table>,r2	! 80020070
  305636:	d0 02       	mov.l	305640 <___realloc+0xc>,r0	! 1f46
  305638:	42 2b       	jmp	@r2
  30563a:	00 09       	nop	
  30563c:	00 09       	nop	
  30563e:	00 09       	nop	
  305640:	00 00       	.word 0x0000
  305642:	1f 46       	mov.l	r4,@(24,r15)

00305644 <_BFile_Remove>:
  305644:	d2 57       	mov.l	3057a4 <syscall_table>,r2	! 80020070
  305646:	d0 02       	mov.l	305650 <_BFile_Remove+0xc>,r0	! 1db4
  305648:	42 2b       	jmp	@r2
  30564a:	00 09       	nop	
  30564c:	00 09       	nop	
  30564e:	00 09       	nop	
  305650:	00 00       	.word 0x0000
  305652:	1d b4       	mov.l	r11,@(16,r13)

00305654 <_BFile_Create>:
  305654:	d2 53       	mov.l	3057a4 <syscall_table>,r2	! 80020070
  305656:	d0 02       	mov.l	305660 <_BFile_Create+0xc>,r0	! 1dae
  305658:	42 2b       	jmp	@r2
  30565a:	00 09       	nop	
  30565c:	00 09       	nop	
  30565e:	00 09       	nop	
  305660:	00 00       	.word 0x0000
  305662:	1d ae       	mov.l	r10,@(56,r13)

00305664 <_BFile_Open>:
  305664:	e6 00       	mov	#0,r6
  305666:	d2 4f       	mov.l	3057a4 <syscall_table>,r2	! 80020070
  305668:	d0 01       	mov.l	305670 <_BFile_Open+0xc>,r0	! 1da3
  30566a:	42 2b       	jmp	@r2
  30566c:	00 09       	nop	
  30566e:	00 09       	nop	
  305670:	00 00       	.word 0x0000
  305672:	1d a3       	mov.l	r10,@(12,r13)

00305674 <_BFile_Close>:
  305674:	d2 4b       	mov.l	3057a4 <syscall_table>,r2	! 80020070
  305676:	d0 02       	mov.l	305680 <_BFile_Close+0xc>,r0	! 1da4
  305678:	42 2b       	jmp	@r2
  30567a:	00 09       	nop	
  30567c:	00 09       	nop	
  30567e:	00 09       	nop	
  305680:	00 00       	.word 0x0000
  305682:	1d a4       	mov.l	r10,@(16,r13)

00305684 <_BFile_Size>:
  305684:	d2 47       	mov.l	3057a4 <syscall_table>,r2	! 80020070
  305686:	d0 02       	mov.l	305690 <_BFile_Size+0xc>,r0	! 1da6
  305688:	42 2b       	jmp	@r2
  30568a:	00 09       	nop	
  30568c:	00 09       	nop	
  30568e:	00 09       	nop	
  305690:	00 00       	.word 0x0000
  305692:	1d a6       	mov.l	r10,@(24,r13)

00305694 <_BFile_Seek>:
  305694:	d2 43       	mov.l	3057a4 <syscall_table>,r2	! 80020070
  305696:	d0 02       	mov.l	3056a0 <_BFile_Seek+0xc>,r0	! 1da9
  305698:	42 2b       	jmp	@r2
  30569a:	00 09       	nop	
  30569c:	00 09       	nop	
  30569e:	00 09       	nop	
  3056a0:	00 00       	.word 0x0000
  3056a2:	1d a9       	mov.l	r10,@(36,r13)

003056a4 <_BFile_GetPos>:
  3056a4:	d2 3f       	mov.l	3057a4 <syscall_table>,r2	! 80020070
  3056a6:	d0 02       	mov.l	3056b0 <_BFile_GetPos+0xc>,r0	! 1dab
  3056a8:	42 2b       	jmp	@r2
  3056aa:	00 09       	nop	
  3056ac:	00 09       	nop	
  3056ae:	00 09       	nop	
  3056b0:	00 00       	.word 0x0000
  3056b2:	1d ab       	mov.l	r10,@(44,r13)

003056b4 <_BFile_Write>:
  3056b4:	d2 3b       	mov.l	3057a4 <syscall_table>,r2	! 80020070
  3056b6:	d0 02       	mov.l	3056c0 <_BFile_Write+0xc>,r0	! 1daf
  3056b8:	42 2b       	jmp	@r2
  3056ba:	00 09       	nop	
  3056bc:	00 09       	nop	
  3056be:	00 09       	nop	
  3056c0:	00 00       	.word 0x0000
  3056c2:	1d af       	mov.l	r10,@(60,r13)

003056c4 <_BFile_Read>:
  3056c4:	d2 37       	mov.l	3057a4 <syscall_table>,r2	! 80020070
  3056c6:	d0 02       	mov.l	3056d0 <_BFile_Read+0xc>,r0	! 1dac
  3056c8:	42 2b       	jmp	@r2
  3056ca:	00 09       	nop	
  3056cc:	00 09       	nop	
  3056ce:	00 09       	nop	
  3056d0:	00 00       	.word 0x0000
  3056d2:	1d ac       	mov.l	r10,@(48,r13)

003056d4 <_BFile_FindFirst>:
  3056d4:	d2 33       	mov.l	3057a4 <syscall_table>,r2	! 80020070
  3056d6:	d0 02       	mov.l	3056e0 <_BFile_FindFirst+0xc>,r0	! 1db6
  3056d8:	42 2b       	jmp	@r2
  3056da:	00 09       	nop	
  3056dc:	00 09       	nop	
  3056de:	00 09       	nop	
  3056e0:	00 00       	.word 0x0000
  3056e2:	1d b6       	mov.l	r11,@(24,r13)

003056e4 <_BFile_FindNext>:
  3056e4:	d2 2f       	mov.l	3057a4 <syscall_table>,r2	! 80020070
  3056e6:	d0 02       	mov.l	3056f0 <_BFile_FindNext+0xc>,r0	! 1db8
  3056e8:	42 2b       	jmp	@r2
  3056ea:	00 09       	nop	
  3056ec:	00 09       	nop	
  3056ee:	00 09       	nop	
  3056f0:	00 00       	.word 0x0000
  3056f2:	1d b8       	mov.l	r11,@(32,r13)

003056f4 <_BFile_FindClose>:
  3056f4:	d2 2b       	mov.l	3057a4 <syscall_table>,r2	! 80020070
  3056f6:	d0 02       	mov.l	305700 <_BFile_FindClose+0xc>,r0	! 1dba
  3056f8:	42 2b       	jmp	@r2
  3056fa:	00 09       	nop	
  3056fc:	00 09       	nop	
  3056fe:	00 09       	nop	
  305700:	00 00       	.word 0x0000
  305702:	1d ba       	mov.l	r11,@(40,r13)

00305704 <___Timer_Install>:
  305704:	d2 27       	mov.l	3057a4 <syscall_table>,r2	! 80020070
  305706:	d0 02       	mov.l	305710 <___Timer_Install+0xc>,r0	! 8d9
  305708:	42 2b       	jmp	@r2
  30570a:	00 09       	nop	
  30570c:	00 09       	nop	
  30570e:	00 09       	nop	
  305710:	00 00       	.word 0x0000
  305712:	08 d9       	.word 0x08d9

00305714 <___Timer_Start>:
  305714:	d2 23       	mov.l	3057a4 <syscall_table>,r2	! 80020070
  305716:	d0 02       	mov.l	305720 <___Timer_Start+0xc>,r0	! 8db
  305718:	42 2b       	jmp	@r2
  30571a:	00 09       	nop	
  30571c:	00 09       	nop	
  30571e:	00 09       	nop	
  305720:	00 00       	.word 0x0000
  305722:	08 db       	.word 0x08db

00305724 <___Timer_Stop>:
  305724:	d2 1f       	mov.l	3057a4 <syscall_table>,r2	! 80020070
  305726:	d0 02       	mov.l	305730 <___Timer_Stop+0xc>,r0	! 8dc
  305728:	42 2b       	jmp	@r2
  30572a:	00 09       	nop	
  30572c:	00 09       	nop	
  30572e:	00 09       	nop	
  305730:	00 00       	.word 0x0000
  305732:	08 dc       	mov.b	@(r0,r13),r8

00305734 <___Timer_Deinstall>:
  305734:	d2 1b       	mov.l	3057a4 <syscall_table>,r2	! 80020070
  305736:	d0 02       	mov.l	305740 <___Timer_Deinstall+0xc>,r0	! 8da
  305738:	42 2b       	jmp	@r2
  30573a:	00 09       	nop	
  30573c:	00 09       	nop	
  30573e:	00 09       	nop	
  305740:	00 00       	.word 0x0000
  305742:	08 da       	.word 0x08da

00305744 <___PutKeyCode>:
  305744:	d2 17       	mov.l	3057a4 <syscall_table>,r2	! 80020070
  305746:	d0 02       	mov.l	305750 <___PutKeyCode+0xc>,r0	! 12c6
  305748:	42 2b       	jmp	@r2
  30574a:	00 09       	nop	
  30574c:	00 09       	nop	
  30574e:	00 09       	nop	
  305750:	00 00       	.word 0x0000
  305752:	12 c6       	mov.l	r12,@(24,r2)

00305754 <___GetKeyWait>:
  305754:	d2 13       	mov.l	3057a4 <syscall_table>,r2	! 80020070
  305756:	d0 02       	mov.l	305760 <___GetKeyWait+0xc>,r0	! 12bf
  305758:	42 2b       	jmp	@r2
  30575a:	00 09       	nop	
  30575c:	00 09       	nop	
  30575e:	00 09       	nop	
  305760:	00 00       	.word 0x0000
  305762:	12 bf       	mov.l	r11,@(60,r2)

00305764 <___ClearKeyBuffer>:
  305764:	d2 0f       	mov.l	3057a4 <syscall_table>,r2	! 80020070
  305766:	d0 02       	mov.l	305770 <___ClearKeyBuffer+0xc>,r0	! 12c7
  305768:	42 2b       	jmp	@r2
  30576a:	00 09       	nop	
  30576c:	00 09       	nop	
  30576e:	00 09       	nop	
  305770:	00 00       	.word 0x0000
  305772:	12 c7       	mov.l	r12,@(28,r2)

00305774 <___GetVRAMAddress>:
  305774:	d2 0b       	mov.l	3057a4 <syscall_table>,r2	! 80020070
  305776:	d0 02       	mov.l	305780 <___GetVRAMAddress+0xc>,r0	! 1e6
  305778:	42 2b       	jmp	@r2
  30577a:	00 09       	nop	
  30577c:	00 09       	nop	
  30577e:	00 09       	nop	
  305780:	00 00       	.word 0x0000
  305782:	01 e6       	mov.l	r14,@(r0,r1)

00305784 <___ConfigureStatusArea>:
  305784:	d2 07       	mov.l	3057a4 <syscall_table>,r2	! 80020070
  305786:	d0 02       	mov.l	305790 <___ConfigureStatusArea+0xc>,r0	! 2b7
  305788:	42 2b       	jmp	@r2
  30578a:	00 09       	nop	
  30578c:	00 09       	nop	
  30578e:	00 09       	nop	
  305790:	00 00       	.word 0x0000
  305792:	02 b7       	mul.l	r11,r2

00305794 <___SpecialMatrixCodeProcessing>:
  305794:	d2 03       	mov.l	3057a4 <syscall_table>,r2	! 80020070
  305796:	d0 02       	mov.l	3057a0 <___SpecialMatrixCodeProcessing+0xc>,r0	! 1e60
  305798:	42 2b       	jmp	@r2
  30579a:	00 09       	nop	
  30579c:	00 09       	nop	
  30579e:	00 09       	nop	
  3057a0:	00 00       	.word 0x0000
  3057a2:	1e 60       	mov.l	r6,@(0,r14)

003057a4 <syscall_table>:
  3057a4:	80 02       	mov.b	r0,@(2,r0)
  3057a6:	00 70       	.word 0x0070
  3057a8:	00 09       	nop	
  3057aa:	00 09       	nop	
  3057ac:	00 09       	nop	
  3057ae:	00 09       	nop	

003057b0 <_gint_world_alloc>:
  3057b0:	2f 86       	mov.l	r8,@-r15
  3057b2:	e2 fc       	mov	#-4,r2
  3057b4:	d8 1d       	mov.l	30582c <_gint_world_alloc+0x7c>,r8	! 30b260 <_drv_cpu>
  3057b6:	e4 00       	mov	#0,r4
  3057b8:	d1 1d       	mov.l	305830 <_gint_world_alloc+0x80>,r1	! 30b3e0 <_gint_drivers_end>
  3057ba:	e7 fc       	mov	#-4,r7
  3057bc:	2f 96       	mov.l	r9,@-r15
  3057be:	31 88       	sub	r8,r1
  3057c0:	2f a6       	mov.l	r10,@-r15
  3057c2:	41 2c       	shad	r2,r1
  3057c4:	d2 1b       	mov.l	305834 <_gint_world_alloc+0x84>,r2	! aaaaaaab
  3057c6:	78 2c       	add	#44,r8
  3057c8:	01 27       	mul.l	r2,r1
  3057ca:	4f 22       	sts.l	pr,@-r15
  3057cc:	0a 1a       	sts	macl,r10
  3057ce:	09 1a       	sts	macl,r9
  3057d0:	02 1a       	sts	macl,r2
  3057d2:	4a 11       	cmp/pz	r10
  3057d4:	63 83       	mov	r8,r3
  3057d6:	49 08       	shll2	r9
  3057d8:	72 01       	add	#1,r2
  3057da:	89 00       	bt	3057de <_gint_world_alloc+0x2e>
  3057dc:	e2 01       	mov	#1,r2
  3057de:	42 10       	dt	r2
  3057e0:	8b 14       	bf	30580c <_gint_world_alloc+0x5c>
  3057e2:	d0 15       	mov.l	305838 <_gint_world_alloc+0x88>,r0	! 309250 <_malloc>
  3057e4:	40 0b       	jsr	@r0
  3057e6:	34 9c       	add	r9,r4
  3057e8:	20 08       	tst	r0,r0
  3057ea:	8d 0a       	bt.s	305802 <_gint_world_alloc+0x52>
  3057ec:	4a 11       	cmp/pz	r10
  3057ee:	62 03       	mov	r0,r2
  3057f0:	63 a3       	mov	r10,r3
  3057f2:	32 9c       	add	r9,r2
  3057f4:	e6 fc       	mov	#-4,r6
  3057f6:	67 03       	mov	r0,r7
  3057f8:	73 01       	add	#1,r3
  3057fa:	89 00       	bt	3057fe <_gint_world_alloc+0x4e>
  3057fc:	e3 01       	mov	#1,r3
  3057fe:	43 10       	dt	r3
  305800:	8b 0b       	bf	30581a <_gint_world_alloc+0x6a>
  305802:	4f 26       	lds.l	@r15+,pr
  305804:	6a f6       	mov.l	@r15+,r10
  305806:	69 f6       	mov.l	@r15+,r9
  305808:	00 0b       	rts	
  30580a:	68 f6       	mov.l	@r15+,r8
  30580c:	61 31       	mov.w	@r3,r1
  30580e:	73 30       	add	#48,r3
  305810:	61 1d       	extu.w	r1,r1
  305812:	71 03       	add	#3,r1
  305814:	21 79       	and	r7,r1
  305816:	af e2       	bra	3057de <_gint_world_alloc+0x2e>
  305818:	34 1c       	add	r1,r4
  30581a:	61 81       	mov.w	@r8,r1
  30581c:	78 30       	add	#48,r8
  30581e:	27 22       	mov.l	r2,@r7
  305820:	77 04       	add	#4,r7
  305822:	61 1d       	extu.w	r1,r1
  305824:	71 03       	add	#3,r1
  305826:	21 69       	and	r6,r1
  305828:	af e9       	bra	3057fe <_gint_world_alloc+0x4e>
  30582a:	32 1c       	add	r1,r2
  30582c:	00 30       	.word 0x0030
  30582e:	b2 60       	bsr	305cf2 <_prepend_link+0x62>
  305830:	00 30       	.word 0x0030
  305832:	b3 e0       	bsr	305ff6 <_gint_realloc+0x4e>
  305834:	aa aa       	bra	304d8c <_cpg_set_overclock_setting+0x44>
  305836:	aa ab       	bra	304d90 <_cpg_set_overclock_setting+0x48>
  305838:	00 30       	.word 0x0030
  30583a:	92 50       	mov.w	3058de <_gint_world_switch_in+0x4a>,r2	! 4f26

0030583c <_gint_world_free>:
  30583c:	d1 01       	mov.l	305844 <_gint_world_free+0x8>,r1	! 309244 <_free>
  30583e:	41 2b       	jmp	@r1
  305840:	00 09       	nop	
  305842:	00 09       	nop	
  305844:	00 30       	.word 0x0030
  305846:	92 44       	mov.w	3058d2 <_gint_world_switch_in+0x3e>,r2	! 410b

00305848 <_gint_world_sync>:
  305848:	d2 0f       	mov.l	305888 <_gint_world_sync+0x40>,r2	! 30b260 <_drv_cpu>
  30584a:	e3 fc       	mov	#-4,r3
  30584c:	d1 0f       	mov.l	30588c <_gint_world_sync+0x44>,r1	! 30b3e0 <_gint_drivers_end>
  30584e:	2f 86       	mov.l	r8,@-r15
  305850:	31 28       	sub	r2,r1
  305852:	2f 96       	mov.l	r9,@-r15
  305854:	41 3c       	shad	r3,r1
  305856:	d3 0e       	mov.l	305890 <_gint_world_sync+0x48>,r3	! aaaaaaab
  305858:	2f a6       	mov.l	r10,@-r15
  30585a:	69 23       	mov	r2,r9
  30585c:	01 37       	mul.l	r3,r1
  30585e:	4f 22       	sts.l	pr,@-r15
  305860:	08 1a       	sts	macl,r8
  305862:	ea 30       	mov	#48,r10
  305864:	79 24       	add	#36,r9
  305866:	78 ff       	add	#-1,r8
  305868:	48 11       	cmp/pz	r8
  30586a:	8d 05       	bt.s	305878 <_gint_world_sync+0x30>
  30586c:	08 a7       	mul.l	r10,r8
  30586e:	4f 26       	lds.l	@r15+,pr
  305870:	6a f6       	mov.l	@r15+,r10
  305872:	69 f6       	mov.l	@r15+,r9
  305874:	00 0b       	rts	
  305876:	68 f6       	mov.l	@r15+,r8
  305878:	00 1a       	sts	macl,r0
  30587a:	01 9e       	mov.l	@(r0,r9),r1
  30587c:	21 18       	tst	r1,r1
  30587e:	89 01       	bt	305884 <_gint_world_sync+0x3c>
  305880:	41 0b       	jsr	@r1
  305882:	00 09       	nop	
  305884:	af f0       	bra	305868 <_gint_world_sync+0x20>
  305886:	78 ff       	add	#-1,r8
  305888:	00 30       	.word 0x0030
  30588a:	b2 60       	bsr	305d4e <_remove_link+0x3e>
  30588c:	00 30       	.word 0x0030
  30588e:	b3 e0       	bsr	306052 <_gint_realloc+0xaa>
  305890:	aa aa       	bra	304de8 <_clock_get_speed+0x20>
  305892:	aa ab       	bra	304dec <_clock_get_speed+0x24>

00305894 <_gint_world_switch_in>:
  305894:	d2 3a       	mov.l	305980 <_gint_world_switch_in+0xec>,r2	! 30b260 <_drv_cpu>
  305896:	e3 fc       	mov	#-4,r3
  305898:	d1 3a       	mov.l	305984 <_gint_world_switch_in+0xf0>,r1	! 30b3e0 <_gint_drivers_end>
  30589a:	2f 86       	mov.l	r8,@-r15
  30589c:	31 28       	sub	r2,r1
  30589e:	2f 96       	mov.l	r9,@-r15
  3058a0:	41 3c       	shad	r3,r1
  3058a2:	d3 39       	mov.l	305988 <_gint_world_switch_in+0xf4>,r3	! aaaaaaab
  3058a4:	2f a6       	mov.l	r10,@-r15
  3058a6:	69 23       	mov	r2,r9
  3058a8:	2f b6       	mov.l	r11,@-r15
  3058aa:	ea 30       	mov	#48,r10
  3058ac:	01 37       	mul.l	r3,r1
  3058ae:	2f c6       	mov.l	r12,@-r15
  3058b0:	79 08       	add	#8,r9
  3058b2:	2f d6       	mov.l	r13,@-r15
  3058b4:	6b 53       	mov	r5,r11
  3058b6:	2f e6       	mov.l	r14,@-r15
  3058b8:	08 1a       	sts	macl,r8
  3058ba:	4f 22       	sts.l	pr,@-r15
  3058bc:	0c 1a       	sts	macl,r12
  3058be:	7f fc       	add	#-4,r15
  3058c0:	2f 42       	mov.l	r4,@r15
  3058c2:	78 ff       	add	#-1,r8
  3058c4:	48 11       	cmp/pz	r8
  3058c6:	8d 13       	bt.s	3058f0 <_gint_world_switch_in+0x5c>
  3058c8:	08 a7       	mul.l	r10,r8
  3058ca:	d1 30       	mov.l	30598c <_gint_world_switch_in+0xf8>,r1	! 304f10 <_cpu_atomic_start>
  3058cc:	ea 00       	mov	#0,r10
  3058ce:	d9 2c       	mov.l	305980 <_gint_world_switch_in+0xec>,r9	! 30b260 <_drv_cpu>
  3058d0:	dd 2f       	mov.l	305990 <_gint_world_switch_in+0xfc>,r13	! 81015dc <_gint_driver_flags>
  3058d2:	41 0b       	jsr	@r1
  3058d4:	ee fd       	mov	#-3,r14
  3058d6:	3c a7       	cmp/gt	r10,r12
  3058d8:	89 12       	bt	305900 <_gint_world_switch_in+0x6c>
  3058da:	d1 2e       	mov.l	305994 <_gint_world_switch_in+0x100>,r1	! 304f54 <_cpu_atomic_end>
  3058dc:	7f 04       	add	#4,r15
  3058de:	4f 26       	lds.l	@r15+,pr
  3058e0:	6e f6       	mov.l	@r15+,r14
  3058e2:	6d f6       	mov.l	@r15+,r13
  3058e4:	6c f6       	mov.l	@r15+,r12
  3058e6:	6b f6       	mov.l	@r15+,r11
  3058e8:	6a f6       	mov.l	@r15+,r10
  3058ea:	69 f6       	mov.l	@r15+,r9
  3058ec:	41 2b       	jmp	@r1
  3058ee:	68 f6       	mov.l	@r15+,r8
  3058f0:	00 1a       	sts	macl,r0
  3058f2:	01 9e       	mov.l	@(r0,r9),r1
  3058f4:	21 18       	tst	r1,r1
  3058f6:	89 01       	bt	3058fc <_gint_world_switch_in+0x68>
  3058f8:	41 0b       	jsr	@r1
  3058fa:	00 09       	nop	
  3058fc:	af e2       	bra	3058c4 <_gint_world_switch_in+0x30>
  3058fe:	78 ff       	add	#-1,r8
  305900:	50 93       	mov.l	@(12,r9),r0
  305902:	68 d2       	mov.l	@r13,r8
  305904:	20 08       	tst	r0,r0
  305906:	8f 2c       	bf.s	305962 <_gint_world_switch_in+0xce>
  305908:	38 ac       	add	r10,r8
  30590a:	60 80       	mov.b	@r8,r0
  30590c:	cb 02       	or	#2,r0
  30590e:	28 00       	mov.b	r0,@r8
  305910:	60 80       	mov.b	@r8,r0
  305912:	c8 10       	tst	#16,r0
  305914:	8b 11       	bf	30593a <_gint_world_switch_in+0xa6>
  305916:	51 96       	mov.l	@(24,r9),r1
  305918:	21 18       	tst	r1,r1
  30591a:	8d 04       	bt.s	305926 <_gint_world_switch_in+0x92>
  30591c:	62 f2       	mov.l	@r15,r2
  30591e:	60 a3       	mov	r10,r0
  305920:	40 08       	shll2	r0
  305922:	41 0b       	jsr	@r1
  305924:	04 2e       	mov.l	@(r0,r2),r4
  305926:	60 80       	mov.b	@r8,r0
  305928:	c8 01       	tst	#1,r0
  30592a:	8b 06       	bf	30593a <_gint_world_switch_in+0xa6>
  30592c:	51 97       	mov.l	@(28,r9),r1
  30592e:	21 18       	tst	r1,r1
  305930:	8d 03       	bt.s	30593a <_gint_world_switch_in+0xa6>
  305932:	60 a3       	mov	r10,r0
  305934:	40 08       	shll2	r0
  305936:	41 0b       	jsr	@r1
  305938:	04 be       	mov.l	@(r0,r11),r4
  30593a:	51 98       	mov.l	@(32,r9),r1
  30593c:	21 18       	tst	r1,r1
  30593e:	89 01       	bt	305944 <_gint_world_switch_in+0xb0>
  305940:	41 0b       	jsr	@r1
  305942:	00 09       	nop	
  305944:	60 80       	mov.b	@r8,r0
  305946:	c8 01       	tst	#1,r0
  305948:	89 08       	bt	30595c <_gint_world_switch_in+0xc8>
  30594a:	51 9a       	mov.l	@(40,r9),r1
  30594c:	21 18       	tst	r1,r1
  30594e:	8d 04       	bt.s	30595a <_gint_world_switch_in+0xc6>
  305950:	c9 fe       	and	#254,r0
  305952:	41 0b       	jsr	@r1
  305954:	00 09       	nop	
  305956:	60 80       	mov.b	@r8,r0
  305958:	c9 fe       	and	#254,r0
  30595a:	28 00       	mov.b	r0,@r8
  30595c:	7a 01       	add	#1,r10
  30595e:	af ba       	bra	3058d6 <_gint_world_switch_in+0x42>
  305960:	79 30       	add	#48,r9
  305962:	40 0b       	jsr	@r0
  305964:	00 09       	nop	
  305966:	20 08       	tst	r0,r0
  305968:	8b cf       	bf	30590a <_gint_world_switch_in+0x76>
  30596a:	61 80       	mov.b	@r8,r1
  30596c:	21 e9       	and	r14,r1
  30596e:	28 10       	mov.b	r1,@r8
  305970:	51 94       	mov.l	@(16,r9),r1
  305972:	21 18       	tst	r1,r1
  305974:	89 cc       	bt	305910 <_gint_world_switch_in+0x7c>
  305976:	41 0b       	jsr	@r1
  305978:	00 09       	nop	
  30597a:	af ca       	bra	305912 <_gint_world_switch_in+0x7e>
  30597c:	60 80       	mov.b	@r8,r0
  30597e:	00 09       	nop	
  305980:	00 30       	.word 0x0030
  305982:	b2 60       	bsr	305e46 <_gint_malloc+0x96>
  305984:	00 30       	.word 0x0030
  305986:	b3 e0       	bsr	30614a <_kmalloc_init_arena+0x22>
  305988:	aa aa       	bra	304ee0 <_clock_set_speed+0x7c>
  30598a:	aa ab       	bra	304ee4 <_clock_set_speed+0x80>
  30598c:	00 30       	.word 0x0030
  30598e:	4f 10       	dt	r15
  305990:	08 10       	.word 0x0810
  305992:	15 dc       	mov.l	r13,@(48,r5)
  305994:	00 30       	.word 0x0030
  305996:	4f 54       	.word 0x4f54

00305998 <_gint_world_switch_out>:
  305998:	2f 86       	mov.l	r8,@-r15
  30599a:	e1 fc       	mov	#-4,r1
  30599c:	2f 96       	mov.l	r9,@-r15
  30599e:	2f a6       	mov.l	r10,@-r15
  3059a0:	d8 2e       	mov.l	305a5c <_gint_world_switch_out+0xc4>,r8	! 30b260 <_drv_cpu>
  3059a2:	da 2f       	mov.l	305a60 <_gint_world_switch_out+0xc8>,r10	! 30b3e0 <_gint_drivers_end>
  3059a4:	2f b6       	mov.l	r11,@-r15
  3059a6:	6b 43       	mov	r4,r11
  3059a8:	3a 88       	sub	r8,r10
  3059aa:	2f c6       	mov.l	r12,@-r15
  3059ac:	62 a3       	mov	r10,r2
  3059ae:	42 1c       	shad	r1,r2
  3059b0:	d1 2c       	mov.l	305a64 <_gint_world_switch_out+0xcc>,r1	! aaaaaaab
  3059b2:	6c 53       	mov	r5,r12
  3059b4:	2f d6       	mov.l	r13,@-r15
  3059b6:	02 17       	mul.l	r1,r2
  3059b8:	2f e6       	mov.l	r14,@-r15
  3059ba:	62 83       	mov	r8,r2
  3059bc:	4f 22       	sts.l	pr,@-r15
  3059be:	09 1a       	sts	macl,r9
  3059c0:	7f fc       	add	#-4,r15
  3059c2:	ee 30       	mov	#48,r14
  3059c4:	79 ff       	add	#-1,r9
  3059c6:	72 24       	add	#36,r2
  3059c8:	6d 93       	mov	r9,r13
  3059ca:	4d 11       	cmp/pz	r13
  3059cc:	8d 12       	bt.s	3059f4 <_gint_world_switch_out+0x5c>
  3059ce:	0d e7       	mul.l	r14,r13
  3059d0:	d1 25       	mov.l	305a68 <_gint_world_switch_out+0xd0>,r1	! 304f10 <_cpu_atomic_start>
  3059d2:	7a dc       	add	#-36,r10
  3059d4:	dd 25       	mov.l	305a6c <_gint_world_switch_out+0xd4>,r13	! 81015dc <_gint_driver_flags>
  3059d6:	41 0b       	jsr	@r1
  3059d8:	38 ac       	add	r10,r8
  3059da:	49 11       	cmp/pz	r9
  3059dc:	89 13       	bt	305a06 <_gint_world_switch_out+0x6e>
  3059de:	d1 24       	mov.l	305a70 <_gint_world_switch_out+0xd8>,r1	! 304f54 <_cpu_atomic_end>
  3059e0:	7f 04       	add	#4,r15
  3059e2:	4f 26       	lds.l	@r15+,pr
  3059e4:	6e f6       	mov.l	@r15+,r14
  3059e6:	6d f6       	mov.l	@r15+,r13
  3059e8:	6c f6       	mov.l	@r15+,r12
  3059ea:	6b f6       	mov.l	@r15+,r11
  3059ec:	6a f6       	mov.l	@r15+,r10
  3059ee:	69 f6       	mov.l	@r15+,r9
  3059f0:	41 2b       	jmp	@r1
  3059f2:	68 f6       	mov.l	@r15+,r8
  3059f4:	00 1a       	sts	macl,r0
  3059f6:	01 2e       	mov.l	@(r0,r2),r1
  3059f8:	21 18       	tst	r1,r1
  3059fa:	89 02       	bt	305a02 <_gint_world_switch_out+0x6a>
  3059fc:	41 0b       	jsr	@r1
  3059fe:	2f 22       	mov.l	r2,@r15
  305a00:	62 f2       	mov.l	@r15,r2
  305a02:	af e2       	bra	3059ca <_gint_world_switch_out+0x32>
  305a04:	7d ff       	add	#-1,r13
  305a06:	60 82       	mov.l	@r8,r0
  305a08:	6a d2       	mov.l	@r13,r10
  305a0a:	20 08       	tst	r0,r0
  305a0c:	8d 09       	bt.s	305a22 <_gint_world_switch_out+0x8a>
  305a0e:	3a 9c       	add	r9,r10
  305a10:	40 0b       	jsr	@r0
  305a12:	00 09       	nop	
  305a14:	20 08       	tst	r0,r0
  305a16:	8b 04       	bf	305a22 <_gint_world_switch_out+0x8a>
  305a18:	51 81       	mov.l	@(4,r8),r1
  305a1a:	21 18       	tst	r1,r1
  305a1c:	89 01       	bt	305a22 <_gint_world_switch_out+0x8a>
  305a1e:	41 0b       	jsr	@r1
  305a20:	00 09       	nop	
  305a22:	60 a0       	mov.b	@r10,r0
  305a24:	c8 10       	tst	#16,r0
  305a26:	8f 10       	bf.s	305a4a <_gint_world_switch_out+0xb2>
  305a28:	c8 02       	tst	#2,r0
  305a2a:	51 83       	mov.l	@(12,r8),r1
  305a2c:	21 18       	tst	r1,r1
  305a2e:	8d 03       	bt.s	305a38 <_gint_world_switch_out+0xa0>
  305a30:	60 93       	mov	r9,r0
  305a32:	40 08       	shll2	r0
  305a34:	41 0b       	jsr	@r1
  305a36:	04 be       	mov.l	@(r0,r11),r4
  305a38:	51 84       	mov.l	@(16,r8),r1
  305a3a:	21 18       	tst	r1,r1
  305a3c:	8d 03       	bt.s	305a46 <_gint_world_switch_out+0xae>
  305a3e:	60 93       	mov	r9,r0
  305a40:	40 08       	shll2	r0
  305a42:	41 0b       	jsr	@r1
  305a44:	04 ce       	mov.l	@(r0,r12),r4
  305a46:	60 a0       	mov.b	@r10,r0
  305a48:	c8 02       	tst	#2,r0
  305a4a:	8b 04       	bf	305a56 <_gint_world_switch_out+0xbe>
  305a4c:	51 82       	mov.l	@(8,r8),r1
  305a4e:	21 18       	tst	r1,r1
  305a50:	89 01       	bt	305a56 <_gint_world_switch_out+0xbe>
  305a52:	41 0b       	jsr	@r1
  305a54:	00 09       	nop	
  305a56:	79 ff       	add	#-1,r9
  305a58:	af bf       	bra	3059da <_gint_world_switch_out+0x42>
  305a5a:	78 d0       	add	#-48,r8
  305a5c:	00 30       	.word 0x0030
  305a5e:	b2 60       	bsr	305f22 <_gint_free+0x42>
  305a60:	00 30       	.word 0x0030
  305a62:	b3 e0       	bsr	306226 <_kmalloc_get_gint_stats+0x16>
  305a64:	aa aa       	bra	304fbc <_cpu_setCPUOPM+0x10>
  305a66:	aa ab       	bra	304fc0 <_cpu_getCPUOPM+0x2>
  305a68:	00 30       	.word 0x0030
  305a6a:	4f 10       	dt	r15
  305a6c:	08 10       	.word 0x0810
  305a6e:	15 dc       	mov.l	r13,@(48,r5)
  305a70:	00 30       	.word 0x0030
  305a72:	4f 54       	.word 0x4f54

00305a74 <_gint_world_switch>:
  305a74:	7f f0       	add	#-16,r15
  305a76:	d1 1b       	mov.l	305ae4 <_gint_world_switch+0x70>,r1	! 305998 <_gint_world_switch_out>
  305a78:	2f 86       	mov.l	r8,@-r15
  305a7a:	68 43       	mov	r4,r8
  305a7c:	2f 96       	mov.l	r9,@-r15
  305a7e:	2f a6       	mov.l	r10,@-r15
  305a80:	2f b6       	mov.l	r11,@-r15
  305a82:	4f 22       	sts.l	pr,@-r15
  305a84:	da 18       	mov.l	305ae8 <_gint_world_switch+0x74>,r10	! 81015e4 <_gint_world_os>
  305a86:	db 19       	mov.l	305aec <_gint_world_switch+0x78>,r11	! 81015e0 <_gint_world_addin>
  305a88:	1f 45       	mov.l	r4,@(20,r15)
  305a8a:	1f 56       	mov.l	r5,@(24,r15)
  305a8c:	64 b2       	mov.l	@r11,r4
  305a8e:	65 a2       	mov.l	@r10,r5
  305a90:	1f 67       	mov.l	r6,@(28,r15)
  305a92:	41 0b       	jsr	@r1
  305a94:	1f 78       	mov.l	r7,@(32,r15)
  305a96:	d1 16       	mov.l	305af0 <_gint_world_switch+0x7c>,r1	! 81015d8 <_gint_stack_top>
  305a98:	69 12       	mov.l	@r1,r9
  305a9a:	29 98       	tst	r9,r9
  305a9c:	8d 02       	bt.s	305aa4 <_gint_world_switch+0x30>
  305a9e:	28 88       	tst	r8,r8
  305aa0:	d1 14       	mov.l	305af4 <_gint_world_switch+0x80>,r1	! b7c0ffee
  305aa2:	29 12       	mov.l	r1,@r9
  305aa4:	8d 0f       	bt.s	305ac6 <_gint_world_switch+0x52>
  305aa6:	57 f9       	mov.l	@(36,r15),r7
  305aa8:	56 f8       	mov.l	@(32,r15),r6
  305aaa:	55 f7       	mov.l	@(28,r15),r5
  305aac:	48 0b       	jsr	@r8
  305aae:	54 f6       	mov.l	@(24,r15),r4
  305ab0:	29 98       	tst	r9,r9
  305ab2:	8d 09       	bt.s	305ac8 <_gint_world_switch+0x54>
  305ab4:	68 03       	mov	r0,r8
  305ab6:	62 92       	mov.l	@r9,r2
  305ab8:	d1 0e       	mov.l	305af4 <_gint_world_switch+0x80>,r1	! b7c0ffee
  305aba:	32 10       	cmp/eq	r1,r2
  305abc:	89 04       	bt	305ac8 <_gint_world_switch+0x54>
  305abe:	d1 0e       	mov.l	305af8 <_gint_world_switch+0x84>,r1	! 307510 <_gint_panic>
  305ac0:	94 0e       	mov.w	305ae0 <_gint_world_switch+0x6c>,r4	! 1080
  305ac2:	41 0b       	jsr	@r1
  305ac4:	00 09       	nop	
  305ac6:	e8 00       	mov	#0,r8
  305ac8:	d1 0c       	mov.l	305afc <_gint_world_switch+0x88>,r1	! 305894 <_gint_world_switch_in>
  305aca:	65 b2       	mov.l	@r11,r5
  305acc:	41 0b       	jsr	@r1
  305ace:	64 a2       	mov.l	@r10,r4
  305ad0:	60 83       	mov	r8,r0
  305ad2:	4f 26       	lds.l	@r15+,pr
  305ad4:	6b f6       	mov.l	@r15+,r11
  305ad6:	6a f6       	mov.l	@r15+,r10
  305ad8:	69 f6       	mov.l	@r15+,r9
  305ada:	68 f6       	mov.l	@r15+,r8
  305adc:	00 0b       	rts	
  305ade:	7f 10       	add	#16,r15
  305ae0:	10 80       	mov.l	r8,@(0,r0)
  305ae2:	00 09       	nop	
  305ae4:	00 30       	.word 0x0030
  305ae6:	59 98       	mov.l	@(32,r9),r9
  305ae8:	08 10       	.word 0x0810
  305aea:	15 e4       	mov.l	r14,@(16,r5)
  305aec:	08 10       	.word 0x0810
  305aee:	15 e0       	mov.l	r14,@(0,r5)
  305af0:	08 10       	.word 0x0810
  305af2:	15 d8       	mov.l	r13,@(32,r5)
  305af4:	b7 c0       	bsr	306a78 <_topti_glyph_bg>
  305af6:	ff ee       	.word 0xffee
  305af8:	00 30       	.word 0x0030
  305afa:	75 10       	add	#16,r5
  305afc:	00 30       	.word 0x0030
  305afe:	58 94       	mov.l	@(16,r9),r8

00305b00 <_gint_switch>:
  305b00:	2f 86       	mov.l	r8,@-r15
  305b02:	e6 10       	mov	#16,r6
  305b04:	4f 22       	sts.l	pr,@-r15
  305b06:	d0 09       	mov.l	305b2c <_gint_switch+0x2c>,r0	! 3091c0 <_memset>
  305b08:	7f e8       	add	#-24,r15
  305b0a:	68 43       	mov	r4,r8
  305b0c:	e5 00       	mov	#0,r5
  305b0e:	64 f3       	mov	r15,r4
  305b10:	40 0b       	jsr	@r0
  305b12:	74 08       	add	#8,r4
  305b14:	d0 06       	mov.l	305b30 <_gint_switch+0x30>,r0	! 305a74 <_gint_world_switch>
  305b16:	64 83       	mov	r8,r4
  305b18:	51 f5       	mov.l	@(20,r15),r1
  305b1a:	55 f2       	mov.l	@(8,r15),r5
  305b1c:	56 f3       	mov.l	@(12,r15),r6
  305b1e:	57 f4       	mov.l	@(16,r15),r7
  305b20:	40 0b       	jsr	@r0
  305b22:	2f 12       	mov.l	r1,@r15
  305b24:	7f 18       	add	#24,r15
  305b26:	4f 26       	lds.l	@r15+,pr
  305b28:	00 0b       	rts	
  305b2a:	68 f6       	mov.l	@r15+,r8
  305b2c:	00 30       	.word 0x0030
  305b2e:	91 c0       	mov.w	305cb2 <_prepend_link+0x22>,r1	! 4109
  305b30:	00 30       	.word 0x0030
  305b32:	5a 74       	mov.l	@(16,r7),r10

00305b34 <_next_block>:
  305b34:	61 42       	mov.l	@r4,r1
  305b36:	d2 05       	mov.l	305b4c <_next_block+0x18>,r2	! 4000000
  305b38:	21 28       	tst	r2,r1
  305b3a:	8f 05       	bf.s	305b48 <_next_block+0x14>
  305b3c:	e0 00       	mov	#0,r0
  305b3e:	d2 04       	mov.l	305b50 <_next_block+0x1c>,r2	! ffffff
  305b40:	60 43       	mov	r4,r0
  305b42:	21 29       	and	r2,r1
  305b44:	71 04       	add	#4,r1
  305b46:	30 1c       	add	r1,r0
  305b48:	00 0b       	rts	
  305b4a:	00 09       	nop	
  305b4c:	04 00       	.word 0x0400
  305b4e:	00 00       	.word 0x0000
  305b50:	00 ff       	mac.l	@r15+,@r0+
  305b52:	ff ff       	.word 0xffff

00305b54 <_split>:
  305b54:	2f 86       	mov.l	r8,@-r15
  305b56:	e2 0b       	mov	#11,r2
  305b58:	2f 96       	mov.l	r9,@-r15
  305b5a:	e8 00       	mov	#0,r8
  305b5c:	2f a6       	mov.l	r10,@-r15
  305b5e:	69 43       	mov	r4,r9
  305b60:	2f b6       	mov.l	r11,@-r15
  305b62:	4f 22       	sts.l	pr,@-r15
  305b64:	d7 1e       	mov.l	305be0 <_split+0x8c>,r7	! ffffff
  305b66:	61 42       	mov.l	@r4,r1
  305b68:	63 13       	mov	r1,r3
  305b6a:	23 79       	and	r7,r3
  305b6c:	33 58       	sub	r5,r3
  305b6e:	33 26       	cmp/hi	r2,r3
  305b70:	8f 2e       	bf.s	305bd0 <_split+0x7c>
  305b72:	6a 53       	mov	r5,r10
  305b74:	d2 1b       	mov.l	305be4 <_split+0x90>,r2	! 4000000
  305b76:	68 53       	mov	r5,r8
  305b78:	78 04       	add	#4,r8
  305b7a:	db 1b       	mov.l	305be8 <_split+0x94>,r11	! feffffff
  305b7c:	38 4c       	add	r4,r8
  305b7e:	21 28       	tst	r2,r1
  305b80:	62 80       	mov.b	@r8,r2
  305b82:	e1 ff       	mov	#-1,r1
  305b84:	61 1a       	negc	r1,r1
  305b86:	d0 19       	mov.l	305bec <_split+0x98>,r0	! 305b34 <_next_block>
  305b88:	e6 f9       	mov	#-7,r6
  305b8a:	22 69       	and	r6,r2
  305b8c:	41 08       	shll2	r1
  305b8e:	21 2b       	or	r2,r1
  305b90:	d2 17       	mov.l	305bf0 <_split+0x9c>,r2	! 2000000
  305b92:	28 10       	mov.b	r1,@r8
  305b94:	73 fc       	add	#-4,r3
  305b96:	61 42       	mov.l	@r4,r1
  305b98:	23 79       	and	r7,r3
  305b9a:	64 83       	mov	r8,r4
  305b9c:	21 28       	tst	r2,r1
  305b9e:	e2 ff       	mov	#-1,r2
  305ba0:	62 2a       	negc	r2,r2
  305ba2:	61 82       	mov.l	@r8,r1
  305ba4:	42 28       	shll16	r2
  305ba6:	42 18       	shll8	r2
  305ba8:	21 b9       	and	r11,r1
  305baa:	21 2b       	or	r2,r1
  305bac:	d2 11       	mov.l	305bf4 <_split+0xa0>,r2	! ff000000
  305bae:	21 29       	and	r2,r1
  305bb0:	21 3b       	or	r3,r1
  305bb2:	40 0b       	jsr	@r0
  305bb4:	28 12       	mov.l	r1,@r8
  305bb6:	20 08       	tst	r0,r0
  305bb8:	89 02       	bt	305bc0 <_split+0x6c>
  305bba:	61 02       	mov.l	@r0,r1
  305bbc:	21 b9       	and	r11,r1
  305bbe:	20 12       	mov.l	r1,@r0
  305bc0:	61 92       	mov.l	@r9,r1
  305bc2:	d2 07       	mov.l	305be0 <_split+0x8c>,r2	! ffffff
  305bc4:	d3 0c       	mov.l	305bf8 <_split+0xa4>,r3	! fb000000
  305bc6:	22 a9       	and	r10,r2
  305bc8:	6a 13       	mov	r1,r10
  305bca:	2a 39       	and	r3,r10
  305bcc:	2a 2b       	or	r2,r10
  305bce:	29 a2       	mov.l	r10,@r9
  305bd0:	60 83       	mov	r8,r0
  305bd2:	4f 26       	lds.l	@r15+,pr
  305bd4:	6b f6       	mov.l	@r15+,r11
  305bd6:	6a f6       	mov.l	@r15+,r10
  305bd8:	69 f6       	mov.l	@r15+,r9
  305bda:	00 0b       	rts	
  305bdc:	68 f6       	mov.l	@r15+,r8
  305bde:	00 09       	nop	
  305be0:	00 ff       	mac.l	@r15+,@r0+
  305be2:	ff ff       	.word 0xffff
  305be4:	04 00       	.word 0x0400
  305be6:	00 00       	.word 0x0000
  305be8:	fe ff       	.word 0xfeff
  305bea:	ff ff       	.word 0xffff
  305bec:	00 30       	.word 0x0030
  305bee:	5b 34       	mov.l	@(16,r3),r11
  305bf0:	02 00       	.word 0x0200
  305bf2:	00 00       	.word 0x0000
  305bf4:	ff 00       	.word 0xff00
  305bf6:	00 00       	.word 0x0000
  305bf8:	fb 00 00 00 	pshl	#0,0x0	.word 0xfb00

00305bfc <_merge>:
  305bfc:	61 52       	mov.l	@r5,r1
  305bfe:	d7 15       	mov.l	305c54 <_merge+0x58>,r7	! 4000000
  305c00:	63 13       	mov	r1,r3
  305c02:	2f 86       	mov.l	r8,@-r15
  305c04:	21 78       	tst	r7,r1
  305c06:	e1 ff       	mov	#-1,r1
  305c08:	61 1a       	negc	r1,r1
  305c0a:	68 42       	mov.l	@r4,r8
  305c0c:	e7 1a       	mov	#26,r7
  305c0e:	d2 12       	mov.l	305c58 <_merge+0x5c>,r2	! ffffff
  305c10:	41 7d       	shld	r7,r1
  305c12:	d7 12       	mov.l	305c5c <_merge+0x60>,r7	! fbffffff
  305c14:	23 29       	and	r2,r3
  305c16:	d0 12       	mov.l	305c60 <_merge+0x64>,r0	! 305b34 <_next_block>
  305c18:	28 79       	and	r7,r8
  305c1a:	28 1b       	or	r1,r8
  305c1c:	61 83       	mov	r8,r1
  305c1e:	21 29       	and	r2,r1
  305c20:	71 04       	add	#4,r1
  305c22:	31 3c       	add	r3,r1
  305c24:	21 29       	and	r2,r1
  305c26:	d2 0f       	mov.l	305c64 <_merge+0x68>,r2	! ff000000
  305c28:	4f 22       	sts.l	pr,@-r15
  305c2a:	28 29       	and	r2,r8
  305c2c:	28 1b       	or	r1,r8
  305c2e:	40 0b       	jsr	@r0
  305c30:	24 82       	mov.l	r8,@r4
  305c32:	20 08       	tst	r0,r0
  305c34:	89 0a       	bt	305c4c <_merge+0x50>
  305c36:	d1 0c       	mov.l	305c68 <_merge+0x6c>,r1	! 2000000
  305c38:	62 02       	mov.l	@r0,r2
  305c3a:	28 18       	tst	r1,r8
  305c3c:	e1 ff       	mov	#-1,r1
  305c3e:	d3 0b       	mov.l	305c6c <_merge+0x70>,r3	! feffffff
  305c40:	61 1a       	negc	r1,r1
  305c42:	41 28       	shll16	r1
  305c44:	41 18       	shll8	r1
  305c46:	22 39       	and	r3,r2
  305c48:	21 2b       	or	r2,r1
  305c4a:	20 12       	mov.l	r1,@r0
  305c4c:	4f 26       	lds.l	@r15+,pr
  305c4e:	00 0b       	rts	
  305c50:	68 f6       	mov.l	@r15+,r8
  305c52:	00 09       	nop	
  305c54:	04 00       	.word 0x0400
  305c56:	00 00       	.word 0x0000
  305c58:	00 ff       	mac.l	@r15+,@r0+
  305c5a:	ff ff       	.word 0xffff
  305c5c:	fb ff ff ff 	dcf plds	a0g,macl	movx.w	a1,@r5+r8	movy.w	a1,@r7+r9
  305c60:	00 30       	.word 0x0030
  305c62:	5b 34       	mov.l	@(16,r3),r11
  305c64:	ff 00       	.word 0xff00
  305c66:	00 00       	.word 0x0000
  305c68:	02 00       	.word 0x0200
  305c6a:	00 00       	.word 0x0000
  305c6c:	fe ff       	.word 0xfeff
  305c6e:	ff ff       	.word 0xffff

00305c70 <_set_footer>:
  305c70:	60 42       	mov.l	@r4,r0
  305c72:	d1 06       	mov.l	305c8c <_set_footer+0x1c>,r1	! ffffff
  305c74:	20 19       	and	r1,r0
  305c76:	34 0c       	add	r0,r4
  305c78:	88 08       	cmp/eq	#8,r0
  305c7a:	8f 05       	bf.s	305c88 <_set_footer+0x18>
  305c7c:	74 c4       	add	#-60,r4
  305c7e:	e1 01       	mov	#1,r1
  305c80:	26 1b       	or	r1,r6
  305c82:	14 5e       	mov.l	r5,@(56,r4)
  305c84:	00 0b       	rts	
  305c86:	14 6f       	mov.l	r6,@(60,r4)
  305c88:	af fb       	bra	305c82 <_set_footer+0x12>
  305c8a:	14 0d       	mov.l	r0,@(52,r4)
  305c8c:	00 ff       	mac.l	@r15+,@r0+
  305c8e:	ff ff       	.word 0xffff

00305c90 <_prepend_link>:
  305c90:	2f 86       	mov.l	r8,@-r15
  305c92:	2f 96       	mov.l	r9,@-r15
  305c94:	2f a6       	mov.l	r10,@-r15
  305c96:	6a 53       	mov	r5,r10
  305c98:	2f b6       	mov.l	r11,@-r15
  305c9a:	2f c6       	mov.l	r12,@-r15
  305c9c:	2f d6       	mov.l	r13,@-r15
  305c9e:	4f 22       	sts.l	pr,@-r15
  305ca0:	d1 19       	mov.l	305d08 <_prepend_link+0x78>,r1	! ffffff
  305ca2:	69 42       	mov.l	@r4,r9
  305ca4:	29 19       	and	r1,r9
  305ca6:	e1 3f       	mov	#63,r1
  305ca8:	39 16       	cmp/hi	r1,r9
  305caa:	8d 27       	bt.s	305cfc <_prepend_link+0x6c>
  305cac:	6b 43       	mov	r4,r11
  305cae:	61 93       	mov	r9,r1
  305cb0:	71 f8       	add	#-8,r1
  305cb2:	41 09       	shlr2	r1
  305cb4:	41 08       	shll2	r1
  305cb6:	dd 15       	mov.l	305d0c <_prepend_link+0x7c>,r13	! 305c70 <_set_footer>
  305cb8:	68 a3       	mov	r10,r8
  305cba:	38 1c       	add	r1,r8
  305cbc:	6c 82       	mov.l	@r8,r12
  305cbe:	e5 00       	mov	#0,r5
  305cc0:	64 b3       	mov	r11,r4
  305cc2:	4d 0b       	jsr	@r13
  305cc4:	66 c3       	mov	r12,r6
  305cc6:	2c c8       	tst	r12,r12
  305cc8:	8d 08       	bt.s	305cdc <_prepend_link+0x4c>
  305cca:	65 b3       	mov	r11,r5
  305ccc:	d1 0e       	mov.l	305d08 <_prepend_link+0x78>,r1	! ffffff
  305cce:	60 c2       	mov.l	@r12,r0
  305cd0:	64 c3       	mov	r12,r4
  305cd2:	20 19       	and	r1,r0
  305cd4:	06 ce       	mov.l	@(r0,r12),r6
  305cd6:	e1 fc       	mov	#-4,r1
  305cd8:	4d 0b       	jsr	@r13
  305cda:	26 19       	and	r1,r6
  305cdc:	28 b2       	mov.l	r11,@r8
  305cde:	7a 40       	add	#64,r10
  305ce0:	51 a0       	mov.l	@(0,r10),r1
  305ce2:	21 18       	tst	r1,r1
  305ce4:	89 02       	bt	305cec <_prepend_link+0x5c>
  305ce6:	62 12       	mov.l	@r1,r2
  305ce8:	32 9c       	add	r9,r2
  305cea:	21 22       	mov.l	r2,@r1
  305cec:	4f 26       	lds.l	@r15+,pr
  305cee:	6d f6       	mov.l	@r15+,r13
  305cf0:	6c f6       	mov.l	@r15+,r12
  305cf2:	6b f6       	mov.l	@r15+,r11
  305cf4:	6a f6       	mov.l	@r15+,r10
  305cf6:	69 f6       	mov.l	@r15+,r9
  305cf8:	00 0b       	rts	
  305cfa:	68 f6       	mov.l	@r15+,r8
  305cfc:	91 03       	mov.w	305d06 <_prepend_link+0x76>,r1	! ff
  305cfe:	39 16       	cmp/hi	r1,r9
  305d00:	01 29       	movt	r1
  305d02:	af d7       	bra	305cb4 <_prepend_link+0x24>
  305d04:	71 0e       	add	#14,r1
  305d06:	00 ff       	mac.l	@r15+,@r0+
  305d08:	00 ff       	mac.l	@r15+,@r0+
  305d0a:	ff ff       	.word 0xffff
  305d0c:	00 30       	.word 0x0030
  305d0e:	5c 70       	mov.l	@(0,r7),r12

00305d10 <_remove_link>:
  305d10:	2f 86       	mov.l	r8,@-r15
  305d12:	2f 96       	mov.l	r9,@-r15
  305d14:	2f a6       	mov.l	r10,@-r15
  305d16:	2f b6       	mov.l	r11,@-r15
  305d18:	6b 53       	mov	r5,r11
  305d1a:	2f c6       	mov.l	r12,@-r15
  305d1c:	2f d6       	mov.l	r13,@-r15
  305d1e:	4f 22       	sts.l	pr,@-r15
  305d20:	d1 21       	mov.l	305da8 <_remove_link+0x98>,r1	! ffffff
  305d22:	6a 42       	mov.l	@r4,r10
  305d24:	2a 19       	and	r1,r10
  305d26:	e1 3f       	mov	#63,r1
  305d28:	3a 16       	cmp/hi	r1,r10
  305d2a:	8d 37       	bt.s	305d9c <_remove_link+0x8c>
  305d2c:	6c 43       	mov	r4,r12
  305d2e:	68 a3       	mov	r10,r8
  305d30:	78 f8       	add	#-8,r8
  305d32:	48 09       	shlr2	r8
  305d34:	61 c3       	mov	r12,r1
  305d36:	31 ac       	add	r10,r1
  305d38:	71 c4       	add	#-60,r1
  305d3a:	59 1f       	mov.l	@(60,r1),r9
  305d3c:	5d 1e       	mov.l	@(56,r1),r13
  305d3e:	e1 fc       	mov	#-4,r1
  305d40:	2d d8       	tst	r13,r13
  305d42:	8d 0a       	bt.s	305d5a <_remove_link+0x4a>
  305d44:	29 19       	and	r1,r9
  305d46:	61 d2       	mov.l	@r13,r1
  305d48:	66 93       	mov	r9,r6
  305d4a:	d2 17       	mov.l	305da8 <_remove_link+0x98>,r2	! ffffff
  305d4c:	21 29       	and	r2,r1
  305d4e:	31 dc       	add	r13,r1
  305d50:	71 c0       	add	#-64,r1
  305d52:	55 1f       	mov.l	@(60,r1),r5
  305d54:	d1 15       	mov.l	305dac <_remove_link+0x9c>,r1	! 305c70 <_set_footer>
  305d56:	41 0b       	jsr	@r1
  305d58:	64 d3       	mov	r13,r4
  305d5a:	29 98       	tst	r9,r9
  305d5c:	8d 09       	bt.s	305d72 <_remove_link+0x62>
  305d5e:	65 d3       	mov	r13,r5
  305d60:	d1 11       	mov.l	305da8 <_remove_link+0x98>,r1	! ffffff
  305d62:	60 92       	mov.l	@r9,r0
  305d64:	20 19       	and	r1,r0
  305d66:	06 9e       	mov.l	@(r0,r9),r6
  305d68:	e1 fc       	mov	#-4,r1
  305d6a:	26 19       	and	r1,r6
  305d6c:	d1 0f       	mov.l	305dac <_remove_link+0x9c>,r1	! 305c70 <_set_footer>
  305d6e:	41 0b       	jsr	@r1
  305d70:	64 93       	mov	r9,r4
  305d72:	48 08       	shll2	r8
  305d74:	38 bc       	add	r11,r8
  305d76:	61 82       	mov.l	@r8,r1
  305d78:	31 c0       	cmp/eq	r12,r1
  305d7a:	8b 00       	bf	305d7e <_remove_link+0x6e>
  305d7c:	28 92       	mov.l	r9,@r8
  305d7e:	7b 40       	add	#64,r11
  305d80:	51 b0       	mov.l	@(0,r11),r1
  305d82:	21 18       	tst	r1,r1
  305d84:	89 02       	bt	305d8c <_remove_link+0x7c>
  305d86:	62 12       	mov.l	@r1,r2
  305d88:	32 a8       	sub	r10,r2
  305d8a:	21 22       	mov.l	r2,@r1
  305d8c:	4f 26       	lds.l	@r15+,pr
  305d8e:	6d f6       	mov.l	@r15+,r13
  305d90:	6c f6       	mov.l	@r15+,r12
  305d92:	6b f6       	mov.l	@r15+,r11
  305d94:	6a f6       	mov.l	@r15+,r10
  305d96:	69 f6       	mov.l	@r15+,r9
  305d98:	00 0b       	rts	
  305d9a:	68 f6       	mov.l	@r15+,r8
  305d9c:	91 03       	mov.w	305da6 <_remove_link+0x96>,r1	! ff
  305d9e:	3a 16       	cmp/hi	r1,r10
  305da0:	08 29       	movt	r8
  305da2:	af c7       	bra	305d34 <_remove_link+0x24>
  305da4:	78 0e       	add	#14,r8
  305da6:	00 ff       	mac.l	@r15+,@r0+
  305da8:	00 ff       	mac.l	@r15+,@r0+
  305daa:	ff ff       	.word 0xffff
  305dac:	00 30       	.word 0x0030
  305dae:	5c 70       	mov.l	@(0,r7),r12

00305db0 <_gint_malloc>:
  305db0:	2f 86       	mov.l	r8,@-r15
  305db2:	61 53       	mov	r5,r1
  305db4:	2f 96       	mov.l	r9,@-r15
  305db6:	71 40       	add	#64,r1
  305db8:	2f a6       	mov.l	r10,@-r15
  305dba:	2f b6       	mov.l	r11,@-r15
  305dbc:	2f c6       	mov.l	r12,@-r15
  305dbe:	2f d6       	mov.l	r13,@-r15
  305dc0:	2f e6       	mov.l	r14,@-r15
  305dc2:	4f 22       	sts.l	pr,@-r15
  305dc4:	5a 10       	mov.l	@(0,r1),r10
  305dc6:	e1 07       	mov	#7,r1
  305dc8:	34 16       	cmp/hi	r1,r4
  305dca:	8f 23       	bf.s	305e14 <_gint_malloc+0x64>
  305dcc:	6b 53       	mov	r5,r11
  305dce:	e1 fc       	mov	#-4,r1
  305dd0:	74 03       	add	#3,r4
  305dd2:	69 43       	mov	r4,r9
  305dd4:	29 19       	and	r1,r9
  305dd6:	e1 3f       	mov	#63,r1
  305dd8:	39 16       	cmp/hi	r1,r9
  305dda:	89 1d       	bt	305e18 <_gint_malloc+0x68>
  305ddc:	61 93       	mov	r9,r1
  305dde:	71 f8       	add	#-8,r1
  305de0:	41 09       	shlr2	r1
  305de2:	e2 10       	mov	#16,r2
  305de4:	67 13       	mov	r1,r7
  305de6:	e3 11       	mov	#17,r3
  305de8:	31 27       	cmp/gt	r2,r1
  305dea:	47 08       	shll2	r7
  305dec:	dc 35       	mov.l	305ec4 <_gint_malloc+0x114>,r12	! ffffff
  305dee:	37 bc       	add	r11,r7
  305df0:	e4 0d       	mov	#13,r4
  305df2:	ed fc       	mov	#-4,r13
  305df4:	33 18       	sub	r1,r3
  305df6:	8b 00       	bf	305dfa <_gint_malloc+0x4a>
  305df8:	e3 01       	mov	#1,r3
  305dfa:	43 10       	dt	r3
  305dfc:	8f 11       	bf.s	305e22 <_gint_malloc+0x72>
  305dfe:	31 47       	cmp/gt	r4,r1
  305e00:	2a a8       	tst	r10,r10
  305e02:	89 05       	bt	305e10 <_gint_malloc+0x60>
  305e04:	61 a2       	mov.l	@r10,r1
  305e06:	31 92       	cmp/hs	r9,r1
  305e08:	8b 56       	bf	305eb8 <_gint_malloc+0x108>
  305e0a:	51 a4       	mov.l	@(16,r10),r1
  305e0c:	71 01       	add	#1,r1
  305e0e:	1a 14       	mov.l	r1,@(16,r10)
  305e10:	a0 49       	bra	305ea6 <_gint_malloc+0xf6>
  305e12:	e0 00       	mov	#0,r0
  305e14:	af e2       	bra	305ddc <_gint_malloc+0x2c>
  305e16:	e9 08       	mov	#8,r9
  305e18:	91 52       	mov.w	305ec0 <_gint_malloc+0x110>,r1	! ff
  305e1a:	39 16       	cmp/hi	r1,r9
  305e1c:	01 29       	movt	r1
  305e1e:	af e0       	bra	305de2 <_gint_malloc+0x32>
  305e20:	71 0e       	add	#14,r1
  305e22:	8f 12       	bf.s	305e4a <_gint_malloc+0x9a>
  305e24:	68 76       	mov.l	@r7+,r8
  305e26:	62 83       	mov	r8,r2
  305e28:	e6 ff       	mov	#-1,r6
  305e2a:	a0 0a       	bra	305e42 <_gint_malloc+0x92>
  305e2c:	e8 00       	mov	#0,r8
  305e2e:	60 22       	mov.l	@r2,r0
  305e30:	20 c9       	and	r12,r0
  305e32:	30 92       	cmp/hs	r9,r0
  305e34:	8f 03       	bf.s	305e3e <_gint_malloc+0x8e>
  305e36:	36 06       	cmp/hi	r0,r6
  305e38:	8b 01       	bf	305e3e <_gint_malloc+0x8e>
  305e3a:	66 03       	mov	r0,r6
  305e3c:	68 23       	mov	r2,r8
  305e3e:	02 2e       	mov.l	@(r0,r2),r2
  305e40:	22 d9       	and	r13,r2
  305e42:	22 28       	tst	r2,r2
  305e44:	8d 01       	bt.s	305e4a <_gint_malloc+0x9a>
  305e46:	36 90       	cmp/eq	r9,r6
  305e48:	8b f1       	bf	305e2e <_gint_malloc+0x7e>
  305e4a:	28 88       	tst	r8,r8
  305e4c:	8d d5       	bt.s	305dfa <_gint_malloc+0x4a>
  305e4e:	71 01       	add	#1,r1
  305e50:	d1 1d       	mov.l	305ec8 <_gint_malloc+0x118>,r1	! 305d10 <_remove_link>
  305e52:	65 b3       	mov	r11,r5
  305e54:	41 0b       	jsr	@r1
  305e56:	64 83       	mov	r8,r4
  305e58:	d0 1c       	mov.l	305ecc <_gint_malloc+0x11c>,r0	! 305b54 <_split>
  305e5a:	64 83       	mov	r8,r4
  305e5c:	40 0b       	jsr	@r0
  305e5e:	65 93       	mov	r9,r5
  305e60:	20 08       	tst	r0,r0
  305e62:	8d 03       	bt.s	305e6c <_gint_malloc+0xbc>
  305e64:	64 03       	mov	r0,r4
  305e66:	d1 1a       	mov.l	305ed0 <_gint_malloc+0x120>,r1	! 305c90 <_prepend_link>
  305e68:	41 0b       	jsr	@r1
  305e6a:	65 b3       	mov	r11,r5
  305e6c:	d0 19       	mov.l	305ed4 <_gint_malloc+0x124>,r0	! 305b34 <_next_block>
  305e6e:	40 0b       	jsr	@r0
  305e70:	64 83       	mov	r8,r4
  305e72:	61 82       	mov.l	@r8,r1
  305e74:	20 08       	tst	r0,r0
  305e76:	d2 18       	mov.l	305ed8 <_gint_malloc+0x128>,r2	! 2000000
  305e78:	21 2b       	or	r2,r1
  305e7a:	8d 04       	bt.s	305e86 <_gint_malloc+0xd6>
  305e7c:	28 12       	mov.l	r1,@r8
  305e7e:	61 02       	mov.l	@r0,r1
  305e80:	d2 16       	mov.l	305edc <_gint_malloc+0x12c>,r2	! 1000000
  305e82:	21 2b       	or	r2,r1
  305e84:	20 12       	mov.l	r1,@r0
  305e86:	2a a8       	tst	r10,r10
  305e88:	8d 0c       	bt.s	305ea4 <_gint_malloc+0xf4>
  305e8a:	60 83       	mov	r8,r0
  305e8c:	61 82       	mov.l	@r8,r1
  305e8e:	d2 0d       	mov.l	305ec4 <_gint_malloc+0x114>,r2	! ffffff
  305e90:	21 29       	and	r2,r1
  305e92:	52 a1       	mov.l	@(4,r10),r2
  305e94:	31 2c       	add	r2,r1
  305e96:	52 a2       	mov.l	@(8,r10),r2
  305e98:	1a 11       	mov.l	r1,@(4,r10)
  305e9a:	32 12       	cmp/hs	r1,r2
  305e9c:	89 00       	bt	305ea0 <_gint_malloc+0xf0>
  305e9e:	62 13       	mov	r1,r2
  305ea0:	1a 22       	mov.l	r2,@(8,r10)
  305ea2:	60 83       	mov	r8,r0
  305ea4:	70 04       	add	#4,r0
  305ea6:	4f 26       	lds.l	@r15+,pr
  305ea8:	6e f6       	mov.l	@r15+,r14
  305eaa:	6d f6       	mov.l	@r15+,r13
  305eac:	6c f6       	mov.l	@r15+,r12
  305eae:	6b f6       	mov.l	@r15+,r11
  305eb0:	6a f6       	mov.l	@r15+,r10
  305eb2:	69 f6       	mov.l	@r15+,r9
  305eb4:	00 0b       	rts	
  305eb6:	68 f6       	mov.l	@r15+,r8
  305eb8:	51 a3       	mov.l	@(12,r10),r1
  305eba:	71 01       	add	#1,r1
  305ebc:	af a8       	bra	305e10 <_gint_malloc+0x60>
  305ebe:	1a 13       	mov.l	r1,@(12,r10)
  305ec0:	00 ff       	mac.l	@r15+,@r0+
  305ec2:	00 09       	nop	
  305ec4:	00 ff       	mac.l	@r15+,@r0+
  305ec6:	ff ff       	.word 0xffff
  305ec8:	00 30       	.word 0x0030
  305eca:	5d 10       	mov.l	@(0,r1),r13
  305ecc:	00 30       	.word 0x0030
  305ece:	5b 54       	mov.l	@(16,r5),r11
  305ed0:	00 30       	.word 0x0030
  305ed2:	5c 90       	mov.l	@(0,r9),r12
  305ed4:	00 30       	.word 0x0030
  305ed6:	5b 34       	mov.l	@(16,r3),r11
  305ed8:	02 00       	.word 0x0200
  305eda:	00 00       	.word 0x0000
  305edc:	01 00       	.word 0x0100
	...

00305ee0 <_gint_free>:
  305ee0:	2f 86       	mov.l	r8,@-r15
  305ee2:	68 43       	mov	r4,r8
  305ee4:	2f 96       	mov.l	r9,@-r15
  305ee6:	78 c0       	add	#-64,r8
  305ee8:	2f a6       	mov.l	r10,@-r15
  305eea:	e9 00       	mov	#0,r9
  305eec:	2f b6       	mov.l	r11,@-r15
  305eee:	6b 43       	mov	r4,r11
  305ef0:	2f c6       	mov.l	r12,@-r15
  305ef2:	7b fc       	add	#-4,r11
  305ef4:	4f 22       	sts.l	pr,@-r15
  305ef6:	d2 23       	mov.l	305f84 <_gint_free+0xa4>,r2	! 1000000
  305ef8:	51 8f       	mov.l	@(60,r8),r1
  305efa:	21 28       	tst	r2,r1
  305efc:	8f 08       	bf.s	305f10 <_gint_free+0x30>
  305efe:	6c 53       	mov	r5,r12
  305f00:	50 8e       	mov.l	@(56,r8),r0
  305f02:	e1 08       	mov	#8,r1
  305f04:	c8 01       	tst	#1,r0
  305f06:	8b 00       	bf	305f0a <_gint_free+0x2a>
  305f08:	51 8c       	mov.l	@(48,r8),r1
  305f0a:	69 b3       	mov	r11,r9
  305f0c:	39 18       	sub	r1,r9
  305f0e:	79 fc       	add	#-4,r9
  305f10:	d0 1d       	mov.l	305f88 <_gint_free+0xa8>,r0	! 305b34 <_next_block>
  305f12:	40 0b       	jsr	@r0
  305f14:	64 b3       	mov	r11,r4
  305f16:	51 8f       	mov.l	@(60,r8),r1
  305f18:	d2 1c       	mov.l	305f8c <_gint_free+0xac>,r2	! fdffffff
  305f1a:	21 29       	and	r2,r1
  305f1c:	18 1f       	mov.l	r1,@(60,r8)
  305f1e:	62 c3       	mov	r12,r2
  305f20:	72 40       	add	#64,r2
  305f22:	52 20       	mov.l	@(0,r2),r2
  305f24:	22 28       	tst	r2,r2
  305f26:	8d 05       	bt.s	305f34 <_gint_free+0x54>
  305f28:	6a 03       	mov	r0,r10
  305f2a:	d3 19       	mov.l	305f90 <_gint_free+0xb0>,r3	! ffffff
  305f2c:	21 39       	and	r3,r1
  305f2e:	53 21       	mov.l	@(4,r2),r3
  305f30:	33 18       	sub	r1,r3
  305f32:	12 31       	mov.l	r3,@(4,r2)
  305f34:	2a a8       	tst	r10,r10
  305f36:	8d 10       	bt.s	305f5a <_gint_free+0x7a>
  305f38:	29 98       	tst	r9,r9
  305f3a:	61 a2       	mov.l	@r10,r1
  305f3c:	d2 15       	mov.l	305f94 <_gint_free+0xb4>,r2	! feffffff
  305f3e:	21 29       	and	r2,r1
  305f40:	d2 15       	mov.l	305f98 <_gint_free+0xb8>,r2	! 2000000
  305f42:	21 28       	tst	r2,r1
  305f44:	8f 08       	bf.s	305f58 <_gint_free+0x78>
  305f46:	2a 12       	mov.l	r1,@r10
  305f48:	d1 14       	mov.l	305f9c <_gint_free+0xbc>,r1	! 305d10 <_remove_link>
  305f4a:	65 c3       	mov	r12,r5
  305f4c:	41 0b       	jsr	@r1
  305f4e:	64 a3       	mov	r10,r4
  305f50:	d1 13       	mov.l	305fa0 <_gint_free+0xc0>,r1	! 305bfc <_merge>
  305f52:	65 a3       	mov	r10,r5
  305f54:	41 0b       	jsr	@r1
  305f56:	64 b3       	mov	r11,r4
  305f58:	29 98       	tst	r9,r9
  305f5a:	8d 08       	bt.s	305f6e <_gint_free+0x8e>
  305f5c:	65 c3       	mov	r12,r5
  305f5e:	d1 0f       	mov.l	305f9c <_gint_free+0xbc>,r1	! 305d10 <_remove_link>
  305f60:	41 0b       	jsr	@r1
  305f62:	64 93       	mov	r9,r4
  305f64:	d1 0e       	mov.l	305fa0 <_gint_free+0xc0>,r1	! 305bfc <_merge>
  305f66:	65 b3       	mov	r11,r5
  305f68:	64 93       	mov	r9,r4
  305f6a:	41 0b       	jsr	@r1
  305f6c:	6b 93       	mov	r9,r11
  305f6e:	d1 0d       	mov.l	305fa4 <_gint_free+0xc4>,r1	! 305c90 <_prepend_link>
  305f70:	65 c3       	mov	r12,r5
  305f72:	64 b3       	mov	r11,r4
  305f74:	4f 26       	lds.l	@r15+,pr
  305f76:	6c f6       	mov.l	@r15+,r12
  305f78:	6b f6       	mov.l	@r15+,r11
  305f7a:	6a f6       	mov.l	@r15+,r10
  305f7c:	69 f6       	mov.l	@r15+,r9
  305f7e:	41 2b       	jmp	@r1
  305f80:	68 f6       	mov.l	@r15+,r8
  305f82:	00 09       	nop	
  305f84:	01 00       	.word 0x0100
  305f86:	00 00       	.word 0x0000
  305f88:	00 30       	.word 0x0030
  305f8a:	5b 34       	mov.l	@(16,r3),r11
  305f8c:	fd ff       	.word 0xfdff
  305f8e:	ff ff       	.word 0xffff
  305f90:	00 ff       	mac.l	@r15+,@r0+
  305f92:	ff ff       	.word 0xffff
  305f94:	fe ff       	.word 0xfeff
  305f96:	ff ff       	.word 0xffff
  305f98:	02 00       	.word 0x0200
  305f9a:	00 00       	.word 0x0000
  305f9c:	00 30       	.word 0x0030
  305f9e:	5d 10       	mov.l	@(0,r1),r13
  305fa0:	00 30       	.word 0x0030
  305fa2:	5b fc       	mov.l	@(48,r15),r11
  305fa4:	00 30       	.word 0x0030
  305fa6:	5c 90       	mov.l	@(0,r9),r12

00305fa8 <_gint_realloc>:
  305fa8:	2f 86       	mov.l	r8,@-r15
  305faa:	61 63       	mov	r6,r1
  305fac:	2f 96       	mov.l	r9,@-r15
  305fae:	71 40       	add	#64,r1
  305fb0:	2f a6       	mov.l	r10,@-r15
  305fb2:	69 43       	mov	r4,r9
  305fb4:	2f b6       	mov.l	r11,@-r15
  305fb6:	6a 63       	mov	r6,r10
  305fb8:	2f c6       	mov.l	r12,@-r15
  305fba:	eb 08       	mov	#8,r11
  305fbc:	2f d6       	mov.l	r13,@-r15
  305fbe:	2f e6       	mov.l	r14,@-r15
  305fc0:	6e 43       	mov	r4,r14
  305fc2:	4f 22       	sts.l	pr,@-r15
  305fc4:	58 10       	mov.l	@(0,r1),r8
  305fc6:	e1 07       	mov	#7,r1
  305fc8:	35 16       	cmp/hi	r1,r5
  305fca:	7f f8       	add	#-8,r15
  305fcc:	8f 03       	bf.s	305fd6 <_gint_realloc+0x2e>
  305fce:	7e fc       	add	#-4,r14
  305fd0:	75 03       	add	#3,r5
  305fd2:	eb fc       	mov	#-4,r11
  305fd4:	2b 59       	and	r5,r11
  305fd6:	61 93       	mov	r9,r1
  305fd8:	71 c0       	add	#-64,r1
  305fda:	5c 1f       	mov.l	@(60,r1),r12
  305fdc:	d7 48       	mov.l	306100 <_gint_realloc+0x158>,r7	! ffffff
  305fde:	2c 79       	and	r7,r12
  305fe0:	3c b2       	cmp/hs	r11,r12
  305fe2:	8f 31       	bf.s	306048 <_gint_realloc+0xa0>
  305fe4:	1f 11       	mov.l	r1,@(4,r15)
  305fe6:	d0 47       	mov.l	306104 <_gint_realloc+0x15c>,r0	! 305b54 <_split>
  305fe8:	65 b3       	mov	r11,r5
  305fea:	40 0b       	jsr	@r0
  305fec:	64 e3       	mov	r14,r4
  305fee:	20 08       	tst	r0,r0
  305ff0:	8f 0c       	bf.s	30600c <_gint_realloc+0x64>
  305ff2:	6d 03       	mov	r0,r13
  305ff4:	6c 93       	mov	r9,r12
  305ff6:	60 c3       	mov	r12,r0
  305ff8:	7f 08       	add	#8,r15
  305ffa:	4f 26       	lds.l	@r15+,pr
  305ffc:	6e f6       	mov.l	@r15+,r14
  305ffe:	6d f6       	mov.l	@r15+,r13
  306000:	6c f6       	mov.l	@r15+,r12
  306002:	6b f6       	mov.l	@r15+,r11
  306004:	6a f6       	mov.l	@r15+,r10
  306006:	69 f6       	mov.l	@r15+,r9
  306008:	00 0b       	rts	
  30600a:	68 f6       	mov.l	@r15+,r8
  30600c:	64 03       	mov	r0,r4
  30600e:	d0 3e       	mov.l	306108 <_gint_realloc+0x160>,r0	! 305b34 <_next_block>
  306010:	40 0b       	jsr	@r0
  306012:	00 09       	nop	
  306014:	20 08       	tst	r0,r0
  306016:	8d 0c       	bt.s	306032 <_gint_realloc+0x8a>
  306018:	6e 03       	mov	r0,r14
  30601a:	61 02       	mov.l	@r0,r1
  30601c:	d2 3b       	mov.l	30610c <_gint_realloc+0x164>,r2	! 2000000
  30601e:	21 28       	tst	r2,r1
  306020:	8f 07       	bf.s	306032 <_gint_realloc+0x8a>
  306022:	65 a3       	mov	r10,r5
  306024:	d1 3a       	mov.l	306110 <_gint_realloc+0x168>,r1	! 305d10 <_remove_link>
  306026:	41 0b       	jsr	@r1
  306028:	64 03       	mov	r0,r4
  30602a:	d1 3a       	mov.l	306114 <_gint_realloc+0x16c>,r1	! 305bfc <_merge>
  30602c:	65 e3       	mov	r14,r5
  30602e:	41 0b       	jsr	@r1
  306030:	64 d3       	mov	r13,r4
  306032:	d1 39       	mov.l	306118 <_gint_realloc+0x170>,r1	! 305c90 <_prepend_link>
  306034:	65 a3       	mov	r10,r5
  306036:	41 0b       	jsr	@r1
  306038:	64 d3       	mov	r13,r4
  30603a:	28 88       	tst	r8,r8
  30603c:	89 da       	bt	305ff4 <_gint_realloc+0x4c>
  30603e:	51 81       	mov.l	@(4,r8),r1
  306040:	31 c8       	sub	r12,r1
  306042:	31 bc       	add	r11,r1
  306044:	af d6       	bra	305ff4 <_gint_realloc+0x4c>
  306046:	18 11       	mov.l	r1,@(4,r8)
  306048:	d0 2f       	mov.l	306108 <_gint_realloc+0x160>,r0	! 305b34 <_next_block>
  30604a:	64 e3       	mov	r14,r4
  30604c:	40 0b       	jsr	@r0
  30604e:	2f 72       	mov.l	r7,@r15
  306050:	20 08       	tst	r0,r0
  306052:	67 f2       	mov.l	@r15,r7
  306054:	8d 2b       	bt.s	3060ae <_gint_realloc+0x106>
  306056:	6d 03       	mov	r0,r13
  306058:	63 02       	mov.l	@r0,r3
  30605a:	d1 2c       	mov.l	30610c <_gint_realloc+0x164>,r1	! 2000000
  30605c:	23 18       	tst	r1,r3
  30605e:	8f 26       	bf.s	3060ae <_gint_realloc+0x106>
  306060:	62 b3       	mov	r11,r2
  306062:	32 c8       	sub	r12,r2
  306064:	72 fc       	add	#-4,r2
  306066:	23 79       	and	r7,r3
  306068:	33 23       	cmp/ge	r2,r3
  30606a:	8f 20       	bf.s	3060ae <_gint_realloc+0x106>
  30606c:	64 03       	mov	r0,r4
  30606e:	d3 28       	mov.l	306110 <_gint_realloc+0x168>,r3	! 305d10 <_remove_link>
  306070:	2f 22       	mov.l	r2,@r15
  306072:	43 0b       	jsr	@r3
  306074:	65 a3       	mov	r10,r5
  306076:	d0 23       	mov.l	306104 <_gint_realloc+0x15c>,r0	! 305b54 <_split>
  306078:	64 d3       	mov	r13,r4
  30607a:	40 0b       	jsr	@r0
  30607c:	65 f2       	mov.l	@r15,r5
  30607e:	20 08       	tst	r0,r0
  306080:	8d 03       	bt.s	30608a <_gint_realloc+0xe2>
  306082:	64 03       	mov	r0,r4
  306084:	d2 24       	mov.l	306118 <_gint_realloc+0x170>,r2	! 305c90 <_prepend_link>
  306086:	42 0b       	jsr	@r2
  306088:	65 a3       	mov	r10,r5
  30608a:	d1 22       	mov.l	306114 <_gint_realloc+0x16c>,r1	! 305bfc <_merge>
  30608c:	65 d3       	mov	r13,r5
  30608e:	41 0b       	jsr	@r1
  306090:	64 e3       	mov	r14,r4
  306092:	28 88       	tst	r8,r8
  306094:	8d ae       	bt.s	305ff4 <_gint_realloc+0x4c>
  306096:	52 f1       	mov.l	@(4,r15),r2
  306098:	51 2f       	mov.l	@(60,r2),r1
  30609a:	d2 19       	mov.l	306100 <_gint_realloc+0x158>,r2	! ffffff
  30609c:	21 29       	and	r2,r1
  30609e:	52 81       	mov.l	@(4,r8),r2
  3060a0:	31 c8       	sub	r12,r1
  3060a2:	31 2c       	add	r2,r1
  3060a4:	18 11       	mov.l	r1,@(4,r8)
  3060a6:	51 85       	mov.l	@(20,r8),r1
  3060a8:	71 01       	add	#1,r1
  3060aa:	af a3       	bra	305ff4 <_gint_realloc+0x4c>
  3060ac:	18 15       	mov.l	r1,@(20,r8)
  3060ae:	d0 1b       	mov.l	30611c <_gint_realloc+0x174>,r0	! 305db0 <_gint_malloc>
  3060b0:	65 a3       	mov	r10,r5
  3060b2:	40 0b       	jsr	@r0
  3060b4:	64 b3       	mov	r11,r4
  3060b6:	20 08       	tst	r0,r0
  3060b8:	8f 0b       	bf.s	3060d2 <_gint_realloc+0x12a>
  3060ba:	6c 03       	mov	r0,r12
  3060bc:	28 88       	tst	r8,r8
  3060be:	8d 9b       	bt.s	305ff8 <_gint_realloc+0x50>
  3060c0:	60 c3       	mov	r12,r0
  3060c2:	61 82       	mov.l	@r8,r1
  3060c4:	31 b6       	cmp/hi	r11,r1
  3060c6:	89 16       	bt	3060f6 <_gint_realloc+0x14e>
  3060c8:	51 83       	mov.l	@(12,r8),r1
  3060ca:	71 01       	add	#1,r1
  3060cc:	18 13       	mov.l	r1,@(12,r8)
  3060ce:	af 93       	bra	305ff8 <_gint_realloc+0x50>
  3060d0:	60 c3       	mov	r12,r0
  3060d2:	51 f1       	mov.l	@(4,r15),r1
  3060d4:	64 03       	mov	r0,r4
  3060d6:	d0 12       	mov.l	306120 <_gint_realloc+0x178>,r0	! 309100 <_memcpy>
  3060d8:	65 93       	mov	r9,r5
  3060da:	56 1f       	mov.l	@(60,r1),r6
  3060dc:	d1 08       	mov.l	306100 <_gint_realloc+0x158>,r1	! ffffff
  3060de:	40 0b       	jsr	@r0
  3060e0:	26 19       	and	r1,r6
  3060e2:	d1 10       	mov.l	306124 <_gint_realloc+0x17c>,r1	! 305ee0 <_gint_free>
  3060e4:	65 a3       	mov	r10,r5
  3060e6:	41 0b       	jsr	@r1
  3060e8:	64 93       	mov	r9,r4
  3060ea:	28 88       	tst	r8,r8
  3060ec:	89 ef       	bt	3060ce <_gint_realloc+0x126>
  3060ee:	51 86       	mov.l	@(24,r8),r1
  3060f0:	71 01       	add	#1,r1
  3060f2:	af 80       	bra	305ff6 <_gint_realloc+0x4e>
  3060f4:	18 16       	mov.l	r1,@(24,r8)
  3060f6:	51 84       	mov.l	@(16,r8),r1
  3060f8:	71 01       	add	#1,r1
  3060fa:	af 7c       	bra	305ff6 <_gint_realloc+0x4e>
  3060fc:	18 14       	mov.l	r1,@(16,r8)
  3060fe:	00 09       	nop	
  306100:	00 ff       	mac.l	@r15+,@r0+
  306102:	ff ff       	.word 0xffff
  306104:	00 30       	.word 0x0030
  306106:	5b 54       	mov.l	@(16,r5),r11
  306108:	00 30       	.word 0x0030
  30610a:	5b 34       	mov.l	@(16,r3),r11
  30610c:	02 00       	.word 0x0200
  30610e:	00 00       	.word 0x0000
  306110:	00 30       	.word 0x0030
  306112:	5d 10       	mov.l	@(0,r1),r13
  306114:	00 30       	.word 0x0030
  306116:	5b fc       	mov.l	@(48,r15),r11
  306118:	00 30       	.word 0x0030
  30611a:	5c 90       	mov.l	@(0,r9),r12
  30611c:	00 30       	.word 0x0030
  30611e:	5d b0       	mov.l	@(0,r11),r13
  306120:	00 30       	.word 0x0030
  306122:	91 00       	mov.w	306126 <_gint_realloc+0x17e>,r1	! 5ee0
  306124:	00 30       	.word 0x0030
  306126:	5e e0       	mov.l	@(0,r14),r14

00306128 <_kmalloc_init_arena>:
  306128:	2f 86       	mov.l	r8,@-r15
  30612a:	65 5c       	extu.b	r5,r5
  30612c:	2f 96       	mov.l	r9,@-r15
  30612e:	2f a6       	mov.l	r10,@-r15
  306130:	2f b6       	mov.l	r11,@-r15
  306132:	2f c6       	mov.l	r12,@-r15
  306134:	4f 22       	sts.l	pr,@-r15
  306136:	5a 44       	mov.l	@(16,r4),r10
  306138:	51 45       	mov.l	@(20,r4),r1
  30613a:	92 55       	mov.w	3061e8 <_kmalloc_init_arena+0xc0>,r2	! ff
  30613c:	31 a8       	sub	r10,r1
  30613e:	31 27       	cmp/gt	r2,r1
  306140:	8f 43       	bf.s	3061ca <_kmalloc_init_arena+0xa2>
  306142:	69 43       	mov	r4,r9
  306144:	d1 29       	mov.l	3061ec <_kmalloc_init_arena+0xc4>,r1	! 305db0 <_gint_malloc>
  306146:	25 58       	tst	r5,r5
  306148:	14 a6       	mov.l	r10,@(24,r4)
  30614a:	68 a3       	mov	r10,r8
  30614c:	24 12       	mov.l	r1,@r4
  30614e:	6b a3       	mov	r10,r11
  306150:	d1 27       	mov.l	3061f0 <_kmalloc_init_arena+0xc8>,r1	! 305ee0 <_gint_free>
  306152:	78 44       	add	#68,r8
  306154:	7b 40       	add	#64,r11
  306156:	14 12       	mov.l	r1,@(8,r4)
  306158:	d1 26       	mov.l	3061f4 <_kmalloc_init_arena+0xcc>,r1	! 305fa8 <_gint_realloc>
  30615a:	8d 3d       	bt.s	3061d8 <_kmalloc_init_arena+0xb0>
  30615c:	14 11       	mov.l	r1,@(4,r4)
  30615e:	d0 26       	mov.l	3061f8 <_kmalloc_init_arena+0xd0>,r0	! 3091c0 <_memset>
  306160:	64 83       	mov	r8,r4
  306162:	1b 80       	mov.l	r8,@(0,r11)
  306164:	e6 1c       	mov	#28,r6
  306166:	e5 00       	mov	#0,r5
  306168:	40 0b       	jsr	@r0
  30616a:	6c a3       	mov	r10,r12
  30616c:	7c 60       	add	#96,r12
  30616e:	68 c3       	mov	r12,r8
  306170:	60 80       	mov.b	@r8,r0
  306172:	e1 f8       	mov	#-8,r1
  306174:	59 95       	mov.l	@(20,r9),r9
  306176:	e6 00       	mov	#0,r6
  306178:	20 19       	and	r1,r0
  30617a:	d3 20       	mov.l	3061fc <_kmalloc_init_arena+0xd4>,r3	! ff000000
  30617c:	cb 05       	or	#5,r0
  30617e:	dc 20       	mov.l	306200 <_kmalloc_init_arena+0xd8>,r12	! ffffff
  306180:	28 00       	mov.b	r0,@r8
  306182:	39 88       	sub	r8,r9
  306184:	61 82       	mov.l	@r8,r1
  306186:	79 fc       	add	#-4,r9
  306188:	62 93       	mov	r9,r2
  30618a:	22 c9       	and	r12,r2
  30618c:	21 39       	and	r3,r1
  30618e:	64 83       	mov	r8,r4
  306190:	21 2b       	or	r2,r1
  306192:	28 12       	mov.l	r1,@r8
  306194:	d1 1b       	mov.l	306204 <_kmalloc_init_arena+0xdc>,r1	! 305c70 <_set_footer>
  306196:	41 0b       	jsr	@r1
  306198:	e5 00       	mov	#0,r5
  30619a:	61 b3       	mov	r11,r1
  30619c:	31 a8       	sub	r10,r1
  30619e:	71 fc       	add	#-4,r1
  3061a0:	62 a3       	mov	r10,r2
  3061a2:	41 09       	shlr2	r1
  3061a4:	e3 00       	mov	#0,r3
  3061a6:	71 01       	add	#1,r1
  3061a8:	22 32       	mov.l	r3,@r2
  3061aa:	41 10       	dt	r1
  3061ac:	8f fc       	bf.s	3061a8 <_kmalloc_init_arena+0x80>
  3061ae:	72 04       	add	#4,r2
  3061b0:	d1 15       	mov.l	306208 <_kmalloc_init_arena+0xe0>,r1	! ffffc0
  3061b2:	29 18       	tst	r1,r9
  3061b4:	8f 12       	bf.s	3061dc <_kmalloc_init_arena+0xb4>
  3061b6:	2c 99       	and	r9,r12
  3061b8:	60 c3       	mov	r12,r0
  3061ba:	70 f8       	add	#-8,r0
  3061bc:	40 09       	shlr2	r0
  3061be:	51 b0       	mov.l	@(0,r11),r1
  3061c0:	40 08       	shll2	r0
  3061c2:	0a 86       	mov.l	r8,@(r0,r10)
  3061c4:	21 18       	tst	r1,r1
  3061c6:	89 00       	bt	3061ca <_kmalloc_init_arena+0xa2>
  3061c8:	21 c2       	mov.l	r12,@r1
  3061ca:	4f 26       	lds.l	@r15+,pr
  3061cc:	6c f6       	mov.l	@r15+,r12
  3061ce:	6b f6       	mov.l	@r15+,r11
  3061d0:	6a f6       	mov.l	@r15+,r10
  3061d2:	69 f6       	mov.l	@r15+,r9
  3061d4:	00 0b       	rts	
  3061d6:	68 f6       	mov.l	@r15+,r8
  3061d8:	af ca       	bra	306170 <_kmalloc_init_arena+0x48>
  3061da:	1b 50       	mov.l	r5,@(0,r11)
  3061dc:	d1 0b       	mov.l	30620c <_kmalloc_init_arena+0xe4>,r1	! ffff00
  3061de:	29 18       	tst	r1,r9
  3061e0:	e1 ff       	mov	#-1,r1
  3061e2:	60 1a       	negc	r1,r0
  3061e4:	af eb       	bra	3061be <_kmalloc_init_arena+0x96>
  3061e6:	70 0e       	add	#14,r0
  3061e8:	00 ff       	mac.l	@r15+,@r0+
  3061ea:	00 09       	nop	
  3061ec:	00 30       	.word 0x0030
  3061ee:	5d b0       	mov.l	@(0,r11),r13
  3061f0:	00 30       	.word 0x0030
  3061f2:	5e e0       	mov.l	@(0,r14),r14
  3061f4:	00 30       	.word 0x0030
  3061f6:	5f a8       	mov.l	@(32,r10),r15
  3061f8:	00 30       	.word 0x0030
  3061fa:	91 c0       	mov.w	30637e <_kfree+0x2e>,r1	! 9
  3061fc:	ff 00       	.word 0xff00
  3061fe:	00 00       	.word 0x0000
  306200:	00 ff       	mac.l	@r15+,@r0+
  306202:	ff ff       	.word 0xffff
  306204:	00 30       	.word 0x0030
  306206:	5c 70       	mov.l	@(0,r7),r12
  306208:	00 ff       	mac.l	@r15+,@r0+
  30620a:	ff c0       	.word 0xffc0
  30620c:	00 ff       	mac.l	@r15+,@r0+
  30620e:	ff 00       	.word 0xff00

00306210 <_kmalloc_get_gint_stats>:
  306210:	62 42       	mov.l	@r4,r2
  306212:	d1 04       	mov.l	306224 <_kmalloc_get_gint_stats+0x14>,r1	! 305db0 <_gint_malloc>
  306214:	32 10       	cmp/eq	r1,r2
  306216:	8f 03       	bf.s	306220 <_kmalloc_get_gint_stats+0x10>
  306218:	e0 00       	mov	#0,r0
  30621a:	51 46       	mov.l	@(24,r4),r1
  30621c:	71 40       	add	#64,r1
  30621e:	50 10       	mov.l	@(0,r1),r0
  306220:	00 0b       	rts	
  306222:	00 09       	nop	
  306224:	00 30       	.word 0x0030
  306226:	5d b0       	mov.l	@(0,r11),r13

00306228 <_arena_owning>:
  306228:	d2 0a       	mov.l	306254 <_arena_owning+0x2c>,r2	! 8101654 <_arenas>
  30622a:	e1 08       	mov	#8,r1
  30622c:	60 26       	mov.l	@r2+,r0
  30622e:	20 08       	tst	r0,r0
  306230:	89 0b       	bt	30624a <_arena_owning+0x22>
  306232:	53 04       	mov.l	@(16,r0),r3
  306234:	33 46       	cmp/hi	r4,r3
  306236:	8d 04       	bt.s	306242 <_arena_owning+0x1a>
  306238:	23 38       	tst	r3,r3
  30623a:	57 05       	mov.l	@(20,r0),r7
  30623c:	37 46       	cmp/hi	r4,r7
  30623e:	8d 07       	bt.s	306250 <_arena_owning+0x28>
  306240:	23 38       	tst	r3,r3
  306242:	8b 02       	bf	30624a <_arena_owning+0x22>
  306244:	53 05       	mov.l	@(20,r0),r3
  306246:	23 38       	tst	r3,r3
  306248:	89 02       	bt	306250 <_arena_owning+0x28>
  30624a:	41 10       	dt	r1
  30624c:	8f ee       	bf.s	30622c <_arena_owning+0x4>
  30624e:	e0 00       	mov	#0,r0
  306250:	00 0b       	rts	
  306252:	00 09       	nop	
  306254:	08 10       	.word 0x0810
  306256:	16 54       	mov.l	r5,@(16,r6)

00306258 <_kmalloc_init>:
  306258:	d1 01       	mov.l	306260 <_kmalloc_init+0x8>,r1	! 8101654 <_arenas>
  30625a:	d2 02       	mov.l	306264 <_kmalloc_init+0xc>,r2	! 8101a90 <_kmalloc_arena_osheap>
  30625c:	00 0b       	rts	
  30625e:	11 27       	mov.l	r2,@(28,r1)
  306260:	08 10       	.word 0x0810
  306262:	16 54       	mov.l	r5,@(16,r6)
  306264:	08 10       	.word 0x0810
  306266:	1a 90       	mov.l	r9,@(0,r10)

00306268 <_kmalloc_get_arena>:
  306268:	2f 86       	mov.l	r8,@-r15
  30626a:	e8 00       	mov	#0,r8
  30626c:	2f 96       	mov.l	r9,@-r15
  30626e:	2f a6       	mov.l	r10,@-r15
  306270:	6a 43       	mov	r4,r10
  306272:	2f b6       	mov.l	r11,@-r15
  306274:	2f c6       	mov.l	r12,@-r15
  306276:	dc 0f       	mov.l	3062b4 <_kmalloc_get_arena+0x4c>,r12	! 308f9e <_strcmp>
  306278:	d9 0f       	mov.l	3062b8 <_kmalloc_get_arena+0x50>,r9	! 8101654 <_arenas>
  30627a:	4f 22       	sts.l	pr,@-r15
  30627c:	6b 93       	mov	r9,r11
  30627e:	61 96       	mov.l	@r9+,r1
  306280:	21 18       	tst	r1,r1
  306282:	89 10       	bt	3062a6 <_kmalloc_get_arena+0x3e>
  306284:	54 13       	mov.l	@(12,r1),r4
  306286:	4c 0b       	jsr	@r12
  306288:	65 a3       	mov	r10,r5
  30628a:	20 08       	tst	r0,r0
  30628c:	8f 0c       	bf.s	3062a8 <_kmalloc_get_arena+0x40>
  30628e:	78 01       	add	#1,r8
  306290:	78 ff       	add	#-1,r8
  306292:	60 83       	mov	r8,r0
  306294:	40 08       	shll2	r0
  306296:	00 be       	mov.l	@(r0,r11),r0
  306298:	4f 26       	lds.l	@r15+,pr
  30629a:	6c f6       	mov.l	@r15+,r12
  30629c:	6b f6       	mov.l	@r15+,r11
  30629e:	6a f6       	mov.l	@r15+,r10
  3062a0:	69 f6       	mov.l	@r15+,r9
  3062a2:	00 0b       	rts	
  3062a4:	68 f6       	mov.l	@r15+,r8
  3062a6:	78 01       	add	#1,r8
  3062a8:	60 83       	mov	r8,r0
  3062aa:	88 08       	cmp/eq	#8,r0
  3062ac:	8f e7       	bf.s	30627e <_kmalloc_get_arena+0x16>
  3062ae:	e0 00       	mov	#0,r0
  3062b0:	af f2       	bra	306298 <_kmalloc_get_arena+0x30>
  3062b2:	00 09       	nop	
  3062b4:	00 30       	.word 0x0030
  3062b6:	8f 9e       	bf.s	3061f6 <_kmalloc_init_arena+0xce>
  3062b8:	08 10       	.word 0x0810
  3062ba:	16 54       	mov.l	r5,@(16,r6)

003062bc <_kmalloc>:
  3062bc:	2f 86       	mov.l	r8,@-r15
  3062be:	24 48       	tst	r4,r4
  3062c0:	2f 96       	mov.l	r9,@-r15
  3062c2:	69 53       	mov	r5,r9
  3062c4:	2f a6       	mov.l	r10,@-r15
  3062c6:	2f b6       	mov.l	r11,@-r15
  3062c8:	2f c6       	mov.l	r12,@-r15
  3062ca:	6c 43       	mov	r4,r12
  3062cc:	2f d6       	mov.l	r13,@-r15
  3062ce:	8d 32       	bt.s	306336 <_kmalloc+0x7a>
  3062d0:	4f 22       	sts.l	pr,@-r15
  3062d2:	dd 1d       	mov.l	306348 <_kmalloc+0x8c>,r13	! 8101654 <_arenas>
  3062d4:	db 1d       	mov.l	30634c <_kmalloc+0x90>,r11	! 308f9e <_strcmp>
  3062d6:	6a d3       	mov	r13,r10
  3062d8:	7a 20       	add	#32,r10
  3062da:	68 d6       	mov.l	@r13+,r8
  3062dc:	28 88       	tst	r8,r8
  3062de:	8d 28       	bt.s	306332 <_kmalloc+0x76>
  3062e0:	29 98       	tst	r9,r9
  3062e2:	89 2a       	bt	30633a <_kmalloc+0x7e>
  3062e4:	54 83       	mov.l	@(12,r8),r4
  3062e6:	4b 0b       	jsr	@r11
  3062e8:	65 93       	mov	r9,r5
  3062ea:	20 08       	tst	r0,r0
  3062ec:	8f 22       	bf.s	306334 <_kmalloc+0x78>
  3062ee:	3d a0       	cmp/eq	r10,r13
  3062f0:	60 82       	mov.l	@r8,r0
  3062f2:	64 c3       	mov	r12,r4
  3062f4:	40 0b       	jsr	@r0
  3062f6:	55 86       	mov.l	@(24,r8),r5
  3062f8:	20 08       	tst	r0,r0
  3062fa:	61 83       	mov	r8,r1
  3062fc:	8d 16       	bt.s	30632c <_kmalloc+0x70>
  3062fe:	71 20       	add	#32,r1
  306300:	52 88       	mov.l	@(32,r8),r2
  306302:	53 11       	mov.l	@(4,r1),r3
  306304:	72 01       	add	#1,r2
  306306:	18 28       	mov.l	r2,@(32,r8)
  306308:	33 23       	cmp/ge	r2,r3
  30630a:	89 00       	bt	30630e <_kmalloc+0x52>
  30630c:	63 23       	mov	r2,r3
  30630e:	52 12       	mov.l	@(8,r1),r2
  306310:	11 31       	mov.l	r3,@(4,r1)
  306312:	32 cc       	add	r12,r2
  306314:	11 22       	mov.l	r2,@(8,r1)
  306316:	52 13       	mov.l	@(12,r1),r2
  306318:	72 01       	add	#1,r2
  30631a:	11 23       	mov.l	r2,@(12,r1)
  30631c:	4f 26       	lds.l	@r15+,pr
  30631e:	6d f6       	mov.l	@r15+,r13
  306320:	6c f6       	mov.l	@r15+,r12
  306322:	6b f6       	mov.l	@r15+,r11
  306324:	6a f6       	mov.l	@r15+,r10
  306326:	69 f6       	mov.l	@r15+,r9
  306328:	00 0b       	rts	
  30632a:	68 f6       	mov.l	@r15+,r8
  30632c:	52 14       	mov.l	@(16,r1),r2
  30632e:	72 01       	add	#1,r2
  306330:	11 24       	mov.l	r2,@(16,r1)
  306332:	3d a0       	cmp/eq	r10,r13
  306334:	8b d1       	bf	3062da <_kmalloc+0x1e>
  306336:	af f1       	bra	30631c <_kmalloc+0x60>
  306338:	e0 00       	mov	#0,r0
  30633a:	51 87       	mov.l	@(28,r8),r1
  30633c:	21 18       	tst	r1,r1
  30633e:	8f d7       	bf.s	3062f0 <_kmalloc+0x34>
  306340:	3d a0       	cmp/eq	r10,r13
  306342:	af f7       	bra	306334 <_kmalloc+0x78>
  306344:	00 09       	nop	
  306346:	00 09       	nop	
  306348:	08 10       	.word 0x0810
  30634a:	16 54       	mov.l	r5,@(16,r6)
  30634c:	00 30       	.word 0x0030
  30634e:	8f 9e       	bf.s	30628e <_kmalloc_get_arena+0x26>

00306350 <_kfree>:
  306350:	2f 86       	mov.l	r8,@-r15
  306352:	24 48       	tst	r4,r4
  306354:	2f 96       	mov.l	r9,@-r15
  306356:	69 43       	mov	r4,r9
  306358:	8d 0d       	bt.s	306376 <_kfree+0x26>
  30635a:	4f 22       	sts.l	pr,@-r15
  30635c:	d0 08       	mov.l	306380 <_kfree+0x30>,r0	! 306228 <_arena_owning>
  30635e:	40 0b       	jsr	@r0
  306360:	00 09       	nop	
  306362:	20 08       	tst	r0,r0
  306364:	8d 07       	bt.s	306376 <_kfree+0x26>
  306366:	68 03       	mov	r0,r8
  306368:	51 02       	mov.l	@(8,r0),r1
  30636a:	64 93       	mov	r9,r4
  30636c:	41 0b       	jsr	@r1
  30636e:	55 06       	mov.l	@(24,r0),r5
  306370:	51 88       	mov.l	@(32,r8),r1
  306372:	71 ff       	add	#-1,r1
  306374:	18 18       	mov.l	r1,@(32,r8)
  306376:	4f 26       	lds.l	@r15+,pr
  306378:	69 f6       	mov.l	@r15+,r9
  30637a:	00 0b       	rts	
  30637c:	68 f6       	mov.l	@r15+,r8
  30637e:	00 09       	nop	
  306380:	00 30       	.word 0x0030
  306382:	62 28       	swap.b	r2,r2

00306384 <_krealloc>:
  306384:	2f 86       	mov.l	r8,@-r15
  306386:	24 48       	tst	r4,r4
  306388:	2f 96       	mov.l	r9,@-r15
  30638a:	69 53       	mov	r5,r9
  30638c:	2f a6       	mov.l	r10,@-r15
  30638e:	6a 43       	mov	r4,r10
  306390:	8f 08       	bf.s	3063a4 <_krealloc+0x20>
  306392:	4f 22       	sts.l	pr,@-r15
  306394:	d0 16       	mov.l	3063f0 <_krealloc+0x6c>,r0	! 3062bc <_kmalloc>
  306396:	e5 00       	mov	#0,r5
  306398:	64 93       	mov	r9,r4
  30639a:	4f 26       	lds.l	@r15+,pr
  30639c:	6a f6       	mov.l	@r15+,r10
  30639e:	69 f6       	mov.l	@r15+,r9
  3063a0:	40 2b       	jmp	@r0
  3063a2:	68 f6       	mov.l	@r15+,r8
  3063a4:	25 58       	tst	r5,r5
  3063a6:	8b 04       	bf	3063b2 <_krealloc+0x2e>
  3063a8:	d1 12       	mov.l	3063f4 <_krealloc+0x70>,r1	! 306350 <_kfree>
  3063aa:	41 0b       	jsr	@r1
  3063ac:	00 09       	nop	
  3063ae:	a0 14       	bra	3063da <_krealloc+0x56>
  3063b0:	e8 00       	mov	#0,r8
  3063b2:	d0 11       	mov.l	3063f8 <_krealloc+0x74>,r0	! 306228 <_arena_owning>
  3063b4:	40 0b       	jsr	@r0
  3063b6:	00 09       	nop	
  3063b8:	20 08       	tst	r0,r0
  3063ba:	8d 0e       	bt.s	3063da <_krealloc+0x56>
  3063bc:	68 03       	mov	r0,r8
  3063be:	50 01       	mov.l	@(4,r0),r0
  3063c0:	65 93       	mov	r9,r5
  3063c2:	56 86       	mov.l	@(24,r8),r6
  3063c4:	40 0b       	jsr	@r0
  3063c6:	64 a3       	mov	r10,r4
  3063c8:	20 08       	tst	r0,r0
  3063ca:	89 0c       	bt	3063e6 <_krealloc+0x62>
  3063cc:	51 8a       	mov.l	@(40,r8),r1
  3063ce:	31 9c       	add	r9,r1
  3063d0:	18 1a       	mov.l	r1,@(40,r8)
  3063d2:	51 8b       	mov.l	@(44,r8),r1
  3063d4:	71 01       	add	#1,r1
  3063d6:	18 1b       	mov.l	r1,@(44,r8)
  3063d8:	68 03       	mov	r0,r8
  3063da:	60 83       	mov	r8,r0
  3063dc:	4f 26       	lds.l	@r15+,pr
  3063de:	6a f6       	mov.l	@r15+,r10
  3063e0:	69 f6       	mov.l	@r15+,r9
  3063e2:	00 0b       	rts	
  3063e4:	68 f6       	mov.l	@r15+,r8
  3063e6:	51 8c       	mov.l	@(48,r8),r1
  3063e8:	71 01       	add	#1,r1
  3063ea:	af e0       	bra	3063ae <_krealloc+0x2a>
  3063ec:	18 1c       	mov.l	r1,@(48,r8)
  3063ee:	00 09       	nop	
  3063f0:	00 30       	.word 0x0030
  3063f2:	62 bc       	extu.b	r11,r2
  3063f4:	00 30       	.word 0x0030
  3063f6:	63 50       	mov.b	@r5,r3
  3063f8:	00 30       	.word 0x0030
  3063fa:	62 28       	swap.b	r2,r2

003063fc <_kmalloc_add_arena>:
  3063fc:	d2 07       	mov.l	30641c <_kmalloc_add_arena+0x20>,r2	! 8101654 <_arenas>
  3063fe:	e0 00       	mov	#0,r0
  306400:	e1 08       	mov	#8,r1
  306402:	63 23       	mov	r2,r3
  306404:	67 26       	mov.l	@r2+,r7
  306406:	27 78       	tst	r7,r7
  306408:	8b 03       	bf	306412 <_kmalloc_add_arena+0x16>
  30640a:	40 08       	shll2	r0
  30640c:	03 46       	mov.l	r4,@(r0,r3)
  30640e:	00 0b       	rts	
  306410:	e0 01       	mov	#1,r0
  306412:	41 10       	dt	r1
  306414:	8f f6       	bf.s	306404 <_kmalloc_add_arena+0x8>
  306416:	70 01       	add	#1,r0
  306418:	00 0b       	rts	
  30641a:	e0 00       	mov	#0,r0
  30641c:	08 10       	.word 0x0810
  30641e:	16 54       	mov.l	r5,@(16,r6)

00306420 <_configure>:
  306420:	d1 02       	mov.l	30642c <_configure+0xc>,r1	! ff000040
  306422:	50 1c       	mov.l	@(48,r1),r0
  306424:	cb 80       	or	#128,r0
  306426:	11 0c       	mov.l	r0,@(48,r1)
  306428:	00 0b       	rts	
  30642a:	00 09       	nop	
  30642c:	ff 00       	.word 0xff00
  30642e:	00 40       	.word 0x0040

00306430 <_hsave>:
  306430:	d1 02       	mov.l	30643c <_hsave+0xc>,r1	! ff000040
  306432:	52 1c       	mov.l	@(48,r1),r2
  306434:	24 22       	mov.l	r2,@r4
  306436:	51 1e       	mov.l	@(56,r1),r1
  306438:	00 0b       	rts	
  30643a:	14 11       	mov.l	r1,@(4,r4)
  30643c:	ff 00       	.word 0xff00
  30643e:	00 40       	.word 0x0040

00306440 <_hrestore>:
  306440:	62 42       	mov.l	@r4,r2
  306442:	d1 03       	mov.l	306450 <_hrestore+0x10>,r1	! ff000040
  306444:	11 2c       	mov.l	r2,@(48,r1)
  306446:	52 41       	mov.l	@(4,r4),r2
  306448:	11 2e       	mov.l	r2,@(56,r1)
  30644a:	00 0b       	rts	
  30644c:	00 09       	nop	
  30644e:	00 09       	nop	
  306450:	ff 00       	.word 0xff00
  306452:	00 40       	.word 0x0040

00306454 <_mmu_is_rom>:
  306454:	d1 06       	mov.l	306470 <_mmu_is_rom+0x1c>,r1	! d8000000
  306456:	d2 07       	mov.l	306474 <_mmu_is_rom+0x20>,r2	! 80000000
  306458:	21 49       	and	r4,r1
  30645a:	31 20       	cmp/eq	r2,r1
  30645c:	8d 06       	bt.s	30646c <_mmu_is_rom+0x18>
  30645e:	e0 01       	mov	#1,r0
  306460:	d1 05       	mov.l	306478 <_mmu_is_rom+0x24>,r1	! ffd00000
  306462:	e0 ff       	mov	#-1,r0
  306464:	34 1c       	add	r1,r4
  306466:	d1 05       	mov.l	30647c <_mmu_is_rom+0x28>,r1	! 4fffff
  306468:	34 16       	cmp/hi	r1,r4
  30646a:	60 0a       	negc	r0,r0
  30646c:	00 0b       	rts	
  30646e:	00 09       	nop	
  306470:	d8 00       	mov.l	306474 <_mmu_is_rom+0x20>,r8	! 80000000
  306472:	00 00       	.word 0x0000
  306474:	80 00       	mov.b	r0,@(0,r0)
  306476:	00 00       	.word 0x0000
  306478:	ff d0       	.word 0xffd0
  30647a:	00 00       	.word 0x0000
  30647c:	00 4f       	mac.l	@r4+,@r0+
  30647e:	ff ff       	.word 0xffff

00306480 <_utlb_addr>:
  306480:	d1 02       	mov.l	30648c <_utlb_addr+0xc>,r1	! f6000000
  306482:	60 43       	mov	r4,r0
  306484:	c9 3f       	and	#63,r0
  306486:	40 18       	shll8	r0
  306488:	00 0b       	rts	
  30648a:	20 1b       	or	r1,r0
  30648c:	f6 00       	movs.w	@-r2,0x0
	...

00306490 <_utlb_data>:
  306490:	d1 02       	mov.l	30649c <_utlb_data+0xc>,r1	! f7000000
  306492:	60 43       	mov	r4,r0
  306494:	c9 3f       	and	#63,r0
  306496:	40 18       	shll8	r0
  306498:	00 0b       	rts	
  30649a:	20 1b       	or	r1,r0
  30649c:	f7 00       	movs.w	@-r3,0x0
	...

003064a0 <_utlb_mapped_memory>:
  3064a0:	2f 86       	mov.l	r8,@-r15
  3064a2:	e3 00       	mov	#0,r3
  3064a4:	2f 96       	mov.l	r9,@-r15
  3064a6:	e2 00       	mov	#0,r2
  3064a8:	2f a6       	mov.l	r10,@-r15
  3064aa:	e7 00       	mov	#0,r7
  3064ac:	2f b6       	mov.l	r11,@-r15
  3064ae:	e6 40       	mov	#64,r6
  3064b0:	2f c6       	mov.l	r12,@-r15
  3064b2:	eb 01       	mov	#1,r11
  3064b4:	2f d6       	mov.l	r13,@-r15
  3064b6:	98 41       	mov.w	30653c <_utlb_mapped_memory+0x9c>,r8	! 100
  3064b8:	da 21       	mov.l	306540 <_utlb_mapped_memory+0xa0>,r10	! 14100c0a
  3064ba:	dc 22       	mov.l	306544 <_utlb_mapped_memory+0xa4>,r12	! 3fffff
  3064bc:	dd 22       	mov.l	306548 <_utlb_mapped_memory+0xa8>,r13	! 7ffff
  3064be:	2f e6       	mov.l	r14,@-r15
  3064c0:	d1 22       	mov.l	30654c <_utlb_mapped_memory+0xac>,r1	! f6000000
  3064c2:	21 3b       	or	r3,r1
  3064c4:	6e 12       	mov.l	@r1,r14
  3064c6:	2e 88       	tst	r8,r14
  3064c8:	89 1e       	bt	306508 <_utlb_mapped_memory+0x68>
  3064ca:	d1 21       	mov.l	306550 <_utlb_mapped_memory+0xb0>,r1	! f7000000
  3064cc:	21 3b       	or	r3,r1
  3064ce:	60 12       	mov.l	@r1,r0
  3064d0:	20 88       	tst	r8,r0
  3064d2:	8d 19       	bt.s	306508 <_utlb_mapped_memory+0x68>
  3064d4:	c8 80       	tst	#128,r0
  3064d6:	e1 ff       	mov	#-1,r1
  3064d8:	61 1a       	negc	r1,r1
  3064da:	c8 10       	tst	#16,r0
  3064dc:	e0 ff       	mov	#-1,r0
  3064de:	60 0a       	negc	r0,r0
  3064e0:	31 1c       	add	r1,r1
  3064e2:	21 0b       	or	r0,r1
  3064e4:	60 a3       	mov	r10,r0
  3064e6:	41 08       	shll2	r1
  3064e8:	31 1c       	add	r1,r1
  3064ea:	61 1b       	neg	r1,r1
  3064ec:	40 1c       	shad	r1,r0
  3064ee:	61 0c       	extu.b	r0,r1
  3064f0:	60 b3       	mov	r11,r0
  3064f2:	40 1d       	shld	r1,r0
  3064f4:	61 e3       	mov	r14,r1
  3064f6:	41 19       	shlr8	r1
  3064f8:	de 16       	mov.l	306554 <_utlb_mapped_memory+0xb4>,r14	! ffd00000
  3064fa:	41 09       	shlr2	r1
  3064fc:	41 18       	shll8	r1
  3064fe:	41 08       	shll2	r1
  306500:	3e 1c       	add	r1,r14
  306502:	3e c6       	cmp/hi	r12,r14
  306504:	89 14       	bt	306530 <_utlb_mapped_memory+0x90>
  306506:	37 0c       	add	r0,r7
  306508:	91 18       	mov.w	30653c <_utlb_mapped_memory+0x9c>,r1	! 100
  30650a:	46 10       	dt	r6
  30650c:	8f d8       	bf.s	3064c0 <_utlb_mapped_memory+0x20>
  30650e:	33 1c       	add	r1,r3
  306510:	24 48       	tst	r4,r4
  306512:	89 00       	bt	306516 <_utlb_mapped_memory+0x76>
  306514:	24 72       	mov.l	r7,@r4
  306516:	25 58       	tst	r5,r5
  306518:	89 00       	bt	30651c <_utlb_mapped_memory+0x7c>
  30651a:	25 22       	mov.l	r2,@r5
  30651c:	d1 0e       	mov.l	306558 <_utlb_mapped_memory+0xb8>,r1	! 8101bc4 <_gint>
  30651e:	11 26       	mov.l	r2,@(24,r1)
  306520:	6e f6       	mov.l	@r15+,r14
  306522:	6d f6       	mov.l	@r15+,r13
  306524:	6c f6       	mov.l	@r15+,r12
  306526:	6b f6       	mov.l	@r15+,r11
  306528:	6a f6       	mov.l	@r15+,r10
  30652a:	69 f6       	mov.l	@r15+,r9
  30652c:	00 0b       	rts	
  30652e:	68 f6       	mov.l	@r15+,r8
  306530:	d9 0a       	mov.l	30655c <_utlb_mapped_memory+0xbc>,r9	! f7f00000
  306532:	31 9c       	add	r9,r1
  306534:	31 d6       	cmp/hi	r13,r1
  306536:	89 e7       	bt	306508 <_utlb_mapped_memory+0x68>
  306538:	af e6       	bra	306508 <_utlb_mapped_memory+0x68>
  30653a:	32 0c       	add	r0,r2
  30653c:	01 00       	.word 0x0100
  30653e:	00 09       	nop	
  306540:	14 10       	mov.l	r1,@(0,r4)
  306542:	0c 0a       	sts	mach,r12
  306544:	00 3f       	mac.l	@r3+,@r0+
  306546:	ff ff       	.word 0xffff
  306548:	00 07       	mul.l	r0,r0
  30654a:	ff ff       	.word 0xffff
  30654c:	f6 00       	movs.w	@-r2,0x0
  30654e:	00 00       	.word 0x0000
  306550:	f7 00       	movs.w	@-r3,0x0
  306552:	00 00       	.word 0x0000
  306554:	ff d0       	.word 0xffd0
  306556:	00 00       	.word 0x0000
  306558:	08 10       	.word 0x0810
  30655a:	1b c4       	mov.l	r12,@(16,r11)
  30655c:	f7 f0       	movs.w	@-r3,a0g
	...

00306560 <_utlb_translate>:
  306560:	2f 86       	mov.l	r8,@-r15
  306562:	e2 00       	mov	#0,r2
  306564:	d6 18       	mov.l	3065c8 <_utlb_translate+0x68>,r6	! f6000000
  306566:	e3 40       	mov	#64,r3
  306568:	97 2d       	mov.w	3065c6 <_utlb_translate+0x66>,r7	! 100
  30656a:	d8 18       	mov.l	3065cc <_utlb_translate+0x6c>,r8	! f7000000
  30656c:	61 23       	mov	r2,r1
  30656e:	21 6b       	or	r6,r1
  306570:	61 12       	mov.l	@r1,r1
  306572:	21 78       	tst	r7,r1
  306574:	8d 21       	bt.s	3065ba <_utlb_translate+0x5a>
  306576:	60 23       	mov	r2,r0
  306578:	20 8b       	or	r8,r0
  30657a:	60 02       	mov.l	@r0,r0
  30657c:	20 78       	tst	r7,r0
  30657e:	8d 1c       	bt.s	3065ba <_utlb_translate+0x5a>
  306580:	41 19       	shlr8	r1
  306582:	41 09       	shlr2	r1
  306584:	41 18       	shll8	r1
  306586:	41 08       	shll2	r1
  306588:	31 40       	cmp/eq	r4,r1
  30658a:	8f 16       	bf.s	3065ba <_utlb_translate+0x5a>
  30658c:	25 58       	tst	r5,r5
  30658e:	8d 10       	bt.s	3065b2 <_utlb_translate+0x52>
  306590:	c8 80       	tst	#128,r0
  306592:	e1 ff       	mov	#-1,r1
  306594:	61 1a       	negc	r1,r1
  306596:	c8 10       	tst	#16,r0
  306598:	e2 ff       	mov	#-1,r2
  30659a:	62 2a       	negc	r2,r2
  30659c:	31 1c       	add	r1,r1
  30659e:	21 2b       	or	r2,r1
  3065a0:	d2 0b       	mov.l	3065d0 <_utlb_translate+0x70>,r2	! 14100c0a
  3065a2:	41 08       	shll2	r1
  3065a4:	31 1c       	add	r1,r1
  3065a6:	61 1b       	neg	r1,r1
  3065a8:	42 1c       	shad	r1,r2
  3065aa:	61 2c       	extu.b	r2,r1
  3065ac:	e2 01       	mov	#1,r2
  3065ae:	42 1d       	shld	r1,r2
  3065b0:	25 22       	mov.l	r2,@r5
  3065b2:	d1 08       	mov.l	3065d4 <_utlb_translate+0x74>,r1	! 1ffffc00
  3065b4:	20 19       	and	r1,r0
  3065b6:	00 0b       	rts	
  3065b8:	68 f6       	mov.l	@r15+,r8
  3065ba:	91 04       	mov.w	3065c6 <_utlb_translate+0x66>,r1	! 100
  3065bc:	43 10       	dt	r3
  3065be:	8f d5       	bf.s	30656c <_utlb_translate+0xc>
  3065c0:	32 1c       	add	r1,r2
  3065c2:	af f8       	bra	3065b6 <_utlb_translate+0x56>
  3065c4:	e0 ff       	mov	#-1,r0
  3065c6:	01 00       	.word 0x0100
  3065c8:	f6 00       	movs.w	@-r2,0x0
  3065ca:	00 00       	.word 0x0000
  3065cc:	f7 00       	movs.w	@-r3,0x0
  3065ce:	00 00       	.word 0x0000
  3065d0:	14 10       	mov.l	r1,@(0,r4)
  3065d2:	0c 0a       	sts	mach,r12
  3065d4:	1f ff       	mov.l	r15,@(60,r15)
  3065d6:	fc 00       	.word 0xfc00

003065d8 <_mmu_translate>:
  3065d8:	d0 01       	mov.l	3065e0 <_mmu_translate+0x8>,r0	! 306560 <_utlb_translate>
  3065da:	40 2b       	jmp	@r0
  3065dc:	00 09       	nop	
  3065de:	00 09       	nop	
  3065e0:	00 30       	.word 0x0030
  3065e2:	65 60       	mov.b	@r6,r5

003065e4 <_mmu_uram>:
  3065e4:	d0 04       	mov.l	3065f8 <_mmu_uram+0x14>,r0	! 306560 <_utlb_translate>
  3065e6:	4f 22       	sts.l	pr,@-r15
  3065e8:	d4 04       	mov.l	3065fc <_mmu_uram+0x18>,r4	! 8100000
  3065ea:	40 0b       	jsr	@r0
  3065ec:	e5 00       	mov	#0,r5
  3065ee:	d1 04       	mov.l	306600 <_mmu_uram+0x1c>,r1	! 80000000
  3065f0:	20 1b       	or	r1,r0
  3065f2:	4f 26       	lds.l	@r15+,pr
  3065f4:	00 0b       	rts	
  3065f6:	00 09       	nop	
  3065f8:	00 30       	.word 0x0030
  3065fa:	65 60       	mov.b	@r6,r5
  3065fc:	08 10       	.word 0x0810
  3065fe:	00 00       	.word 0x0000
  306600:	80 00       	mov.b	r0,@(0,r0)
	...

00306604 <_mmu_uram_size>:
  306604:	2f 86       	mov.l	r8,@-r15
  306606:	e8 00       	mov	#0,r8
  306608:	2f 96       	mov.l	r9,@-r15
  30660a:	4f 22       	sts.l	pr,@-r15
  30660c:	d9 08       	mov.l	306630 <_mmu_uram_size+0x2c>,r9	! 306560 <_utlb_translate>
  30660e:	7f fc       	add	#-4,r15
  306610:	d4 08       	mov.l	306634 <_mmu_uram_size+0x30>,r4	! 8100000
  306612:	65 f3       	mov	r15,r5
  306614:	49 0b       	jsr	@r9
  306616:	34 8c       	add	r8,r4
  306618:	88 ff       	cmp/eq	#-1,r0
  30661a:	8f 06       	bf.s	30662a <_mmu_uram_size+0x26>
  30661c:	61 f2       	mov.l	@r15,r1
  30661e:	60 83       	mov	r8,r0
  306620:	7f 04       	add	#4,r15
  306622:	4f 26       	lds.l	@r15+,pr
  306624:	69 f6       	mov.l	@r15+,r9
  306626:	00 0b       	rts	
  306628:	68 f6       	mov.l	@r15+,r8
  30662a:	af f1       	bra	306610 <_mmu_uram_size+0xc>
  30662c:	38 1c       	add	r1,r8
  30662e:	00 09       	nop	
  306630:	00 30       	.word 0x0030
  306632:	65 60       	mov.b	@r6,r5
  306634:	08 10       	.word 0x0810
	...

00306638 <_dupdate_set_hook>:
  306638:	7f f0       	add	#-16,r15
  30663a:	d0 07       	mov.l	306658 <_dupdate_set_hook+0x20>,r0	! 309100 <_memcpy>
  30663c:	4f 22       	sts.l	pr,@-r15
  30663e:	1f 41       	mov.l	r4,@(4,r15)
  306640:	1f 52       	mov.l	r5,@(8,r15)
  306642:	65 f3       	mov	r15,r5
  306644:	1f 63       	mov.l	r6,@(12,r15)
  306646:	75 04       	add	#4,r5
  306648:	d4 04       	mov.l	30665c <_dupdate_set_hook+0x24>,r4	! 8101674 <_hook>
  30664a:	e6 14       	mov	#20,r6
  30664c:	40 0b       	jsr	@r0
  30664e:	1f 74       	mov.l	r7,@(16,r15)
  306650:	4f 26       	lds.l	@r15+,pr
  306652:	00 0b       	rts	
  306654:	7f 10       	add	#16,r15
  306656:	00 09       	nop	
  306658:	00 30       	.word 0x0030
  30665a:	91 00       	mov.w	30665e <_dupdate_set_hook+0x26>,r1	! 1674
  30665c:	08 10       	.word 0x0810
  30665e:	16 74       	mov.l	r7,@(16,r6)

00306660 <_dupdate_get_hook>:
  306660:	d0 04       	mov.l	306674 <_dupdate_get_hook+0x14>,r0	! 309100 <_memcpy>
  306662:	e6 14       	mov	#20,r6
  306664:	4f 22       	sts.l	pr,@-r15
  306666:	d5 04       	mov.l	306678 <_dupdate_get_hook+0x18>,r5	! 8101674 <_hook>
  306668:	40 0b       	jsr	@r0
  30666a:	64 23       	mov	r2,r4
  30666c:	4f 26       	lds.l	@r15+,pr
  30666e:	00 0b       	rts	
  306670:	00 09       	nop	
  306672:	00 09       	nop	
  306674:	00 30       	.word 0x0030
  306676:	91 00       	mov.w	30667a <_dupdate_get_hook+0x1a>,r1	! 1674
  306678:	08 10       	.word 0x0810
  30667a:	16 74       	mov.l	r7,@(16,r6)

0030667c <_r61524_get>:
  30667c:	d1 07       	mov.l	30669c <_r61524_get+0x20>,r1	! a405013c
  30667e:	64 4d       	extu.w	r4,r4
  306680:	60 10       	mov.b	@r1,r0
  306682:	c9 ef       	and	#239,r0
  306684:	21 00       	mov.b	r0,@r1
  306686:	00 ab       	synco	
  306688:	d2 05       	mov.l	3066a0 <_r61524_get+0x24>,r2	! b4000000
  30668a:	22 41       	mov.w	r4,@r2
  30668c:	00 ab       	synco	
  30668e:	60 10       	mov.b	@r1,r0
  306690:	cb 10       	or	#16,r0
  306692:	21 00       	mov.b	r0,@r1
  306694:	00 ab       	synco	
  306696:	60 21       	mov.w	@r2,r0
  306698:	00 0b       	rts	
  30669a:	60 0d       	extu.w	r0,r0
  30669c:	a4 05       	bra	306eaa <_unbind+0x1a>
  30669e:	01 3c       	mov.b	@(r0,r3),r1
  3066a0:	b4 00       	bsr	306ea4 <_unbind+0x14>
	...

003066a4 <_r61524_set>:
  3066a4:	d1 08       	mov.l	3066c8 <_r61524_set+0x24>,r1	! a405013c
  3066a6:	65 5d       	extu.w	r5,r5
  3066a8:	64 4d       	extu.w	r4,r4
  3066aa:	60 10       	mov.b	@r1,r0
  3066ac:	c9 ef       	and	#239,r0
  3066ae:	21 00       	mov.b	r0,@r1
  3066b0:	00 ab       	synco	
  3066b2:	d2 06       	mov.l	3066cc <_r61524_set+0x28>,r2	! b4000000
  3066b4:	22 41       	mov.w	r4,@r2
  3066b6:	00 ab       	synco	
  3066b8:	60 10       	mov.b	@r1,r0
  3066ba:	cb 10       	or	#16,r0
  3066bc:	21 00       	mov.b	r0,@r1
  3066be:	00 ab       	synco	
  3066c0:	22 51       	mov.w	r5,@r2
  3066c2:	00 0b       	rts	
  3066c4:	00 09       	nop	
  3066c6:	00 09       	nop	
  3066c8:	a4 05       	bra	306ed6 <_funbind+0x1e>
  3066ca:	01 3c       	mov.b	@(r0,r3),r1
  3066cc:	b4 00       	bsr	306ed0 <_funbind+0x18>
	...

003066d0 <_r61524_win_get>:
  3066d0:	d1 1d       	mov.l	306748 <_r61524_win_get+0x78>,r1	! a405013c
  3066d2:	e3 ef       	mov	#-17,r3
  3066d4:	60 10       	mov.b	@r1,r0
  3066d6:	c9 ef       	and	#239,r0
  3066d8:	21 00       	mov.b	r0,@r1
  3066da:	00 ab       	synco	
  3066dc:	d2 1b       	mov.l	30674c <_r61524_win_get+0x7c>,r2	! b4000000
  3066de:	90 2f       	mov.w	306740 <_r61524_win_get+0x70>,r0	! 210
  3066e0:	22 01       	mov.w	r0,@r2
  3066e2:	00 ab       	synco	
  3066e4:	60 10       	mov.b	@r1,r0
  3066e6:	cb 10       	or	#16,r0
  3066e8:	21 00       	mov.b	r0,@r1
  3066ea:	00 ab       	synco	
  3066ec:	60 21       	mov.w	@r2,r0
  3066ee:	24 01       	mov.w	r0,@r4
  3066f0:	64 10       	mov.b	@r1,r4
  3066f2:	24 39       	and	r3,r4
  3066f4:	21 40       	mov.b	r4,@r1
  3066f6:	00 ab       	synco	
  3066f8:	94 23       	mov.w	306742 <_r61524_win_get+0x72>,r4	! 211
  3066fa:	22 41       	mov.w	r4,@r2
  3066fc:	00 ab       	synco	
  3066fe:	60 10       	mov.b	@r1,r0
  306700:	cb 10       	or	#16,r0
  306702:	21 00       	mov.b	r0,@r1
  306704:	00 ab       	synco	
  306706:	64 21       	mov.w	@r2,r4
  306708:	25 41       	mov.w	r4,@r5
  30670a:	65 10       	mov.b	@r1,r5
  30670c:	25 39       	and	r3,r5
  30670e:	21 50       	mov.b	r5,@r1
  306710:	00 ab       	synco	
  306712:	95 17       	mov.w	306744 <_r61524_win_get+0x74>,r5	! 212
  306714:	22 51       	mov.w	r5,@r2
  306716:	00 ab       	synco	
  306718:	60 10       	mov.b	@r1,r0
  30671a:	cb 10       	or	#16,r0
  30671c:	21 00       	mov.b	r0,@r1
  30671e:	00 ab       	synco	
  306720:	65 21       	mov.w	@r2,r5
  306722:	26 51       	mov.w	r5,@r6
  306724:	66 10       	mov.b	@r1,r6
  306726:	23 69       	and	r6,r3
  306728:	21 30       	mov.b	r3,@r1
  30672a:	00 ab       	synco	
  30672c:	93 0b       	mov.w	306746 <_r61524_win_get+0x76>,r3	! 213
  30672e:	22 31       	mov.w	r3,@r2
  306730:	00 ab       	synco	
  306732:	60 10       	mov.b	@r1,r0
  306734:	cb 10       	or	#16,r0
  306736:	21 00       	mov.b	r0,@r1
  306738:	00 ab       	synco	
  30673a:	61 21       	mov.w	@r2,r1
  30673c:	00 0b       	rts	
  30673e:	27 11       	mov.w	r1,@r7
  306740:	02 10       	.word 0x0210
  306742:	02 11       	.word 0x0211
  306744:	02 12       	stc	gbr,r2
  306746:	02 13       	.word 0x0213
  306748:	a4 05       	bra	306f56 <_configure+0x76>
  30674a:	01 3c       	mov.b	@(r0,r3),r1
  30674c:	b4 00       	bsr	306f50 <_configure+0x70>
	...

00306750 <_hsave>:
  306750:	d1 03       	mov.l	306760 <_hsave+0x10>,r1	! 3066d0 <_r61524_win_get>
  306752:	67 43       	mov	r4,r7
  306754:	66 43       	mov	r4,r6
  306756:	65 43       	mov	r4,r5
  306758:	77 06       	add	#6,r7
  30675a:	76 04       	add	#4,r6
  30675c:	41 2b       	jmp	@r1
  30675e:	75 02       	add	#2,r5
  306760:	00 30       	.word 0x0030
  306762:	66 d0       	mov.b	@r13,r6

00306764 <_r61524_win_set>:
  306764:	d1 1e       	mov.l	3067e0 <_r61524_win_set+0x7c>,r1	! a405013c
  306766:	64 4d       	extu.w	r4,r4
  306768:	65 5d       	extu.w	r5,r5
  30676a:	60 10       	mov.b	@r1,r0
  30676c:	66 6d       	extu.w	r6,r6
  30676e:	67 7d       	extu.w	r7,r7
  306770:	c9 ef       	and	#239,r0
  306772:	e3 ef       	mov	#-17,r3
  306774:	21 00       	mov.b	r0,@r1
  306776:	00 ab       	synco	
  306778:	d2 1a       	mov.l	3067e4 <_r61524_win_set+0x80>,r2	! b4000000
  30677a:	90 2c       	mov.w	3067d6 <_r61524_win_set+0x72>,r0	! 210
  30677c:	22 01       	mov.w	r0,@r2
  30677e:	00 ab       	synco	
  306780:	60 10       	mov.b	@r1,r0
  306782:	cb 10       	or	#16,r0
  306784:	21 00       	mov.b	r0,@r1
  306786:	00 ab       	synco	
  306788:	22 41       	mov.w	r4,@r2
  30678a:	64 10       	mov.b	@r1,r4
  30678c:	24 39       	and	r3,r4
  30678e:	21 40       	mov.b	r4,@r1
  306790:	00 ab       	synco	
  306792:	94 21       	mov.w	3067d8 <_r61524_win_set+0x74>,r4	! 211
  306794:	22 41       	mov.w	r4,@r2
  306796:	00 ab       	synco	
  306798:	60 10       	mov.b	@r1,r0
  30679a:	cb 10       	or	#16,r0
  30679c:	21 00       	mov.b	r0,@r1
  30679e:	00 ab       	synco	
  3067a0:	22 51       	mov.w	r5,@r2
  3067a2:	65 10       	mov.b	@r1,r5
  3067a4:	25 39       	and	r3,r5
  3067a6:	21 50       	mov.b	r5,@r1
  3067a8:	00 ab       	synco	
  3067aa:	95 16       	mov.w	3067da <_r61524_win_set+0x76>,r5	! 212
  3067ac:	22 51       	mov.w	r5,@r2
  3067ae:	00 ab       	synco	
  3067b0:	60 10       	mov.b	@r1,r0
  3067b2:	cb 10       	or	#16,r0
  3067b4:	21 00       	mov.b	r0,@r1
  3067b6:	00 ab       	synco	
  3067b8:	22 61       	mov.w	r6,@r2
  3067ba:	66 10       	mov.b	@r1,r6
  3067bc:	23 69       	and	r6,r3
  3067be:	21 30       	mov.b	r3,@r1
  3067c0:	00 ab       	synco	
  3067c2:	93 0b       	mov.w	3067dc <_r61524_win_set+0x78>,r3	! 213
  3067c4:	22 31       	mov.w	r3,@r2
  3067c6:	00 ab       	synco	
  3067c8:	60 10       	mov.b	@r1,r0
  3067ca:	cb 10       	or	#16,r0
  3067cc:	21 00       	mov.b	r0,@r1
  3067ce:	00 ab       	synco	
  3067d0:	22 71       	mov.w	r7,@r2
  3067d2:	00 0b       	rts	
  3067d4:	00 09       	nop	
  3067d6:	02 10       	.word 0x0210
  3067d8:	02 11       	.word 0x0211
  3067da:	02 12       	stc	gbr,r2
  3067dc:	02 13       	.word 0x0213
  3067de:	00 09       	nop	
  3067e0:	a4 05       	bra	306fee <_dma_interrupt_transfer_ended+0x22>
  3067e2:	01 3c       	mov.b	@(r0,r3),r1
  3067e4:	b4 00       	bsr	306fe8 <_dma_interrupt_transfer_ended+0x1c>
	...

003067e8 <_hrestore>:
  3067e8:	85 43       	mov.w	@(6,r4),r0
  3067ea:	d1 05       	mov.l	306800 <_hrestore+0x18>,r1	! 306764 <_r61524_win_set>
  3067ec:	67 03       	mov	r0,r7
  3067ee:	85 42       	mov.w	@(4,r4),r0
  3067f0:	67 7d       	extu.w	r7,r7
  3067f2:	66 03       	mov	r0,r6
  3067f4:	85 41       	mov.w	@(2,r4),r0
  3067f6:	64 41       	mov.w	@r4,r4
  3067f8:	66 6d       	extu.w	r6,r6
  3067fa:	65 0d       	extu.w	r0,r5
  3067fc:	41 2b       	jmp	@r1
  3067fe:	64 4d       	extu.w	r4,r4
  306800:	00 30       	.word 0x0030
  306802:	67 64       	mov.b	@r6+,r7

00306804 <_r61524_start_frame>:
  306804:	91 33       	mov.w	30686e <_r61524_start_frame+0x6a>,r1	! 18b
  306806:	67 7d       	extu.w	r7,r7
  306808:	4f 22       	sts.l	pr,@-r15
  30680a:	62 13       	mov	r1,r2
  30680c:	31 58       	sub	r5,r1
  30680e:	32 48       	sub	r4,r2
  306810:	64 1d       	extu.w	r1,r4
  306812:	d1 19       	mov.l	306878 <_r61524_start_frame+0x74>,r1	! 306764 <_r61524_win_set>
  306814:	66 6d       	extu.w	r6,r6
  306816:	41 0b       	jsr	@r1
  306818:	65 2d       	extu.w	r2,r5
  30681a:	d1 18       	mov.l	30687c <_r61524_start_frame+0x78>,r1	! a405013c
  30681c:	e3 ef       	mov	#-17,r3
  30681e:	60 10       	mov.b	@r1,r0
  306820:	c9 ef       	and	#239,r0
  306822:	21 00       	mov.b	r0,@r1
  306824:	00 ab       	synco	
  306826:	d2 16       	mov.l	306880 <_r61524_start_frame+0x7c>,r2	! b4000000
  306828:	97 22       	mov.w	306870 <_r61524_start_frame+0x6c>,r7	! 200
  30682a:	22 71       	mov.w	r7,@r2
  30682c:	00 ab       	synco	
  30682e:	60 10       	mov.b	@r1,r0
  306830:	cb 10       	or	#16,r0
  306832:	21 00       	mov.b	r0,@r1
  306834:	00 ab       	synco	
  306836:	e6 00       	mov	#0,r6
  306838:	22 61       	mov.w	r6,@r2
  30683a:	67 10       	mov.b	@r1,r7
  30683c:	27 39       	and	r3,r7
  30683e:	21 70       	mov.b	r7,@r1
  306840:	00 ab       	synco	
  306842:	97 16       	mov.w	306872 <_r61524_start_frame+0x6e>,r7	! 201
  306844:	22 71       	mov.w	r7,@r2
  306846:	00 ab       	synco	
  306848:	60 10       	mov.b	@r1,r0
  30684a:	cb 10       	or	#16,r0
  30684c:	21 00       	mov.b	r0,@r1
  30684e:	00 ab       	synco	
  306850:	22 61       	mov.w	r6,@r2
  306852:	67 10       	mov.b	@r1,r7
  306854:	23 79       	and	r7,r3
  306856:	21 30       	mov.b	r3,@r1
  306858:	00 ab       	synco	
  30685a:	93 0b       	mov.w	306874 <_r61524_start_frame+0x70>,r3	! 202
  30685c:	22 31       	mov.w	r3,@r2
  30685e:	00 ab       	synco	
  306860:	60 10       	mov.b	@r1,r0
  306862:	cb 10       	or	#16,r0
  306864:	21 00       	mov.b	r0,@r1
  306866:	00 ab       	synco	
  306868:	4f 26       	lds.l	@r15+,pr
  30686a:	00 0b       	rts	
  30686c:	00 09       	nop	
  30686e:	01 8b       	.word 0x018b
  306870:	02 00       	.word 0x0200
  306872:	02 01       	.word 0x0201
  306874:	02 02       	stc	sr,r2
  306876:	00 09       	nop	
  306878:	00 30       	.word 0x0030
  30687a:	67 64       	mov.b	@r6+,r7
  30687c:	a4 05       	bra	30708a <_dma_transfer_async+0x1e>
  30687e:	01 3c       	mov.b	@(r0,r3),r1
  306880:	b4 00       	bsr	307084 <_dma_transfer_async+0x18>
	...

00306884 <_r61524_display>:
  306884:	2f 86       	mov.l	r8,@-r15
  306886:	68 63       	mov	r6,r8
  306888:	2f 96       	mov.l	r9,@-r15
  30688a:	69 53       	mov	r5,r9
  30688c:	2f a6       	mov.l	r10,@-r15
  30688e:	6a 43       	mov	r4,r10
  306890:	2f b6       	mov.l	r11,@-r15
  306892:	e4 00       	mov	#0,r4
  306894:	d1 2f       	mov.l	306954 <_r61524_display+0xd0>,r1	! 3070e4 <_dma_transfer_wait>
  306896:	6b 73       	mov	r7,r11
  306898:	4f 22       	sts.l	pr,@-r15
  30689a:	41 0b       	jsr	@r1
  30689c:	7f cc       	add	#-52,r15
  30689e:	d1 2e       	mov.l	306958 <_r61524_display+0xd4>,r1	! 306804 <_r61524_start_frame>
  3068a0:	67 93       	mov	r9,r7
  3068a2:	37 8c       	add	r8,r7
  3068a4:	95 52       	mov.w	30694c <_r61524_display+0xc8>,r5	! 18b
  3068a6:	77 ff       	add	#-1,r7
  3068a8:	66 93       	mov	r9,r6
  3068aa:	41 0b       	jsr	@r1
  3068ac:	e4 00       	mov	#0,r4
  3068ae:	60 b3       	mov	r11,r0
  3068b0:	88 02       	cmp/eq	#2,r0
  3068b2:	91 4c       	mov.w	30694e <_r61524_display+0xca>,r1	! 318
  3068b4:	8f 19       	bf.s	3068ea <_r61524_display+0x66>
  3068b6:	09 17       	mul.l	r1,r9
  3068b8:	92 4a       	mov.w	306950 <_r61524_display+0xcc>,r2	! 18c
  3068ba:	d7 28       	mov.l	30695c <_r61524_display+0xd8>,r7	! b4000000
  3068bc:	08 27       	mul.l	r2,r8
  3068be:	03 1a       	sts	macl,r3
  3068c0:	09 17       	mul.l	r1,r9
  3068c2:	43 11       	cmp/pz	r3
  3068c4:	61 33       	mov	r3,r1
  3068c6:	71 01       	add	#1,r1
  3068c8:	02 1a       	sts	macl,r2
  3068ca:	32 ac       	add	r10,r2
  3068cc:	89 00       	bt	3068d0 <_r61524_display+0x4c>
  3068ce:	e1 01       	mov	#1,r1
  3068d0:	41 10       	dt	r1
  3068d2:	8b 06       	bf	3068e2 <_r61524_display+0x5e>
  3068d4:	7f 34       	add	#52,r15
  3068d6:	4f 26       	lds.l	@r15+,pr
  3068d8:	6b f6       	mov.l	@r15+,r11
  3068da:	6a f6       	mov.l	@r15+,r10
  3068dc:	69 f6       	mov.l	@r15+,r9
  3068de:	00 0b       	rts	
  3068e0:	68 f6       	mov.l	@r15+,r8
  3068e2:	63 25       	mov.w	@r2+,r3
  3068e4:	27 31       	mov.w	r3,@r7
  3068e6:	af f4       	bra	3068d2 <_r61524_display+0x4e>
  3068e8:	41 10       	dt	r1
  3068ea:	48 21       	shar	r8
  3068ec:	48 21       	shar	r8
  3068ee:	01 1a       	sts	macl,r1
  3068f0:	2b b8       	tst	r11,r11
  3068f2:	3a 1c       	add	r1,r10
  3068f4:	e1 63       	mov	#99,r1
  3068f6:	08 17       	mul.l	r1,r8
  3068f8:	8f 1a       	bf.s	306930 <_r61524_display+0xac>
  3068fa:	08 1a       	sts	macl,r8
  3068fc:	d0 18       	mov.l	306960 <_r61524_display+0xdc>,r0	! 3091c0 <_memset>
  3068fe:	e6 14       	mov	#20,r6
  306900:	e5 00       	mov	#0,r5
  306902:	64 f3       	mov	r15,r4
  306904:	40 0b       	jsr	@r0
  306906:	74 20       	add	#32,r4
  306908:	d0 16       	mov.l	306964 <_r61524_display+0xe0>,r0	! 309100 <_memcpy>
  30690a:	e6 14       	mov	#20,r6
  30690c:	65 f3       	mov	r15,r5
  30690e:	64 f3       	mov	r15,r4
  306910:	75 20       	add	#32,r5
  306912:	40 0b       	jsr	@r0
  306914:	74 0c       	add	#12,r4
  306916:	d1 11       	mov.l	30695c <_r61524_display+0xd8>,r1	! b4000000
  306918:	e5 04       	mov	#4,r5
  30691a:	d0 13       	mov.l	306968 <_r61524_display+0xe4>,r0	! 30706c <_dma_transfer_async>
  30691c:	e4 00       	mov	#0,r4
  30691e:	1f 11       	mov.l	r1,@(4,r15)
  306920:	e1 01       	mov	#1,r1
  306922:	1f b2       	mov.l	r11,@(8,r15)
  306924:	67 a3       	mov	r10,r7
  306926:	2f 12       	mov.l	r1,@r15
  306928:	40 0b       	jsr	@r0
  30692a:	66 83       	mov	r8,r6
  30692c:	af d2       	bra	3068d4 <_r61524_display+0x50>
  30692e:	00 09       	nop	
  306930:	e1 00       	mov	#0,r1
  306932:	67 a3       	mov	r10,r7
  306934:	1f 12       	mov.l	r1,@(8,r15)
  306936:	e5 04       	mov	#4,r5
  306938:	d1 08       	mov.l	30695c <_r61524_display+0xd8>,r1	! b4000000
  30693a:	e4 00       	mov	#0,r4
  30693c:	1f 11       	mov.l	r1,@(4,r15)
  30693e:	e1 01       	mov	#1,r1
  306940:	2f 12       	mov.l	r1,@r15
  306942:	d1 0a       	mov.l	30696c <_r61524_display+0xe8>,r1	! 307168 <_dma_transfer_atomic>
  306944:	41 0b       	jsr	@r1
  306946:	06 1a       	sts	macl,r6
  306948:	af c4       	bra	3068d4 <_r61524_display+0x50>
  30694a:	00 09       	nop	
  30694c:	01 8b       	.word 0x018b
  30694e:	03 18       	.word 0x0318
  306950:	01 8c       	mov.b	@(r0,r8),r1
  306952:	00 09       	nop	
  306954:	00 30       	.word 0x0030
  306956:	70 e4       	add	#-28,r0
  306958:	00 30       	.word 0x0030
  30695a:	68 04       	mov.b	@r0+,r8
  30695c:	b4 00       	bsr	307160 <_dma_transfer_sync+0x70>
  30695e:	00 00       	.word 0x0000
  306960:	00 30       	.word 0x0030
  306962:	91 c0       	mov.w	306ae6 <_configure+0x16>,r1	! e408
  306964:	00 30       	.word 0x0030
  306966:	91 00       	mov.w	30696a <_r61524_display+0xe6>,r1	! 706c
  306968:	00 30       	.word 0x0030
  30696a:	70 6c       	add	#108,r0
  30696c:	00 30       	.word 0x0030
  30696e:	71 68       	add	#104,r1

00306970 <_r61524_display_rect>:
  306970:	2f 86       	mov.l	r8,@-r15
  306972:	68 43       	mov	r4,r8
  306974:	2f 96       	mov.l	r9,@-r15
  306976:	e4 00       	mov	#0,r4
  306978:	2f a6       	mov.l	r10,@-r15
  30697a:	69 63       	mov	r6,r9
  30697c:	2f b6       	mov.l	r11,@-r15
  30697e:	6b 53       	mov	r5,r11
  306980:	2f c6       	mov.l	r12,@-r15
  306982:	6c 73       	mov	r7,r12
  306984:	d1 1a       	mov.l	3069f0 <_r61524_display_rect+0x80>,r1	! 3070e4 <_dma_transfer_wait>
  306986:	4f 22       	sts.l	pr,@-r15
  306988:	41 0b       	jsr	@r1
  30698a:	5a f6       	mov.l	@(24,r15),r10
  30698c:	d1 19       	mov.l	3069f4 <_r61524_display_rect+0x84>,r1	! 306804 <_r61524_start_frame>
  30698e:	67 a3       	mov	r10,r7
  306990:	65 93       	mov	r9,r5
  306992:	64 b3       	mov	r11,r4
  306994:	66 c3       	mov	r12,r6
  306996:	41 0b       	jsr	@r1
  306998:	39 b8       	sub	r11,r9
  30699a:	91 27       	mov.w	3069ec <_r61524_display_rect+0x7c>,r1	! 18c
  30699c:	64 83       	mov	r8,r4
  30699e:	d7 16       	mov.l	3069f8 <_r61524_display_rect+0x88>,r7	! b4000000
  3069a0:	0c 17       	mul.l	r1,r12
  3069a2:	01 1a       	sts	macl,r1
  3069a4:	31 bc       	add	r11,r1
  3069a6:	31 1c       	add	r1,r1
  3069a8:	34 1c       	add	r1,r4
  3069aa:	61 a3       	mov	r10,r1
  3069ac:	31 c8       	sub	r12,r1
  3069ae:	62 13       	mov	r1,r2
  3069b0:	71 01       	add	#1,r1
  3069b2:	41 11       	cmp/pz	r1
  3069b4:	72 02       	add	#2,r2
  3069b6:	89 00       	bt	3069ba <_r61524_display_rect+0x4a>
  3069b8:	e2 01       	mov	#1,r2
  3069ba:	42 10       	dt	r2
  3069bc:	8d 0f       	bt.s	3069de <_r61524_display_rect+0x6e>
  3069be:	66 93       	mov	r9,r6
  3069c0:	76 01       	add	#1,r6
  3069c2:	46 11       	cmp/pz	r6
  3069c4:	61 93       	mov	r9,r1
  3069c6:	63 43       	mov	r4,r3
  3069c8:	8d 04       	bt.s	3069d4 <_r61524_display_rect+0x64>
  3069ca:	71 02       	add	#2,r1
  3069cc:	a0 02       	bra	3069d4 <_r61524_display_rect+0x64>
  3069ce:	e1 01       	mov	#1,r1
  3069d0:	66 35       	mov.w	@r3+,r6
  3069d2:	27 61       	mov.w	r6,@r7
  3069d4:	41 10       	dt	r1
  3069d6:	8b fb       	bf	3069d0 <_r61524_display_rect+0x60>
  3069d8:	96 09       	mov.w	3069ee <_r61524_display_rect+0x7e>,r6	! 318
  3069da:	af ee       	bra	3069ba <_r61524_display_rect+0x4a>
  3069dc:	34 6c       	add	r6,r4
  3069de:	4f 26       	lds.l	@r15+,pr
  3069e0:	6c f6       	mov.l	@r15+,r12
  3069e2:	6b f6       	mov.l	@r15+,r11
  3069e4:	6a f6       	mov.l	@r15+,r10
  3069e6:	69 f6       	mov.l	@r15+,r9
  3069e8:	00 0b       	rts	
  3069ea:	68 f6       	mov.l	@r15+,r8
  3069ec:	01 8c       	mov.b	@(r0,r8),r1
  3069ee:	03 18       	.word 0x0318
  3069f0:	00 30       	.word 0x0030
  3069f2:	70 e4       	add	#-28,r0
  3069f4:	00 30       	.word 0x0030
  3069f6:	68 04       	mov.b	@r0+,r8
  3069f8:	b4 00       	bsr	3071fc <_dma_transfer+0x2c>
  3069fa:	00 00       	.word 0x0000
  3069fc:	00 00       	.word 0x0000
	...

00306a00 <_topti_glyph_fg_bg>:
  306a00:	2f 86       	mov.l	r8,@-r15
  306a02:	d8 2f       	mov.l	306ac0 <.bg_next+0x24>,r8	! 318
  306a04:	53 f1       	mov.l	@(4,r15),r3
  306a06:	43 00       	shll	r3
  306a08:	38 38       	sub	r3,r8
  306a0a:	53 f3       	mov.l	@(12,r15),r3

00306a0c <.fg_bg_y>:
  306a0c:	52 f1       	mov.l	@(4,r15),r2

00306a0e <.fg_bg_x>:
  306a0e:	60 33       	mov	r3,r0
  306a10:	e1 fb       	mov	#-5,r1
  306a12:	40 1d       	shld	r1,r0
  306a14:	40 08       	shll2	r0
  306a16:	01 5e       	mov.l	@(r0,r5),r1
  306a18:	60 33       	mov	r3,r0
  306a1a:	c9 1f       	and	#31,r0
  306a1c:	41 0d       	shld	r0,r1
  306a1e:	41 00       	shll	r1
  306a20:	8f 01       	bf.s	306a26 <.fg_bg_zero>
  306a22:	61 63       	mov	r6,r1
  306a24:	61 69       	swap.w	r6,r1

00306a26 <.fg_bg_zero>:
  306a26:	24 11       	mov.w	r1,@r4
  306a28:	74 02       	add	#2,r4
  306a2a:	42 10       	dt	r2
  306a2c:	8f ef       	bf.s	306a0e <.fg_bg_x>
  306a2e:	73 01       	add	#1,r3
  306a30:	47 10       	dt	r7
  306a32:	50 f2       	mov.l	@(8,r15),r0
  306a34:	33 0c       	add	r0,r3
  306a36:	8f e9       	bf.s	306a0c <.fg_bg_y>
  306a38:	34 8c       	add	r8,r4
  306a3a:	00 0b       	rts	
  306a3c:	68 f6       	mov.l	@r15+,r8

00306a3e <_topti_glyph_fg>:
  306a3e:	2f 86       	mov.l	r8,@-r15
  306a40:	d8 1f       	mov.l	306ac0 <.bg_next+0x24>,r8	! 318
  306a42:	53 f1       	mov.l	@(4,r15),r3
  306a44:	43 00       	shll	r3
  306a46:	38 38       	sub	r3,r8
  306a48:	53 f3       	mov.l	@(12,r15),r3

00306a4a <.fg_y>:
  306a4a:	52 f1       	mov.l	@(4,r15),r2

00306a4c <.fg_x>:
  306a4c:	60 33       	mov	r3,r0
  306a4e:	e1 fb       	mov	#-5,r1
  306a50:	40 1d       	shld	r1,r0
  306a52:	40 08       	shll2	r0
  306a54:	01 5e       	mov.l	@(r0,r5),r1
  306a56:	60 33       	mov	r3,r0
  306a58:	c9 1f       	and	#31,r0
  306a5a:	41 0d       	shld	r0,r1
  306a5c:	41 00       	shll	r1
  306a5e:	8b 00       	bf	306a62 <.fg_next>
  306a60:	24 61       	mov.w	r6,@r4

00306a62 <.fg_next>:
  306a62:	74 02       	add	#2,r4
  306a64:	42 10       	dt	r2
  306a66:	8f f1       	bf.s	306a4c <.fg_x>
  306a68:	73 01       	add	#1,r3
  306a6a:	47 10       	dt	r7
  306a6c:	50 f2       	mov.l	@(8,r15),r0
  306a6e:	33 0c       	add	r0,r3
  306a70:	8f eb       	bf.s	306a4a <.fg_y>
  306a72:	34 8c       	add	r8,r4
  306a74:	00 0b       	rts	
  306a76:	68 f6       	mov.l	@r15+,r8

00306a78 <_topti_glyph_bg>:
  306a78:	2f 86       	mov.l	r8,@-r15
  306a7a:	d8 11       	mov.l	306ac0 <.bg_next+0x24>,r8	! 318
  306a7c:	53 f1       	mov.l	@(4,r15),r3
  306a7e:	43 00       	shll	r3
  306a80:	38 38       	sub	r3,r8
  306a82:	53 f3       	mov.l	@(12,r15),r3

00306a84 <.bg_y>:
  306a84:	52 f1       	mov.l	@(4,r15),r2

00306a86 <.bg_x>:
  306a86:	60 33       	mov	r3,r0
  306a88:	e1 fb       	mov	#-5,r1
  306a8a:	40 1d       	shld	r1,r0
  306a8c:	40 08       	shll2	r0
  306a8e:	01 5e       	mov.l	@(r0,r5),r1
  306a90:	60 33       	mov	r3,r0
  306a92:	c9 1f       	and	#31,r0
  306a94:	41 0d       	shld	r0,r1
  306a96:	41 00       	shll	r1
  306a98:	89 00       	bt	306a9c <.bg_next>
  306a9a:	24 61       	mov.w	r6,@r4

00306a9c <.bg_next>:
  306a9c:	74 02       	add	#2,r4
  306a9e:	42 10       	dt	r2
  306aa0:	8f f1       	bf.s	306a86 <.bg_x>
  306aa2:	73 01       	add	#1,r3
  306aa4:	47 10       	dt	r7
  306aa6:	50 f2       	mov.l	@(8,r15),r0
  306aa8:	33 0c       	add	r0,r3
  306aaa:	8f eb       	bf.s	306a84 <.bg_y>
  306aac:	34 8c       	add	r8,r4
  306aae:	00 0b       	rts	
  306ab0:	68 f6       	mov.l	@r15+,r8
  306ab2:	00 09       	nop	
  306ab4:	00 09       	nop	
  306ab6:	00 09       	nop	
  306ab8:	00 09       	nop	
  306aba:	00 09       	nop	
  306abc:	00 09       	nop	
  306abe:	00 09       	nop	
  306ac0:	00 00       	.word 0x0000
  306ac2:	03 18       	.word 0x0318
  306ac4:	00 09       	nop	
  306ac6:	00 09       	nop	
  306ac8:	00 09       	nop	
  306aca:	00 09       	nop	
  306acc:	00 09       	nop	
  306ace:	00 09       	nop	

00306ad0 <_configure>:
  306ad0:	d1 0b       	mov.l	306b00 <_configure+0x30>,r1	! 304fa0 <_cpu_setVBR>
  306ad2:	2f 86       	mov.l	r8,@-r15
  306ad4:	d8 0b       	mov.l	306b04 <_configure+0x34>,r8	! 8101688 <_configure_VBR>
  306ad6:	4f 22       	sts.l	pr,@-r15
  306ad8:	41 0b       	jsr	@r1
  306ada:	64 82       	mov.l	@r8,r4
  306adc:	d0 0a       	mov.l	306b08 <_configure+0x38>,r0	! 304fbe <_cpu_getCPUOPM>
  306ade:	e1 00       	mov	#0,r1
  306ae0:	40 0b       	jsr	@r0
  306ae2:	28 12       	mov.l	r1,@r8
  306ae4:	d1 09       	mov.l	306b0c <_configure+0x3c>,r1	! 304fac <_cpu_setCPUOPM>
  306ae6:	e4 08       	mov	#8,r4
  306ae8:	41 0b       	jsr	@r1
  306aea:	24 0b       	or	r0,r4
  306aec:	d0 08       	mov.l	306b10 <_configure+0x40>,r0	! 304fd4 <_cpu_getSR>
  306aee:	40 0b       	jsr	@r0
  306af0:	00 09       	nop	
  306af2:	94 04       	mov.w	306afe <_configure+0x2e>,r4	! 1000
  306af4:	d1 07       	mov.l	306b14 <_configure+0x44>,r1	! 304fda <_cpu_setSR>
  306af6:	24 0b       	or	r0,r4
  306af8:	4f 26       	lds.l	@r15+,pr
  306afa:	41 2b       	jmp	@r1
  306afc:	68 f6       	mov.l	@r15+,r8
  306afe:	10 00       	mov.l	r0,@(0,r0)
  306b00:	00 30       	.word 0x0030
  306b02:	4f a0       	.word 0x4fa0
  306b04:	08 10       	.word 0x0810
  306b06:	16 88       	mov.l	r8,@(32,r6)
  306b08:	00 30       	.word 0x0030
  306b0a:	4f be       	ldc	r15,r3_bank
  306b0c:	00 30       	.word 0x0030
  306b0e:	4f ac       	shad	r10,r15
  306b10:	00 30       	.word 0x0030
  306b12:	4f d4       	.word 0x4fd4
  306b14:	00 30       	.word 0x0030
  306b16:	4f da       	.word 0x4fda

00306b18 <_hrestore>:
  306b18:	2f 86       	mov.l	r8,@-r15
  306b1a:	68 43       	mov	r4,r8
  306b1c:	d1 05       	mov.l	306b34 <_hrestore+0x1c>,r1	! 304fa0 <_cpu_setVBR>
  306b1e:	4f 22       	sts.l	pr,@-r15
  306b20:	41 0b       	jsr	@r1
  306b22:	54 41       	mov.l	@(4,r4),r4
  306b24:	d1 04       	mov.l	306b38 <_hrestore+0x20>,r1	! 304fac <_cpu_setCPUOPM>
  306b26:	41 0b       	jsr	@r1
  306b28:	54 82       	mov.l	@(8,r8),r4
  306b2a:	64 82       	mov.l	@r8,r4
  306b2c:	d1 03       	mov.l	306b3c <_hrestore+0x24>,r1	! 304fda <_cpu_setSR>
  306b2e:	4f 26       	lds.l	@r15+,pr
  306b30:	41 2b       	jmp	@r1
  306b32:	68 f6       	mov.l	@r15+,r8
  306b34:	00 30       	.word 0x0030
  306b36:	4f a0       	.word 0x4fa0
  306b38:	00 30       	.word 0x0030
  306b3a:	4f ac       	shad	r10,r15
  306b3c:	00 30       	.word 0x0030
  306b3e:	4f da       	.word 0x4fda

00306b40 <_hsave>:
  306b40:	d0 08       	mov.l	306b64 <_hsave+0x24>,r0	! 304fa6 <_cpu_getVBR>
  306b42:	2f 86       	mov.l	r8,@-r15
  306b44:	4f 22       	sts.l	pr,@-r15
  306b46:	40 0b       	jsr	@r0
  306b48:	68 43       	mov	r4,r8
  306b4a:	18 01       	mov.l	r0,@(4,r8)
  306b4c:	d0 06       	mov.l	306b68 <_hsave+0x28>,r0	! 304fbe <_cpu_getCPUOPM>
  306b4e:	40 0b       	jsr	@r0
  306b50:	00 09       	nop	
  306b52:	18 02       	mov.l	r0,@(8,r8)
  306b54:	d0 05       	mov.l	306b6c <_hsave+0x2c>,r0	! 304fd4 <_cpu_getSR>
  306b56:	40 0b       	jsr	@r0
  306b58:	00 09       	nop	
  306b5a:	28 02       	mov.l	r0,@r8
  306b5c:	4f 26       	lds.l	@r15+,pr
  306b5e:	00 0b       	rts	
  306b60:	68 f6       	mov.l	@r15+,r8
  306b62:	00 09       	nop	
  306b64:	00 30       	.word 0x0030
  306b66:	4f a6       	lds.l	@r15+,y0
  306b68:	00 30       	.word 0x0030
  306b6a:	4f be       	ldc	r15,r3_bank
  306b6c:	00 30       	.word 0x0030
  306b6e:	4f d4       	.word 0x4fd4

00306b70 <_cpu_configure_VBR>:
  306b70:	d1 01       	mov.l	306b78 <_cpu_configure_VBR+0x8>,r1	! 8101688 <_configure_VBR>
  306b72:	00 0b       	rts	
  306b74:	21 42       	mov.l	r4,@r1
  306b76:	00 09       	nop	
  306b78:	08 10       	.word 0x0810
  306b7a:	16 88       	mov.l	r8,@(32,r6)

00306b7c <_dma_channel>:
  306b7c:	2f 86       	mov.l	r8,@-r15
  306b7e:	e6 18       	mov	#24,r6
  306b80:	4f 22       	sts.l	pr,@-r15
  306b82:	d0 08       	mov.l	306ba4 <_dma_channel+0x28>,r0	! 309100 <_memcpy>
  306b84:	7f e8       	add	#-24,r15
  306b86:	68 43       	mov	r4,r8
  306b88:	d5 07       	mov.l	306ba8 <_dma_channel+0x2c>,r5	! 30bb78
  306b8a:	40 0b       	jsr	@r0
  306b8c:	64 f3       	mov	r15,r4
  306b8e:	e1 05       	mov	#5,r1
  306b90:	38 16       	cmp/hi	r1,r8
  306b92:	8d 03       	bt.s	306b9c <_dma_channel+0x20>
  306b94:	e0 00       	mov	#0,r0
  306b96:	60 83       	mov	r8,r0
  306b98:	40 08       	shll2	r0
  306b9a:	00 fe       	mov.l	@(r0,r15),r0
  306b9c:	7f 18       	add	#24,r15
  306b9e:	4f 26       	lds.l	@r15+,pr
  306ba0:	00 0b       	rts	
  306ba2:	68 f6       	mov.l	@r15+,r8
  306ba4:	00 30       	.word 0x0030
  306ba6:	91 00       	mov.w	306baa <_dma_channel+0x2e>,r1	! bb78
  306ba8:	00 30       	.word 0x0030
  306baa:	bb 78       	bsr	30629e <_kmalloc_get_arena+0x36>

00306bac <_dma_translate>:
  306bac:	d2 04       	mov.l	306bc0 <_dma_translate+0x14>,r2	! 80000000
  306bae:	d1 05       	mov.l	306bc4 <_dma_translate+0x18>,r1	! 3fffffff
  306bb0:	32 4c       	add	r4,r2
  306bb2:	32 16       	cmp/hi	r1,r2
  306bb4:	8d 02       	bt.s	306bbc <_dma_translate+0x10>
  306bb6:	60 43       	mov	r4,r0
  306bb8:	d1 03       	mov.l	306bc8 <_dma_translate+0x1c>,r1	! 1fffffff
  306bba:	20 19       	and	r1,r0
  306bbc:	00 0b       	rts	
  306bbe:	00 09       	nop	
  306bc0:	80 00       	mov.b	r0,@(0,r0)
  306bc2:	00 00       	.word 0x0000
  306bc4:	3f ff       	addv	r15,r15
  306bc6:	ff ff       	.word 0xffff
  306bc8:	1f ff       	mov.l	r15,@(60,r15)
  306bca:	ff ff       	.word 0xffff

00306bcc <_dma_setup>:
  306bcc:	2f 86       	mov.l	r8,@-r15
  306bce:	2f 96       	mov.l	r9,@-r15
  306bd0:	69 53       	mov	r5,r9
  306bd2:	2f a6       	mov.l	r10,@-r15
  306bd4:	6a 43       	mov	r4,r10
  306bd6:	2f b6       	mov.l	r11,@-r15
  306bd8:	2f c6       	mov.l	r12,@-r15
  306bda:	2f d6       	mov.l	r13,@-r15
  306bdc:	6d 63       	mov	r6,r13
  306bde:	2f e6       	mov.l	r14,@-r15
  306be0:	6e 73       	mov	r7,r14
  306be2:	d0 4b       	mov.l	306d10 <_dma_setup+0x144>,r0	! 306b7c <_dma_channel>
  306be4:	4f 22       	sts.l	pr,@-r15
  306be6:	40 0b       	jsr	@r0
  306be8:	7f fc       	add	#-4,r15
  306bea:	20 08       	tst	r0,r0
  306bec:	e7 01       	mov	#1,r7
  306bee:	8f 02       	bf.s	306bf6 <_dma_setup+0x2a>
  306bf0:	68 03       	mov	r0,r8
  306bf2:	a0 80       	bra	306cf6 <_dma_setup+0x12a>
  306bf4:	00 09       	nop	
  306bf6:	51 03       	mov.l	@(12,r0),r1
  306bf8:	60 13       	mov	r1,r0
  306bfa:	c9 01       	and	#1,r0
  306bfc:	2f 02       	mov.l	r0,@r15
  306bfe:	60 13       	mov	r1,r0
  306c00:	c8 01       	tst	#1,r0
  306c02:	8f 79       	bf.s	306cf8 <_dma_setup+0x12c>
  306c04:	60 73       	mov	r7,r0
  306c06:	51 83       	mov.l	@(12,r8),r1
  306c08:	e2 fe       	mov	#-2,r2
  306c0a:	db 42       	mov.l	306d14 <_dma_setup+0x148>,r11	! fe008060
  306c0c:	64 e3       	mov	r14,r4
  306c0e:	21 29       	and	r2,r1
  306c10:	dc 41       	mov.l	306d18 <_dma_setup+0x14c>,r12	! 306bac <_dma_translate>
  306c12:	18 13       	mov.l	r1,@(12,r8)
  306c14:	61 b1       	mov.w	@r11,r1
  306c16:	21 29       	and	r2,r1
  306c18:	2b 11       	mov.w	r1,@r11
  306c1a:	4c 0b       	jsr	@r12
  306c1c:	00 09       	nop	
  306c1e:	54 fa       	mov.l	@(40,r15),r4
  306c20:	28 02       	mov.l	r0,@r8
  306c22:	4c 0b       	jsr	@r12
  306c24:	00 09       	nop	
  306c26:	91 71       	mov.w	306d0c <_dma_setup+0x140>,r1	! 400
  306c28:	18 01       	mov.l	r0,@(4,r8)
  306c2a:	60 93       	mov	r9,r0
  306c2c:	18 d2       	mov.l	r13,@(8,r8)
  306c2e:	c9 0c       	and	#12,r0
  306c30:	18 13       	mov.l	r1,@(12,r8)
  306c32:	40 28       	shll16	r0
  306c34:	51 83       	mov.l	@(12,r8),r1
  306c36:	40 08       	shll2	r0
  306c38:	d2 38       	mov.l	306d1c <_dma_setup+0x150>,r2	! ffcfffff
  306c3a:	21 29       	and	r2,r1
  306c3c:	21 0b       	or	r0,r1
  306c3e:	60 93       	mov	r9,r0
  306c40:	18 13       	mov.l	r1,@(12,r8)
  306c42:	c9 03       	and	#3,r0
  306c44:	51 83       	mov.l	@(12,r8),r1
  306c46:	e2 e7       	mov	#-25,r2
  306c48:	40 08       	shll2	r0
  306c4a:	30 0c       	add	r0,r0
  306c4c:	21 29       	and	r2,r1
  306c4e:	21 0b       	or	r0,r1
  306c50:	18 13       	mov.l	r1,@(12,r8)
  306c52:	e2 0e       	mov	#14,r2
  306c54:	50 fb       	mov.l	@(44,r15),r0
  306c56:	51 83       	mov.l	@(12,r8),r1
  306c58:	c9 03       	and	#3,r0
  306c5a:	40 2d       	shld	r2,r0
  306c5c:	d2 30       	mov.l	306d20 <_dma_setup+0x154>,r2	! ffff3fff
  306c5e:	21 29       	and	r2,r1
  306c60:	21 0b       	or	r0,r1
  306c62:	18 13       	mov.l	r1,@(12,r8)
  306c64:	e2 0c       	mov	#12,r2
  306c66:	50 f9       	mov.l	@(36,r15),r0
  306c68:	51 83       	mov.l	@(12,r8),r1
  306c6a:	c9 03       	and	#3,r0
  306c6c:	40 2d       	shld	r2,r0
  306c6e:	92 4e       	mov.w	306d0e <_dma_setup+0x142>,r2	! cfff
  306c70:	21 29       	and	r2,r1
  306c72:	21 0b       	or	r0,r1
  306c74:	18 13       	mov.l	r1,@(12,r8)
  306c76:	e2 fb       	mov	#-5,r2
  306c78:	50 fc       	mov.l	@(48,r15),r0
  306c7a:	51 83       	mov.l	@(12,r8),r1
  306c7c:	c9 01       	and	#1,r0
  306c7e:	40 08       	shll2	r0
  306c80:	21 29       	and	r2,r1
  306c82:	21 0b       	or	r0,r1
  306c84:	18 13       	mov.l	r1,@(12,r8)
  306c86:	85 b0       	mov.w	@(0,r11),r0
  306c88:	cb 01       	or	#1,r0
  306c8a:	81 b0       	mov.w	r0,@(0,r11)
  306c8c:	60 a3       	mov	r10,r0
  306c8e:	61 b1       	mov.w	@r11,r1
  306c90:	21 29       	and	r2,r1
  306c92:	2b 11       	mov.w	r1,@r11
  306c94:	e2 fd       	mov	#-3,r2
  306c96:	61 b1       	mov.w	@r11,r1
  306c98:	21 29       	and	r2,r1
  306c9a:	2b 11       	mov.w	r1,@r11
  306c9c:	62 f2       	mov.l	@r15,r2
  306c9e:	d1 21       	mov.l	306d24 <_dma_setup+0x158>,r1	! 81016a4 <_dma_sleep_blocking>
  306ca0:	63 82       	mov.l	@r8,r3
  306ca2:	01 24       	mov.b	r2,@(r0,r1)
  306ca4:	d2 20       	mov.l	306d28 <_dma_setup+0x15c>,r2	! e5006fff
  306ca6:	33 26       	cmp/hi	r2,r3
  306ca8:	8b 05       	bf	306cb6 <_dma_setup+0xea>
  306caa:	67 82       	mov.l	@r8,r7
  306cac:	d3 1f       	mov.l	306d2c <_dma_setup+0x160>,r3	! e5204000
  306cae:	37 36       	cmp/hi	r3,r7
  306cb0:	8d 01       	bt.s	306cb6 <_dma_setup+0xea>
  306cb2:	e3 01       	mov	#1,r3
  306cb4:	01 34       	mov.b	r3,@(r0,r1)
  306cb6:	53 81       	mov.l	@(4,r8),r3
  306cb8:	33 26       	cmp/hi	r2,r3
  306cba:	8b 06       	bf	306cca <_dma_setup+0xfe>
  306cbc:	53 81       	mov.l	@(4,r8),r3
  306cbe:	d2 1b       	mov.l	306d2c <_dma_setup+0x160>,r2	! e5204000
  306cc0:	33 26       	cmp/hi	r2,r3
  306cc2:	8d 02       	bt.s	306cca <_dma_setup+0xfe>
  306cc4:	e2 01       	mov	#1,r2
  306cc6:	60 a3       	mov	r10,r0
  306cc8:	01 24       	mov.b	r2,@(r0,r1)
  306cca:	63 82       	mov.l	@r8,r3
  306ccc:	d2 18       	mov.l	306d30 <_dma_setup+0x164>,r2	! fe1fffff
  306cce:	33 26       	cmp/hi	r2,r3
  306cd0:	8b 06       	bf	306ce0 <_dma_setup+0x114>
  306cd2:	67 82       	mov.l	@r8,r7
  306cd4:	d3 17       	mov.l	306d34 <_dma_setup+0x168>,r3	! fe3fffff
  306cd6:	37 36       	cmp/hi	r3,r7
  306cd8:	8d 02       	bt.s	306ce0 <_dma_setup+0x114>
  306cda:	e3 01       	mov	#1,r3
  306cdc:	60 a3       	mov	r10,r0
  306cde:	01 34       	mov.b	r3,@(r0,r1)
  306ce0:	53 81       	mov.l	@(4,r8),r3
  306ce2:	33 26       	cmp/hi	r2,r3
  306ce4:	8f 07       	bf.s	306cf6 <_dma_setup+0x12a>
  306ce6:	e7 00       	mov	#0,r7
  306ce8:	53 81       	mov.l	@(4,r8),r3
  306cea:	d2 12       	mov.l	306d34 <_dma_setup+0x168>,r2	! fe3fffff
  306cec:	33 26       	cmp/hi	r2,r3
  306cee:	8d 02       	bt.s	306cf6 <_dma_setup+0x12a>
  306cf0:	e2 01       	mov	#1,r2
  306cf2:	60 a3       	mov	r10,r0
  306cf4:	01 24       	mov.b	r2,@(r0,r1)
  306cf6:	60 73       	mov	r7,r0
  306cf8:	7f 04       	add	#4,r15
  306cfa:	4f 26       	lds.l	@r15+,pr
  306cfc:	6e f6       	mov.l	@r15+,r14
  306cfe:	6d f6       	mov.l	@r15+,r13
  306d00:	6c f6       	mov.l	@r15+,r12
  306d02:	6b f6       	mov.l	@r15+,r11
  306d04:	6a f6       	mov.l	@r15+,r10
  306d06:	69 f6       	mov.l	@r15+,r9
  306d08:	00 0b       	rts	
  306d0a:	68 f6       	mov.l	@r15+,r8
  306d0c:	04 00       	.word 0x0400
  306d0e:	cf ff       	or.b	#255,@(r0,gbr)
  306d10:	00 30       	.word 0x0030
  306d12:	6b 7c       	extu.b	r7,r11
  306d14:	fe 00       	.word 0xfe00
  306d16:	80 60       	mov.b	r0,@(0,r6)
  306d18:	00 30       	.word 0x0030
  306d1a:	6b ac       	extu.b	r10,r11
  306d1c:	ff cf       	.word 0xffcf
  306d1e:	ff ff       	.word 0xffff
  306d20:	ff ff       	.word 0xffff
  306d22:	3f ff       	addv	r15,r15
  306d24:	08 10       	.word 0x0810
  306d26:	16 a4       	mov.l	r10,@(16,r6)
  306d28:	e5 00       	mov	#0,r5
  306d2a:	6f ff       	exts.w	r15,r15
  306d2c:	e5 20       	mov	#32,r5
  306d2e:	40 00       	shll	r0
  306d30:	fe 1f       	.word 0xfe1f
  306d32:	ff ff       	.word 0xffff
  306d34:	fe 3f       	.word 0xfe3f
  306d36:	ff ff       	.word 0xffff

00306d38 <_hpowered>:
  306d38:	d1 02       	mov.l	306d44 <_hpowered+0xc>,r1	! a4150020
  306d3a:	50 14       	mov.l	@(16,r1),r0
  306d3c:	60 09       	swap.w	r0,r0
  306d3e:	c8 20       	tst	#32,r0
  306d40:	00 0b       	rts	
  306d42:	00 29       	movt	r0
  306d44:	a4 15       	bra	307572 <_dprint_opt+0x2>
  306d46:	00 20       	.word 0x0020

00306d48 <_hpoweron>:
  306d48:	d2 03       	mov.l	306d58 <_hpoweron+0x10>,r2	! a4150020
  306d4a:	d3 04       	mov.l	306d5c <_hpoweron+0x14>,r3	! ffdfffff
  306d4c:	51 24       	mov.l	@(16,r2),r1
  306d4e:	21 39       	and	r3,r1
  306d50:	12 14       	mov.l	r1,@(16,r2)
  306d52:	00 0b       	rts	
  306d54:	00 09       	nop	
  306d56:	00 09       	nop	
  306d58:	a4 15       	bra	307586 <_dprint_opt+0x16>
  306d5a:	00 20       	.word 0x0020
  306d5c:	ff df       	.word 0xffdf
  306d5e:	ff ff       	.word 0xffff

00306d60 <_hpoweroff>:
  306d60:	d2 03       	mov.l	306d70 <_hpoweroff+0x10>,r2	! a4150020
  306d62:	d3 04       	mov.l	306d74 <_hpoweroff+0x14>,r3	! 200000
  306d64:	51 24       	mov.l	@(16,r2),r1
  306d66:	21 3b       	or	r3,r1
  306d68:	12 14       	mov.l	r1,@(16,r2)
  306d6a:	00 0b       	rts	
  306d6c:	00 09       	nop	
  306d6e:	00 09       	nop	
  306d70:	a4 15       	bra	30759e <_dprint_opt+0x2e>
  306d72:	00 20       	.word 0x0020
  306d74:	00 20       	.word 0x0020
	...

00306d78 <_hsave>:
  306d78:	2f 86       	mov.l	r8,@-r15
  306d7a:	68 43       	mov	r4,r8
  306d7c:	2f 96       	mov.l	r9,@-r15
  306d7e:	e9 00       	mov	#0,r9
  306d80:	2f a6       	mov.l	r10,@-r15
  306d82:	da 0e       	mov.l	306dbc <_hsave+0x44>,r10	! 306b7c <_dma_channel>
  306d84:	4f 22       	sts.l	pr,@-r15
  306d86:	4a 0b       	jsr	@r10
  306d88:	64 93       	mov	r9,r4
  306d8a:	61 93       	mov	r9,r1
  306d8c:	41 08       	shll2	r1
  306d8e:	62 02       	mov.l	@r0,r2
  306d90:	41 08       	shll2	r1
  306d92:	31 8c       	add	r8,r1
  306d94:	21 22       	mov.l	r2,@r1
  306d96:	79 01       	add	#1,r9
  306d98:	52 01       	mov.l	@(4,r0),r2
  306d9a:	11 21       	mov.l	r2,@(4,r1)
  306d9c:	52 02       	mov.l	@(8,r0),r2
  306d9e:	11 22       	mov.l	r2,@(8,r1)
  306da0:	52 03       	mov.l	@(12,r0),r2
  306da2:	60 93       	mov	r9,r0
  306da4:	88 06       	cmp/eq	#6,r0
  306da6:	11 23       	mov.l	r2,@(12,r1)
  306da8:	8b ed       	bf	306d86 <_hsave+0xe>
  306daa:	d1 05       	mov.l	306dc0 <_hsave+0x48>,r1	! fe008060
  306dac:	78 60       	add	#96,r8
  306dae:	61 11       	mov.w	@r1,r1
  306db0:	28 11       	mov.w	r1,@r8
  306db2:	4f 26       	lds.l	@r15+,pr
  306db4:	6a f6       	mov.l	@r15+,r10
  306db6:	69 f6       	mov.l	@r15+,r9
  306db8:	00 0b       	rts	
  306dba:	68 f6       	mov.l	@r15+,r8
  306dbc:	00 30       	.word 0x0030
  306dbe:	6b 7c       	extu.b	r7,r11
  306dc0:	fe 00       	.word 0xfe00
  306dc2:	80 60       	mov.b	r0,@(0,r6)

00306dc4 <_hrestore>:
  306dc4:	2f 86       	mov.l	r8,@-r15
  306dc6:	e3 fe       	mov	#-2,r3
  306dc8:	2f 96       	mov.l	r9,@-r15
  306dca:	e9 00       	mov	#0,r9
  306dcc:	2f a6       	mov.l	r10,@-r15
  306dce:	68 43       	mov	r4,r8
  306dd0:	d2 10       	mov.l	306e14 <_hrestore+0x50>,r2	! fe008060
  306dd2:	4f 22       	sts.l	pr,@-r15
  306dd4:	61 21       	mov.w	@r2,r1
  306dd6:	da 10       	mov.l	306e18 <_hrestore+0x54>,r10	! 306b7c <_dma_channel>
  306dd8:	21 39       	and	r3,r1
  306dda:	22 11       	mov.w	r1,@r2
  306ddc:	4a 0b       	jsr	@r10
  306dde:	64 93       	mov	r9,r4
  306de0:	61 93       	mov	r9,r1
  306de2:	41 08       	shll2	r1
  306de4:	41 08       	shll2	r1
  306de6:	31 8c       	add	r8,r1
  306de8:	62 12       	mov.l	@r1,r2
  306dea:	79 01       	add	#1,r9
  306dec:	20 22       	mov.l	r2,@r0
  306dee:	52 11       	mov.l	@(4,r1),r2
  306df0:	10 21       	mov.l	r2,@(4,r0)
  306df2:	52 12       	mov.l	@(8,r1),r2
  306df4:	10 22       	mov.l	r2,@(8,r0)
  306df6:	51 13       	mov.l	@(12,r1),r1
  306df8:	10 13       	mov.l	r1,@(12,r0)
  306dfa:	60 93       	mov	r9,r0
  306dfc:	88 06       	cmp/eq	#6,r0
  306dfe:	8b ed       	bf	306ddc <_hrestore+0x18>
  306e00:	78 60       	add	#96,r8
  306e02:	d1 04       	mov.l	306e14 <_hrestore+0x50>,r1	! fe008060
  306e04:	68 81       	mov.w	@r8,r8
  306e06:	21 81       	mov.w	r8,@r1
  306e08:	4f 26       	lds.l	@r15+,pr
  306e0a:	6a f6       	mov.l	@r15+,r10
  306e0c:	69 f6       	mov.l	@r15+,r9
  306e0e:	00 0b       	rts	
  306e10:	68 f6       	mov.l	@r15+,r8
  306e12:	00 09       	nop	
  306e14:	fe 00       	.word 0xfe00
  306e16:	80 60       	mov.b	r0,@(0,r6)
  306e18:	00 30       	.word 0x0030
  306e1a:	6b 7c       	extu.b	r7,r11

00306e1c <_dma_channel_wait>:
  306e1c:	2f 86       	mov.l	r8,@-r15
  306e1e:	2f 96       	mov.l	r9,@-r15
  306e20:	69 43       	mov	r4,r9
  306e22:	2f a6       	mov.l	r10,@-r15
  306e24:	6a 53       	mov	r5,r10
  306e26:	d0 16       	mov.l	306e80 <_dma_channel_wait+0x64>,r0	! 306b7c <_dma_channel>
  306e28:	4f 22       	sts.l	pr,@-r15
  306e2a:	40 0b       	jsr	@r0
  306e2c:	7f ec       	add	#-20,r15
  306e2e:	20 08       	tst	r0,r0
  306e30:	8d 0c       	bt.s	306e4c <_dma_channel_wait+0x30>
  306e32:	68 03       	mov	r0,r8
  306e34:	50 03       	mov.l	@(12,r0),r0
  306e36:	c8 04       	tst	#4,r0
  306e38:	8d 02       	bt.s	306e40 <_dma_channel_wait+0x24>
  306e3a:	2a a8       	tst	r10,r10
  306e3c:	8d 0c       	bt.s	306e58 <_dma_channel_wait+0x3c>
  306e3e:	64 f3       	mov	r15,r4
  306e40:	50 83       	mov.l	@(12,r8),r0
  306e42:	c8 01       	tst	#1,r0
  306e44:	89 02       	bt	306e4c <_dma_channel_wait+0x30>
  306e46:	50 83       	mov.l	@(12,r8),r0
  306e48:	c8 02       	tst	#2,r0
  306e4a:	89 f9       	bt	306e40 <_dma_channel_wait+0x24>
  306e4c:	7f 14       	add	#20,r15
  306e4e:	4f 26       	lds.l	@r15+,pr
  306e50:	6a f6       	mov.l	@r15+,r10
  306e52:	69 f6       	mov.l	@r15+,r9
  306e54:	00 0b       	rts	
  306e56:	68 f6       	mov.l	@r15+,r8
  306e58:	d1 0a       	mov.l	306e84 <_dma_channel_wait+0x68>,r1	! 307630 <_cpu_csleep_init>
  306e5a:	da 0b       	mov.l	306e88 <_dma_channel_wait+0x6c>,r10	! 810168c <_dma_wait_ics>
  306e5c:	41 0b       	jsr	@r1
  306e5e:	49 08       	shll2	r9
  306e60:	60 93       	mov	r9,r0
  306e62:	61 f3       	mov	r15,r1
  306e64:	0a 16       	mov.l	r1,@(r0,r10)
  306e66:	50 83       	mov.l	@(12,r8),r0
  306e68:	c8 01       	tst	#1,r0
  306e6a:	89 05       	bt	306e78 <_dma_channel_wait+0x5c>
  306e6c:	50 83       	mov.l	@(12,r8),r0
  306e6e:	c8 02       	tst	#2,r0
  306e70:	8b 02       	bf	306e78 <_dma_channel_wait+0x5c>
  306e72:	d1 06       	mov.l	306e8c <_dma_channel_wait+0x70>,r1	! 307644 <_cpu_csleep>
  306e74:	41 0b       	jsr	@r1
  306e76:	64 f3       	mov	r15,r4
  306e78:	3a 9c       	add	r9,r10
  306e7a:	e1 00       	mov	#0,r1
  306e7c:	af e6       	bra	306e4c <_dma_channel_wait+0x30>
  306e7e:	2a 12       	mov.l	r1,@r10
  306e80:	00 30       	.word 0x0030
  306e82:	6b 7c       	extu.b	r7,r11
  306e84:	00 30       	.word 0x0030
  306e86:	76 30       	add	#48,r6
  306e88:	08 10       	.word 0x0810
  306e8a:	16 8c       	mov.l	r8,@(48,r6)
  306e8c:	00 30       	.word 0x0030
  306e8e:	76 44       	add	#68,r6

00306e90 <_unbind>:
  306e90:	2f 86       	mov.l	r8,@-r15
  306e92:	e8 00       	mov	#0,r8
  306e94:	2f 96       	mov.l	r9,@-r15
  306e96:	d9 07       	mov.l	306eb4 <_unbind+0x24>,r9	! 306e1c <_dma_channel_wait>
  306e98:	4f 22       	sts.l	pr,@-r15
  306e9a:	64 83       	mov	r8,r4
  306e9c:	49 0b       	jsr	@r9
  306e9e:	e5 00       	mov	#0,r5
  306ea0:	78 01       	add	#1,r8
  306ea2:	60 83       	mov	r8,r0
  306ea4:	88 06       	cmp/eq	#6,r0
  306ea6:	8f f9       	bf.s	306e9c <_unbind+0xc>
  306ea8:	64 83       	mov	r8,r4
  306eaa:	4f 26       	lds.l	@r15+,pr
  306eac:	69 f6       	mov.l	@r15+,r9
  306eae:	00 0b       	rts	
  306eb0:	68 f6       	mov.l	@r15+,r8
  306eb2:	00 09       	nop	
  306eb4:	00 30       	.word 0x0030
  306eb6:	6e 1c       	extu.b	r1,r14

00306eb8 <_funbind>:
  306eb8:	2f 86       	mov.l	r8,@-r15
  306eba:	e8 00       	mov	#0,r8
  306ebc:	2f 96       	mov.l	r9,@-r15
  306ebe:	d9 07       	mov.l	306edc <_funbind+0x24>,r9	! 306e1c <_dma_channel_wait>
  306ec0:	4f 22       	sts.l	pr,@-r15
  306ec2:	64 83       	mov	r8,r4
  306ec4:	49 0b       	jsr	@r9
  306ec6:	e5 01       	mov	#1,r5
  306ec8:	78 01       	add	#1,r8
  306eca:	60 83       	mov	r8,r0
  306ecc:	88 06       	cmp/eq	#6,r0
  306ece:	8f f9       	bf.s	306ec4 <_funbind+0xc>
  306ed0:	64 83       	mov	r8,r4
  306ed2:	4f 26       	lds.l	@r15+,pr
  306ed4:	69 f6       	mov.l	@r15+,r9
  306ed6:	00 0b       	rts	
  306ed8:	68 f6       	mov.l	@r15+,r8
  306eda:	00 09       	nop	
  306edc:	00 30       	.word 0x0030
  306ede:	6e 1c       	extu.b	r1,r14

00306ee0 <_configure>:
  306ee0:	2f 86       	mov.l	r8,@-r15
  306ee2:	e6 18       	mov	#24,r6
  306ee4:	2f 96       	mov.l	r9,@-r15
  306ee6:	e8 00       	mov	#0,r8
  306ee8:	2f a6       	mov.l	r10,@-r15
  306eea:	2f b6       	mov.l	r11,@-r15
  306eec:	2f c6       	mov.l	r12,@-r15
  306eee:	2f d6       	mov.l	r13,@-r15
  306ef0:	4f 22       	sts.l	pr,@-r15
  306ef2:	da 2c       	mov.l	306fa4 <_configure+0xc4>,r10	! 309100 <_memcpy>
  306ef4:	7f cc       	add	#-52,r15
  306ef6:	d5 2c       	mov.l	306fa8 <_configure+0xc8>,r5	! 30bb90
  306ef8:	64 f3       	mov	r15,r4
  306efa:	dc 2c       	mov.l	306fac <_configure+0xcc>,r12	! 3091c0 <_memset>
  306efc:	4a 0b       	jsr	@r10
  306efe:	74 1c       	add	#28,r4
  306f00:	db 2b       	mov.l	306fb0 <_configure+0xd0>,r11	! 306fcc <_dma_interrupt_transfer_ended>
  306f02:	69 f3       	mov	r15,r9
  306f04:	79 1c       	add	#28,r9
  306f06:	6d 96       	mov.l	@r9+,r13
  306f08:	e6 0c       	mov	#12,r6
  306f0a:	e5 00       	mov	#0,r5
  306f0c:	64 f3       	mov	r15,r4
  306f0e:	4c 0b       	jsr	@r12
  306f10:	74 10       	add	#16,r4
  306f12:	1f 83       	mov.l	r8,@(12,r15)
  306f14:	e6 08       	mov	#8,r6
  306f16:	64 f3       	mov	r15,r4
  306f18:	1f b2       	mov.l	r11,@(8,r15)
  306f1a:	65 f3       	mov	r15,r5
  306f1c:	4a 0b       	jsr	@r10
  306f1e:	75 14       	add	#20,r5
  306f20:	d0 24       	mov.l	306fb4 <_configure+0xd4>,r0	! 305200 <_intc_handler_function>
  306f22:	64 d3       	mov	r13,r4
  306f24:	55 f2       	mov.l	@(8,r15),r5
  306f26:	56 f3       	mov.l	@(12,r15),r6
  306f28:	40 0b       	jsr	@r0
  306f2a:	57 f4       	mov.l	@(16,r15),r7
  306f2c:	d0 22       	mov.l	306fb8 <_configure+0xd8>,r0	! 306b7c <_dma_channel>
  306f2e:	64 83       	mov	r8,r4
  306f30:	40 0b       	jsr	@r0
  306f32:	78 01       	add	#1,r8
  306f34:	51 03       	mov.l	@(12,r0),r1
  306f36:	e2 fe       	mov	#-2,r2
  306f38:	21 29       	and	r2,r1
  306f3a:	10 13       	mov.l	r1,@(12,r0)
  306f3c:	60 83       	mov	r8,r0
  306f3e:	88 06       	cmp/eq	#6,r0
  306f40:	8b e1       	bf	306f06 <_configure+0x26>
  306f42:	d0 1e       	mov.l	306fbc <_configure+0xdc>,r0	! 3051a8 <_intc_handler>
  306f44:	d5 1e       	mov.l	306fc0 <_configure+0xe0>,r5	! 30b240 <_inth_dma_ae>
  306f46:	94 2c       	mov.w	306fa2 <_configure+0xc2>,r4	! bc0
  306f48:	40 0b       	jsr	@r0
  306f4a:	e6 20       	mov	#32,r6
  306f4c:	d8 1d       	mov.l	306fc4 <_configure+0xe4>,r8	! 305134 <_intc_priority>
  306f4e:	e5 03       	mov	#3,r5
  306f50:	48 0b       	jsr	@r8
  306f52:	e4 09       	mov	#9,r4
  306f54:	e5 03       	mov	#3,r5
  306f56:	48 0b       	jsr	@r8
  306f58:	e4 0a       	mov	#10,r4
  306f5a:	e5 03       	mov	#3,r5
  306f5c:	48 0b       	jsr	@r8
  306f5e:	e4 0b       	mov	#11,r4
  306f60:	e5 09       	mov	#9,r5
  306f62:	48 0b       	jsr	@r8
  306f64:	e4 0c       	mov	#12,r4
  306f66:	e5 09       	mov	#9,r5
  306f68:	48 0b       	jsr	@r8
  306f6a:	e4 0d       	mov	#13,r4
  306f6c:	e5 03       	mov	#3,r5
  306f6e:	48 0b       	jsr	@r8
  306f70:	e4 0e       	mov	#14,r4
  306f72:	e5 03       	mov	#3,r5
  306f74:	48 0b       	jsr	@r8
  306f76:	e4 0f       	mov	#15,r4
  306f78:	d1 13       	mov.l	306fc8 <_configure+0xe8>,r1	! fe008060
  306f7a:	e3 fb       	mov	#-5,r3
  306f7c:	62 11       	mov.w	@r1,r2
  306f7e:	22 39       	and	r3,r2
  306f80:	21 21       	mov.w	r2,@r1
  306f82:	e3 fd       	mov	#-3,r3
  306f84:	62 11       	mov.w	@r1,r2
  306f86:	22 39       	and	r3,r2
  306f88:	21 21       	mov.w	r2,@r1
  306f8a:	85 10       	mov.w	@(0,r1),r0
  306f8c:	cb 01       	or	#1,r0
  306f8e:	81 10       	mov.w	r0,@(0,r1)
  306f90:	7f 34       	add	#52,r15
  306f92:	4f 26       	lds.l	@r15+,pr
  306f94:	6d f6       	mov.l	@r15+,r13
  306f96:	6c f6       	mov.l	@r15+,r12
  306f98:	6b f6       	mov.l	@r15+,r11
  306f9a:	6a f6       	mov.l	@r15+,r10
  306f9c:	69 f6       	mov.l	@r15+,r9
  306f9e:	00 0b       	rts	
  306fa0:	68 f6       	mov.l	@r15+,r8
  306fa2:	0b c0       	.word 0x0bc0
  306fa4:	00 30       	.word 0x0030
  306fa6:	91 00       	mov.w	306faa <_configure+0xca>,r1	! bb90
  306fa8:	00 30       	.word 0x0030
  306faa:	bb 90       	bsr	3066ce <_r61524_set+0x2a>
  306fac:	00 30       	.word 0x0030
  306fae:	91 c0       	mov.w	307132 <_dma_transfer_sync+0x42>,r1	! 1f11
  306fb0:	00 30       	.word 0x0030
  306fb2:	6f cc       	extu.b	r12,r15
  306fb4:	00 30       	.word 0x0030
  306fb6:	52 00       	mov.l	@(0,r0),r2
  306fb8:	00 30       	.word 0x0030
  306fba:	6b 7c       	extu.b	r7,r11
  306fbc:	00 30       	.word 0x0030
  306fbe:	51 a8       	mov.l	@(32,r10),r1
  306fc0:	00 30       	.word 0x0030
  306fc2:	b2 40       	bsr	307446 <_gint_default_panic+0x212>
  306fc4:	00 30       	.word 0x0030
  306fc6:	51 34       	mov.l	@(16,r3),r1
  306fc8:	fe 00       	.word 0xfe00
  306fca:	80 60       	mov.b	r0,@(0,r6)

00306fcc <_dma_interrupt_transfer_ended>:
  306fcc:	d0 1f       	mov.l	30704c <_dma_interrupt_transfer_ended+0x80>,r0	! 306b7c <_dma_channel>
  306fce:	2f 86       	mov.l	r8,@-r15
  306fd0:	4f 22       	sts.l	pr,@-r15
  306fd2:	40 0b       	jsr	@r0
  306fd4:	68 43       	mov	r4,r8
  306fd6:	51 03       	mov.l	@(12,r0),r1
  306fd8:	e7 fb       	mov	#-5,r7
  306fda:	e2 fe       	mov	#-2,r2
  306fdc:	21 79       	and	r7,r1
  306fde:	10 13       	mov.l	r1,@(12,r0)
  306fe0:	e3 fd       	mov	#-3,r3
  306fe2:	51 03       	mov.l	@(12,r0),r1
  306fe4:	21 29       	and	r2,r1
  306fe6:	10 13       	mov.l	r1,@(12,r0)
  306fe8:	51 03       	mov.l	@(12,r0),r1
  306fea:	21 39       	and	r3,r1
  306fec:	10 13       	mov.l	r1,@(12,r0)
  306fee:	60 83       	mov	r8,r0
  306ff0:	d1 17       	mov.l	307050 <_dma_interrupt_transfer_ended+0x84>,r1	! fe008060
  306ff2:	62 11       	mov.w	@r1,r2
  306ff4:	22 79       	and	r7,r2
  306ff6:	21 21       	mov.w	r2,@r1
  306ff8:	62 11       	mov.w	@r1,r2
  306ffa:	22 39       	and	r3,r2
  306ffc:	21 21       	mov.w	r2,@r1
  306ffe:	d1 15       	mov.l	307054 <_dma_interrupt_transfer_ended+0x88>,r1	! 81016a4 <_dma_sleep_blocking>
  307000:	01 1c       	mov.b	@(r0,r1),r1
  307002:	21 18       	tst	r1,r1
  307004:	89 02       	bt	30700c <_dma_interrupt_transfer_ended+0x40>
  307006:	d1 14       	mov.l	307058 <_dma_interrupt_transfer_ended+0x8c>,r1	! 305038 <_sleep_unblock>
  307008:	41 0b       	jsr	@r1
  30700a:	00 09       	nop	
  30700c:	d1 13       	mov.l	30705c <_dma_interrupt_transfer_ended+0x90>,r1	! 810168c <_dma_wait_ics>
  30700e:	60 83       	mov	r8,r0
  307010:	40 08       	shll2	r0
  307012:	04 1e       	mov.l	@(r0,r1),r4
  307014:	24 48       	tst	r4,r4
  307016:	8d 04       	bt.s	307022 <_dma_interrupt_transfer_ended+0x56>
  307018:	e1 14       	mov	#20,r1
  30701a:	d1 11       	mov.l	307060 <_dma_interrupt_transfer_ended+0x94>,r1	! 307668 <_cpu_csleep_cancel>
  30701c:	41 0b       	jsr	@r1
  30701e:	00 09       	nop	
  307020:	e1 14       	mov	#20,r1
  307022:	08 17       	mul.l	r1,r8
  307024:	d8 0f       	mov.l	307064 <_dma_interrupt_transfer_ended+0x98>,r8	! 81016ac <_dma_callbacks>
  307026:	01 1a       	sts	macl,r1
  307028:	38 1c       	add	r1,r8
  30702a:	60 82       	mov.l	@r8,r0
  30702c:	20 08       	tst	r0,r0
  30702e:	89 09       	bt	307044 <_dma_interrupt_transfer_ended+0x78>
  307030:	56 83       	mov.l	@(12,r8),r6
  307032:	55 82       	mov.l	@(8,r8),r5
  307034:	54 81       	mov.l	@(4,r8),r4
  307036:	40 0b       	jsr	@r0
  307038:	57 84       	mov.l	@(16,r8),r7
  30703a:	d0 0b       	mov.l	307068 <_dma_interrupt_transfer_ended+0x9c>,r0	! 3091c0 <_memset>
  30703c:	e6 14       	mov	#20,r6
  30703e:	e5 00       	mov	#0,r5
  307040:	40 0b       	jsr	@r0
  307042:	64 83       	mov	r8,r4
  307044:	4f 26       	lds.l	@r15+,pr
  307046:	00 0b       	rts	
  307048:	68 f6       	mov.l	@r15+,r8
  30704a:	00 09       	nop	
  30704c:	00 30       	.word 0x0030
  30704e:	6b 7c       	extu.b	r7,r11
  307050:	fe 00       	.word 0xfe00
  307052:	80 60       	mov.b	r0,@(0,r6)
  307054:	08 10       	.word 0x0810
  307056:	16 a4       	mov.l	r10,@(16,r6)
  307058:	00 30       	.word 0x0030
  30705a:	50 38       	mov.l	@(32,r3),r0
  30705c:	08 10       	.word 0x0810
  30705e:	16 8c       	mov.l	r8,@(48,r6)
  307060:	00 30       	.word 0x0030
  307062:	76 68       	add	#104,r6
  307064:	08 10       	.word 0x0810
  307066:	16 ac       	mov.l	r10,@(48,r6)
  307068:	00 30       	.word 0x0030
  30706a:	91 c0       	mov.w	3071ee <_dma_transfer+0x1e>,r1	! 7420

0030706c <_dma_transfer_async>:
  30706c:	2f 86       	mov.l	r8,@-r15
  30706e:	e1 01       	mov	#1,r1
  307070:	4f 22       	sts.l	pr,@-r15
  307072:	7f f0       	add	#-16,r15
  307074:	d0 15       	mov.l	3070cc <_dma_transfer_async+0x60>,r0	! 306bcc <_dma_setup>
  307076:	1f 13       	mov.l	r1,@(12,r15)
  307078:	68 43       	mov	r4,r8
  30707a:	51 f8       	mov.l	@(32,r15),r1
  30707c:	1f 12       	mov.l	r1,@(8,r15)
  30707e:	51 f7       	mov.l	@(28,r15),r1
  307080:	1f 11       	mov.l	r1,@(4,r15)
  307082:	51 f6       	mov.l	@(24,r15),r1
  307084:	40 0b       	jsr	@r0
  307086:	2f 12       	mov.l	r1,@r15
  307088:	20 08       	tst	r0,r0
  30708a:	8f 1a       	bf.s	3070c2 <_dma_transfer_async+0x56>
  30708c:	e0 00       	mov	#0,r0
  30708e:	e1 14       	mov	#20,r1
  307090:	d0 0f       	mov.l	3070d0 <_dma_transfer_async+0x64>,r0	! 309100 <_memcpy>
  307092:	08 17       	mul.l	r1,r8
  307094:	d4 0f       	mov.l	3070d4 <_dma_transfer_async+0x68>,r4	! 81016ac <_dma_callbacks>
  307096:	e6 14       	mov	#20,r6
  307098:	65 f3       	mov	r15,r5
  30709a:	75 24       	add	#36,r5
  30709c:	01 1a       	sts	macl,r1
  30709e:	40 0b       	jsr	@r0
  3070a0:	34 1c       	add	r1,r4
  3070a2:	d1 0d       	mov.l	3070d8 <_dma_transfer_async+0x6c>,r1	! 81016a4 <_dma_sleep_blocking>
  3070a4:	60 83       	mov	r8,r0
  3070a6:	01 1c       	mov.b	@(r0,r1),r1
  3070a8:	21 18       	tst	r1,r1
  3070aa:	89 02       	bt	3070b2 <_dma_transfer_async+0x46>
  3070ac:	d1 0b       	mov.l	3070dc <_dma_transfer_async+0x70>,r1	! 305014 <_sleep_block>
  3070ae:	41 0b       	jsr	@r1
  3070b0:	00 09       	nop	
  3070b2:	d0 0b       	mov.l	3070e0 <_dma_transfer_async+0x74>,r0	! 306b7c <_dma_channel>
  3070b4:	40 0b       	jsr	@r0
  3070b6:	64 83       	mov	r8,r4
  3070b8:	61 03       	mov	r0,r1
  3070ba:	50 03       	mov.l	@(12,r0),r0
  3070bc:	cb 01       	or	#1,r0
  3070be:	11 03       	mov.l	r0,@(12,r1)
  3070c0:	e0 01       	mov	#1,r0
  3070c2:	7f 10       	add	#16,r15
  3070c4:	4f 26       	lds.l	@r15+,pr
  3070c6:	00 0b       	rts	
  3070c8:	68 f6       	mov.l	@r15+,r8
  3070ca:	00 09       	nop	
  3070cc:	00 30       	.word 0x0030
  3070ce:	6b cc       	extu.b	r12,r11
  3070d0:	00 30       	.word 0x0030
  3070d2:	91 00       	mov.w	3070d6 <_dma_transfer_async+0x6a>,r1	! 16ac
  3070d4:	08 10       	.word 0x0810
  3070d6:	16 ac       	mov.l	r10,@(48,r6)
  3070d8:	08 10       	.word 0x0810
  3070da:	16 a4       	mov.l	r10,@(16,r6)
  3070dc:	00 30       	.word 0x0030
  3070de:	50 14       	mov.l	@(16,r1),r0
  3070e0:	00 30       	.word 0x0030
  3070e2:	6b 7c       	extu.b	r7,r11

003070e4 <_dma_transfer_wait>:
  3070e4:	d1 01       	mov.l	3070ec <_dma_transfer_wait+0x8>,r1	! 306e1c <_dma_channel_wait>
  3070e6:	41 2b       	jmp	@r1
  3070e8:	e5 00       	mov	#0,r5
  3070ea:	00 09       	nop	
  3070ec:	00 30       	.word 0x0030
  3070ee:	6e 1c       	extu.b	r1,r14

003070f0 <_dma_transfer_sync>:
  3070f0:	2f 86       	mov.l	r8,@-r15
  3070f2:	68 53       	mov	r5,r8
  3070f4:	2f 96       	mov.l	r9,@-r15
  3070f6:	e5 00       	mov	#0,r5
  3070f8:	2f a6       	mov.l	r10,@-r15
  3070fa:	69 43       	mov	r4,r9
  3070fc:	2f b6       	mov.l	r11,@-r15
  3070fe:	6a 63       	mov	r6,r10
  307100:	4f 22       	sts.l	pr,@-r15
  307102:	d0 15       	mov.l	307158 <_dma_transfer_sync+0x68>,r0	! 3091c0 <_memset>
  307104:	7f cc       	add	#-52,r15
  307106:	6b 73       	mov	r7,r11
  307108:	e6 14       	mov	#20,r6
  30710a:	64 f3       	mov	r15,r4
  30710c:	40 0b       	jsr	@r0
  30710e:	74 20       	add	#32,r4
  307110:	d0 12       	mov.l	30715c <_dma_transfer_sync+0x6c>,r0	! 309100 <_memcpy>
  307112:	e6 14       	mov	#20,r6
  307114:	65 f3       	mov	r15,r5
  307116:	64 f3       	mov	r15,r4
  307118:	75 20       	add	#32,r5
  30711a:	40 0b       	jsr	@r0
  30711c:	74 0c       	add	#12,r4
  30711e:	e2 40       	mov	#64,r2
  307120:	d0 0f       	mov.l	307160 <_dma_transfer_sync+0x70>,r0	! 30706c <_dma_transfer_async>
  307122:	32 fc       	add	r15,r2
  307124:	65 83       	mov	r8,r5
  307126:	51 24       	mov.l	@(16,r2),r1
  307128:	67 b3       	mov	r11,r7
  30712a:	66 a3       	mov	r10,r6
  30712c:	64 93       	mov	r9,r4
  30712e:	1f 12       	mov.l	r1,@(8,r15)
  307130:	51 23       	mov.l	@(12,r2),r1
  307132:	1f 11       	mov.l	r1,@(4,r15)
  307134:	51 22       	mov.l	@(8,r2),r1
  307136:	40 0b       	jsr	@r0
  307138:	2f 12       	mov.l	r1,@r15
  30713a:	20 08       	tst	r0,r0
  30713c:	8d 03       	bt.s	307146 <_dma_transfer_sync+0x56>
  30713e:	68 03       	mov	r0,r8
  307140:	d1 08       	mov.l	307164 <_dma_transfer_sync+0x74>,r1	! 3070e4 <_dma_transfer_wait>
  307142:	41 0b       	jsr	@r1
  307144:	64 93       	mov	r9,r4
  307146:	60 83       	mov	r8,r0
  307148:	7f 34       	add	#52,r15
  30714a:	4f 26       	lds.l	@r15+,pr
  30714c:	6b f6       	mov.l	@r15+,r11
  30714e:	6a f6       	mov.l	@r15+,r10
  307150:	69 f6       	mov.l	@r15+,r9
  307152:	00 0b       	rts	
  307154:	68 f6       	mov.l	@r15+,r8
  307156:	00 09       	nop	
  307158:	00 30       	.word 0x0030
  30715a:	91 c0       	mov.w	3072de <_gint_default_panic+0xaa>,r1	! 8b01
  30715c:	00 30       	.word 0x0030
  30715e:	91 00       	mov.w	307162 <_dma_transfer_sync+0x72>,r1	! 706c
  307160:	00 30       	.word 0x0030
  307162:	70 6c       	add	#108,r0
  307164:	00 30       	.word 0x0030
  307166:	70 e4       	add	#-28,r0

00307168 <_dma_transfer_atomic>:
  307168:	2f 86       	mov.l	r8,@-r15
  30716a:	e1 00       	mov	#0,r1
  30716c:	4f 22       	sts.l	pr,@-r15
  30716e:	7f f0       	add	#-16,r15
  307170:	d0 14       	mov.l	3071c4 <_dma_transfer_atomic+0x5c>,r0	! 306bcc <_dma_setup>
  307172:	1f 13       	mov.l	r1,@(12,r15)
  307174:	68 43       	mov	r4,r8
  307176:	51 f8       	mov.l	@(32,r15),r1
  307178:	1f 12       	mov.l	r1,@(8,r15)
  30717a:	51 f7       	mov.l	@(28,r15),r1
  30717c:	1f 11       	mov.l	r1,@(4,r15)
  30717e:	51 f6       	mov.l	@(24,r15),r1
  307180:	40 0b       	jsr	@r0
  307182:	2f 12       	mov.l	r1,@r15
  307184:	20 08       	tst	r0,r0
  307186:	8b 19       	bf	3071bc <_dma_transfer_atomic+0x54>
  307188:	d0 0f       	mov.l	3071c8 <_dma_transfer_atomic+0x60>,r0	! 306b7c <_dma_channel>
  30718a:	40 0b       	jsr	@r0
  30718c:	64 83       	mov	r8,r4
  30718e:	61 03       	mov	r0,r1
  307190:	50 03       	mov.l	@(12,r0),r0
  307192:	cb 01       	or	#1,r0
  307194:	11 03       	mov.l	r0,@(12,r1)
  307196:	50 13       	mov.l	@(12,r1),r0
  307198:	c8 02       	tst	#2,r0
  30719a:	89 fc       	bt	307196 <_dma_transfer_atomic+0x2e>
  30719c:	52 13       	mov.l	@(12,r1),r2
  30719e:	e3 fe       	mov	#-2,r3
  3071a0:	e7 fb       	mov	#-5,r7
  3071a2:	22 39       	and	r3,r2
  3071a4:	11 23       	mov.l	r2,@(12,r1)
  3071a6:	e3 fd       	mov	#-3,r3
  3071a8:	52 13       	mov.l	@(12,r1),r2
  3071aa:	22 39       	and	r3,r2
  3071ac:	11 23       	mov.l	r2,@(12,r1)
  3071ae:	d1 07       	mov.l	3071cc <_dma_transfer_atomic+0x64>,r1	! fe008060
  3071b0:	62 11       	mov.w	@r1,r2
  3071b2:	22 79       	and	r7,r2
  3071b4:	21 21       	mov.w	r2,@r1
  3071b6:	62 11       	mov.w	@r1,r2
  3071b8:	22 39       	and	r3,r2
  3071ba:	21 21       	mov.w	r2,@r1
  3071bc:	7f 10       	add	#16,r15
  3071be:	4f 26       	lds.l	@r15+,pr
  3071c0:	00 0b       	rts	
  3071c2:	68 f6       	mov.l	@r15+,r8
  3071c4:	00 30       	.word 0x0030
  3071c6:	6b cc       	extu.b	r12,r11
  3071c8:	00 30       	.word 0x0030
  3071ca:	6b 7c       	extu.b	r7,r11
  3071cc:	fe 00       	.word 0xfe00
  3071ce:	80 60       	mov.b	r0,@(0,r6)

003071d0 <_dma_transfer>:
  3071d0:	2f 86       	mov.l	r8,@-r15
  3071d2:	68 43       	mov	r4,r8
  3071d4:	2f 96       	mov.l	r9,@-r15
  3071d6:	69 53       	mov	r5,r9
  3071d8:	2f a6       	mov.l	r10,@-r15
  3071da:	e5 00       	mov	#0,r5
  3071dc:	2f b6       	mov.l	r11,@-r15
  3071de:	6a 63       	mov	r6,r10
  3071e0:	4f 22       	sts.l	pr,@-r15
  3071e2:	d0 11       	mov.l	307228 <_dma_transfer+0x58>,r0	! 3091c0 <_memset>
  3071e4:	7f cc       	add	#-52,r15
  3071e6:	6b 73       	mov	r7,r11
  3071e8:	e6 14       	mov	#20,r6
  3071ea:	64 f3       	mov	r15,r4
  3071ec:	40 0b       	jsr	@r0
  3071ee:	74 20       	add	#32,r4
  3071f0:	d0 0e       	mov.l	30722c <_dma_transfer+0x5c>,r0	! 309100 <_memcpy>
  3071f2:	e6 14       	mov	#20,r6
  3071f4:	65 f3       	mov	r15,r5
  3071f6:	64 f3       	mov	r15,r4
  3071f8:	75 20       	add	#32,r5
  3071fa:	40 0b       	jsr	@r0
  3071fc:	74 0c       	add	#12,r4
  3071fe:	e2 40       	mov	#64,r2
  307200:	d0 0b       	mov.l	307230 <_dma_transfer+0x60>,r0	! 30706c <_dma_transfer_async>
  307202:	32 fc       	add	r15,r2
  307204:	67 b3       	mov	r11,r7
  307206:	51 24       	mov.l	@(16,r2),r1
  307208:	66 a3       	mov	r10,r6
  30720a:	65 93       	mov	r9,r5
  30720c:	64 83       	mov	r8,r4
  30720e:	1f 12       	mov.l	r1,@(8,r15)
  307210:	51 23       	mov.l	@(12,r2),r1
  307212:	1f 11       	mov.l	r1,@(4,r15)
  307214:	51 22       	mov.l	@(8,r2),r1
  307216:	40 0b       	jsr	@r0
  307218:	2f 12       	mov.l	r1,@r15
  30721a:	7f 34       	add	#52,r15
  30721c:	4f 26       	lds.l	@r15+,pr
  30721e:	6b f6       	mov.l	@r15+,r11
  307220:	6a f6       	mov.l	@r15+,r10
  307222:	69 f6       	mov.l	@r15+,r9
  307224:	00 0b       	rts	
  307226:	68 f6       	mov.l	@r15+,r8
  307228:	00 30       	.word 0x0030
  30722a:	91 c0       	mov.w	3073ae <_gint_default_panic+0x17a>,r1	! 953d
  30722c:	00 30       	.word 0x0030
  30722e:	91 00       	mov.w	307232 <_dma_transfer+0x62>,r1	! 706c
  307230:	00 30       	.word 0x0030
  307232:	70 6c       	add	#108,r0

00307234 <_gint_default_panic>:
  307234:	2f 86       	mov.l	r8,@-r15
  307236:	68 43       	mov	r4,r8
  307238:	2f 96       	mov.l	r9,@-r15
  30723a:	e4 00       	mov	#0,r4
  30723c:	2f a6       	mov.l	r10,@-r15
  30723e:	2f b6       	mov.l	r11,@-r15
  307240:	2f c6       	mov.l	r12,@-r15
  307242:	2f d6       	mov.l	r13,@-r15
  307244:	d0 7b       	mov.l	307434 <_gint_default_panic+0x200>,r0	! 303ce4 <_dfont>
  307246:	4f 22       	sts.l	pr,@-r15
  307248:	0a 42       	stc	spc,r10
  30724a:	d1 7b       	mov.l	307438 <_gint_default_panic+0x204>,r1	! ff00000c
  30724c:	7f f0       	add	#-16,r15
  30724e:	d9 7b       	mov.l	30743c <_gint_default_panic+0x208>,r9	! 303cc0 <_dtext>
  307250:	6d 12       	mov.l	@r1,r13
  307252:	5c 15       	mov.l	@(20,r1),r12
  307254:	40 0b       	jsr	@r0
  307256:	4c 09       	shlr2	r12
  307258:	d1 79       	mov.l	307440 <_gint_default_panic+0x20c>,r1	! 304794 <_dclear>
  30725a:	d4 7a       	mov.l	307444 <_gint_default_panic+0x210>,r4	! ffff
  30725c:	41 0b       	jsr	@r1
  30725e:	00 09       	nop	
  307260:	d7 79       	mov.l	307448 <_gint_default_panic+0x214>,r7	! 30bd18
  307262:	e6 00       	mov	#0,r6
  307264:	e5 03       	mov	#3,r5
  307266:	49 0b       	jsr	@r9
  307268:	e4 06       	mov	#6,r4
  30726a:	d1 78       	mov.l	30744c <_gint_default_panic+0x218>,r1	! 81015c0 <_gint_vram>
  30726c:	63 12       	mov.l	@r1,r3
  30726e:	91 cf       	mov.w	307410 <_gint_default_panic+0x1dc>,r1	! c60
  307270:	62 36       	mov.l	@r3+,r2
  307272:	67 33       	mov	r3,r7
  307274:	77 c0       	add	#-64,r7
  307276:	62 27       	not	r2,r2
  307278:	41 10       	dt	r1
  30727a:	8f f9       	bf.s	307270 <_gint_default_panic+0x3c>
  30727c:	17 2f       	mov.l	r2,@(60,r7)
  30727e:	60 83       	mov	r8,r0
  307280:	88 40       	cmp/eq	#64,r0
  307282:	8f 02       	bf.s	30728a <_gint_default_panic+0x56>
  307284:	88 60       	cmp/eq	#96,r0
  307286:	a0 ae       	bra	3073e6 <_gint_default_panic+0x1b2>
  307288:	00 09       	nop	
  30728a:	d1 71       	mov.l	307450 <_gint_default_panic+0x21c>,r1	! 30bbd4
  30728c:	89 0c       	bt	3072a8 <_gint_default_panic+0x74>
  30728e:	91 c0       	mov.w	307412 <_gint_default_panic+0x1de>,r1	! e0
  307290:	38 10       	cmp/eq	r1,r8
  307292:	d1 70       	mov.l	307454 <_gint_default_panic+0x220>,r1	! 30bbfc
  307294:	89 0d       	bt	3072b2 <_gint_default_panic+0x7e>
  307296:	91 bd       	mov.w	307414 <_gint_default_panic+0x1e0>,r1	! 100
  307298:	38 10       	cmp/eq	r1,r8
  30729a:	d1 6f       	mov.l	307458 <_gint_default_panic+0x224>,r1	! 30bc24
  30729c:	89 0e       	bt	3072bc <_gint_default_panic+0x88>
  30729e:	91 ba       	mov.w	307416 <_gint_default_panic+0x1e2>,r1	! 160
  3072a0:	38 10       	cmp/eq	r1,r8
  3072a2:	d1 6e       	mov.l	30745c <_gint_default_panic+0x228>,r1	! 30bc50
  3072a4:	89 14       	bt	3072d0 <_gint_default_panic+0x9c>
  3072a6:	d1 6e       	mov.l	307460 <_gint_default_panic+0x22c>,r1	! 30bd3c
  3072a8:	92 b6       	mov.w	307418 <_gint_default_panic+0x1e4>,r2	! 180
  3072aa:	38 20       	cmp/eq	r2,r8
  3072ac:	8b 01       	bf	3072b2 <_gint_default_panic+0x7e>
  3072ae:	a0 9d       	bra	3073ec <_gint_default_panic+0x1b8>
  3072b0:	00 09       	nop	
  3072b2:	92 b2       	mov.w	30741a <_gint_default_panic+0x1e6>,r2	! 1a0
  3072b4:	38 20       	cmp/eq	r2,r8
  3072b6:	8b 01       	bf	3072bc <_gint_default_panic+0x88>
  3072b8:	a0 9b       	bra	3073f2 <_gint_default_panic+0x1be>
  3072ba:	00 09       	nop	
  3072bc:	92 ae       	mov.w	30741c <_gint_default_panic+0x1e8>,r2	! 1020
  3072be:	38 20       	cmp/eq	r2,r8
  3072c0:	8b 01       	bf	3072c6 <_gint_default_panic+0x92>
  3072c2:	a0 99       	bra	3073f8 <_gint_default_panic+0x1c4>
  3072c4:	00 09       	nop	
  3072c6:	72 20       	add	#32,r2
  3072c8:	38 20       	cmp/eq	r2,r8
  3072ca:	8b 01       	bf	3072d0 <_gint_default_panic+0x9c>
  3072cc:	a0 97       	bra	3073fe <_gint_default_panic+0x1ca>
  3072ce:	00 09       	nop	
  3072d0:	92 a5       	mov.w	30741e <_gint_default_panic+0x1ea>,r2	! 1060
  3072d2:	38 20       	cmp/eq	r2,r8
  3072d4:	8b 01       	bf	3072da <_gint_default_panic+0xa6>
  3072d6:	a0 95       	bra	307404 <_gint_default_panic+0x1d0>
  3072d8:	00 09       	nop	
  3072da:	92 a1       	mov.w	307420 <_gint_default_panic+0x1ec>,r2	! 1080
  3072dc:	38 20       	cmp/eq	r2,r8
  3072de:	8b 01       	bf	3072e4 <_gint_default_panic+0xb0>
  3072e0:	a0 93       	bra	30740a <_gint_default_panic+0x1d6>
  3072e2:	00 09       	nop	
  3072e4:	db 5f       	mov.l	307464 <_gint_default_panic+0x230>,r11	! 3075e0 <_dprint>
  3072e6:	e6 00       	mov	#0,r6
  3072e8:	1f 11       	mov.l	r1,@(4,r15)
  3072ea:	e5 19       	mov	#25,r5
  3072ec:	d7 5e       	mov.l	307468 <_gint_default_panic+0x234>,r7	! 30bd40
  3072ee:	e4 06       	mov	#6,r4
  3072f0:	4b 0b       	jsr	@r11
  3072f2:	2f 82       	mov.l	r8,@r15
  3072f4:	d7 5d       	mov.l	30746c <_gint_default_panic+0x238>,r7	! 30bd48
  3072f6:	e6 00       	mov	#0,r6
  3072f8:	e5 2d       	mov	#45,r5
  3072fa:	49 0b       	jsr	@r9
  3072fc:	e4 06       	mov	#6,r4
  3072fe:	d7 5c       	mov.l	307470 <_gint_default_panic+0x23c>,r7	! 30bd4c
  307300:	e6 00       	mov	#0,r6
  307302:	e5 2d       	mov	#45,r5
  307304:	2f a2       	mov.l	r10,@r15
  307306:	4b 0b       	jsr	@r11
  307308:	e4 26       	mov	#38,r4
  30730a:	d7 5a       	mov.l	307474 <_gint_default_panic+0x240>,r7	! 30bd54
  30730c:	e6 00       	mov	#0,r6
  30730e:	94 88       	mov.w	307422 <_gint_default_panic+0x1ee>,r4	! 105
  307310:	49 0b       	jsr	@r9
  307312:	e5 2d       	mov	#45,r5
  307314:	d7 58       	mov.l	307478 <_gint_default_panic+0x244>,r7	! 30bd68
  307316:	e6 00       	mov	#0,r6
  307318:	e5 3c       	mov	#60,r5
  30731a:	49 0b       	jsr	@r9
  30731c:	e4 06       	mov	#6,r4
  30731e:	d7 54       	mov.l	307470 <_gint_default_panic+0x23c>,r7	! 30bd4c
  307320:	e6 00       	mov	#0,r6
  307322:	e5 3c       	mov	#60,r5
  307324:	2f d2       	mov.l	r13,@r15
  307326:	4b 0b       	jsr	@r11
  307328:	e4 26       	mov	#38,r4
  30732a:	d7 54       	mov.l	30747c <_gint_default_panic+0x248>,r7	! 30bd6c
  30732c:	e6 00       	mov	#0,r6
  30732e:	94 79       	mov.w	307424 <_gint_default_panic+0x1f0>,r4	! ea
  307330:	49 0b       	jsr	@r9
  307332:	e5 3c       	mov	#60,r5
  307334:	d7 52       	mov.l	307480 <_gint_default_panic+0x24c>,r7	! 30bd80
  307336:	e6 00       	mov	#0,r6
  307338:	e5 4b       	mov	#75,r5
  30733a:	49 0b       	jsr	@r9
  30733c:	e4 06       	mov	#6,r4
  30733e:	d7 51       	mov.l	307484 <_gint_default_panic+0x250>,r7	! 30bd84
  307340:	e6 00       	mov	#0,r6
  307342:	e5 4b       	mov	#75,r5
  307344:	2f c2       	mov.l	r12,@r15
  307346:	4b 0b       	jsr	@r11
  307348:	e4 26       	mov	#38,r4
  30734a:	d7 4f       	mov.l	307488 <_gint_default_panic+0x254>,r7	! 30bd8c
  30734c:	e6 00       	mov	#0,r6
  30734e:	94 6a       	mov.w	307426 <_gint_default_panic+0x1f2>,r4	! 119
  307350:	49 0b       	jsr	@r9
  307352:	e5 4b       	mov	#75,r5
  307354:	d7 4d       	mov.l	30748c <_gint_default_panic+0x258>,r7	! 30bd9c
  307356:	e6 00       	mov	#0,r6
  307358:	e5 5f       	mov	#95,r5
  30735a:	49 0b       	jsr	@r9
  30735c:	e4 06       	mov	#6,r4
  30735e:	d7 4c       	mov.l	307490 <_gint_default_panic+0x25c>,r7	! 30bdcc
  307360:	e6 00       	mov	#0,r6
  307362:	e5 6c       	mov	#108,r5
  307364:	49 0b       	jsr	@r9
  307366:	e4 06       	mov	#6,r4
  307368:	d7 4a       	mov.l	307494 <_gint_default_panic+0x260>,r7	! 30bdfc
  30736a:	e6 00       	mov	#0,r6
  30736c:	e5 79       	mov	#121,r5
  30736e:	49 0b       	jsr	@r9
  307370:	e4 06       	mov	#6,r4
  307372:	91 53       	mov.w	30741c <_gint_default_panic+0x1e8>,r1	! 1020
  307374:	38 10       	cmp/eq	r1,r8
  307376:	89 01       	bt	30737c <_gint_default_panic+0x148>
  307378:	a0 ae       	bra	3074d8 <_gint_default_panic+0x2a4>
  30737a:	00 09       	nop	
  30737c:	d8 46       	mov.l	307498 <_gint_default_panic+0x264>,r8	! fe008020
  30737e:	e6 00       	mov	#0,r6
  307380:	d7 46       	mov.l	30749c <_gint_default_panic+0x268>,r7	! 30be08
  307382:	e4 06       	mov	#6,r4
  307384:	61 82       	mov.l	@r8,r1
  307386:	52 81       	mov.l	@(4,r8),r2
  307388:	53 82       	mov.l	@(8,r8),r3
  30738a:	95 4d       	mov.w	307428 <_gint_default_panic+0x1f4>,r5	! 8d
  30738c:	1f 32       	mov.l	r3,@(8,r15)
  30738e:	1f 21       	mov.l	r2,@(4,r15)
  307390:	4b 0b       	jsr	@r11
  307392:	2f 12       	mov.l	r1,@r15
  307394:	51 83       	mov.l	@(12,r8),r1
  307396:	e6 00       	mov	#0,r6
  307398:	d7 41       	mov.l	3074a0 <_gint_default_panic+0x26c>,r7	! 30be30
  30739a:	e4 06       	mov	#6,r4
  30739c:	95 45       	mov.w	30742a <_gint_default_panic+0x1f6>,r5	! 9a
  30739e:	4b 0b       	jsr	@r11
  3073a0:	2f 12       	mov.l	r1,@r15
  3073a2:	51 84       	mov.l	@(16,r8),r1
  3073a4:	e6 00       	mov	#0,r6
  3073a6:	52 85       	mov.l	@(20,r8),r2
  3073a8:	e4 06       	mov	#6,r4
  3073aa:	53 86       	mov.l	@(24,r8),r3
  3073ac:	d7 3d       	mov.l	3074a4 <_gint_default_panic+0x270>,r7	! 30be3c
  3073ae:	95 3d       	mov.w	30742c <_gint_default_panic+0x1f8>,r5	! a7
  3073b0:	1f 32       	mov.l	r3,@(8,r15)
  3073b2:	1f 21       	mov.l	r2,@(4,r15)
  3073b4:	4b 0b       	jsr	@r11
  3073b6:	2f 12       	mov.l	r1,@r15
  3073b8:	51 87       	mov.l	@(28,r8),r1
  3073ba:	e6 00       	mov	#0,r6
  3073bc:	d7 3a       	mov.l	3074a8 <_gint_default_panic+0x274>,r7	! 30be64
  3073be:	e4 06       	mov	#6,r4
  3073c0:	95 35       	mov.w	30742e <_gint_default_panic+0x1fa>,r5	! b4
  3073c2:	4b 0b       	jsr	@r11
  3073c4:	2f 12       	mov.l	r1,@r15
  3073c6:	d0 39       	mov.l	3074ac <_gint_default_panic+0x278>,r0	! fe008060
  3073c8:	e6 00       	mov	#0,r6
  3073ca:	d7 39       	mov.l	3074b0 <_gint_default_panic+0x27c>,r7	! 30be70
  3073cc:	e4 06       	mov	#6,r4
  3073ce:	85 00       	mov.w	@(0,r0),r0
  3073d0:	95 2e       	mov.w	307430 <_gint_default_panic+0x1fc>,r5	! c1
  3073d2:	4b 0b       	jsr	@r11
  3073d4:	81 f1       	mov.w	r0,@(2,r15)
  3073d6:	d1 37       	mov.l	3074b4 <_gint_default_panic+0x280>,r1	! 3048b4 <_dupdate>
  3073d8:	d8 37       	mov.l	3074b8 <_gint_default_panic+0x284>,r8	! 305000 <_sleep>
  3073da:	41 0b       	jsr	@r1
  3073dc:	00 09       	nop	
  3073de:	48 0b       	jsr	@r8
  3073e0:	00 09       	nop	
  3073e2:	af fc       	bra	3073de <_gint_default_panic+0x1aa>
  3073e4:	00 09       	nop	
  3073e6:	d1 35       	mov.l	3074bc <_gint_default_panic+0x288>,r1	! 30bbac
  3073e8:	af 5e       	bra	3072a8 <_gint_default_panic+0x74>
  3073ea:	00 09       	nop	
  3073ec:	d1 34       	mov.l	3074c0 <_gint_default_panic+0x28c>,r1	! 30bc64
  3073ee:	af 74       	bra	3072da <_gint_default_panic+0xa6>
  3073f0:	00 09       	nop	
  3073f2:	d1 34       	mov.l	3074c4 <_gint_default_panic+0x290>,r1	! 30bc78
  3073f4:	af 76       	bra	3072e4 <_gint_default_panic+0xb0>
  3073f6:	00 09       	nop	
  3073f8:	d1 33       	mov.l	3074c8 <_gint_default_panic+0x294>,r1	! 30bd04
  3073fa:	af 73       	bra	3072e4 <_gint_default_panic+0xb0>
  3073fc:	00 09       	nop	
  3073fe:	d1 33       	mov.l	3074cc <_gint_default_panic+0x298>,r1	! 30bce0
  307400:	af 70       	bra	3072e4 <_gint_default_panic+0xb0>
  307402:	00 09       	nop	
  307404:	d1 32       	mov.l	3074d0 <_gint_default_panic+0x29c>,r1	! 30bc98
  307406:	af 6d       	bra	3072e4 <_gint_default_panic+0xb0>
  307408:	00 09       	nop	
  30740a:	d1 32       	mov.l	3074d4 <_gint_default_panic+0x2a0>,r1	! 30bcbc
  30740c:	af 6a       	bra	3072e4 <_gint_default_panic+0xb0>
  30740e:	00 09       	nop	
  307410:	0c 60       	.word 0x0c60
  307412:	00 e0       	.word 0x00e0
  307414:	01 00       	.word 0x0100
  307416:	01 60       	.word 0x0160
  307418:	01 80       	.word 0x0180
  30741a:	01 a0       	.word 0x01a0
  30741c:	10 20       	mov.l	r2,@(0,r0)
  30741e:	10 60       	mov.l	r6,@(0,r0)
  307420:	10 80       	mov.l	r8,@(0,r0)
  307422:	01 05       	mov.w	r0,@(r0,r1)
  307424:	00 ea       	.word 0x00ea
  307426:	01 19       	.word 0x0119
  307428:	00 8d       	mov.w	@(r0,r8),r0
  30742a:	00 9a       	sts	x1,r0
  30742c:	00 a7       	mul.l	r10,r0
  30742e:	00 b4       	mov.b	r11,@(r0,r0)
  307430:	00 c1       	.word 0x00c1
  307432:	00 09       	nop	
  307434:	00 30       	.word 0x0030
  307436:	3c e4       	div1	r14,r12
  307438:	ff 00       	.word 0xff00
  30743a:	00 0c       	mov.b	@(r0,r0),r0
  30743c:	00 30       	.word 0x0030
  30743e:	3c c0       	cmp/eq	r12,r12
  307440:	00 30       	.word 0x0030
  307442:	47 94       	.word 0x4794
  307444:	00 00       	.word 0x0000
  307446:	ff ff       	.word 0xffff
  307448:	00 30       	.word 0x0030
  30744a:	bd 18       	bsr	306e7e <_dma_channel_wait+0x62>
  30744c:	08 10       	.word 0x0810
  30744e:	15 c0       	mov.l	r12,@(0,r5)
  307450:	00 30       	.word 0x0030
  307452:	bb d4       	bsr	306bfe <_dma_setup+0x32>
  307454:	00 30       	.word 0x0030
  307456:	bb fc       	bsr	306c52 <_dma_setup+0x86>
  307458:	00 30       	.word 0x0030
  30745a:	bc 24       	bsr	306ca6 <_dma_setup+0xda>
  30745c:	00 30       	.word 0x0030
  30745e:	bc 50       	bsr	306d02 <_dma_setup+0x136>
  307460:	00 30       	.word 0x0030
  307462:	bd 3c       	bsr	306ede <_funbind+0x26>
  307464:	00 30       	.word 0x0030
  307466:	75 e0       	add	#-32,r5
  307468:	00 30       	.word 0x0030
  30746a:	bd 40       	bsr	306eee <_configure+0xe>
  30746c:	00 30       	.word 0x0030
  30746e:	bd 48       	bsr	306f02 <_configure+0x22>
  307470:	00 30       	.word 0x0030
  307472:	bd 4c       	bsr	306f0e <_configure+0x2e>
  307474:	00 30       	.word 0x0030
  307476:	bd 54       	bsr	306f22 <_configure+0x42>
  307478:	00 30       	.word 0x0030
  30747a:	bd 68       	bsr	306f4e <_configure+0x6e>
  30747c:	00 30       	.word 0x0030
  30747e:	bd 6c       	bsr	306f5a <_configure+0x7a>
  307480:	00 30       	.word 0x0030
  307482:	bd 80       	bsr	306f86 <_configure+0xa6>
  307484:	00 30       	.word 0x0030
  307486:	bd 84       	bsr	306f92 <_configure+0xb2>
  307488:	00 30       	.word 0x0030
  30748a:	bd 8c       	bsr	306fa6 <_configure+0xc6>
  30748c:	00 30       	.word 0x0030
  30748e:	bd 9c       	bsr	306fca <_configure+0xea>
  307490:	00 30       	.word 0x0030
  307492:	bd cc       	bsr	30702e <_dma_interrupt_transfer_ended+0x62>
  307494:	00 30       	.word 0x0030
  307496:	bd fc       	bsr	307092 <_dma_transfer_async+0x26>
  307498:	fe 00       	.word 0xfe00
  30749a:	80 20       	mov.b	r0,@(0,r2)
  30749c:	00 30       	.word 0x0030
  30749e:	be 08       	bsr	3070b2 <_dma_transfer_async+0x46>
  3074a0:	00 30       	.word 0x0030
  3074a2:	be 30       	bsr	307106 <_dma_transfer_sync+0x16>
  3074a4:	00 30       	.word 0x0030
  3074a6:	be 3c       	bsr	307122 <_dma_transfer_sync+0x32>
  3074a8:	00 30       	.word 0x0030
  3074aa:	be 64       	bsr	307176 <_dma_transfer_atomic+0xe>
  3074ac:	fe 00       	.word 0xfe00
  3074ae:	80 60       	mov.b	r0,@(0,r6)
  3074b0:	00 30       	.word 0x0030
  3074b2:	be 70       	bsr	307196 <_dma_transfer_atomic+0x2e>
  3074b4:	00 30       	.word 0x0030
  3074b6:	48 b4       	.word 0x48b4
  3074b8:	00 30       	.word 0x0030
  3074ba:	50 00       	mov.l	@(0,r0),r0
  3074bc:	00 30       	.word 0x0030
  3074be:	bb ac       	bsr	306c1a <_dma_setup+0x4e>
  3074c0:	00 30       	.word 0x0030
  3074c2:	bc 64       	bsr	306d8e <_hsave+0x16>
  3074c4:	00 30       	.word 0x0030
  3074c6:	bc 78       	bsr	306dba <_hsave+0x42>
  3074c8:	00 30       	.word 0x0030
  3074ca:	bd 04       	bsr	306ed6 <_funbind+0x1e>
  3074cc:	00 30       	.word 0x0030
  3074ce:	bc e0       	bsr	306e92 <_unbind+0x2>
  3074d0:	00 30       	.word 0x0030
  3074d2:	bc 98       	bsr	306e06 <_hrestore+0x42>
  3074d4:	00 30       	.word 0x0030
  3074d6:	bc bc       	bsr	306e52 <_dma_channel_wait+0x36>
  3074d8:	91 15       	mov.w	307506 <_gint_default_panic+0x2d2>,r1	! 180
  3074da:	38 10       	cmp/eq	r1,r8
  3074dc:	8f 11       	bf.s	307502 <_gint_default_panic+0x2ce>
  3074de:	e6 00       	mov	#0,r6
  3074e0:	85 a1       	mov.w	@(2,r10),r0
  3074e2:	d7 0a       	mov.l	30750c <_gint_default_panic+0x2d8>,r7	! 30be7c
  3074e4:	e4 06       	mov	#6,r4
  3074e6:	60 0d       	extu.w	r0,r0
  3074e8:	95 0e       	mov.w	307508 <_gint_default_panic+0x2d4>,r5	! 8d
  3074ea:	1f 03       	mov.l	r0,@(12,r15)
  3074ec:	61 a1       	mov.w	@r10,r1
  3074ee:	7a e0       	add	#-32,r10
  3074f0:	61 1d       	extu.w	r1,r1
  3074f2:	1f 12       	mov.l	r1,@(8,r15)
  3074f4:	85 af       	mov.w	@(30,r10),r0
  3074f6:	60 0d       	extu.w	r0,r0
  3074f8:	1f 01       	mov.l	r0,@(4,r15)
  3074fa:	85 ae       	mov.w	@(28,r10),r0
  3074fc:	6a 0d       	extu.w	r0,r10
  3074fe:	4b 0b       	jsr	@r11
  307500:	2f a2       	mov.l	r10,@r15
  307502:	af 68       	bra	3073d6 <_gint_default_panic+0x1a2>
  307504:	00 09       	nop	
  307506:	01 80       	.word 0x0180
  307508:	00 8d       	mov.w	@(r0,r8),r0
  30750a:	00 09       	nop	
  30750c:	00 30       	.word 0x0030
  30750e:	be 7c       	bsr	30720a <_dma_transfer+0x3a>

00307510 <_gint_panic>:
  307510:	d1 02       	mov.l	30751c <_gint_panic+0xc>,r1	! 8101a8c <_gint_exc_panic>
  307512:	4f 22       	sts.l	pr,@-r15
  307514:	61 12       	mov.l	@r1,r1
  307516:	41 0b       	jsr	@r1
  307518:	00 09       	nop	
  30751a:	00 09       	nop	
  30751c:	08 10       	.word 0x0810
  30751e:	1a 8c       	mov.l	r8,@(48,r10)

00307520 <_gint_panic_set>:
  307520:	24 48       	tst	r4,r4
  307522:	8b 00       	bf	307526 <_gint_panic_set+0x6>
  307524:	d4 01       	mov.l	30752c <_gint_panic_set+0xc>,r4	! 307234 <_gint_default_panic>
  307526:	d1 02       	mov.l	307530 <_gint_panic_set+0x10>,r1	! 8101a8c <_gint_exc_panic>
  307528:	00 0b       	rts	
  30752a:	21 42       	mov.l	r4,@r1
  30752c:	00 30       	.word 0x0030
  30752e:	72 34       	add	#52,r2
  307530:	08 10       	.word 0x0810
  307532:	1a 8c       	mov.l	r8,@(48,r10)

00307534 <_gint_exc_catch>:
  307534:	d1 01       	mov.l	30753c <_gint_exc_catch+0x8>,r1	! 8101724 <_gint_exc_catcher>
  307536:	00 0b       	rts	
  307538:	21 42       	mov.l	r4,@r1
  30753a:	00 09       	nop	
  30753c:	08 10       	.word 0x0810
  30753e:	17 24       	mov.l	r2,@(16,r7)

00307540 <_gint_exc_skip>:
  307540:	34 4c       	add	r4,r4
  307542:	01 42       	stc	spc,r1
  307544:	34 1c       	add	r1,r4
  307546:	44 4e       	ldc	r4,spc
  307548:	00 0b       	rts	
  30754a:	00 09       	nop	

0030754c <_osheap_free>:
  30754c:	d1 01       	mov.l	307554 <_osheap_free+0x8>,r1	! 305624 <___free>
  30754e:	41 2b       	jmp	@r1
  307550:	00 09       	nop	
  307552:	00 09       	nop	
  307554:	00 30       	.word 0x0030
  307556:	56 24       	mov.l	@(16,r2),r6

00307558 <_osheap_realloc>:
  307558:	d0 01       	mov.l	307560 <_osheap_realloc+0x8>,r0	! 305634 <___realloc>
  30755a:	40 2b       	jmp	@r0
  30755c:	00 09       	nop	
  30755e:	00 09       	nop	
  307560:	00 30       	.word 0x0030
  307562:	56 34       	mov.l	@(16,r3),r6

00307564 <_osheap_malloc>:
  307564:	d0 01       	mov.l	30756c <_osheap_malloc+0x8>,r0	! 305610 <___malloc>
  307566:	40 2b       	jmp	@r0
  307568:	00 09       	nop	
  30756a:	00 09       	nop	
  30756c:	00 30       	.word 0x0030
  30756e:	56 10       	mov.l	@(0,r1),r6

00307570 <_dprint_opt>:
  307570:	2f 86       	mov.l	r8,@-r15
  307572:	68 43       	mov	r4,r8
  307574:	2f 96       	mov.l	r9,@-r15
  307576:	69 53       	mov	r5,r9
  307578:	2f a6       	mov.l	r10,@-r15
  30757a:	6a 63       	mov	r6,r10
  30757c:	2f b6       	mov.l	r11,@-r15
  30757e:	6b 73       	mov	r7,r11
  307580:	2f c6       	mov.l	r12,@-r15
  307582:	4f 22       	sts.l	pr,@-r15
  307584:	91 23       	mov.w	3075ce <_dprint_opt+0x5e>,r1	! 214
  307586:	90 23       	mov.w	3075d0 <_dprint_opt+0x60>,r0	! 234
  307588:	3f 18       	sub	r1,r15
  30758a:	97 22       	mov.w	3075d2 <_dprint_opt+0x62>,r7	! 238
  30758c:	06 fe       	mov.l	@(r0,r15),r6
  30758e:	6c f3       	mov	r15,r12
  307590:	d0 11       	mov.l	3075d8 <_dprint_opt+0x68>,r0	! 308e78 <_vsnprintf>
  307592:	37 fc       	add	r15,r7
  307594:	7c 14       	add	#20,r12
  307596:	1f 74       	mov.l	r7,@(16,r15)
  307598:	95 1c       	mov.w	3075d4 <_dprint_opt+0x64>,r5	! 200
  30759a:	40 0b       	jsr	@r0
  30759c:	64 c3       	mov	r12,r4
  30759e:	92 1a       	mov.w	3075d6 <_dprint_opt+0x66>,r2	! 1fc
  3075a0:	e1 ff       	mov	#-1,r1
  3075a2:	1f 13       	mov.l	r1,@(12,r15)
  3075a4:	67 b3       	mov	r11,r7
  3075a6:	1f c2       	mov.l	r12,@(8,r15)
  3075a8:	32 fc       	add	r15,r2
  3075aa:	51 2d       	mov.l	@(52,r2),r1
  3075ac:	66 a3       	mov	r10,r6
  3075ae:	65 93       	mov	r9,r5
  3075b0:	1f 11       	mov.l	r1,@(4,r15)
  3075b2:	51 2c       	mov.l	@(48,r2),r1
  3075b4:	2f 12       	mov.l	r1,@r15
  3075b6:	d1 09       	mov.l	3075dc <_dprint_opt+0x6c>,r1	! 3049ec <_dtext_opt>
  3075b8:	41 0b       	jsr	@r1
  3075ba:	64 83       	mov	r8,r4
  3075bc:	97 07       	mov.w	3075ce <_dprint_opt+0x5e>,r7	! 214
  3075be:	3f 7c       	add	r7,r15
  3075c0:	4f 26       	lds.l	@r15+,pr
  3075c2:	6c f6       	mov.l	@r15+,r12
  3075c4:	6b f6       	mov.l	@r15+,r11
  3075c6:	6a f6       	mov.l	@r15+,r10
  3075c8:	69 f6       	mov.l	@r15+,r9
  3075ca:	00 0b       	rts	
  3075cc:	68 f6       	mov.l	@r15+,r8
  3075ce:	02 14       	mov.b	r1,@(r0,r2)
  3075d0:	02 34       	mov.b	r3,@(r0,r2)
  3075d2:	02 38       	.word 0x0238
  3075d4:	02 00       	.word 0x0200
  3075d6:	01 fc       	mov.b	@(r0,r15),r1
  3075d8:	00 30       	.word 0x0030
  3075da:	8e 78       	ldre	3076ce <_new_BigM+0x2e>	! 5638
  3075dc:	00 30       	.word 0x0030
  3075de:	49 ec       	shad	r14,r9

003075e0 <_dprint>:
  3075e0:	2f 86       	mov.l	r8,@-r15
  3075e2:	68 43       	mov	r4,r8
  3075e4:	2f 96       	mov.l	r9,@-r15
  3075e6:	69 53       	mov	r5,r9
  3075e8:	2f a6       	mov.l	r10,@-r15
  3075ea:	6a 63       	mov	r6,r10
  3075ec:	4f 22       	sts.l	pr,@-r15
  3075ee:	91 18       	mov.w	307622 <_dprint+0x42>,r1	! 204
  3075f0:	66 73       	mov	r7,r6
  3075f2:	d0 0d       	mov.l	307628 <_dprint+0x48>,r0	! 308e78 <_vsnprintf>
  3075f4:	3f 18       	sub	r1,r15
  3075f6:	91 15       	mov.w	307624 <_dprint+0x44>,r1	! 214
  3075f8:	95 15       	mov.w	307626 <_dprint+0x46>,r5	! 200
  3075fa:	64 f3       	mov	r15,r4
  3075fc:	31 fc       	add	r15,r1
  3075fe:	2f 12       	mov.l	r1,@r15
  307600:	67 13       	mov	r1,r7
  307602:	40 0b       	jsr	@r0
  307604:	74 04       	add	#4,r4
  307606:	d1 09       	mov.l	30762c <_dprint+0x4c>,r1	! 303cc0 <_dtext>
  307608:	67 f3       	mov	r15,r7
  30760a:	66 a3       	mov	r10,r6
  30760c:	77 04       	add	#4,r7
  30760e:	65 93       	mov	r9,r5
  307610:	41 0b       	jsr	@r1
  307612:	64 83       	mov	r8,r4
  307614:	97 05       	mov.w	307622 <_dprint+0x42>,r7	! 204
  307616:	3f 7c       	add	r7,r15
  307618:	4f 26       	lds.l	@r15+,pr
  30761a:	6a f6       	mov.l	@r15+,r10
  30761c:	69 f6       	mov.l	@r15+,r9
  30761e:	00 0b       	rts	
  307620:	68 f6       	mov.l	@r15+,r8
  307622:	02 04       	mov.b	r0,@(r0,r2)
  307624:	02 14       	mov.b	r1,@(r0,r2)
  307626:	02 00       	.word 0x0200
  307628:	00 30       	.word 0x0030
  30762a:	8e 78       	ldre	30771e <_BigM_zero+0x20>	! 6713
  30762c:	00 30       	.word 0x0030
  30762e:	3c c0       	cmp/eq	r12,r12

00307630 <_cpu_csleep_init>:
  307630:	d1 03       	mov.l	307640 <.memcpy>,r1	! 309100 <_memcpy>
  307632:	c7 13       	mova	307680 <sleep>,r0
  307634:	65 03       	mov	r0,r5
  307636:	41 2b       	jmp	@r1
  307638:	e6 14       	mov	#20,r6
  30763a:	00 09       	nop	
  30763c:	00 09       	nop	
  30763e:	00 09       	nop	

00307640 <.memcpy>:
  307640:	00 30       	.word 0x0030
  307642:	91 00       	mov.w	307646 <_cpu_csleep+0x2>,r1	! 4f22

00307644 <_cpu_csleep>:
  307644:	2f 86       	mov.l	r8,@-r15
  307646:	4f 22       	sts.l	pr,@-r15
  307648:	68 43       	mov	r4,r8
  30764a:	85 84       	mov.w	@(8,r8),r0
  30764c:	60 0d       	extu.w	r0,r0
  30764e:	88 1b       	cmp/eq	#27,r0
  307650:	8b 07       	bf	307662 <_cpu_csleep+0x1e>
  307652:	60 83       	mov	r8,r0
  307654:	00 e3       	icbi	@r0
  307656:	70 12       	add	#18,r0
  307658:	00 e3       	icbi	@r0
  30765a:	48 0b       	jsr	@r8
  30765c:	00 09       	nop	
  30765e:	af f4       	bra	30764a <_cpu_csleep+0x6>
  307660:	00 09       	nop	
  307662:	4f 26       	lds.l	@r15+,pr
  307664:	00 0b       	rts	
  307666:	68 f6       	mov.l	@r15+,r8

00307668 <_cpu_csleep_cancel>:
  307668:	e0 09       	mov	#9,r0
  30766a:	74 08       	add	#8,r4
  30766c:	24 01       	mov.w	r0,@r4
  30766e:	04 e3       	icbi	@r4
  307670:	00 0b       	rts	
  307672:	00 09       	nop	
  307674:	00 09       	nop	
  307676:	00 09       	nop	
  307678:	00 09       	nop	
  30767a:	00 09       	nop	
  30767c:	00 09       	nop	
  30767e:	00 09       	nop	

00307680 <sleep>:
  307680:	d0 03       	mov.l	307690 <sleep+0x10>,r0	! 81015d4 <_cpu_sleep_block_counter>
  307682:	60 02       	mov.l	@r0,r0
  307684:	40 15       	cmp/pl	r0
  307686:	89 00       	bt	30768a <sleep+0xa>
  307688:	00 1b       	sleep	
  30768a:	00 0b       	rts	
  30768c:	00 09       	nop	
  30768e:	00 09       	nop	
  307690:	08 10       	.word 0x0810
  307692:	15 d4       	mov.l	r13,@(16,r5)

00307694 <sleep_end>:
  307694:	00 09       	nop	
  307696:	00 09       	nop	
  307698:	00 09       	nop	
  30769a:	00 09       	nop	
  30769c:	00 09       	nop	
  30769e:	00 09       	nop	

003076a0 <_new_BigM>:
  3076a0:	2f e6       	mov.l	r14,@-r15
  3076a2:	7f e0       	add	#-32,r15
  3076a4:	6e f3       	mov	r15,r14
  3076a6:	61 e3       	mov	r14,r1
  3076a8:	71 e0       	add	#-32,r1
  3076aa:	11 4a       	mov.l	r4,@(40,r1)
  3076ac:	11 5b       	mov.l	r5,@(44,r1)
  3076ae:	61 e3       	mov	r14,r1
  3076b0:	71 e0       	add	#-32,r1
  3076b2:	11 68       	mov.l	r6,@(32,r1)
  3076b4:	11 79       	mov.l	r7,@(36,r1)
  3076b6:	61 e3       	mov	r14,r1
  3076b8:	71 10       	add	#16,r1
  3076ba:	63 e3       	mov	r14,r3
  3076bc:	73 e0       	add	#-32,r3
  3076be:	56 3a       	mov.l	@(40,r3),r6
  3076c0:	57 3b       	mov.l	@(44,r3),r7
  3076c2:	21 62       	mov.l	r6,@r1
  3076c4:	11 71       	mov.l	r7,@(4,r1)
  3076c6:	61 e3       	mov	r14,r1
  3076c8:	71 10       	add	#16,r1
  3076ca:	63 e3       	mov	r14,r3
  3076cc:	73 e0       	add	#-32,r3
  3076ce:	56 38       	mov.l	@(32,r3),r6
  3076d0:	57 39       	mov.l	@(36,r3),r7
  3076d2:	11 62       	mov.l	r6,@(8,r1)
  3076d4:	11 73       	mov.l	r7,@(12,r1)
  3076d6:	61 e3       	mov	r14,r1
  3076d8:	71 10       	add	#16,r1
  3076da:	63 12       	mov.l	@r1,r3
  3076dc:	22 32       	mov.l	r3,@r2
  3076de:	71 04       	add	#4,r1
  3076e0:	63 12       	mov.l	@r1,r3
  3076e2:	12 31       	mov.l	r3,@(4,r2)
  3076e4:	71 04       	add	#4,r1
  3076e6:	63 12       	mov.l	@r1,r3
  3076e8:	12 32       	mov.l	r3,@(8,r2)
  3076ea:	71 04       	add	#4,r1
  3076ec:	63 12       	mov.l	@r1,r3
  3076ee:	12 33       	mov.l	r3,@(12,r2)
  3076f0:	71 04       	add	#4,r1
  3076f2:	60 23       	mov	r2,r0
  3076f4:	7e 20       	add	#32,r14
  3076f6:	6f e3       	mov	r14,r15
  3076f8:	6e f6       	mov.l	@r15+,r14
  3076fa:	00 0b       	rts	
  3076fc:	00 09       	nop	

003076fe <_BigM_zero>:
  3076fe:	2f 86       	mov.l	r8,@-r15
  307700:	2f a6       	mov.l	r10,@-r15
  307702:	2f b6       	mov.l	r11,@-r15
  307704:	2f e6       	mov.l	r14,@-r15
  307706:	4f 22       	sts.l	pr,@-r15
  307708:	6e f3       	mov	r15,r14
  30770a:	68 23       	mov	r2,r8
  30770c:	d1 0c       	mov.l	307740 <_BigM_zero+0x42>,r1	! 308344 <_fraction_zero>
  30770e:	41 0b       	jsr	@r1
  307710:	00 09       	nop	
  307712:	6a 03       	mov	r0,r10
  307714:	6b 13       	mov	r1,r11
  307716:	d1 0a       	mov.l	307740 <_BigM_zero+0x42>,r1	! 308344 <_fraction_zero>
  307718:	41 0b       	jsr	@r1
  30771a:	00 09       	nop	
  30771c:	66 03       	mov	r0,r6
  30771e:	67 13       	mov	r1,r7
  307720:	62 83       	mov	r8,r2
  307722:	64 a3       	mov	r10,r4
  307724:	65 b3       	mov	r11,r5
  307726:	d1 07       	mov.l	307744 <_BigM_zero+0x46>,r1	! 3076a0 <_new_BigM>
  307728:	41 0b       	jsr	@r1
  30772a:	00 09       	nop	
  30772c:	60 83       	mov	r8,r0
  30772e:	6f e3       	mov	r14,r15
  307730:	4f 26       	lds.l	@r15+,pr
  307732:	6e f6       	mov.l	@r15+,r14
  307734:	6b f6       	mov.l	@r15+,r11
  307736:	6a f6       	mov.l	@r15+,r10
  307738:	68 f6       	mov.l	@r15+,r8
  30773a:	00 0b       	rts	
  30773c:	00 09       	nop	
  30773e:	00 09       	nop	
  307740:	00 30       	.word 0x0030
  307742:	83 44       	.word 0x8344
  307744:	00 30       	.word 0x0030
  307746:	76 a0       	add	#-96,r6

00307748 <_BigM_one>:
  307748:	2f 86       	mov.l	r8,@-r15
  30774a:	2f a6       	mov.l	r10,@-r15
  30774c:	2f b6       	mov.l	r11,@-r15
  30774e:	2f e6       	mov.l	r14,@-r15
  307750:	4f 22       	sts.l	pr,@-r15
  307752:	6e f3       	mov	r15,r14
  307754:	68 23       	mov	r2,r8
  307756:	e5 01       	mov	#1,r5
  307758:	e4 01       	mov	#1,r4
  30775a:	d1 0c       	mov.l	30778c <_BigM_one+0x44>,r1	! 3081fc <_new_fraction>
  30775c:	41 0b       	jsr	@r1
  30775e:	00 09       	nop	
  307760:	6a 03       	mov	r0,r10
  307762:	6b 13       	mov	r1,r11
  307764:	d1 0a       	mov.l	307790 <_BigM_one+0x48>,r1	! 308344 <_fraction_zero>
  307766:	41 0b       	jsr	@r1
  307768:	00 09       	nop	
  30776a:	66 03       	mov	r0,r6
  30776c:	67 13       	mov	r1,r7
  30776e:	62 83       	mov	r8,r2
  307770:	64 a3       	mov	r10,r4
  307772:	65 b3       	mov	r11,r5
  307774:	d1 07       	mov.l	307794 <_BigM_one+0x4c>,r1	! 3076a0 <_new_BigM>
  307776:	41 0b       	jsr	@r1
  307778:	00 09       	nop	
  30777a:	60 83       	mov	r8,r0
  30777c:	6f e3       	mov	r14,r15
  30777e:	4f 26       	lds.l	@r15+,pr
  307780:	6e f6       	mov.l	@r15+,r14
  307782:	6b f6       	mov.l	@r15+,r11
  307784:	6a f6       	mov.l	@r15+,r10
  307786:	68 f6       	mov.l	@r15+,r8
  307788:	00 0b       	rts	
  30778a:	00 09       	nop	
  30778c:	00 30       	.word 0x0030
  30778e:	81 fc       	mov.w	r0,@(24,r15)
  307790:	00 30       	.word 0x0030
  307792:	83 44       	.word 0x8344
  307794:	00 30       	.word 0x0030
  307796:	76 a0       	add	#-96,r6

00307798 <_BigM_str>:
  307798:	2f 86       	mov.l	r8,@-r15
  30779a:	2f e6       	mov.l	r14,@-r15
  30779c:	4f 22       	sts.l	pr,@-r15
  30779e:	7f ec       	add	#-20,r15
  3077a0:	6e f3       	mov	r15,r14
  3077a2:	61 e3       	mov	r14,r1
  3077a4:	21 42       	mov.l	r4,@r1
  3077a6:	11 51       	mov.l	r5,@(4,r1)
  3077a8:	11 62       	mov.l	r6,@(8,r1)
  3077aa:	11 73       	mov.l	r7,@(12,r1)
  3077ac:	68 e3       	mov	r14,r8
  3077ae:	78 d4       	add	#-44,r8
  3077b0:	e5 01       	mov	#1,r5
  3077b2:	e4 19       	mov	#25,r4
  3077b4:	d1 6a       	mov.l	307960 <_BigM_str+0x1c8>,r1	! 308ee0 <_calloc>
  3077b6:	41 0b       	jsr	@r1
  3077b8:	00 09       	nop	
  3077ba:	61 03       	mov	r0,r1
  3077bc:	18 1f       	mov.l	r1,@(60,r8)
  3077be:	61 e3       	mov	r14,r1
  3077c0:	64 12       	mov.l	@r1,r4
  3077c2:	55 11       	mov.l	@(4,r1),r5
  3077c4:	d1 67       	mov.l	307964 <_BigM_str+0x1cc>,r1	! 308358 <_fraction_is_zero>
  3077c6:	41 0b       	jsr	@r1
  3077c8:	00 09       	nop	
  3077ca:	61 03       	mov	r0,r1
  3077cc:	e2 01       	mov	#1,r2
  3077ce:	21 2a       	xor	r2,r1
  3077d0:	61 1c       	extu.b	r1,r1
  3077d2:	21 18       	tst	r1,r1
  3077d4:	8b 01       	bf	3077da <_BigM_str+0x42>
  3077d6:	a0 7b       	bra	3078d0 <_BigM_str+0x138>
  3077d8:	00 09       	nop	
  3077da:	61 e3       	mov	r14,r1
  3077dc:	56 e8       	mov.l	@(32,r14),r6
  3077de:	64 12       	mov.l	@r1,r4
  3077e0:	55 11       	mov.l	@(4,r1),r5
  3077e2:	d1 61       	mov.l	307968 <_BigM_str+0x1d0>,r1	! 3082b8 <_fraction_str>
  3077e4:	41 0b       	jsr	@r1
  3077e6:	00 09       	nop	
  3077e8:	61 03       	mov	r0,r1
  3077ea:	1e 18       	mov.l	r1,@(32,r14)
  3077ec:	61 e3       	mov	r14,r1
  3077ee:	71 d4       	add	#-44,r1
  3077f0:	55 e8       	mov.l	@(32,r14),r5
  3077f2:	54 1f       	mov.l	@(60,r1),r4
  3077f4:	d1 5d       	mov.l	30796c <_BigM_str+0x1d4>,r1	! 308f5c <_strcat>
  3077f6:	41 0b       	jsr	@r1
  3077f8:	00 09       	nop	
  3077fa:	61 e3       	mov	r14,r1
  3077fc:	54 12       	mov.l	@(8,r1),r4
  3077fe:	55 13       	mov.l	@(12,r1),r5
  307800:	d1 58       	mov.l	307964 <_BigM_str+0x1cc>,r1	! 308358 <_fraction_is_zero>
  307802:	41 0b       	jsr	@r1
  307804:	00 09       	nop	
  307806:	61 03       	mov	r0,r1
  307808:	e2 01       	mov	#1,r2
  30780a:	21 2a       	xor	r2,r1
  30780c:	61 1c       	extu.b	r1,r1
  30780e:	21 18       	tst	r1,r1
  307810:	89 58       	bt	3078c4 <_BigM_str+0x12c>
  307812:	d1 57       	mov.l	307970 <_BigM_str+0x1d8>,r1	! 308344 <_fraction_zero>
  307814:	41 0b       	jsr	@r1
  307816:	00 09       	nop	
  307818:	62 03       	mov	r0,r2
  30781a:	63 13       	mov	r1,r3
  30781c:	61 e3       	mov	r14,r1
  30781e:	66 23       	mov	r2,r6
  307820:	67 33       	mov	r3,r7
  307822:	54 12       	mov.l	@(8,r1),r4
  307824:	55 13       	mov.l	@(12,r1),r5
  307826:	d1 53       	mov.l	307974 <_BigM_str+0x1dc>,r1	! 308560 <_fraction_lt>
  307828:	41 0b       	jsr	@r1
  30782a:	00 09       	nop	
  30782c:	61 03       	mov	r0,r1
  30782e:	21 18       	tst	r1,r1
  307830:	89 28       	bt	307884 <_BigM_str+0xec>
  307832:	d2 51       	mov.l	307978 <_BigM_str+0x1e0>,r2	! 30bea0
  307834:	61 e3       	mov	r14,r1
  307836:	71 d4       	add	#-44,r1
  307838:	65 23       	mov	r2,r5
  30783a:	54 1f       	mov.l	@(60,r1),r4
  30783c:	d1 4b       	mov.l	30796c <_BigM_str+0x1d4>,r1	! 308f5c <_strcat>
  30783e:	41 0b       	jsr	@r1
  307840:	00 09       	nop	
  307842:	61 e3       	mov	r14,r1
  307844:	54 12       	mov.l	@(8,r1),r4
  307846:	55 13       	mov.l	@(12,r1),r5
  307848:	d1 4c       	mov.l	30797c <_BigM_str+0x1e4>,r1	! 308450 <_abs_fraction>
  30784a:	41 0b       	jsr	@r1
  30784c:	00 09       	nop	
  30784e:	62 03       	mov	r0,r2
  307850:	63 13       	mov	r1,r3
  307852:	56 e8       	mov.l	@(32,r14),r6
  307854:	64 23       	mov	r2,r4
  307856:	65 33       	mov	r3,r5
  307858:	d1 43       	mov.l	307968 <_BigM_str+0x1d0>,r1	! 3082b8 <_fraction_str>
  30785a:	41 0b       	jsr	@r1
  30785c:	00 09       	nop	
  30785e:	61 03       	mov	r0,r1
  307860:	1e 18       	mov.l	r1,@(32,r14)
  307862:	61 e3       	mov	r14,r1
  307864:	71 d4       	add	#-44,r1
  307866:	55 e8       	mov.l	@(32,r14),r5
  307868:	54 1f       	mov.l	@(60,r1),r4
  30786a:	d1 40       	mov.l	30796c <_BigM_str+0x1d4>,r1	! 308f5c <_strcat>
  30786c:	41 0b       	jsr	@r1
  30786e:	00 09       	nop	
  307870:	d2 43       	mov.l	307980 <_BigM_str+0x1e8>,r2	! 30bea4
  307872:	61 e3       	mov	r14,r1
  307874:	71 d4       	add	#-44,r1
  307876:	65 23       	mov	r2,r5
  307878:	54 1f       	mov.l	@(60,r1),r4
  30787a:	d1 3c       	mov.l	30796c <_BigM_str+0x1d4>,r1	! 308f5c <_strcat>
  30787c:	41 0b       	jsr	@r1
  30787e:	00 09       	nop	
  307880:	a0 20       	bra	3078c4 <_BigM_str+0x12c>
  307882:	00 09       	nop	
  307884:	d2 3f       	mov.l	307984 <_BigM_str+0x1ec>,r2	! 30bea8
  307886:	61 e3       	mov	r14,r1
  307888:	71 d4       	add	#-44,r1
  30788a:	65 23       	mov	r2,r5
  30788c:	54 1f       	mov.l	@(60,r1),r4
  30788e:	d1 37       	mov.l	30796c <_BigM_str+0x1d4>,r1	! 308f5c <_strcat>
  307890:	41 0b       	jsr	@r1
  307892:	00 09       	nop	
  307894:	61 e3       	mov	r14,r1
  307896:	56 e8       	mov.l	@(32,r14),r6
  307898:	54 12       	mov.l	@(8,r1),r4
  30789a:	55 13       	mov.l	@(12,r1),r5
  30789c:	d1 32       	mov.l	307968 <_BigM_str+0x1d0>,r1	! 3082b8 <_fraction_str>
  30789e:	41 0b       	jsr	@r1
  3078a0:	00 09       	nop	
  3078a2:	61 03       	mov	r0,r1
  3078a4:	1e 18       	mov.l	r1,@(32,r14)
  3078a6:	61 e3       	mov	r14,r1
  3078a8:	71 d4       	add	#-44,r1
  3078aa:	55 e8       	mov.l	@(32,r14),r5
  3078ac:	54 1f       	mov.l	@(60,r1),r4
  3078ae:	d1 2f       	mov.l	30796c <_BigM_str+0x1d4>,r1	! 308f5c <_strcat>
  3078b0:	41 0b       	jsr	@r1
  3078b2:	00 09       	nop	
  3078b4:	d2 32       	mov.l	307980 <_BigM_str+0x1e8>,r2	! 30bea4
  3078b6:	61 e3       	mov	r14,r1
  3078b8:	71 d4       	add	#-44,r1
  3078ba:	65 23       	mov	r2,r5
  3078bc:	54 1f       	mov.l	@(60,r1),r4
  3078be:	d1 2b       	mov.l	30796c <_BigM_str+0x1d4>,r1	! 308f5c <_strcat>
  3078c0:	41 0b       	jsr	@r1
  3078c2:	00 09       	nop	
  3078c4:	54 e8       	mov.l	@(32,r14),r4
  3078c6:	d1 30       	mov.l	307988 <_BigM_str+0x1f0>,r1	! 309244 <_free>
  3078c8:	41 0b       	jsr	@r1
  3078ca:	00 09       	nop	
  3078cc:	a0 32       	bra	307934 <_BigM_str+0x19c>
  3078ce:	00 09       	nop	
  3078d0:	61 e3       	mov	r14,r1
  3078d2:	54 12       	mov.l	@(8,r1),r4
  3078d4:	55 13       	mov.l	@(12,r1),r5
  3078d6:	d1 23       	mov.l	307964 <_BigM_str+0x1cc>,r1	! 308358 <_fraction_is_zero>
  3078d8:	41 0b       	jsr	@r1
  3078da:	00 09       	nop	
  3078dc:	61 03       	mov	r0,r1
  3078de:	e2 01       	mov	#1,r2
  3078e0:	21 2a       	xor	r2,r1
  3078e2:	61 1c       	extu.b	r1,r1
  3078e4:	21 18       	tst	r1,r1
  3078e6:	89 1d       	bt	307924 <_BigM_str+0x18c>
  3078e8:	61 e3       	mov	r14,r1
  3078ea:	56 e8       	mov.l	@(32,r14),r6
  3078ec:	54 12       	mov.l	@(8,r1),r4
  3078ee:	55 13       	mov.l	@(12,r1),r5
  3078f0:	d1 1d       	mov.l	307968 <_BigM_str+0x1d0>,r1	! 3082b8 <_fraction_str>
  3078f2:	41 0b       	jsr	@r1
  3078f4:	00 09       	nop	
  3078f6:	61 03       	mov	r0,r1
  3078f8:	1e 18       	mov.l	r1,@(32,r14)
  3078fa:	61 e3       	mov	r14,r1
  3078fc:	71 d4       	add	#-44,r1
  3078fe:	55 e8       	mov.l	@(32,r14),r5
  307900:	54 1f       	mov.l	@(60,r1),r4
  307902:	d1 1a       	mov.l	30796c <_BigM_str+0x1d4>,r1	! 308f5c <_strcat>
  307904:	41 0b       	jsr	@r1
  307906:	00 09       	nop	
  307908:	d2 1d       	mov.l	307980 <_BigM_str+0x1e8>,r2	! 30bea4
  30790a:	61 e3       	mov	r14,r1
  30790c:	71 d4       	add	#-44,r1
  30790e:	65 23       	mov	r2,r5
  307910:	54 1f       	mov.l	@(60,r1),r4
  307912:	d1 16       	mov.l	30796c <_BigM_str+0x1d4>,r1	! 308f5c <_strcat>
  307914:	41 0b       	jsr	@r1
  307916:	00 09       	nop	
  307918:	54 e8       	mov.l	@(32,r14),r4
  30791a:	d1 1b       	mov.l	307988 <_BigM_str+0x1f0>,r1	! 309244 <_free>
  30791c:	41 0b       	jsr	@r1
  30791e:	00 09       	nop	
  307920:	a0 08       	bra	307934 <_BigM_str+0x19c>
  307922:	00 09       	nop	
  307924:	d2 19       	mov.l	30798c <_BigM_str+0x1f4>,r2	! 30beac
  307926:	61 e3       	mov	r14,r1
  307928:	71 d4       	add	#-44,r1
  30792a:	65 23       	mov	r2,r5
  30792c:	54 1f       	mov.l	@(60,r1),r4
  30792e:	d1 0f       	mov.l	30796c <_BigM_str+0x1d4>,r1	! 308f5c <_strcat>
  307930:	41 0b       	jsr	@r1
  307932:	00 09       	nop	
  307934:	61 e3       	mov	r14,r1
  307936:	71 d4       	add	#-44,r1
  307938:	55 1f       	mov.l	@(60,r1),r5
  30793a:	54 e8       	mov.l	@(32,r14),r4
  30793c:	d1 14       	mov.l	307990 <_BigM_str+0x1f8>,r1	! 308fb6 <_strcpy>
  30793e:	41 0b       	jsr	@r1
  307940:	00 09       	nop	
  307942:	61 e3       	mov	r14,r1
  307944:	71 d4       	add	#-44,r1
  307946:	54 1f       	mov.l	@(60,r1),r4
  307948:	d1 0f       	mov.l	307988 <_BigM_str+0x1f0>,r1	! 309244 <_free>
  30794a:	41 0b       	jsr	@r1
  30794c:	00 09       	nop	
  30794e:	51 e8       	mov.l	@(32,r14),r1
  307950:	60 13       	mov	r1,r0
  307952:	7e 14       	add	#20,r14
  307954:	6f e3       	mov	r14,r15
  307956:	4f 26       	lds.l	@r15+,pr
  307958:	6e f6       	mov.l	@r15+,r14
  30795a:	68 f6       	mov.l	@r15+,r8
  30795c:	00 0b       	rts	
  30795e:	00 09       	nop	
  307960:	00 30       	.word 0x0030
  307962:	8e e0       	ldre	307b26 <_mul_BigM+0xba>	! 62e3
  307964:	00 30       	.word 0x0030
  307966:	83 58       	.word 0x8358
  307968:	00 30       	.word 0x0030
  30796a:	82 b8       	setrc	#184
  30796c:	00 30       	.word 0x0030
  30796e:	8f 5c       	bf.s	307a2a <_sub_BigM+0x2a>
  307970:	00 30       	.word 0x0030
  307972:	83 44       	.word 0x8344
  307974:	00 30       	.word 0x0030
  307976:	85 60       	mov.w	@(0,r6),r0
  307978:	00 30       	.word 0x0030
  30797a:	be a0       	bsr	3076be <_new_BigM+0x1e>
  30797c:	00 30       	.word 0x0030
  30797e:	84 50       	mov.b	@(0,r5),r0
  307980:	00 30       	.word 0x0030
  307982:	be a4       	bsr	3076ce <_new_BigM+0x2e>
  307984:	00 30       	.word 0x0030
  307986:	be a8       	bsr	3076da <_new_BigM+0x3a>
  307988:	00 30       	.word 0x0030
  30798a:	92 44       	mov.w	307a16 <_sub_BigM+0x16>,r2	! 1162
  30798c:	00 30       	.word 0x0030
  30798e:	be ac       	bsr	3076ea <_new_BigM+0x4a>
  307990:	00 30       	.word 0x0030
  307992:	8f b6       	bf.s	307902 <_BigM_str+0x16a>

00307994 <_add_BigM>:
  307994:	2f 86       	mov.l	r8,@-r15
  307996:	2f a6       	mov.l	r10,@-r15
  307998:	2f b6       	mov.l	r11,@-r15
  30799a:	2f e6       	mov.l	r14,@-r15
  30799c:	4f 22       	sts.l	pr,@-r15
  30799e:	7f f0       	add	#-16,r15
  3079a0:	6e f3       	mov	r15,r14
  3079a2:	68 23       	mov	r2,r8
  3079a4:	61 e3       	mov	r14,r1
  3079a6:	21 42       	mov.l	r4,@r1
  3079a8:	11 51       	mov.l	r5,@(4,r1)
  3079aa:	11 62       	mov.l	r6,@(8,r1)
  3079ac:	11 73       	mov.l	r7,@(12,r1)
  3079ae:	61 e3       	mov	r14,r1
  3079b0:	56 e9       	mov.l	@(36,r14),r6
  3079b2:	57 ea       	mov.l	@(40,r14),r7
  3079b4:	64 12       	mov.l	@r1,r4
  3079b6:	55 11       	mov.l	@(4,r1),r5
  3079b8:	d1 0f       	mov.l	3079f8 <_add_BigM+0x64>,r1	! 308690 <_fraction_add>
  3079ba:	41 0b       	jsr	@r1
  3079bc:	00 09       	nop	
  3079be:	6a 03       	mov	r0,r10
  3079c0:	6b 13       	mov	r1,r11
  3079c2:	61 e3       	mov	r14,r1
  3079c4:	56 eb       	mov.l	@(44,r14),r6
  3079c6:	57 ec       	mov.l	@(48,r14),r7
  3079c8:	54 12       	mov.l	@(8,r1),r4
  3079ca:	55 13       	mov.l	@(12,r1),r5
  3079cc:	d1 0a       	mov.l	3079f8 <_add_BigM+0x64>,r1	! 308690 <_fraction_add>
  3079ce:	41 0b       	jsr	@r1
  3079d0:	00 09       	nop	
  3079d2:	66 03       	mov	r0,r6
  3079d4:	67 13       	mov	r1,r7
  3079d6:	62 83       	mov	r8,r2
  3079d8:	64 a3       	mov	r10,r4
  3079da:	65 b3       	mov	r11,r5
  3079dc:	d1 07       	mov.l	3079fc <_add_BigM+0x68>,r1	! 3076a0 <_new_BigM>
  3079de:	41 0b       	jsr	@r1
  3079e0:	00 09       	nop	
  3079e2:	60 83       	mov	r8,r0
  3079e4:	7e 10       	add	#16,r14
  3079e6:	6f e3       	mov	r14,r15
  3079e8:	4f 26       	lds.l	@r15+,pr
  3079ea:	6e f6       	mov.l	@r15+,r14
  3079ec:	6b f6       	mov.l	@r15+,r11
  3079ee:	6a f6       	mov.l	@r15+,r10
  3079f0:	68 f6       	mov.l	@r15+,r8
  3079f2:	00 0b       	rts	
  3079f4:	00 09       	nop	
  3079f6:	00 09       	nop	
  3079f8:	00 30       	.word 0x0030
  3079fa:	86 90       	.word 0x8690
  3079fc:	00 30       	.word 0x0030
  3079fe:	76 a0       	add	#-96,r6

00307a00 <_sub_BigM>:
  307a00:	2f 86       	mov.l	r8,@-r15
  307a02:	2f a6       	mov.l	r10,@-r15
  307a04:	2f b6       	mov.l	r11,@-r15
  307a06:	2f e6       	mov.l	r14,@-r15
  307a08:	4f 22       	sts.l	pr,@-r15
  307a0a:	7f f0       	add	#-16,r15
  307a0c:	6e f3       	mov	r15,r14
  307a0e:	68 23       	mov	r2,r8
  307a10:	61 e3       	mov	r14,r1
  307a12:	21 42       	mov.l	r4,@r1
  307a14:	11 51       	mov.l	r5,@(4,r1)
  307a16:	11 62       	mov.l	r6,@(8,r1)
  307a18:	11 73       	mov.l	r7,@(12,r1)
  307a1a:	61 e3       	mov	r14,r1
  307a1c:	56 e9       	mov.l	@(36,r14),r6
  307a1e:	57 ea       	mov.l	@(40,r14),r7
  307a20:	64 12       	mov.l	@r1,r4
  307a22:	55 11       	mov.l	@(4,r1),r5
  307a24:	d1 0f       	mov.l	307a64 <_sub_BigM+0x64>,r1	! 308758 <_fraction_subtract>
  307a26:	41 0b       	jsr	@r1
  307a28:	00 09       	nop	
  307a2a:	6a 03       	mov	r0,r10
  307a2c:	6b 13       	mov	r1,r11
  307a2e:	61 e3       	mov	r14,r1
  307a30:	56 eb       	mov.l	@(44,r14),r6
  307a32:	57 ec       	mov.l	@(48,r14),r7
  307a34:	54 12       	mov.l	@(8,r1),r4
  307a36:	55 13       	mov.l	@(12,r1),r5
  307a38:	d1 0a       	mov.l	307a64 <_sub_BigM+0x64>,r1	! 308758 <_fraction_subtract>
  307a3a:	41 0b       	jsr	@r1
  307a3c:	00 09       	nop	
  307a3e:	66 03       	mov	r0,r6
  307a40:	67 13       	mov	r1,r7
  307a42:	62 83       	mov	r8,r2
  307a44:	64 a3       	mov	r10,r4
  307a46:	65 b3       	mov	r11,r5
  307a48:	d1 07       	mov.l	307a68 <_sub_BigM+0x68>,r1	! 3076a0 <_new_BigM>
  307a4a:	41 0b       	jsr	@r1
  307a4c:	00 09       	nop	
  307a4e:	60 83       	mov	r8,r0
  307a50:	7e 10       	add	#16,r14
  307a52:	6f e3       	mov	r14,r15
  307a54:	4f 26       	lds.l	@r15+,pr
  307a56:	6e f6       	mov.l	@r15+,r14
  307a58:	6b f6       	mov.l	@r15+,r11
  307a5a:	6a f6       	mov.l	@r15+,r10
  307a5c:	68 f6       	mov.l	@r15+,r8
  307a5e:	00 0b       	rts	
  307a60:	00 09       	nop	
  307a62:	00 09       	nop	
  307a64:	00 30       	.word 0x0030
  307a66:	87 58       	.word 0x8758
  307a68:	00 30       	.word 0x0030
  307a6a:	76 a0       	add	#-96,r6

00307a6c <_mul_BigM>:
  307a6c:	2f 86       	mov.l	r8,@-r15
  307a6e:	2f a6       	mov.l	r10,@-r15
  307a70:	2f b6       	mov.l	r11,@-r15
  307a72:	2f e6       	mov.l	r14,@-r15
  307a74:	4f 22       	sts.l	pr,@-r15
  307a76:	7f e8       	add	#-24,r15
  307a78:	6e f3       	mov	r15,r14
  307a7a:	68 23       	mov	r2,r8
  307a7c:	61 e3       	mov	r14,r1
  307a7e:	71 04       	add	#4,r1
  307a80:	21 42       	mov.l	r4,@r1
  307a82:	11 51       	mov.l	r5,@(4,r1)
  307a84:	11 62       	mov.l	r6,@(8,r1)
  307a86:	11 73       	mov.l	r7,@(12,r1)
  307a88:	54 eb       	mov.l	@(44,r14),r4
  307a8a:	55 ec       	mov.l	@(48,r14),r5
  307a8c:	d1 55       	mov.l	307be4 <_mul_BigM+0x178>,r1	! 308358 <_fraction_is_zero>
  307a8e:	41 0b       	jsr	@r1
  307a90:	00 09       	nop	
  307a92:	61 03       	mov	r0,r1
  307a94:	21 18       	tst	r1,r1
  307a96:	89 2c       	bt	307af2 <_mul_BigM+0x86>
  307a98:	54 ed       	mov.l	@(52,r14),r4
  307a9a:	55 ee       	mov.l	@(56,r14),r5
  307a9c:	d1 51       	mov.l	307be4 <_mul_BigM+0x178>,r1	! 308358 <_fraction_is_zero>
  307a9e:	41 0b       	jsr	@r1
  307aa0:	00 09       	nop	
  307aa2:	61 03       	mov	r0,r1
  307aa4:	e2 01       	mov	#1,r2
  307aa6:	21 2a       	xor	r2,r1
  307aa8:	61 1c       	extu.b	r1,r1
  307aaa:	21 18       	tst	r1,r1
  307aac:	89 21       	bt	307af2 <_mul_BigM+0x86>
  307aae:	61 e3       	mov	r14,r1
  307ab0:	71 04       	add	#4,r1
  307ab2:	54 12       	mov.l	@(8,r1),r4
  307ab4:	55 13       	mov.l	@(12,r1),r5
  307ab6:	d1 4b       	mov.l	307be4 <_mul_BigM+0x178>,r1	! 308358 <_fraction_is_zero>
  307ab8:	41 0b       	jsr	@r1
  307aba:	00 09       	nop	
  307abc:	61 03       	mov	r0,r1
  307abe:	21 18       	tst	r1,r1
  307ac0:	89 17       	bt	307af2 <_mul_BigM+0x86>
  307ac2:	d1 49       	mov.l	307be8 <_mul_BigM+0x17c>,r1	! 308344 <_fraction_zero>
  307ac4:	41 0b       	jsr	@r1
  307ac6:	00 09       	nop	
  307ac8:	6a 03       	mov	r0,r10
  307aca:	6b 13       	mov	r1,r11
  307acc:	61 e3       	mov	r14,r1
  307ace:	71 04       	add	#4,r1
  307ad0:	56 ed       	mov.l	@(52,r14),r6
  307ad2:	57 ee       	mov.l	@(56,r14),r7
  307ad4:	64 12       	mov.l	@r1,r4
  307ad6:	55 11       	mov.l	@(4,r1),r5
  307ad8:	d1 44       	mov.l	307bec <_mul_BigM+0x180>,r1	! 308820 <_fraction_multiply>
  307ada:	41 0b       	jsr	@r1
  307adc:	00 09       	nop	
  307ade:	66 03       	mov	r0,r6
  307ae0:	67 13       	mov	r1,r7
  307ae2:	62 83       	mov	r8,r2
  307ae4:	64 a3       	mov	r10,r4
  307ae6:	65 b3       	mov	r11,r5
  307ae8:	d1 41       	mov.l	307bf0 <_mul_BigM+0x184>,r1	! 3076a0 <_new_BigM>
  307aea:	41 0b       	jsr	@r1
  307aec:	00 09       	nop	
  307aee:	a0 6e       	bra	307bce <_mul_BigM+0x162>
  307af0:	00 09       	nop	
  307af2:	54 ed       	mov.l	@(52,r14),r4
  307af4:	55 ee       	mov.l	@(56,r14),r5
  307af6:	d1 3b       	mov.l	307be4 <_mul_BigM+0x178>,r1	! 308358 <_fraction_is_zero>
  307af8:	41 0b       	jsr	@r1
  307afa:	00 09       	nop	
  307afc:	61 03       	mov	r0,r1
  307afe:	e2 01       	mov	#1,r2
  307b00:	21 2a       	xor	r2,r1
  307b02:	61 1c       	extu.b	r1,r1
  307b04:	21 18       	tst	r1,r1
  307b06:	89 46       	bt	307b96 <_mul_BigM+0x12a>
  307b08:	68 e3       	mov	r14,r8
  307b0a:	78 d8       	add	#-40,r8
  307b0c:	e4 19       	mov	#25,r4
  307b0e:	d1 39       	mov.l	307bf4 <_mul_BigM+0x188>,r1	! 309250 <_malloc>
  307b10:	41 0b       	jsr	@r1
  307b12:	00 09       	nop	
  307b14:	61 03       	mov	r0,r1
  307b16:	18 1f       	mov.l	r1,@(60,r8)
  307b18:	d1 37       	mov.l	307bf8 <_mul_BigM+0x18c>,r1	! 30beb0
  307b1a:	64 13       	mov	r1,r4
  307b1c:	d1 37       	mov.l	307bfc <_mul_BigM+0x190>,r1	! 3089c0 <_printf>
  307b1e:	41 0b       	jsr	@r1
  307b20:	00 09       	nop	
  307b22:	61 e3       	mov	r14,r1
  307b24:	71 04       	add	#4,r1
  307b26:	62 e3       	mov	r14,r2
  307b28:	72 d8       	add	#-40,r2
  307b2a:	52 2f       	mov.l	@(60,r2),r2
  307b2c:	2f 22       	mov.l	r2,@r15
  307b2e:	64 12       	mov.l	@r1,r4
  307b30:	55 11       	mov.l	@(4,r1),r5
  307b32:	56 12       	mov.l	@(8,r1),r6
  307b34:	57 13       	mov.l	@(12,r1),r7
  307b36:	d1 32       	mov.l	307c00 <_mul_BigM+0x194>,r1	! 307798 <_BigM_str>
  307b38:	41 0b       	jsr	@r1
  307b3a:	00 09       	nop	
  307b3c:	61 03       	mov	r0,r1
  307b3e:	d2 31       	mov.l	307c04 <_mul_BigM+0x198>,r2	! 30bec8
  307b40:	65 13       	mov	r1,r5
  307b42:	64 23       	mov	r2,r4
  307b44:	d1 2d       	mov.l	307bfc <_mul_BigM+0x190>,r1	! 3089c0 <_printf>
  307b46:	41 0b       	jsr	@r1
  307b48:	00 09       	nop	
  307b4a:	d1 2f       	mov.l	307c08 <_mul_BigM+0x19c>,r1	! 30becc
  307b4c:	64 13       	mov	r1,r4
  307b4e:	d1 2b       	mov.l	307bfc <_mul_BigM+0x190>,r1	! 3089c0 <_printf>
  307b50:	41 0b       	jsr	@r1
  307b52:	00 09       	nop	
  307b54:	61 e3       	mov	r14,r1
  307b56:	71 d8       	add	#-40,r1
  307b58:	51 1f       	mov.l	@(60,r1),r1
  307b5a:	2f 12       	mov.l	r1,@r15
  307b5c:	54 eb       	mov.l	@(44,r14),r4
  307b5e:	55 ec       	mov.l	@(48,r14),r5
  307b60:	56 ed       	mov.l	@(52,r14),r6
  307b62:	57 ee       	mov.l	@(56,r14),r7
  307b64:	d1 26       	mov.l	307c00 <_mul_BigM+0x194>,r1	! 307798 <_BigM_str>
  307b66:	41 0b       	jsr	@r1
  307b68:	00 09       	nop	
  307b6a:	61 03       	mov	r0,r1
  307b6c:	d2 25       	mov.l	307c04 <_mul_BigM+0x198>,r2	! 30bec8
  307b6e:	65 13       	mov	r1,r5
  307b70:	64 23       	mov	r2,r4
  307b72:	d1 22       	mov.l	307bfc <_mul_BigM+0x190>,r1	! 3089c0 <_printf>
  307b74:	41 0b       	jsr	@r1
  307b76:	00 09       	nop	
  307b78:	d1 24       	mov.l	307c0c <_mul_BigM+0x1a0>,r1	! 30bed4
  307b7a:	64 13       	mov	r1,r4
  307b7c:	d1 1f       	mov.l	307bfc <_mul_BigM+0x190>,r1	! 3089c0 <_printf>
  307b7e:	41 0b       	jsr	@r1
  307b80:	00 09       	nop	
  307b82:	61 e3       	mov	r14,r1
  307b84:	71 d8       	add	#-40,r1
  307b86:	54 1f       	mov.l	@(60,r1),r4
  307b88:	d1 21       	mov.l	307c10 <_mul_BigM+0x1a4>,r1	! 309244 <_free>
  307b8a:	41 0b       	jsr	@r1
  307b8c:	00 09       	nop	
  307b8e:	e4 00       	mov	#0,r4
  307b90:	d1 20       	mov.l	307c14 <_mul_BigM+0x1a8>,r1	! 308f20 <_exit>
  307b92:	41 0b       	jsr	@r1
  307b94:	00 09       	nop	
  307b96:	61 e3       	mov	r14,r1
  307b98:	71 04       	add	#4,r1
  307b9a:	56 eb       	mov.l	@(44,r14),r6
  307b9c:	57 ec       	mov.l	@(48,r14),r7
  307b9e:	64 12       	mov.l	@r1,r4
  307ba0:	55 11       	mov.l	@(4,r1),r5
  307ba2:	d1 12       	mov.l	307bec <_mul_BigM+0x180>,r1	! 308820 <_fraction_multiply>
  307ba4:	41 0b       	jsr	@r1
  307ba6:	00 09       	nop	
  307ba8:	6a 03       	mov	r0,r10
  307baa:	6b 13       	mov	r1,r11
  307bac:	61 e3       	mov	r14,r1
  307bae:	71 04       	add	#4,r1
  307bb0:	56 eb       	mov.l	@(44,r14),r6
  307bb2:	57 ec       	mov.l	@(48,r14),r7
  307bb4:	54 12       	mov.l	@(8,r1),r4
  307bb6:	55 13       	mov.l	@(12,r1),r5
  307bb8:	d1 0c       	mov.l	307bec <_mul_BigM+0x180>,r1	! 308820 <_fraction_multiply>
  307bba:	41 0b       	jsr	@r1
  307bbc:	00 09       	nop	
  307bbe:	66 03       	mov	r0,r6
  307bc0:	67 13       	mov	r1,r7
  307bc2:	62 83       	mov	r8,r2
  307bc4:	64 a3       	mov	r10,r4
  307bc6:	65 b3       	mov	r11,r5
  307bc8:	d1 09       	mov.l	307bf0 <_mul_BigM+0x184>,r1	! 3076a0 <_new_BigM>
  307bca:	41 0b       	jsr	@r1
  307bcc:	00 09       	nop	
  307bce:	60 83       	mov	r8,r0
  307bd0:	7e 18       	add	#24,r14
  307bd2:	6f e3       	mov	r14,r15
  307bd4:	4f 26       	lds.l	@r15+,pr
  307bd6:	6e f6       	mov.l	@r15+,r14
  307bd8:	6b f6       	mov.l	@r15+,r11
  307bda:	6a f6       	mov.l	@r15+,r10
  307bdc:	68 f6       	mov.l	@r15+,r8
  307bde:	00 0b       	rts	
  307be0:	00 09       	nop	
  307be2:	00 09       	nop	
  307be4:	00 30       	.word 0x0030
  307be6:	83 58       	.word 0x8358
  307be8:	00 30       	.word 0x0030
  307bea:	83 44       	.word 0x8344
  307bec:	00 30       	.word 0x0030
  307bee:	88 20       	cmp/eq	#32,r0
  307bf0:	00 30       	.word 0x0030
  307bf2:	76 a0       	add	#-96,r6
  307bf4:	00 30       	.word 0x0030
  307bf6:	92 50       	mov.w	307c9a <_div_BigM+0x82>,r2	! 6a03
  307bf8:	00 30       	.word 0x0030
  307bfa:	be b0       	bsr	30795e <_BigM_str+0x1c6>
  307bfc:	00 30       	.word 0x0030
  307bfe:	89 c0       	bt	307b82 <_mul_BigM+0x116>
  307c00:	00 30       	.word 0x0030
  307c02:	77 98       	add	#-104,r7
  307c04:	00 30       	.word 0x0030
  307c06:	be c8       	bsr	30799a <_add_BigM+0x6>
  307c08:	00 30       	.word 0x0030
  307c0a:	be cc       	bsr	3079a6 <_add_BigM+0x12>
  307c0c:	00 30       	.word 0x0030
  307c0e:	be d4       	bsr	3079ba <_add_BigM+0x26>
  307c10:	00 30       	.word 0x0030
  307c12:	92 44       	mov.w	307c9e <_div_BigM+0x86>,r2	! d138
  307c14:	00 30       	.word 0x0030
  307c16:	8f 20       	bf.s	307c5a <_div_BigM+0x42>

00307c18 <_div_BigM>:
  307c18:	2f 86       	mov.l	r8,@-r15
  307c1a:	2f a6       	mov.l	r10,@-r15
  307c1c:	2f b6       	mov.l	r11,@-r15
  307c1e:	2f e6       	mov.l	r14,@-r15
  307c20:	4f 22       	sts.l	pr,@-r15
  307c22:	7f e8       	add	#-24,r15
  307c24:	6e f3       	mov	r15,r14
  307c26:	68 23       	mov	r2,r8
  307c28:	61 e3       	mov	r14,r1
  307c2a:	71 04       	add	#4,r1
  307c2c:	21 42       	mov.l	r4,@r1
  307c2e:	11 51       	mov.l	r5,@(4,r1)
  307c30:	11 62       	mov.l	r6,@(8,r1)
  307c32:	11 73       	mov.l	r7,@(12,r1)
  307c34:	61 e3       	mov	r14,r1
  307c36:	71 04       	add	#4,r1
  307c38:	64 12       	mov.l	@r1,r4
  307c3a:	55 11       	mov.l	@(4,r1),r5
  307c3c:	d1 4e       	mov.l	307d78 <_div_BigM+0x160>,r1	! 308358 <_fraction_is_zero>
  307c3e:	41 0b       	jsr	@r1
  307c40:	00 09       	nop	
  307c42:	61 03       	mov	r0,r1
  307c44:	21 18       	tst	r1,r1
  307c46:	89 37       	bt	307cb8 <_div_BigM+0xa0>
  307c48:	54 eb       	mov.l	@(44,r14),r4
  307c4a:	55 ec       	mov.l	@(48,r14),r5
  307c4c:	d1 4a       	mov.l	307d78 <_div_BigM+0x160>,r1	! 308358 <_fraction_is_zero>
  307c4e:	41 0b       	jsr	@r1
  307c50:	00 09       	nop	
  307c52:	61 03       	mov	r0,r1
  307c54:	21 18       	tst	r1,r1
  307c56:	89 2f       	bt	307cb8 <_div_BigM+0xa0>
  307c58:	61 e3       	mov	r14,r1
  307c5a:	71 04       	add	#4,r1
  307c5c:	54 12       	mov.l	@(8,r1),r4
  307c5e:	55 13       	mov.l	@(12,r1),r5
  307c60:	d1 45       	mov.l	307d78 <_div_BigM+0x160>,r1	! 308358 <_fraction_is_zero>
  307c62:	41 0b       	jsr	@r1
  307c64:	00 09       	nop	
  307c66:	61 03       	mov	r0,r1
  307c68:	e2 01       	mov	#1,r2
  307c6a:	21 2a       	xor	r2,r1
  307c6c:	61 1c       	extu.b	r1,r1
  307c6e:	21 18       	tst	r1,r1
  307c70:	89 22       	bt	307cb8 <_div_BigM+0xa0>
  307c72:	54 ed       	mov.l	@(52,r14),r4
  307c74:	55 ee       	mov.l	@(56,r14),r5
  307c76:	d1 40       	mov.l	307d78 <_div_BigM+0x160>,r1	! 308358 <_fraction_is_zero>
  307c78:	41 0b       	jsr	@r1
  307c7a:	00 09       	nop	
  307c7c:	61 03       	mov	r0,r1
  307c7e:	e2 01       	mov	#1,r2
  307c80:	21 2a       	xor	r2,r1
  307c82:	61 1c       	extu.b	r1,r1
  307c84:	21 18       	tst	r1,r1
  307c86:	89 17       	bt	307cb8 <_div_BigM+0xa0>
  307c88:	61 e3       	mov	r14,r1
  307c8a:	71 04       	add	#4,r1
  307c8c:	56 ed       	mov.l	@(52,r14),r6
  307c8e:	57 ee       	mov.l	@(56,r14),r7
  307c90:	54 12       	mov.l	@(8,r1),r4
  307c92:	55 13       	mov.l	@(12,r1),r5
  307c94:	d1 39       	mov.l	307d7c <_div_BigM+0x164>,r1	! 308888 <_fraction_divide>
  307c96:	41 0b       	jsr	@r1
  307c98:	00 09       	nop	
  307c9a:	6a 03       	mov	r0,r10
  307c9c:	6b 13       	mov	r1,r11
  307c9e:	d1 38       	mov.l	307d80 <_div_BigM+0x168>,r1	! 308344 <_fraction_zero>
  307ca0:	41 0b       	jsr	@r1
  307ca2:	00 09       	nop	
  307ca4:	66 03       	mov	r0,r6
  307ca6:	67 13       	mov	r1,r7
  307ca8:	62 83       	mov	r8,r2
  307caa:	64 a3       	mov	r10,r4
  307cac:	65 b3       	mov	r11,r5
  307cae:	d1 35       	mov.l	307d84 <_div_BigM+0x16c>,r1	! 3076a0 <_new_BigM>
  307cb0:	41 0b       	jsr	@r1
  307cb2:	00 09       	nop	
  307cb4:	a0 55       	bra	307d62 <_div_BigM+0x14a>
  307cb6:	00 09       	nop	
  307cb8:	54 ed       	mov.l	@(52,r14),r4
  307cba:	55 ee       	mov.l	@(56,r14),r5
  307cbc:	d1 2e       	mov.l	307d78 <_div_BigM+0x160>,r1	! 308358 <_fraction_is_zero>
  307cbe:	41 0b       	jsr	@r1
  307cc0:	00 09       	nop	
  307cc2:	61 03       	mov	r0,r1
  307cc4:	e2 01       	mov	#1,r2
  307cc6:	21 2a       	xor	r2,r1
  307cc8:	61 1c       	extu.b	r1,r1
  307cca:	21 18       	tst	r1,r1
  307ccc:	89 2d       	bt	307d2a <_div_BigM+0x112>
  307cce:	68 e3       	mov	r14,r8
  307cd0:	78 d8       	add	#-40,r8
  307cd2:	e4 19       	mov	#25,r4
  307cd4:	d1 2c       	mov.l	307d88 <_div_BigM+0x170>,r1	! 309250 <_malloc>
  307cd6:	41 0b       	jsr	@r1
  307cd8:	00 09       	nop	
  307cda:	61 03       	mov	r0,r1
  307cdc:	18 1f       	mov.l	r1,@(60,r8)
  307cde:	d1 2b       	mov.l	307d8c <_div_BigM+0x174>,r1	! 30bef4
  307ce0:	64 13       	mov	r1,r4
  307ce2:	d1 2b       	mov.l	307d90 <_div_BigM+0x178>,r1	! 3089c0 <_printf>
  307ce4:	41 0b       	jsr	@r1
  307ce6:	00 09       	nop	
  307ce8:	61 e3       	mov	r14,r1
  307cea:	71 d8       	add	#-40,r1
  307cec:	51 1f       	mov.l	@(60,r1),r1
  307cee:	2f 12       	mov.l	r1,@r15
  307cf0:	54 eb       	mov.l	@(44,r14),r4
  307cf2:	55 ec       	mov.l	@(48,r14),r5
  307cf4:	56 ed       	mov.l	@(52,r14),r6
  307cf6:	57 ee       	mov.l	@(56,r14),r7
  307cf8:	d1 26       	mov.l	307d94 <_div_BigM+0x17c>,r1	! 307798 <_BigM_str>
  307cfa:	41 0b       	jsr	@r1
  307cfc:	00 09       	nop	
  307cfe:	61 03       	mov	r0,r1
  307d00:	d2 25       	mov.l	307d98 <_div_BigM+0x180>,r2	! 30bec8
  307d02:	65 13       	mov	r1,r5
  307d04:	64 23       	mov	r2,r4
  307d06:	d1 22       	mov.l	307d90 <_div_BigM+0x178>,r1	! 3089c0 <_printf>
  307d08:	41 0b       	jsr	@r1
  307d0a:	00 09       	nop	
  307d0c:	d1 23       	mov.l	307d9c <_div_BigM+0x184>,r1	! 30bed4
  307d0e:	64 13       	mov	r1,r4
  307d10:	d1 1f       	mov.l	307d90 <_div_BigM+0x178>,r1	! 3089c0 <_printf>
  307d12:	41 0b       	jsr	@r1
  307d14:	00 09       	nop	
  307d16:	61 e3       	mov	r14,r1
  307d18:	71 d8       	add	#-40,r1
  307d1a:	54 1f       	mov.l	@(60,r1),r4
  307d1c:	d1 20       	mov.l	307da0 <_div_BigM+0x188>,r1	! 309244 <_free>
  307d1e:	41 0b       	jsr	@r1
  307d20:	00 09       	nop	
  307d22:	e4 00       	mov	#0,r4
  307d24:	d1 1f       	mov.l	307da4 <_div_BigM+0x18c>,r1	! 308f20 <_exit>
  307d26:	41 0b       	jsr	@r1
  307d28:	00 09       	nop	
  307d2a:	61 e3       	mov	r14,r1
  307d2c:	71 04       	add	#4,r1
  307d2e:	56 eb       	mov.l	@(44,r14),r6
  307d30:	57 ec       	mov.l	@(48,r14),r7
  307d32:	64 12       	mov.l	@r1,r4
  307d34:	55 11       	mov.l	@(4,r1),r5
  307d36:	d1 11       	mov.l	307d7c <_div_BigM+0x164>,r1	! 308888 <_fraction_divide>
  307d38:	41 0b       	jsr	@r1
  307d3a:	00 09       	nop	
  307d3c:	6a 03       	mov	r0,r10
  307d3e:	6b 13       	mov	r1,r11
  307d40:	61 e3       	mov	r14,r1
  307d42:	71 04       	add	#4,r1
  307d44:	56 eb       	mov.l	@(44,r14),r6
  307d46:	57 ec       	mov.l	@(48,r14),r7
  307d48:	54 12       	mov.l	@(8,r1),r4
  307d4a:	55 13       	mov.l	@(12,r1),r5
  307d4c:	d1 0b       	mov.l	307d7c <_div_BigM+0x164>,r1	! 308888 <_fraction_divide>
  307d4e:	41 0b       	jsr	@r1
  307d50:	00 09       	nop	
  307d52:	66 03       	mov	r0,r6
  307d54:	67 13       	mov	r1,r7
  307d56:	62 83       	mov	r8,r2
  307d58:	64 a3       	mov	r10,r4
  307d5a:	65 b3       	mov	r11,r5
  307d5c:	d1 09       	mov.l	307d84 <_div_BigM+0x16c>,r1	! 3076a0 <_new_BigM>
  307d5e:	41 0b       	jsr	@r1
  307d60:	00 09       	nop	
  307d62:	60 83       	mov	r8,r0
  307d64:	7e 18       	add	#24,r14
  307d66:	6f e3       	mov	r14,r15
  307d68:	4f 26       	lds.l	@r15+,pr
  307d6a:	6e f6       	mov.l	@r15+,r14
  307d6c:	6b f6       	mov.l	@r15+,r11
  307d6e:	6a f6       	mov.l	@r15+,r10
  307d70:	68 f6       	mov.l	@r15+,r8
  307d72:	00 0b       	rts	
  307d74:	00 09       	nop	
  307d76:	00 09       	nop	
  307d78:	00 30       	.word 0x0030
  307d7a:	83 58       	.word 0x8358
  307d7c:	00 30       	.word 0x0030
  307d7e:	88 88       	cmp/eq	#-120,r0
  307d80:	00 30       	.word 0x0030
  307d82:	83 44       	.word 0x8344
  307d84:	00 30       	.word 0x0030
  307d86:	76 a0       	add	#-96,r6
  307d88:	00 30       	.word 0x0030
  307d8a:	92 50       	mov.w	307e2e <_BigM_ne+0x26>,r2	! 8b0a
  307d8c:	00 30       	.word 0x0030
  307d8e:	be f4       	bsr	307b7a <_mul_BigM+0x10e>
  307d90:	00 30       	.word 0x0030
  307d92:	89 c0       	bt	307d16 <_div_BigM+0xfe>
  307d94:	00 30       	.word 0x0030
  307d96:	77 98       	add	#-104,r7
  307d98:	00 30       	.word 0x0030
  307d9a:	be c8       	bsr	307b2e <_mul_BigM+0xc2>
  307d9c:	00 30       	.word 0x0030
  307d9e:	be d4       	bsr	307b4a <_mul_BigM+0xde>
  307da0:	00 30       	.word 0x0030
  307da2:	92 44       	mov.w	307e2e <_BigM_ne+0x26>,r2	! 8b0a
  307da4:	00 30       	.word 0x0030
  307da6:	8f 20       	bf.s	307dea <_BigM_eq+0x42>

00307da8 <_BigM_eq>:
  307da8:	2f e6       	mov.l	r14,@-r15
  307daa:	4f 22       	sts.l	pr,@-r15
  307dac:	7f f0       	add	#-16,r15
  307dae:	6e f3       	mov	r15,r14
  307db0:	61 e3       	mov	r14,r1
  307db2:	21 42       	mov.l	r4,@r1
  307db4:	11 51       	mov.l	r5,@(4,r1)
  307db6:	11 62       	mov.l	r6,@(8,r1)
  307db8:	11 73       	mov.l	r7,@(12,r1)
  307dba:	61 e3       	mov	r14,r1
  307dbc:	56 e8       	mov.l	@(32,r14),r6
  307dbe:	57 e9       	mov.l	@(36,r14),r7
  307dc0:	54 12       	mov.l	@(8,r1),r4
  307dc2:	55 13       	mov.l	@(12,r1),r5
  307dc4:	d1 0f       	mov.l	307e04 <_BigM_eq+0x5c>,r1	! 3084c4 <_fraction_eq>
  307dc6:	41 0b       	jsr	@r1
  307dc8:	00 09       	nop	
  307dca:	61 03       	mov	r0,r1
  307dcc:	21 18       	tst	r1,r1
  307dce:	89 0d       	bt	307dec <_BigM_eq+0x44>
  307dd0:	61 e3       	mov	r14,r1
  307dd2:	56 e6       	mov.l	@(24,r14),r6
  307dd4:	57 e7       	mov.l	@(28,r14),r7
  307dd6:	64 12       	mov.l	@r1,r4
  307dd8:	55 11       	mov.l	@(4,r1),r5
  307dda:	d1 0a       	mov.l	307e04 <_BigM_eq+0x5c>,r1	! 3084c4 <_fraction_eq>
  307ddc:	41 0b       	jsr	@r1
  307dde:	00 09       	nop	
  307de0:	61 03       	mov	r0,r1
  307de2:	21 18       	tst	r1,r1
  307de4:	89 02       	bt	307dec <_BigM_eq+0x44>
  307de6:	e1 01       	mov	#1,r1
  307de8:	a0 01       	bra	307dee <_BigM_eq+0x46>
  307dea:	00 09       	nop	
  307dec:	e1 00       	mov	#0,r1
  307dee:	e2 01       	mov	#1,r2
  307df0:	21 29       	and	r2,r1
  307df2:	61 1c       	extu.b	r1,r1
  307df4:	60 13       	mov	r1,r0
  307df6:	7e 10       	add	#16,r14
  307df8:	6f e3       	mov	r14,r15
  307dfa:	4f 26       	lds.l	@r15+,pr
  307dfc:	6e f6       	mov.l	@r15+,r14
  307dfe:	00 0b       	rts	
  307e00:	00 09       	nop	
  307e02:	00 09       	nop	
  307e04:	00 30       	.word 0x0030
  307e06:	84 c4       	mov.b	@(4,r12),r0

00307e08 <_BigM_ne>:
  307e08:	2f e6       	mov.l	r14,@-r15
  307e0a:	4f 22       	sts.l	pr,@-r15
  307e0c:	7f f0       	add	#-16,r15
  307e0e:	6e f3       	mov	r15,r14
  307e10:	61 e3       	mov	r14,r1
  307e12:	21 42       	mov.l	r4,@r1
  307e14:	11 51       	mov.l	r5,@(4,r1)
  307e16:	11 62       	mov.l	r6,@(8,r1)
  307e18:	11 73       	mov.l	r7,@(12,r1)
  307e1a:	61 e3       	mov	r14,r1
  307e1c:	56 e8       	mov.l	@(32,r14),r6
  307e1e:	57 e9       	mov.l	@(36,r14),r7
  307e20:	54 12       	mov.l	@(8,r1),r4
  307e22:	55 13       	mov.l	@(12,r1),r5
  307e24:	d1 0f       	mov.l	307e64 <_BigM_ne+0x5c>,r1	! 308510 <_fraction_ne>
  307e26:	41 0b       	jsr	@r1
  307e28:	00 09       	nop	
  307e2a:	61 03       	mov	r0,r1
  307e2c:	21 18       	tst	r1,r1
  307e2e:	8b 0a       	bf	307e46 <_BigM_ne+0x3e>
  307e30:	61 e3       	mov	r14,r1
  307e32:	56 e6       	mov.l	@(24,r14),r6
  307e34:	57 e7       	mov.l	@(28,r14),r7
  307e36:	64 12       	mov.l	@r1,r4
  307e38:	55 11       	mov.l	@(4,r1),r5
  307e3a:	d1 0a       	mov.l	307e64 <_BigM_ne+0x5c>,r1	! 308510 <_fraction_ne>
  307e3c:	41 0b       	jsr	@r1
  307e3e:	00 09       	nop	
  307e40:	61 03       	mov	r0,r1
  307e42:	21 18       	tst	r1,r1
  307e44:	89 02       	bt	307e4c <_BigM_ne+0x44>
  307e46:	e1 01       	mov	#1,r1
  307e48:	a0 01       	bra	307e4e <_BigM_ne+0x46>
  307e4a:	00 09       	nop	
  307e4c:	e1 00       	mov	#0,r1
  307e4e:	e2 01       	mov	#1,r2
  307e50:	21 29       	and	r2,r1
  307e52:	61 1c       	extu.b	r1,r1
  307e54:	60 13       	mov	r1,r0
  307e56:	7e 10       	add	#16,r14
  307e58:	6f e3       	mov	r14,r15
  307e5a:	4f 26       	lds.l	@r15+,pr
  307e5c:	6e f6       	mov.l	@r15+,r14
  307e5e:	00 0b       	rts	
  307e60:	00 09       	nop	
  307e62:	00 09       	nop	
  307e64:	00 30       	.word 0x0030
  307e66:	85 10       	mov.w	@(0,r1),r0

00307e68 <_BigM_lt>:
  307e68:	2f e6       	mov.l	r14,@-r15
  307e6a:	4f 22       	sts.l	pr,@-r15
  307e6c:	7f f8       	add	#-8,r15
  307e6e:	6e f3       	mov	r15,r14
  307e70:	61 e3       	mov	r14,r1
  307e72:	71 c8       	add	#-56,r1
  307e74:	11 4f       	mov.l	r4,@(60,r1)
  307e76:	61 e3       	mov	r14,r1
  307e78:	71 c8       	add	#-56,r1
  307e7a:	11 5e       	mov.l	r5,@(56,r1)
  307e7c:	61 e3       	mov	r14,r1
  307e7e:	71 c8       	add	#-56,r1
  307e80:	52 1f       	mov.l	@(60,r1),r2
  307e82:	61 e3       	mov	r14,r1
  307e84:	71 c8       	add	#-56,r1
  307e86:	51 1e       	mov.l	@(56,r1),r1
  307e88:	56 22       	mov.l	@(8,r2),r6
  307e8a:	57 23       	mov.l	@(12,r2),r7
  307e8c:	54 12       	mov.l	@(8,r1),r4
  307e8e:	55 13       	mov.l	@(12,r1),r5
  307e90:	d1 18       	mov.l	307ef4 <_BigM_lt+0x8c>,r1	! 3085f8 <_fraction_gt>
  307e92:	41 0b       	jsr	@r1
  307e94:	00 09       	nop	
  307e96:	61 03       	mov	r0,r1
  307e98:	21 18       	tst	r1,r1
  307e9a:	89 02       	bt	307ea2 <_BigM_lt+0x3a>
  307e9c:	e1 01       	mov	#1,r1
  307e9e:	a0 21       	bra	307ee4 <_BigM_lt+0x7c>
  307ea0:	00 09       	nop	
  307ea2:	61 e3       	mov	r14,r1
  307ea4:	71 c8       	add	#-56,r1
  307ea6:	52 1f       	mov.l	@(60,r1),r2
  307ea8:	61 e3       	mov	r14,r1
  307eaa:	71 c8       	add	#-56,r1
  307eac:	51 1e       	mov.l	@(56,r1),r1
  307eae:	56 22       	mov.l	@(8,r2),r6
  307eb0:	57 23       	mov.l	@(12,r2),r7
  307eb2:	54 12       	mov.l	@(8,r1),r4
  307eb4:	55 13       	mov.l	@(12,r1),r5
  307eb6:	d1 10       	mov.l	307ef8 <_BigM_lt+0x90>,r1	! 3084c4 <_fraction_eq>
  307eb8:	41 0b       	jsr	@r1
  307eba:	00 09       	nop	
  307ebc:	61 03       	mov	r0,r1
  307ebe:	21 18       	tst	r1,r1
  307ec0:	89 0f       	bt	307ee2 <_BigM_lt+0x7a>
  307ec2:	61 e3       	mov	r14,r1
  307ec4:	71 c8       	add	#-56,r1
  307ec6:	52 1f       	mov.l	@(60,r1),r2
  307ec8:	61 e3       	mov	r14,r1
  307eca:	71 c8       	add	#-56,r1
  307ecc:	51 1e       	mov.l	@(56,r1),r1
  307ece:	66 22       	mov.l	@r2,r6
  307ed0:	57 21       	mov.l	@(4,r2),r7
  307ed2:	64 12       	mov.l	@r1,r4
  307ed4:	55 11       	mov.l	@(4,r1),r5
  307ed6:	d1 07       	mov.l	307ef4 <_BigM_lt+0x8c>,r1	! 3085f8 <_fraction_gt>
  307ed8:	41 0b       	jsr	@r1
  307eda:	00 09       	nop	
  307edc:	61 03       	mov	r0,r1
  307ede:	a0 01       	bra	307ee4 <_BigM_lt+0x7c>
  307ee0:	00 09       	nop	
  307ee2:	e1 00       	mov	#0,r1
  307ee4:	60 13       	mov	r1,r0
  307ee6:	7e 08       	add	#8,r14
  307ee8:	6f e3       	mov	r14,r15
  307eea:	4f 26       	lds.l	@r15+,pr
  307eec:	6e f6       	mov.l	@r15+,r14
  307eee:	00 0b       	rts	
  307ef0:	00 09       	nop	
  307ef2:	00 09       	nop	
  307ef4:	00 30       	.word 0x0030
  307ef6:	85 f8       	mov.w	@(16,r15),r0
  307ef8:	00 30       	.word 0x0030
  307efa:	84 c4       	mov.b	@(4,r12),r0

00307efc <_BigM_le>:
  307efc:	2f e6       	mov.l	r14,@-r15
  307efe:	4f 22       	sts.l	pr,@-r15
  307f00:	7f f8       	add	#-8,r15
  307f02:	6e f3       	mov	r15,r14
  307f04:	61 e3       	mov	r14,r1
  307f06:	71 c8       	add	#-56,r1
  307f08:	11 4f       	mov.l	r4,@(60,r1)
  307f0a:	61 e3       	mov	r14,r1
  307f0c:	71 c8       	add	#-56,r1
  307f0e:	11 5e       	mov.l	r5,@(56,r1)
  307f10:	61 e3       	mov	r14,r1
  307f12:	71 c8       	add	#-56,r1
  307f14:	52 1e       	mov.l	@(56,r1),r2
  307f16:	61 e3       	mov	r14,r1
  307f18:	71 c8       	add	#-56,r1
  307f1a:	51 1f       	mov.l	@(60,r1),r1
  307f1c:	56 22       	mov.l	@(8,r2),r6
  307f1e:	57 23       	mov.l	@(12,r2),r7
  307f20:	54 12       	mov.l	@(8,r1),r4
  307f22:	55 13       	mov.l	@(12,r1),r5
  307f24:	d1 18       	mov.l	307f88 <_BigM_le+0x8c>,r1	! 3084c4 <_fraction_eq>
  307f26:	41 0b       	jsr	@r1
  307f28:	00 09       	nop	
  307f2a:	61 03       	mov	r0,r1
  307f2c:	21 18       	tst	r1,r1
  307f2e:	89 0f       	bt	307f50 <_BigM_le+0x54>
  307f30:	61 e3       	mov	r14,r1
  307f32:	71 c8       	add	#-56,r1
  307f34:	52 1e       	mov.l	@(56,r1),r2
  307f36:	61 e3       	mov	r14,r1
  307f38:	71 c8       	add	#-56,r1
  307f3a:	51 1f       	mov.l	@(60,r1),r1
  307f3c:	66 22       	mov.l	@r2,r6
  307f3e:	57 21       	mov.l	@(4,r2),r7
  307f40:	64 12       	mov.l	@r1,r4
  307f42:	55 11       	mov.l	@(4,r1),r5
  307f44:	d1 11       	mov.l	307f8c <_BigM_le+0x90>,r1	! 3085ac <_fraction_lte>
  307f46:	41 0b       	jsr	@r1
  307f48:	00 09       	nop	
  307f4a:	61 03       	mov	r0,r1
  307f4c:	a0 14       	bra	307f78 <_BigM_le+0x7c>
  307f4e:	00 09       	nop	
  307f50:	61 e3       	mov	r14,r1
  307f52:	71 c8       	add	#-56,r1
  307f54:	52 1e       	mov.l	@(56,r1),r2
  307f56:	61 e3       	mov	r14,r1
  307f58:	71 c8       	add	#-56,r1
  307f5a:	51 1f       	mov.l	@(60,r1),r1
  307f5c:	56 22       	mov.l	@(8,r2),r6
  307f5e:	57 23       	mov.l	@(12,r2),r7
  307f60:	54 12       	mov.l	@(8,r1),r4
  307f62:	55 13       	mov.l	@(12,r1),r5
  307f64:	d1 0a       	mov.l	307f90 <_BigM_le+0x94>,r1	! 308560 <_fraction_lt>
  307f66:	41 0b       	jsr	@r1
  307f68:	00 09       	nop	
  307f6a:	61 03       	mov	r0,r1
  307f6c:	21 18       	tst	r1,r1
  307f6e:	89 02       	bt	307f76 <_BigM_le+0x7a>
  307f70:	e1 01       	mov	#1,r1
  307f72:	a0 01       	bra	307f78 <_BigM_le+0x7c>
  307f74:	00 09       	nop	
  307f76:	e1 00       	mov	#0,r1
  307f78:	60 13       	mov	r1,r0
  307f7a:	7e 08       	add	#8,r14
  307f7c:	6f e3       	mov	r14,r15
  307f7e:	4f 26       	lds.l	@r15+,pr
  307f80:	6e f6       	mov.l	@r15+,r14
  307f82:	00 0b       	rts	
  307f84:	00 09       	nop	
  307f86:	00 09       	nop	
  307f88:	00 30       	.word 0x0030
  307f8a:	84 c4       	mov.b	@(4,r12),r0
  307f8c:	00 30       	.word 0x0030
  307f8e:	85 ac       	mov.w	@(24,r10),r0
  307f90:	00 30       	.word 0x0030
  307f92:	85 60       	mov.w	@(0,r6),r0

00307f94 <_BigM_gt>:
  307f94:	2f e6       	mov.l	r14,@-r15
  307f96:	4f 22       	sts.l	pr,@-r15
  307f98:	7f f8       	add	#-8,r15
  307f9a:	6e f3       	mov	r15,r14
  307f9c:	61 e3       	mov	r14,r1
  307f9e:	71 c8       	add	#-56,r1
  307fa0:	11 4f       	mov.l	r4,@(60,r1)
  307fa2:	61 e3       	mov	r14,r1
  307fa4:	71 c8       	add	#-56,r1
  307fa6:	11 5e       	mov.l	r5,@(56,r1)
  307fa8:	61 e3       	mov	r14,r1
  307faa:	71 c8       	add	#-56,r1
  307fac:	52 1f       	mov.l	@(60,r1),r2
  307fae:	61 e3       	mov	r14,r1
  307fb0:	71 c8       	add	#-56,r1
  307fb2:	51 1e       	mov.l	@(56,r1),r1
  307fb4:	56 22       	mov.l	@(8,r2),r6
  307fb6:	57 23       	mov.l	@(12,r2),r7
  307fb8:	54 12       	mov.l	@(8,r1),r4
  307fba:	55 13       	mov.l	@(12,r1),r5
  307fbc:	d1 18       	mov.l	308020 <_BigM_gt+0x8c>,r1	! 308560 <_fraction_lt>
  307fbe:	41 0b       	jsr	@r1
  307fc0:	00 09       	nop	
  307fc2:	61 03       	mov	r0,r1
  307fc4:	21 18       	tst	r1,r1
  307fc6:	89 02       	bt	307fce <_BigM_gt+0x3a>
  307fc8:	e1 01       	mov	#1,r1
  307fca:	a0 21       	bra	308010 <_BigM_gt+0x7c>
  307fcc:	00 09       	nop	
  307fce:	61 e3       	mov	r14,r1
  307fd0:	71 c8       	add	#-56,r1
  307fd2:	52 1f       	mov.l	@(60,r1),r2
  307fd4:	61 e3       	mov	r14,r1
  307fd6:	71 c8       	add	#-56,r1
  307fd8:	51 1e       	mov.l	@(56,r1),r1
  307fda:	56 22       	mov.l	@(8,r2),r6
  307fdc:	57 23       	mov.l	@(12,r2),r7
  307fde:	54 12       	mov.l	@(8,r1),r4
  307fe0:	55 13       	mov.l	@(12,r1),r5
  307fe2:	d1 10       	mov.l	308024 <_BigM_gt+0x90>,r1	! 3084c4 <_fraction_eq>
  307fe4:	41 0b       	jsr	@r1
  307fe6:	00 09       	nop	
  307fe8:	61 03       	mov	r0,r1
  307fea:	21 18       	tst	r1,r1
  307fec:	89 0f       	bt	30800e <_BigM_gt+0x7a>
  307fee:	61 e3       	mov	r14,r1
  307ff0:	71 c8       	add	#-56,r1
  307ff2:	52 1f       	mov.l	@(60,r1),r2
  307ff4:	61 e3       	mov	r14,r1
  307ff6:	71 c8       	add	#-56,r1
  307ff8:	51 1e       	mov.l	@(56,r1),r1
  307ffa:	66 22       	mov.l	@r2,r6
  307ffc:	57 21       	mov.l	@(4,r2),r7
  307ffe:	64 12       	mov.l	@r1,r4
  308000:	55 11       	mov.l	@(4,r1),r5
  308002:	d1 07       	mov.l	308020 <_BigM_gt+0x8c>,r1	! 308560 <_fraction_lt>
  308004:	41 0b       	jsr	@r1
  308006:	00 09       	nop	
  308008:	61 03       	mov	r0,r1
  30800a:	a0 01       	bra	308010 <_BigM_gt+0x7c>
  30800c:	00 09       	nop	
  30800e:	e1 00       	mov	#0,r1
  308010:	60 13       	mov	r1,r0
  308012:	7e 08       	add	#8,r14
  308014:	6f e3       	mov	r14,r15
  308016:	4f 26       	lds.l	@r15+,pr
  308018:	6e f6       	mov.l	@r15+,r14
  30801a:	00 0b       	rts	
  30801c:	00 09       	nop	
  30801e:	00 09       	nop	
  308020:	00 30       	.word 0x0030
  308022:	85 60       	mov.w	@(0,r6),r0
  308024:	00 30       	.word 0x0030
  308026:	84 c4       	mov.b	@(4,r12),r0

00308028 <_BigM_ge>:
  308028:	2f e6       	mov.l	r14,@-r15
  30802a:	4f 22       	sts.l	pr,@-r15
  30802c:	7f f8       	add	#-8,r15
  30802e:	6e f3       	mov	r15,r14
  308030:	61 e3       	mov	r14,r1
  308032:	71 c8       	add	#-56,r1
  308034:	11 4f       	mov.l	r4,@(60,r1)
  308036:	61 e3       	mov	r14,r1
  308038:	71 c8       	add	#-56,r1
  30803a:	11 5e       	mov.l	r5,@(56,r1)
  30803c:	61 e3       	mov	r14,r1
  30803e:	71 c8       	add	#-56,r1
  308040:	52 1e       	mov.l	@(56,r1),r2
  308042:	61 e3       	mov	r14,r1
  308044:	71 c8       	add	#-56,r1
  308046:	51 1f       	mov.l	@(60,r1),r1
  308048:	56 22       	mov.l	@(8,r2),r6
  30804a:	57 23       	mov.l	@(12,r2),r7
  30804c:	54 12       	mov.l	@(8,r1),r4
  30804e:	55 13       	mov.l	@(12,r1),r5
  308050:	d1 18       	mov.l	3080b4 <_BigM_ge+0x8c>,r1	! 3084c4 <_fraction_eq>
  308052:	41 0b       	jsr	@r1
  308054:	00 09       	nop	
  308056:	61 03       	mov	r0,r1
  308058:	21 18       	tst	r1,r1
  30805a:	89 0f       	bt	30807c <_BigM_ge+0x54>
  30805c:	61 e3       	mov	r14,r1
  30805e:	71 c8       	add	#-56,r1
  308060:	52 1e       	mov.l	@(56,r1),r2
  308062:	61 e3       	mov	r14,r1
  308064:	71 c8       	add	#-56,r1
  308066:	51 1f       	mov.l	@(60,r1),r1
  308068:	66 22       	mov.l	@r2,r6
  30806a:	57 21       	mov.l	@(4,r2),r7
  30806c:	64 12       	mov.l	@r1,r4
  30806e:	55 11       	mov.l	@(4,r1),r5
  308070:	d1 11       	mov.l	3080b8 <_BigM_ge+0x90>,r1	! 308644 <_fraction_gte>
  308072:	41 0b       	jsr	@r1
  308074:	00 09       	nop	
  308076:	61 03       	mov	r0,r1
  308078:	a0 14       	bra	3080a4 <_BigM_ge+0x7c>
  30807a:	00 09       	nop	
  30807c:	61 e3       	mov	r14,r1
  30807e:	71 c8       	add	#-56,r1
  308080:	52 1e       	mov.l	@(56,r1),r2
  308082:	61 e3       	mov	r14,r1
  308084:	71 c8       	add	#-56,r1
  308086:	51 1f       	mov.l	@(60,r1),r1
  308088:	56 22       	mov.l	@(8,r2),r6
  30808a:	57 23       	mov.l	@(12,r2),r7
  30808c:	54 12       	mov.l	@(8,r1),r4
  30808e:	55 13       	mov.l	@(12,r1),r5
  308090:	d1 0a       	mov.l	3080bc <_BigM_ge+0x94>,r1	! 3085f8 <_fraction_gt>
  308092:	41 0b       	jsr	@r1
  308094:	00 09       	nop	
  308096:	61 03       	mov	r0,r1
  308098:	21 18       	tst	r1,r1
  30809a:	89 02       	bt	3080a2 <_BigM_ge+0x7a>
  30809c:	e1 01       	mov	#1,r1
  30809e:	a0 01       	bra	3080a4 <_BigM_ge+0x7c>
  3080a0:	00 09       	nop	
  3080a2:	e1 00       	mov	#0,r1
  3080a4:	60 13       	mov	r1,r0
  3080a6:	7e 08       	add	#8,r14
  3080a8:	6f e3       	mov	r14,r15
  3080aa:	4f 26       	lds.l	@r15+,pr
  3080ac:	6e f6       	mov.l	@r15+,r14
  3080ae:	00 0b       	rts	
  3080b0:	00 09       	nop	
  3080b2:	00 09       	nop	
  3080b4:	00 30       	.word 0x0030
  3080b6:	84 c4       	mov.b	@(4,r12),r0
  3080b8:	00 30       	.word 0x0030
  3080ba:	86 44       	.word 0x8644
  3080bc:	00 30       	.word 0x0030
  3080be:	85 f8       	mov.w	@(16,r15),r0

003080c0 <_gcd>:
  3080c0:	2f e6       	mov.l	r14,@-r15
  3080c2:	4f 22       	sts.l	pr,@-r15
  3080c4:	7f f4       	add	#-12,r15
  3080c6:	6e f3       	mov	r15,r14
  3080c8:	61 e3       	mov	r14,r1
  3080ca:	71 cc       	add	#-52,r1
  3080cc:	11 4e       	mov.l	r4,@(56,r1)
  3080ce:	61 e3       	mov	r14,r1
  3080d0:	71 cc       	add	#-52,r1
  3080d2:	11 5d       	mov.l	r5,@(52,r1)
  3080d4:	61 e3       	mov	r14,r1
  3080d6:	71 cc       	add	#-52,r1
  3080d8:	51 1d       	mov.l	@(52,r1),r1
  3080da:	21 18       	tst	r1,r1
  3080dc:	8b 0d       	bf	3080fa <_gcd+0x3a>
  3080de:	61 e3       	mov	r14,r1
  3080e0:	71 cc       	add	#-52,r1
  3080e2:	62 e3       	mov	r14,r2
  3080e4:	72 cc       	add	#-52,r2
  3080e6:	52 2e       	mov.l	@(56,r2),r2
  3080e8:	11 2f       	mov.l	r2,@(60,r1)
  3080ea:	61 e3       	mov	r14,r1
  3080ec:	71 cc       	add	#-52,r1
  3080ee:	51 1f       	mov.l	@(60,r1),r1
  3080f0:	41 11       	cmp/pz	r1
  3080f2:	89 00       	bt	3080f6 <_gcd+0x36>
  3080f4:	61 1b       	neg	r1,r1
  3080f6:	a0 18       	bra	30812a <_gcd+0x6a>
  3080f8:	00 09       	nop	
  3080fa:	61 e3       	mov	r14,r1
  3080fc:	71 cc       	add	#-52,r1
  3080fe:	62 e3       	mov	r14,r2
  308100:	72 cc       	add	#-52,r2
  308102:	53 1e       	mov.l	@(56,r1),r3
  308104:	d7 0c       	mov.l	308138 <_gcd+0x78>,r7	! 30a884 <___sdivsi3_i4i>
  308106:	64 33       	mov	r3,r4
  308108:	55 2d       	mov.l	@(52,r2),r5
  30810a:	47 0b       	jsr	@r7
  30810c:	00 09       	nop	
  30810e:	67 03       	mov	r0,r7
  308110:	51 2d       	mov.l	@(52,r2),r1
  308112:	07 17       	mul.l	r1,r7
  308114:	01 1a       	sts	macl,r1
  308116:	62 33       	mov	r3,r2
  308118:	32 18       	sub	r1,r2
  30811a:	61 e3       	mov	r14,r1
  30811c:	71 cc       	add	#-52,r1
  30811e:	65 23       	mov	r2,r5
  308120:	54 1d       	mov.l	@(52,r1),r4
  308122:	d1 06       	mov.l	30813c <_gcd+0x7c>,r1	! 3080c0 <_gcd>
  308124:	41 0b       	jsr	@r1
  308126:	00 09       	nop	
  308128:	61 03       	mov	r0,r1
  30812a:	60 13       	mov	r1,r0
  30812c:	7e 0c       	add	#12,r14
  30812e:	6f e3       	mov	r14,r15
  308130:	4f 26       	lds.l	@r15+,pr
  308132:	6e f6       	mov.l	@r15+,r14
  308134:	00 0b       	rts	
  308136:	00 09       	nop	
  308138:	00 30       	.word 0x0030
  30813a:	a8 84       	bra	307246 <_gint_default_panic+0x12>
  30813c:	00 30       	.word 0x0030
  30813e:	80 c0       	mov.b	r0,@(0,r12)

00308140 <_simplify_fraction>:
  308140:	2f 86       	mov.l	r8,@-r15
  308142:	2f e6       	mov.l	r14,@-r15
  308144:	4f 22       	sts.l	pr,@-r15
  308146:	7f f0       	add	#-16,r15
  308148:	6e f3       	mov	r15,r14
  30814a:	61 e3       	mov	r14,r1
  30814c:	71 d0       	add	#-48,r1
  30814e:	11 4c       	mov.l	r4,@(48,r1)
  308150:	61 e3       	mov	r14,r1
  308152:	71 d0       	add	#-48,r1
  308154:	62 e3       	mov	r14,r2
  308156:	72 d0       	add	#-48,r2
  308158:	52 2c       	mov.l	@(48,r2),r2
  30815a:	62 22       	mov.l	@r2,r2
  30815c:	11 2f       	mov.l	r2,@(60,r1)
  30815e:	61 e3       	mov	r14,r1
  308160:	71 d0       	add	#-48,r1
  308162:	51 1f       	mov.l	@(60,r1),r1
  308164:	41 11       	cmp/pz	r1
  308166:	63 13       	mov	r1,r3
  308168:	89 00       	bt	30816c <_simplify_fraction+0x2c>
  30816a:	63 1b       	neg	r1,r3
  30816c:	61 e3       	mov	r14,r1
  30816e:	71 d0       	add	#-48,r1
  308170:	62 e3       	mov	r14,r2
  308172:	72 d0       	add	#-48,r2
  308174:	52 2c       	mov.l	@(48,r2),r2
  308176:	52 21       	mov.l	@(4,r2),r2
  308178:	11 2e       	mov.l	r2,@(56,r1)
  30817a:	61 e3       	mov	r14,r1
  30817c:	71 d0       	add	#-48,r1
  30817e:	51 1e       	mov.l	@(56,r1),r1
  308180:	41 11       	cmp/pz	r1
  308182:	89 00       	bt	308186 <_simplify_fraction+0x46>
  308184:	61 1b       	neg	r1,r1
  308186:	68 e3       	mov	r14,r8
  308188:	78 d0       	add	#-48,r8
  30818a:	65 13       	mov	r1,r5
  30818c:	64 33       	mov	r3,r4
  30818e:	d1 19       	mov.l	3081f4 <_simplify_fraction+0xb4>,r1	! 3080c0 <_gcd>
  308190:	41 0b       	jsr	@r1
  308192:	00 09       	nop	
  308194:	61 03       	mov	r0,r1
  308196:	18 1d       	mov.l	r1,@(52,r8)
  308198:	61 e3       	mov	r14,r1
  30819a:	71 d0       	add	#-48,r1
  30819c:	51 1c       	mov.l	@(48,r1),r1
  30819e:	63 12       	mov.l	@r1,r3
  3081a0:	61 e3       	mov	r14,r1
  3081a2:	71 d0       	add	#-48,r1
  3081a4:	d2 14       	mov.l	3081f8 <_simplify_fraction+0xb8>,r2	! 30a884 <___sdivsi3_i4i>
  3081a6:	64 33       	mov	r3,r4
  3081a8:	55 1d       	mov.l	@(52,r1),r5
  3081aa:	42 0b       	jsr	@r2
  3081ac:	00 09       	nop	
  3081ae:	62 03       	mov	r0,r2
  3081b0:	61 e3       	mov	r14,r1
  3081b2:	71 d0       	add	#-48,r1
  3081b4:	51 1c       	mov.l	@(48,r1),r1
  3081b6:	21 22       	mov.l	r2,@r1
  3081b8:	61 e3       	mov	r14,r1
  3081ba:	71 d0       	add	#-48,r1
  3081bc:	51 1c       	mov.l	@(48,r1),r1
  3081be:	53 11       	mov.l	@(4,r1),r3
  3081c0:	61 e3       	mov	r14,r1
  3081c2:	71 d0       	add	#-48,r1
  3081c4:	d2 0c       	mov.l	3081f8 <_simplify_fraction+0xb8>,r2	! 30a884 <___sdivsi3_i4i>
  3081c6:	64 33       	mov	r3,r4
  3081c8:	55 1d       	mov.l	@(52,r1),r5
  3081ca:	42 0b       	jsr	@r2
  3081cc:	00 09       	nop	
  3081ce:	62 03       	mov	r0,r2
  3081d0:	61 e3       	mov	r14,r1
  3081d2:	71 d0       	add	#-48,r1
  3081d4:	51 1c       	mov.l	@(48,r1),r1
  3081d6:	11 21       	mov.l	r2,@(4,r1)
  3081d8:	61 e3       	mov	r14,r1
  3081da:	71 d0       	add	#-48,r1
  3081dc:	51 1c       	mov.l	@(48,r1),r1
  3081de:	62 12       	mov.l	@r1,r2
  3081e0:	53 11       	mov.l	@(4,r1),r3
  3081e2:	61 33       	mov	r3,r1
  3081e4:	60 23       	mov	r2,r0
  3081e6:	7e 10       	add	#16,r14
  3081e8:	6f e3       	mov	r14,r15
  3081ea:	4f 26       	lds.l	@r15+,pr
  3081ec:	6e f6       	mov.l	@r15+,r14
  3081ee:	68 f6       	mov.l	@r15+,r8
  3081f0:	00 0b       	rts	
  3081f2:	00 09       	nop	
  3081f4:	00 30       	.word 0x0030
  3081f6:	80 c0       	mov.b	r0,@(0,r12)
  3081f8:	00 30       	.word 0x0030
  3081fa:	a8 84       	bra	307306 <_gint_default_panic+0xd2>

003081fc <_new_fraction>:
  3081fc:	2f 86       	mov.l	r8,@-r15
  3081fe:	2f e6       	mov.l	r14,@-r15
  308200:	4f 22       	sts.l	pr,@-r15
  308202:	7f ec       	add	#-20,r15
  308204:	6e f3       	mov	r15,r14
  308206:	61 e3       	mov	r14,r1
  308208:	71 d4       	add	#-44,r1
  30820a:	11 4c       	mov.l	r4,@(48,r1)
  30820c:	61 e3       	mov	r14,r1
  30820e:	71 d4       	add	#-44,r1
  308210:	11 5b       	mov.l	r5,@(44,r1)
  308212:	68 e3       	mov	r14,r8
  308214:	78 d4       	add	#-44,r8
  308216:	e4 08       	mov	#8,r4
  308218:	d1 20       	mov.l	30829c <_new_fraction+0xa0>,r1	! 309250 <_malloc>
  30821a:	41 0b       	jsr	@r1
  30821c:	00 09       	nop	
  30821e:	61 03       	mov	r0,r1
  308220:	18 1f       	mov.l	r1,@(60,r8)
  308222:	61 e3       	mov	r14,r1
  308224:	71 d4       	add	#-44,r1
  308226:	51 1f       	mov.l	@(60,r1),r1
  308228:	21 18       	tst	r1,r1
  30822a:	8b 09       	bf	308240 <_new_fraction+0x44>
  30822c:	d3 1c       	mov.l	3082a0 <_new_fraction+0xa4>,r3	! 30bf0c
  30822e:	d2 1d       	mov.l	3082a4 <_new_fraction+0xa8>,r2	! 30bfb4 <___PRETTY_FUNCTION__.3>
  308230:	d1 1d       	mov.l	3082a8 <_new_fraction+0xac>,r1	! 30bf20
  308232:	67 33       	mov	r3,r7
  308234:	66 23       	mov	r2,r6
  308236:	e5 1b       	mov	#27,r5
  308238:	64 13       	mov	r1,r4
  30823a:	d1 1c       	mov.l	3082ac <_new_fraction+0xb0>,r1	! 308948 <___assert_fail>
  30823c:	41 0b       	jsr	@r1
  30823e:	00 09       	nop	
  308240:	61 e3       	mov	r14,r1
  308242:	71 d4       	add	#-44,r1
  308244:	51 1f       	mov.l	@(60,r1),r1
  308246:	62 e3       	mov	r14,r2
  308248:	72 d4       	add	#-44,r2
  30824a:	52 2c       	mov.l	@(48,r2),r2
  30824c:	21 22       	mov.l	r2,@r1
  30824e:	61 e3       	mov	r14,r1
  308250:	71 d4       	add	#-44,r1
  308252:	51 1f       	mov.l	@(60,r1),r1
  308254:	62 e3       	mov	r14,r2
  308256:	72 d4       	add	#-44,r2
  308258:	52 2b       	mov.l	@(44,r2),r2
  30825a:	11 21       	mov.l	r2,@(4,r1)
  30825c:	61 e3       	mov	r14,r1
  30825e:	71 d4       	add	#-44,r1
  308260:	54 1f       	mov.l	@(60,r1),r4
  308262:	d1 13       	mov.l	3082b0 <_new_fraction+0xb4>,r1	! 308140 <_simplify_fraction>
  308264:	41 0b       	jsr	@r1
  308266:	00 09       	nop	
  308268:	62 03       	mov	r0,r2
  30826a:	63 13       	mov	r1,r3
  30826c:	61 e3       	mov	r14,r1
  30826e:	71 d8       	add	#-40,r1
  308270:	11 2c       	mov.l	r2,@(48,r1)
  308272:	11 3d       	mov.l	r3,@(52,r1)
  308274:	61 e3       	mov	r14,r1
  308276:	71 d4       	add	#-44,r1
  308278:	54 1f       	mov.l	@(60,r1),r4
  30827a:	d1 0e       	mov.l	3082b4 <_new_fraction+0xb8>,r1	! 309244 <_free>
  30827c:	41 0b       	jsr	@r1
  30827e:	00 09       	nop	
  308280:	61 e3       	mov	r14,r1
  308282:	71 d8       	add	#-40,r1
  308284:	52 1c       	mov.l	@(48,r1),r2
  308286:	53 1d       	mov.l	@(52,r1),r3
  308288:	61 33       	mov	r3,r1
  30828a:	60 23       	mov	r2,r0
  30828c:	7e 14       	add	#20,r14
  30828e:	6f e3       	mov	r14,r15
  308290:	4f 26       	lds.l	@r15+,pr
  308292:	6e f6       	mov.l	@r15+,r14
  308294:	68 f6       	mov.l	@r15+,r8
  308296:	00 0b       	rts	
  308298:	00 09       	nop	
  30829a:	00 09       	nop	
  30829c:	00 30       	.word 0x0030
  30829e:	92 50       	mov.w	308342 <_fraction_str+0x8a>,r2	! bf58
  3082a0:	00 30       	.word 0x0030
  3082a2:	bf 0c       	bsr	3080be <_BigM_ge+0x96>
  3082a4:	00 30       	.word 0x0030
  3082a6:	bf b4       	bsr	308212 <_new_fraction+0x16>
  3082a8:	00 30       	.word 0x0030
  3082aa:	bf 20       	bsr	3080ee <_gcd+0x2e>
  3082ac:	00 30       	.word 0x0030
  3082ae:	89 48       	bt	308342 <_fraction_str+0x8a>
  3082b0:	00 30       	.word 0x0030
  3082b2:	81 40       	mov.w	r0,@(0,r4)
  3082b4:	00 30       	.word 0x0030
  3082b6:	92 44       	mov.w	308342 <_fraction_str+0x8a>,r2	! bf58

003082b8 <_fraction_str>:
  3082b8:	2f e6       	mov.l	r14,@-r15
  3082ba:	4f 22       	sts.l	pr,@-r15
  3082bc:	7f f4       	add	#-12,r15
  3082be:	6e f3       	mov	r15,r14
  3082c0:	61 e3       	mov	r14,r1
  3082c2:	71 04       	add	#4,r1
  3082c4:	21 42       	mov.l	r4,@r1
  3082c6:	11 51       	mov.l	r5,@(4,r1)
  3082c8:	61 e3       	mov	r14,r1
  3082ca:	71 cc       	add	#-52,r1
  3082cc:	11 6d       	mov.l	r6,@(52,r1)
  3082ce:	61 e3       	mov	r14,r1
  3082d0:	71 04       	add	#4,r1
  3082d2:	52 11       	mov.l	@(4,r1),r2
  3082d4:	e1 01       	mov	#1,r1
  3082d6:	32 10       	cmp/eq	r1,r2
  3082d8:	89 04       	bt	3082e4 <_fraction_str+0x2c>
  3082da:	61 e3       	mov	r14,r1
  3082dc:	71 04       	add	#4,r1
  3082de:	61 12       	mov.l	@r1,r1
  3082e0:	21 18       	tst	r1,r1
  3082e2:	8b 10       	bf	308306 <_fraction_str+0x4e>
  3082e4:	61 e3       	mov	r14,r1
  3082e6:	71 04       	add	#4,r1
  3082e8:	63 12       	mov.l	@r1,r3
  3082ea:	d2 13       	mov.l	308338 <_fraction_str+0x80>,r2	! 30bf54
  3082ec:	61 e3       	mov	r14,r1
  3082ee:	71 cc       	add	#-52,r1
  3082f0:	66 33       	mov	r3,r6
  3082f2:	65 23       	mov	r2,r5
  3082f4:	54 1d       	mov.l	@(52,r1),r4
  3082f6:	d1 11       	mov.l	30833c <_fraction_str+0x84>,r1	! 308dc4 <_sprintf>
  3082f8:	41 0b       	jsr	@r1
  3082fa:	00 09       	nop	
  3082fc:	61 e3       	mov	r14,r1
  3082fe:	71 cc       	add	#-52,r1
  308300:	51 1d       	mov.l	@(52,r1),r1
  308302:	a0 12       	bra	30832a <_fraction_str+0x72>
  308304:	00 09       	nop	
  308306:	61 e3       	mov	r14,r1
  308308:	71 04       	add	#4,r1
  30830a:	63 12       	mov.l	@r1,r3
  30830c:	61 e3       	mov	r14,r1
  30830e:	71 04       	add	#4,r1
  308310:	57 11       	mov.l	@(4,r1),r7
  308312:	d2 0b       	mov.l	308340 <_fraction_str+0x88>,r2	! 30bf58
  308314:	61 e3       	mov	r14,r1
  308316:	71 cc       	add	#-52,r1
  308318:	66 33       	mov	r3,r6
  30831a:	65 23       	mov	r2,r5
  30831c:	54 1d       	mov.l	@(52,r1),r4
  30831e:	d1 07       	mov.l	30833c <_fraction_str+0x84>,r1	! 308dc4 <_sprintf>
  308320:	41 0b       	jsr	@r1
  308322:	00 09       	nop	
  308324:	61 e3       	mov	r14,r1
  308326:	71 cc       	add	#-52,r1
  308328:	51 1d       	mov.l	@(52,r1),r1
  30832a:	60 13       	mov	r1,r0
  30832c:	7e 0c       	add	#12,r14
  30832e:	6f e3       	mov	r14,r15
  308330:	4f 26       	lds.l	@r15+,pr
  308332:	6e f6       	mov.l	@r15+,r14
  308334:	00 0b       	rts	
  308336:	00 09       	nop	
  308338:	00 30       	.word 0x0030
  30833a:	bf 54       	bsr	3081e6 <_simplify_fraction+0xa6>
  30833c:	00 30       	.word 0x0030
  30833e:	8d c4       	bt.s	3082ca <_fraction_str+0x12>
  308340:	00 30       	.word 0x0030
  308342:	bf 58       	bsr	3081f6 <_simplify_fraction+0xb6>

00308344 <_fraction_zero>:
  308344:	2f e6       	mov.l	r14,@-r15
  308346:	6e f3       	mov	r15,r14
  308348:	e2 00       	mov	#0,r2
  30834a:	e3 01       	mov	#1,r3
  30834c:	61 33       	mov	r3,r1
  30834e:	60 23       	mov	r2,r0
  308350:	6f e3       	mov	r14,r15
  308352:	6e f6       	mov.l	@r15+,r14
  308354:	00 0b       	rts	
  308356:	00 09       	nop	

00308358 <_fraction_is_zero>:
  308358:	2f e6       	mov.l	r14,@-r15
  30835a:	7f f8       	add	#-8,r15
  30835c:	6e f3       	mov	r15,r14
  30835e:	61 e3       	mov	r14,r1
  308360:	21 42       	mov.l	r4,@r1
  308362:	11 51       	mov.l	r5,@(4,r1)
  308364:	61 e3       	mov	r14,r1
  308366:	61 12       	mov.l	@r1,r1
  308368:	21 18       	tst	r1,r1
  30836a:	01 29       	movt	r1
  30836c:	61 1c       	extu.b	r1,r1
  30836e:	60 13       	mov	r1,r0
  308370:	7e 08       	add	#8,r14
  308372:	6f e3       	mov	r14,r15
  308374:	6e f6       	mov.l	@r15+,r14
  308376:	00 0b       	rts	
  308378:	00 09       	nop	

0030837a <_make_common_denominator>:
  30837a:	2f e6       	mov.l	r14,@-r15
  30837c:	4f 22       	sts.l	pr,@-r15
  30837e:	7f f8       	add	#-8,r15
  308380:	6e f3       	mov	r15,r14
  308382:	61 e3       	mov	r14,r1
  308384:	71 c8       	add	#-56,r1
  308386:	11 4f       	mov.l	r4,@(60,r1)
  308388:	61 e3       	mov	r14,r1
  30838a:	71 c8       	add	#-56,r1
  30838c:	11 5e       	mov.l	r5,@(56,r1)
  30838e:	61 e3       	mov	r14,r1
  308390:	71 c8       	add	#-56,r1
  308392:	51 1f       	mov.l	@(60,r1),r1
  308394:	62 12       	mov.l	@r1,r2
  308396:	61 e3       	mov	r14,r1
  308398:	71 c8       	add	#-56,r1
  30839a:	51 1e       	mov.l	@(56,r1),r1
  30839c:	51 11       	mov.l	@(4,r1),r1
  30839e:	02 17       	mul.l	r1,r2
  3083a0:	02 1a       	sts	macl,r2
  3083a2:	61 e3       	mov	r14,r1
  3083a4:	71 c8       	add	#-56,r1
  3083a6:	51 1f       	mov.l	@(60,r1),r1
  3083a8:	21 22       	mov.l	r2,@r1
  3083aa:	61 e3       	mov	r14,r1
  3083ac:	71 c8       	add	#-56,r1
  3083ae:	51 1f       	mov.l	@(60,r1),r1
  3083b0:	52 11       	mov.l	@(4,r1),r2
  3083b2:	61 e3       	mov	r14,r1
  3083b4:	71 c8       	add	#-56,r1
  3083b6:	51 1e       	mov.l	@(56,r1),r1
  3083b8:	51 11       	mov.l	@(4,r1),r1
  3083ba:	02 17       	mul.l	r1,r2
  3083bc:	02 1a       	sts	macl,r2
  3083be:	61 e3       	mov	r14,r1
  3083c0:	71 c8       	add	#-56,r1
  3083c2:	51 1f       	mov.l	@(60,r1),r1
  3083c4:	11 21       	mov.l	r2,@(4,r1)
  3083c6:	61 e3       	mov	r14,r1
  3083c8:	71 c8       	add	#-56,r1
  3083ca:	51 1e       	mov.l	@(56,r1),r1
  3083cc:	63 12       	mov.l	@r1,r3
  3083ce:	61 e3       	mov	r14,r1
  3083d0:	71 c8       	add	#-56,r1
  3083d2:	51 1f       	mov.l	@(60,r1),r1
  3083d4:	57 11       	mov.l	@(4,r1),r7
  3083d6:	61 e3       	mov	r14,r1
  3083d8:	71 c8       	add	#-56,r1
  3083da:	51 1e       	mov.l	@(56,r1),r1
  3083dc:	51 11       	mov.l	@(4,r1),r1
  3083de:	d2 17       	mov.l	30843c <_make_common_denominator+0xc2>,r2	! 30a884 <___sdivsi3_i4i>
  3083e0:	64 73       	mov	r7,r4
  3083e2:	65 13       	mov	r1,r5
  3083e4:	42 0b       	jsr	@r2
  3083e6:	00 09       	nop	
  3083e8:	62 03       	mov	r0,r2
  3083ea:	03 27       	mul.l	r2,r3
  3083ec:	02 1a       	sts	macl,r2
  3083ee:	61 e3       	mov	r14,r1
  3083f0:	71 c8       	add	#-56,r1
  3083f2:	51 1e       	mov.l	@(56,r1),r1
  3083f4:	21 22       	mov.l	r2,@r1
  3083f6:	61 e3       	mov	r14,r1
  3083f8:	71 c8       	add	#-56,r1
  3083fa:	51 1f       	mov.l	@(60,r1),r1
  3083fc:	52 11       	mov.l	@(4,r1),r2
  3083fe:	61 e3       	mov	r14,r1
  308400:	71 c8       	add	#-56,r1
  308402:	51 1e       	mov.l	@(56,r1),r1
  308404:	11 21       	mov.l	r2,@(4,r1)
  308406:	61 e3       	mov	r14,r1
  308408:	71 c8       	add	#-56,r1
  30840a:	51 1f       	mov.l	@(60,r1),r1
  30840c:	52 11       	mov.l	@(4,r1),r2
  30840e:	61 e3       	mov	r14,r1
  308410:	71 c8       	add	#-56,r1
  308412:	51 1e       	mov.l	@(56,r1),r1
  308414:	51 11       	mov.l	@(4,r1),r1
  308416:	32 10       	cmp/eq	r1,r2
  308418:	89 09       	bt	30842e <_make_common_denominator+0xb4>
  30841a:	d3 09       	mov.l	308440 <_make_common_denominator+0xc6>,r3	! 30bf60
  30841c:	d2 09       	mov.l	308444 <_make_common_denominator+0xca>,r2	! 30bfc4 <___PRETTY_FUNCTION__.2>
  30841e:	d1 0a       	mov.l	308448 <_make_common_denominator+0xce>,r1	! 30bf20
  308420:	67 33       	mov	r3,r7
  308422:	66 23       	mov	r2,r6
  308424:	e5 3c       	mov	#60,r5
  308426:	64 13       	mov	r1,r4
  308428:	d1 08       	mov.l	30844c <_make_common_denominator+0xd2>,r1	! 308948 <___assert_fail>
  30842a:	41 0b       	jsr	@r1
  30842c:	00 09       	nop	
  30842e:	00 09       	nop	
  308430:	7e 08       	add	#8,r14
  308432:	6f e3       	mov	r14,r15
  308434:	4f 26       	lds.l	@r15+,pr
  308436:	6e f6       	mov.l	@r15+,r14
  308438:	00 0b       	rts	
  30843a:	00 09       	nop	
  30843c:	00 30       	.word 0x0030
  30843e:	a8 84       	bra	30754a <_gint_exc_skip+0xa>
  308440:	00 30       	.word 0x0030
  308442:	bf 60       	bsr	308306 <_fraction_str+0x4e>
  308444:	00 30       	.word 0x0030
  308446:	bf c4       	bsr	3083d2 <_make_common_denominator+0x58>
  308448:	00 30       	.word 0x0030
  30844a:	bf 20       	bsr	30828e <_new_fraction+0x92>
  30844c:	00 30       	.word 0x0030
  30844e:	89 48       	bt	3084e2 <_fraction_eq+0x1e>

00308450 <_abs_fraction>:
  308450:	2f e6       	mov.l	r14,@-r15
  308452:	4f 22       	sts.l	pr,@-r15
  308454:	7f f0       	add	#-16,r15
  308456:	6e f3       	mov	r15,r14
  308458:	61 e3       	mov	r14,r1
  30845a:	71 d0       	add	#-48,r1
  30845c:	11 4c       	mov.l	r4,@(48,r1)
  30845e:	11 5d       	mov.l	r5,@(52,r1)
  308460:	61 e3       	mov	r14,r1
  308462:	71 d0       	add	#-48,r1
  308464:	62 e3       	mov	r14,r2
  308466:	72 d0       	add	#-48,r2
  308468:	52 2c       	mov.l	@(48,r2),r2
  30846a:	11 2f       	mov.l	r2,@(60,r1)
  30846c:	61 e3       	mov	r14,r1
  30846e:	71 d0       	add	#-48,r1
  308470:	51 1f       	mov.l	@(60,r1),r1
  308472:	41 11       	cmp/pz	r1
  308474:	62 13       	mov	r1,r2
  308476:	89 00       	bt	30847a <_abs_fraction+0x2a>
  308478:	62 1b       	neg	r1,r2
  30847a:	61 e3       	mov	r14,r1
  30847c:	71 d0       	add	#-48,r1
  30847e:	11 2c       	mov.l	r2,@(48,r1)
  308480:	61 e3       	mov	r14,r1
  308482:	71 d0       	add	#-48,r1
  308484:	62 e3       	mov	r14,r2
  308486:	72 d0       	add	#-48,r2
  308488:	52 2d       	mov.l	@(52,r2),r2
  30848a:	11 2e       	mov.l	r2,@(56,r1)
  30848c:	61 e3       	mov	r14,r1
  30848e:	71 d0       	add	#-48,r1
  308490:	51 1e       	mov.l	@(56,r1),r1
  308492:	41 11       	cmp/pz	r1
  308494:	62 13       	mov	r1,r2
  308496:	89 00       	bt	30849a <_abs_fraction+0x4a>
  308498:	62 1b       	neg	r1,r2
  30849a:	61 e3       	mov	r14,r1
  30849c:	71 d0       	add	#-48,r1
  30849e:	11 2d       	mov.l	r2,@(52,r1)
  3084a0:	61 e3       	mov	r14,r1
  3084a2:	64 13       	mov	r1,r4
  3084a4:	d1 06       	mov.l	3084c0 <_abs_fraction+0x70>,r1	! 308140 <_simplify_fraction>
  3084a6:	41 0b       	jsr	@r1
  3084a8:	00 09       	nop	
  3084aa:	62 03       	mov	r0,r2
  3084ac:	63 13       	mov	r1,r3
  3084ae:	61 33       	mov	r3,r1
  3084b0:	60 23       	mov	r2,r0
  3084b2:	7e 10       	add	#16,r14
  3084b4:	6f e3       	mov	r14,r15
  3084b6:	4f 26       	lds.l	@r15+,pr
  3084b8:	6e f6       	mov.l	@r15+,r14
  3084ba:	00 0b       	rts	
  3084bc:	00 09       	nop	
  3084be:	00 09       	nop	
  3084c0:	00 30       	.word 0x0030
  3084c2:	81 40       	mov.w	r0,@(0,r4)

003084c4 <_fraction_eq>:
  3084c4:	2f e6       	mov.l	r14,@-r15
  3084c6:	4f 22       	sts.l	pr,@-r15
  3084c8:	7f f0       	add	#-16,r15
  3084ca:	6e f3       	mov	r15,r14
  3084cc:	61 e3       	mov	r14,r1
  3084ce:	71 08       	add	#8,r1
  3084d0:	21 42       	mov.l	r4,@r1
  3084d2:	11 51       	mov.l	r5,@(4,r1)
  3084d4:	61 e3       	mov	r14,r1
  3084d6:	71 d0       	add	#-48,r1
  3084d8:	11 6c       	mov.l	r6,@(48,r1)
  3084da:	11 7d       	mov.l	r7,@(52,r1)
  3084dc:	62 e3       	mov	r14,r2
  3084de:	61 e3       	mov	r14,r1
  3084e0:	71 08       	add	#8,r1
  3084e2:	65 23       	mov	r2,r5
  3084e4:	64 13       	mov	r1,r4
  3084e6:	d1 09       	mov.l	30850c <_fraction_eq+0x48>,r1	! 30837a <_make_common_denominator>
  3084e8:	41 0b       	jsr	@r1
  3084ea:	00 09       	nop	
  3084ec:	61 e3       	mov	r14,r1
  3084ee:	71 08       	add	#8,r1
  3084f0:	62 12       	mov.l	@r1,r2
  3084f2:	61 e3       	mov	r14,r1
  3084f4:	71 d0       	add	#-48,r1
  3084f6:	51 1c       	mov.l	@(48,r1),r1
  3084f8:	32 10       	cmp/eq	r1,r2
  3084fa:	01 29       	movt	r1
  3084fc:	61 1c       	extu.b	r1,r1
  3084fe:	60 13       	mov	r1,r0
  308500:	7e 10       	add	#16,r14
  308502:	6f e3       	mov	r14,r15
  308504:	4f 26       	lds.l	@r15+,pr
  308506:	6e f6       	mov.l	@r15+,r14
  308508:	00 0b       	rts	
  30850a:	00 09       	nop	
  30850c:	00 30       	.word 0x0030
  30850e:	83 7a       	.word 0x837a

00308510 <_fraction_ne>:
  308510:	2f e6       	mov.l	r14,@-r15
  308512:	4f 22       	sts.l	pr,@-r15
  308514:	7f f0       	add	#-16,r15
  308516:	6e f3       	mov	r15,r14
  308518:	61 e3       	mov	r14,r1
  30851a:	71 08       	add	#8,r1
  30851c:	21 42       	mov.l	r4,@r1
  30851e:	11 51       	mov.l	r5,@(4,r1)
  308520:	61 e3       	mov	r14,r1
  308522:	71 d0       	add	#-48,r1
  308524:	11 6c       	mov.l	r6,@(48,r1)
  308526:	11 7d       	mov.l	r7,@(52,r1)
  308528:	62 e3       	mov	r14,r2
  30852a:	61 e3       	mov	r14,r1
  30852c:	71 08       	add	#8,r1
  30852e:	65 23       	mov	r2,r5
  308530:	64 13       	mov	r1,r4
  308532:	d1 0a       	mov.l	30855c <_fraction_ne+0x4c>,r1	! 30837a <_make_common_denominator>
  308534:	41 0b       	jsr	@r1
  308536:	00 09       	nop	
  308538:	61 e3       	mov	r14,r1
  30853a:	71 08       	add	#8,r1
  30853c:	62 12       	mov.l	@r1,r2
  30853e:	61 e3       	mov	r14,r1
  308540:	71 d0       	add	#-48,r1
  308542:	51 1c       	mov.l	@(48,r1),r1
  308544:	32 10       	cmp/eq	r1,r2
  308546:	e1 ff       	mov	#-1,r1
  308548:	61 1a       	negc	r1,r1
  30854a:	61 1c       	extu.b	r1,r1
  30854c:	60 13       	mov	r1,r0
  30854e:	7e 10       	add	#16,r14
  308550:	6f e3       	mov	r14,r15
  308552:	4f 26       	lds.l	@r15+,pr
  308554:	6e f6       	mov.l	@r15+,r14
  308556:	00 0b       	rts	
  308558:	00 09       	nop	
  30855a:	00 09       	nop	
  30855c:	00 30       	.word 0x0030
  30855e:	83 7a       	.word 0x837a

00308560 <_fraction_lt>:
  308560:	2f e6       	mov.l	r14,@-r15
  308562:	4f 22       	sts.l	pr,@-r15
  308564:	7f f0       	add	#-16,r15
  308566:	6e f3       	mov	r15,r14
  308568:	61 e3       	mov	r14,r1
  30856a:	71 08       	add	#8,r1
  30856c:	21 42       	mov.l	r4,@r1
  30856e:	11 51       	mov.l	r5,@(4,r1)
  308570:	61 e3       	mov	r14,r1
  308572:	71 d0       	add	#-48,r1
  308574:	11 6c       	mov.l	r6,@(48,r1)
  308576:	11 7d       	mov.l	r7,@(52,r1)
  308578:	62 e3       	mov	r14,r2
  30857a:	61 e3       	mov	r14,r1
  30857c:	71 08       	add	#8,r1
  30857e:	65 23       	mov	r2,r5
  308580:	64 13       	mov	r1,r4
  308582:	d1 09       	mov.l	3085a8 <_fraction_lt+0x48>,r1	! 30837a <_make_common_denominator>
  308584:	41 0b       	jsr	@r1
  308586:	00 09       	nop	
  308588:	61 e3       	mov	r14,r1
  30858a:	71 08       	add	#8,r1
  30858c:	61 12       	mov.l	@r1,r1
  30858e:	62 e3       	mov	r14,r2
  308590:	72 d0       	add	#-48,r2
  308592:	52 2c       	mov.l	@(48,r2),r2
  308594:	32 17       	cmp/gt	r1,r2
  308596:	01 29       	movt	r1
  308598:	61 1c       	extu.b	r1,r1
  30859a:	60 13       	mov	r1,r0
  30859c:	7e 10       	add	#16,r14
  30859e:	6f e3       	mov	r14,r15
  3085a0:	4f 26       	lds.l	@r15+,pr
  3085a2:	6e f6       	mov.l	@r15+,r14
  3085a4:	00 0b       	rts	
  3085a6:	00 09       	nop	
  3085a8:	00 30       	.word 0x0030
  3085aa:	83 7a       	.word 0x837a

003085ac <_fraction_lte>:
  3085ac:	2f e6       	mov.l	r14,@-r15
  3085ae:	4f 22       	sts.l	pr,@-r15
  3085b0:	7f f0       	add	#-16,r15
  3085b2:	6e f3       	mov	r15,r14
  3085b4:	61 e3       	mov	r14,r1
  3085b6:	71 08       	add	#8,r1
  3085b8:	21 42       	mov.l	r4,@r1
  3085ba:	11 51       	mov.l	r5,@(4,r1)
  3085bc:	61 e3       	mov	r14,r1
  3085be:	71 d0       	add	#-48,r1
  3085c0:	11 6c       	mov.l	r6,@(48,r1)
  3085c2:	11 7d       	mov.l	r7,@(52,r1)
  3085c4:	62 e3       	mov	r14,r2
  3085c6:	61 e3       	mov	r14,r1
  3085c8:	71 08       	add	#8,r1
  3085ca:	65 23       	mov	r2,r5
  3085cc:	64 13       	mov	r1,r4
  3085ce:	d1 09       	mov.l	3085f4 <_fraction_lte+0x48>,r1	! 30837a <_make_common_denominator>
  3085d0:	41 0b       	jsr	@r1
  3085d2:	00 09       	nop	
  3085d4:	61 e3       	mov	r14,r1
  3085d6:	71 08       	add	#8,r1
  3085d8:	61 12       	mov.l	@r1,r1
  3085da:	62 e3       	mov	r14,r2
  3085dc:	72 d0       	add	#-48,r2
  3085de:	52 2c       	mov.l	@(48,r2),r2
  3085e0:	32 13       	cmp/ge	r1,r2
  3085e2:	01 29       	movt	r1
  3085e4:	61 1c       	extu.b	r1,r1
  3085e6:	60 13       	mov	r1,r0
  3085e8:	7e 10       	add	#16,r14
  3085ea:	6f e3       	mov	r14,r15
  3085ec:	4f 26       	lds.l	@r15+,pr
  3085ee:	6e f6       	mov.l	@r15+,r14
  3085f0:	00 0b       	rts	
  3085f2:	00 09       	nop	
  3085f4:	00 30       	.word 0x0030
  3085f6:	83 7a       	.word 0x837a

003085f8 <_fraction_gt>:
  3085f8:	2f e6       	mov.l	r14,@-r15
  3085fa:	4f 22       	sts.l	pr,@-r15
  3085fc:	7f f0       	add	#-16,r15
  3085fe:	6e f3       	mov	r15,r14
  308600:	61 e3       	mov	r14,r1
  308602:	71 08       	add	#8,r1
  308604:	21 42       	mov.l	r4,@r1
  308606:	11 51       	mov.l	r5,@(4,r1)
  308608:	61 e3       	mov	r14,r1
  30860a:	71 d0       	add	#-48,r1
  30860c:	11 6c       	mov.l	r6,@(48,r1)
  30860e:	11 7d       	mov.l	r7,@(52,r1)
  308610:	62 e3       	mov	r14,r2
  308612:	61 e3       	mov	r14,r1
  308614:	71 08       	add	#8,r1
  308616:	65 23       	mov	r2,r5
  308618:	64 13       	mov	r1,r4
  30861a:	d1 09       	mov.l	308640 <_fraction_gt+0x48>,r1	! 30837a <_make_common_denominator>
  30861c:	41 0b       	jsr	@r1
  30861e:	00 09       	nop	
  308620:	61 e3       	mov	r14,r1
  308622:	71 08       	add	#8,r1
  308624:	62 12       	mov.l	@r1,r2
  308626:	61 e3       	mov	r14,r1
  308628:	71 d0       	add	#-48,r1
  30862a:	51 1c       	mov.l	@(48,r1),r1
  30862c:	32 17       	cmp/gt	r1,r2
  30862e:	01 29       	movt	r1
  308630:	61 1c       	extu.b	r1,r1
  308632:	60 13       	mov	r1,r0
  308634:	7e 10       	add	#16,r14
  308636:	6f e3       	mov	r14,r15
  308638:	4f 26       	lds.l	@r15+,pr
  30863a:	6e f6       	mov.l	@r15+,r14
  30863c:	00 0b       	rts	
  30863e:	00 09       	nop	
  308640:	00 30       	.word 0x0030
  308642:	83 7a       	.word 0x837a

00308644 <_fraction_gte>:
  308644:	2f e6       	mov.l	r14,@-r15
  308646:	4f 22       	sts.l	pr,@-r15
  308648:	7f f0       	add	#-16,r15
  30864a:	6e f3       	mov	r15,r14
  30864c:	61 e3       	mov	r14,r1
  30864e:	71 08       	add	#8,r1
  308650:	21 42       	mov.l	r4,@r1
  308652:	11 51       	mov.l	r5,@(4,r1)
  308654:	61 e3       	mov	r14,r1
  308656:	71 d0       	add	#-48,r1
  308658:	11 6c       	mov.l	r6,@(48,r1)
  30865a:	11 7d       	mov.l	r7,@(52,r1)
  30865c:	62 e3       	mov	r14,r2
  30865e:	61 e3       	mov	r14,r1
  308660:	71 08       	add	#8,r1
  308662:	65 23       	mov	r2,r5
  308664:	64 13       	mov	r1,r4
  308666:	d1 09       	mov.l	30868c <_fraction_gte+0x48>,r1	! 30837a <_make_common_denominator>
  308668:	41 0b       	jsr	@r1
  30866a:	00 09       	nop	
  30866c:	61 e3       	mov	r14,r1
  30866e:	71 08       	add	#8,r1
  308670:	62 12       	mov.l	@r1,r2
  308672:	61 e3       	mov	r14,r1
  308674:	71 d0       	add	#-48,r1
  308676:	51 1c       	mov.l	@(48,r1),r1
  308678:	32 13       	cmp/ge	r1,r2
  30867a:	01 29       	movt	r1
  30867c:	61 1c       	extu.b	r1,r1
  30867e:	60 13       	mov	r1,r0
  308680:	7e 10       	add	#16,r14
  308682:	6f e3       	mov	r14,r15
  308684:	4f 26       	lds.l	@r15+,pr
  308686:	6e f6       	mov.l	@r15+,r14
  308688:	00 0b       	rts	
  30868a:	00 09       	nop	
  30868c:	00 30       	.word 0x0030
  30868e:	83 7a       	.word 0x837a

00308690 <_fraction_add>:
  308690:	2f e6       	mov.l	r14,@-r15
  308692:	4f 22       	sts.l	pr,@-r15
  308694:	7f d8       	add	#-40,r15
  308696:	6e f3       	mov	r15,r14
  308698:	61 e3       	mov	r14,r1
  30869a:	71 e8       	add	#-24,r1
  30869c:	11 48       	mov.l	r4,@(32,r1)
  30869e:	11 59       	mov.l	r5,@(36,r1)
  3086a0:	61 e3       	mov	r14,r1
  3086a2:	71 e8       	add	#-24,r1
  3086a4:	11 66       	mov.l	r6,@(24,r1)
  3086a6:	11 77       	mov.l	r7,@(28,r1)
  3086a8:	61 e3       	mov	r14,r1
  3086aa:	71 20       	add	#32,r1
  3086ac:	62 e3       	mov	r14,r2
  3086ae:	72 e8       	add	#-24,r2
  3086b0:	53 29       	mov.l	@(36,r2),r3
  3086b2:	52 28       	mov.l	@(32,r2),r2
  3086b4:	21 22       	mov.l	r2,@r1
  3086b6:	11 31       	mov.l	r3,@(4,r1)
  3086b8:	61 e3       	mov	r14,r1
  3086ba:	71 e8       	add	#-24,r1
  3086bc:	62 e3       	mov	r14,r2
  3086be:	72 e8       	add	#-24,r2
  3086c0:	53 27       	mov.l	@(28,r2),r3
  3086c2:	52 26       	mov.l	@(24,r2),r2
  3086c4:	11 2c       	mov.l	r2,@(48,r1)
  3086c6:	11 3d       	mov.l	r3,@(52,r1)
  3086c8:	62 e3       	mov	r14,r2
  3086ca:	72 18       	add	#24,r2
  3086cc:	61 e3       	mov	r14,r1
  3086ce:	71 20       	add	#32,r1
  3086d0:	65 23       	mov	r2,r5
  3086d2:	64 13       	mov	r1,r4
  3086d4:	d1 1a       	mov.l	308740 <_fraction_add+0xb0>,r1	! 30837a <_make_common_denominator>
  3086d6:	41 0b       	jsr	@r1
  3086d8:	00 09       	nop	
  3086da:	61 e3       	mov	r14,r1
  3086dc:	71 20       	add	#32,r1
  3086de:	52 11       	mov.l	@(4,r1),r2
  3086e0:	61 e3       	mov	r14,r1
  3086e2:	71 e8       	add	#-24,r1
  3086e4:	51 1d       	mov.l	@(52,r1),r1
  3086e6:	32 10       	cmp/eq	r1,r2
  3086e8:	89 09       	bt	3086fe <_fraction_add+0x6e>
  3086ea:	d3 16       	mov.l	308744 <_fraction_add+0xb4>,r3	! 30bf8c
  3086ec:	d2 16       	mov.l	308748 <_fraction_add+0xb8>,r2	! 30bfdc <___PRETTY_FUNCTION__.1>
  3086ee:	d1 17       	mov.l	30874c <_fraction_add+0xbc>,r1	! 30bf20
  3086f0:	67 33       	mov	r3,r7
  3086f2:	66 23       	mov	r2,r6
  3086f4:	e5 67       	mov	#103,r5
  3086f6:	64 13       	mov	r1,r4
  3086f8:	d1 15       	mov.l	308750 <_fraction_add+0xc0>,r1	! 308948 <___assert_fail>
  3086fa:	41 0b       	jsr	@r1
  3086fc:	00 09       	nop	
  3086fe:	61 e3       	mov	r14,r1
  308700:	71 20       	add	#32,r1
  308702:	62 12       	mov.l	@r1,r2
  308704:	61 e3       	mov	r14,r1
  308706:	71 e8       	add	#-24,r1
  308708:	51 1c       	mov.l	@(48,r1),r1
  30870a:	32 1c       	add	r1,r2
  30870c:	61 e3       	mov	r14,r1
  30870e:	71 e8       	add	#-24,r1
  308710:	11 2a       	mov.l	r2,@(40,r1)
  308712:	61 e3       	mov	r14,r1
  308714:	71 20       	add	#32,r1
  308716:	52 11       	mov.l	@(4,r1),r2
  308718:	61 e3       	mov	r14,r1
  30871a:	71 e8       	add	#-24,r1
  30871c:	11 2b       	mov.l	r2,@(44,r1)
  30871e:	61 e3       	mov	r14,r1
  308720:	71 10       	add	#16,r1
  308722:	64 13       	mov	r1,r4
  308724:	d1 0b       	mov.l	308754 <_fraction_add+0xc4>,r1	! 308140 <_simplify_fraction>
  308726:	41 0b       	jsr	@r1
  308728:	00 09       	nop	
  30872a:	62 03       	mov	r0,r2
  30872c:	63 13       	mov	r1,r3
  30872e:	61 33       	mov	r3,r1
  308730:	60 23       	mov	r2,r0
  308732:	7e 28       	add	#40,r14
  308734:	6f e3       	mov	r14,r15
  308736:	4f 26       	lds.l	@r15+,pr
  308738:	6e f6       	mov.l	@r15+,r14
  30873a:	00 0b       	rts	
  30873c:	00 09       	nop	
  30873e:	00 09       	nop	
  308740:	00 30       	.word 0x0030
  308742:	83 7a       	.word 0x837a
  308744:	00 30       	.word 0x0030
  308746:	bf 8c       	bsr	308662 <_fraction_gte+0x1e>
  308748:	00 30       	.word 0x0030
  30874a:	bf dc       	bsr	308706 <_fraction_add+0x76>
  30874c:	00 30       	.word 0x0030
  30874e:	bf 20       	bsr	308592 <_fraction_lt+0x32>
  308750:	00 30       	.word 0x0030
  308752:	89 48       	bt	3087e6 <_fraction_subtract+0x8e>
  308754:	00 30       	.word 0x0030
  308756:	81 40       	mov.w	r0,@(0,r4)

00308758 <_fraction_subtract>:
  308758:	2f e6       	mov.l	r14,@-r15
  30875a:	4f 22       	sts.l	pr,@-r15
  30875c:	7f d8       	add	#-40,r15
  30875e:	6e f3       	mov	r15,r14
  308760:	61 e3       	mov	r14,r1
  308762:	71 e8       	add	#-24,r1
  308764:	11 48       	mov.l	r4,@(32,r1)
  308766:	11 59       	mov.l	r5,@(36,r1)
  308768:	61 e3       	mov	r14,r1
  30876a:	71 e8       	add	#-24,r1
  30876c:	11 66       	mov.l	r6,@(24,r1)
  30876e:	11 77       	mov.l	r7,@(28,r1)
  308770:	61 e3       	mov	r14,r1
  308772:	71 20       	add	#32,r1
  308774:	62 e3       	mov	r14,r2
  308776:	72 e8       	add	#-24,r2
  308778:	53 29       	mov.l	@(36,r2),r3
  30877a:	52 28       	mov.l	@(32,r2),r2
  30877c:	21 22       	mov.l	r2,@r1
  30877e:	11 31       	mov.l	r3,@(4,r1)
  308780:	61 e3       	mov	r14,r1
  308782:	71 e8       	add	#-24,r1
  308784:	62 e3       	mov	r14,r2
  308786:	72 e8       	add	#-24,r2
  308788:	53 27       	mov.l	@(28,r2),r3
  30878a:	52 26       	mov.l	@(24,r2),r2
  30878c:	11 2c       	mov.l	r2,@(48,r1)
  30878e:	11 3d       	mov.l	r3,@(52,r1)
  308790:	62 e3       	mov	r14,r2
  308792:	72 18       	add	#24,r2
  308794:	61 e3       	mov	r14,r1
  308796:	71 20       	add	#32,r1
  308798:	65 23       	mov	r2,r5
  30879a:	64 13       	mov	r1,r4
  30879c:	d1 1a       	mov.l	308808 <_fraction_subtract+0xb0>,r1	! 30837a <_make_common_denominator>
  30879e:	41 0b       	jsr	@r1
  3087a0:	00 09       	nop	
  3087a2:	61 e3       	mov	r14,r1
  3087a4:	71 20       	add	#32,r1
  3087a6:	52 11       	mov.l	@(4,r1),r2
  3087a8:	61 e3       	mov	r14,r1
  3087aa:	71 e8       	add	#-24,r1
  3087ac:	51 1d       	mov.l	@(52,r1),r1
  3087ae:	32 10       	cmp/eq	r1,r2
  3087b0:	89 09       	bt	3087c6 <_fraction_subtract+0x6e>
  3087b2:	d3 16       	mov.l	30880c <_fraction_subtract+0xb4>,r3	! 30bf8c
  3087b4:	d2 16       	mov.l	308810 <_fraction_subtract+0xb8>,r2	! 30bfec <___PRETTY_FUNCTION__.0>
  3087b6:	d1 17       	mov.l	308814 <_fraction_subtract+0xbc>,r1	! 30bf20
  3087b8:	67 33       	mov	r3,r7
  3087ba:	66 23       	mov	r2,r6
  3087bc:	e5 6f       	mov	#111,r5
  3087be:	64 13       	mov	r1,r4
  3087c0:	d1 15       	mov.l	308818 <_fraction_subtract+0xc0>,r1	! 308948 <___assert_fail>
  3087c2:	41 0b       	jsr	@r1
  3087c4:	00 09       	nop	
  3087c6:	61 e3       	mov	r14,r1
  3087c8:	71 20       	add	#32,r1
  3087ca:	62 12       	mov.l	@r1,r2
  3087cc:	61 e3       	mov	r14,r1
  3087ce:	71 e8       	add	#-24,r1
  3087d0:	51 1c       	mov.l	@(48,r1),r1
  3087d2:	32 18       	sub	r1,r2
  3087d4:	61 e3       	mov	r14,r1
  3087d6:	71 e8       	add	#-24,r1
  3087d8:	11 2a       	mov.l	r2,@(40,r1)
  3087da:	61 e3       	mov	r14,r1
  3087dc:	71 20       	add	#32,r1
  3087de:	52 11       	mov.l	@(4,r1),r2
  3087e0:	61 e3       	mov	r14,r1
  3087e2:	71 e8       	add	#-24,r1
  3087e4:	11 2b       	mov.l	r2,@(44,r1)
  3087e6:	61 e3       	mov	r14,r1
  3087e8:	71 10       	add	#16,r1
  3087ea:	64 13       	mov	r1,r4
  3087ec:	d1 0b       	mov.l	30881c <_fraction_subtract+0xc4>,r1	! 308140 <_simplify_fraction>
  3087ee:	41 0b       	jsr	@r1
  3087f0:	00 09       	nop	
  3087f2:	62 03       	mov	r0,r2
  3087f4:	63 13       	mov	r1,r3
  3087f6:	61 33       	mov	r3,r1
  3087f8:	60 23       	mov	r2,r0
  3087fa:	7e 28       	add	#40,r14
  3087fc:	6f e3       	mov	r14,r15
  3087fe:	4f 26       	lds.l	@r15+,pr
  308800:	6e f6       	mov.l	@r15+,r14
  308802:	00 0b       	rts	
  308804:	00 09       	nop	
  308806:	00 09       	nop	
  308808:	00 30       	.word 0x0030
  30880a:	83 7a       	.word 0x837a
  30880c:	00 30       	.word 0x0030
  30880e:	bf 8c       	bsr	30872a <_fraction_add+0x9a>
  308810:	00 30       	.word 0x0030
  308812:	bf ec       	bsr	3087ee <_fraction_subtract+0x96>
  308814:	00 30       	.word 0x0030
  308816:	bf 20       	bsr	30865a <_fraction_gte+0x16>
  308818:	00 30       	.word 0x0030
  30881a:	89 48       	bt	3088ae <_fraction_divide+0x26>
  30881c:	00 30       	.word 0x0030
  30881e:	81 40       	mov.w	r0,@(0,r4)

00308820 <_fraction_multiply>:
  308820:	2f e6       	mov.l	r14,@-r15
  308822:	4f 22       	sts.l	pr,@-r15
  308824:	7f e8       	add	#-24,r15
  308826:	6e f3       	mov	r15,r14
  308828:	61 e3       	mov	r14,r1
  30882a:	71 d8       	add	#-40,r1
  30882c:	11 4c       	mov.l	r4,@(48,r1)
  30882e:	11 5d       	mov.l	r5,@(52,r1)
  308830:	61 e3       	mov	r14,r1
  308832:	71 d8       	add	#-40,r1
  308834:	11 6a       	mov.l	r6,@(40,r1)
  308836:	11 7b       	mov.l	r7,@(44,r1)
  308838:	61 e3       	mov	r14,r1
  30883a:	71 d8       	add	#-40,r1
  30883c:	52 1c       	mov.l	@(48,r1),r2
  30883e:	61 e3       	mov	r14,r1
  308840:	71 d8       	add	#-40,r1
  308842:	51 1a       	mov.l	@(40,r1),r1
  308844:	02 17       	mul.l	r1,r2
  308846:	02 1a       	sts	macl,r2
  308848:	61 e3       	mov	r14,r1
  30884a:	71 10       	add	#16,r1
  30884c:	21 22       	mov.l	r2,@r1
  30884e:	61 e3       	mov	r14,r1
  308850:	71 d8       	add	#-40,r1
  308852:	52 1d       	mov.l	@(52,r1),r2
  308854:	61 e3       	mov	r14,r1
  308856:	71 d8       	add	#-40,r1
  308858:	51 1b       	mov.l	@(44,r1),r1
  30885a:	02 17       	mul.l	r1,r2
  30885c:	02 1a       	sts	macl,r2
  30885e:	61 e3       	mov	r14,r1
  308860:	71 10       	add	#16,r1
  308862:	11 21       	mov.l	r2,@(4,r1)
  308864:	61 e3       	mov	r14,r1
  308866:	71 10       	add	#16,r1
  308868:	64 13       	mov	r1,r4
  30886a:	d1 06       	mov.l	308884 <_fraction_multiply+0x64>,r1	! 308140 <_simplify_fraction>
  30886c:	41 0b       	jsr	@r1
  30886e:	00 09       	nop	
  308870:	62 03       	mov	r0,r2
  308872:	63 13       	mov	r1,r3
  308874:	61 33       	mov	r3,r1
  308876:	60 23       	mov	r2,r0
  308878:	7e 18       	add	#24,r14
  30887a:	6f e3       	mov	r14,r15
  30887c:	4f 26       	lds.l	@r15+,pr
  30887e:	6e f6       	mov.l	@r15+,r14
  308880:	00 0b       	rts	
  308882:	00 09       	nop	
  308884:	00 30       	.word 0x0030
  308886:	81 40       	mov.w	r0,@(0,r4)

00308888 <_fraction_divide>:
  308888:	2f e6       	mov.l	r14,@-r15
  30888a:	4f 22       	sts.l	pr,@-r15
  30888c:	7f e0       	add	#-32,r15
  30888e:	6e f3       	mov	r15,r14
  308890:	61 e3       	mov	r14,r1
  308892:	71 e0       	add	#-32,r1
  308894:	11 4a       	mov.l	r4,@(40,r1)
  308896:	11 5b       	mov.l	r5,@(44,r1)
  308898:	61 e3       	mov	r14,r1
  30889a:	71 e0       	add	#-32,r1
  30889c:	11 68       	mov.l	r6,@(32,r1)
  30889e:	11 79       	mov.l	r7,@(36,r1)
  3088a0:	61 e3       	mov	r14,r1
  3088a2:	71 e0       	add	#-32,r1
  3088a4:	52 1b       	mov.l	@(44,r1),r2
  3088a6:	61 e3       	mov	r14,r1
  3088a8:	71 e0       	add	#-32,r1
  3088aa:	51 18       	mov.l	@(32,r1),r1
  3088ac:	02 17       	mul.l	r1,r2
  3088ae:	01 1a       	sts	macl,r1
  3088b0:	41 11       	cmp/pz	r1
  3088b2:	89 20       	bt	3088f6 <_fraction_divide+0x6e>
  3088b4:	61 e3       	mov	r14,r1
  3088b6:	71 e0       	add	#-32,r1
  3088b8:	51 1a       	mov.l	@(40,r1),r1
  3088ba:	62 1b       	neg	r1,r2
  3088bc:	61 e3       	mov	r14,r1
  3088be:	71 e0       	add	#-32,r1
  3088c0:	51 19       	mov.l	@(36,r1),r1
  3088c2:	02 17       	mul.l	r1,r2
  3088c4:	02 1a       	sts	macl,r2
  3088c6:	61 e3       	mov	r14,r1
  3088c8:	71 e0       	add	#-32,r1
  3088ca:	11 2c       	mov.l	r2,@(48,r1)
  3088cc:	61 e3       	mov	r14,r1
  3088ce:	71 e0       	add	#-32,r1
  3088d0:	52 1b       	mov.l	@(44,r1),r2
  3088d2:	61 e3       	mov	r14,r1
  3088d4:	71 e0       	add	#-32,r1
  3088d6:	51 18       	mov.l	@(32,r1),r1
  3088d8:	02 17       	mul.l	r1,r2
  3088da:	02 1a       	sts	macl,r2
  3088dc:	61 e3       	mov	r14,r1
  3088de:	71 e0       	add	#-32,r1
  3088e0:	11 2d       	mov.l	r2,@(52,r1)
  3088e2:	61 e3       	mov	r14,r1
  3088e4:	71 10       	add	#16,r1
  3088e6:	64 13       	mov	r1,r4
  3088e8:	d1 16       	mov.l	308944 <_fraction_divide+0xbc>,r1	! 308140 <_simplify_fraction>
  3088ea:	41 0b       	jsr	@r1
  3088ec:	00 09       	nop	
  3088ee:	62 03       	mov	r0,r2
  3088f0:	63 13       	mov	r1,r3
  3088f2:	a0 1e       	bra	308932 <_fraction_divide+0xaa>
  3088f4:	00 09       	nop	
  3088f6:	61 e3       	mov	r14,r1
  3088f8:	71 e0       	add	#-32,r1
  3088fa:	52 1a       	mov.l	@(40,r1),r2
  3088fc:	61 e3       	mov	r14,r1
  3088fe:	71 e0       	add	#-32,r1
  308900:	51 19       	mov.l	@(36,r1),r1
  308902:	02 17       	mul.l	r1,r2
  308904:	02 1a       	sts	macl,r2
  308906:	61 e3       	mov	r14,r1
  308908:	71 18       	add	#24,r1
  30890a:	21 22       	mov.l	r2,@r1
  30890c:	61 e3       	mov	r14,r1
  30890e:	71 e0       	add	#-32,r1
  308910:	52 18       	mov.l	@(32,r1),r2
  308912:	61 e3       	mov	r14,r1
  308914:	71 e0       	add	#-32,r1
  308916:	51 1b       	mov.l	@(44,r1),r1
  308918:	02 17       	mul.l	r1,r2
  30891a:	02 1a       	sts	macl,r2
  30891c:	61 e3       	mov	r14,r1
  30891e:	71 18       	add	#24,r1
  308920:	11 21       	mov.l	r2,@(4,r1)
  308922:	61 e3       	mov	r14,r1
  308924:	71 18       	add	#24,r1
  308926:	64 13       	mov	r1,r4
  308928:	d1 06       	mov.l	308944 <_fraction_divide+0xbc>,r1	! 308140 <_simplify_fraction>
  30892a:	41 0b       	jsr	@r1
  30892c:	00 09       	nop	
  30892e:	62 03       	mov	r0,r2
  308930:	63 13       	mov	r1,r3
  308932:	61 33       	mov	r3,r1
  308934:	60 23       	mov	r2,r0
  308936:	7e 20       	add	#32,r14
  308938:	6f e3       	mov	r14,r15
  30893a:	4f 26       	lds.l	@r15+,pr
  30893c:	6e f6       	mov.l	@r15+,r14
  30893e:	00 0b       	rts	
  308940:	00 09       	nop	
  308942:	00 09       	nop	
  308944:	00 30       	.word 0x0030
  308946:	81 40       	mov.w	r0,@(0,r4)

00308948 <___assert_fail>:
  308948:	4f 22       	sts.l	pr,@-r15
  30894a:	d1 06       	mov.l	308964 <___assert_fail+0x1c>,r1	! 8101768 <_stderr>
  30894c:	7f f8       	add	#-8,r15
  30894e:	d0 06       	mov.l	308968 <___assert_fail+0x20>,r0	! 308974 <_fprintf>
  308950:	1f 71       	mov.l	r7,@(4,r15)
  308952:	67 53       	mov	r5,r7
  308954:	2f 62       	mov.l	r6,@r15
  308956:	66 43       	mov	r4,r6
  308958:	d5 04       	mov.l	30896c <___assert_fail+0x24>,r5	! 30c000
  30895a:	40 0b       	jsr	@r0
  30895c:	64 12       	mov.l	@r1,r4
  30895e:	d1 04       	mov.l	308970 <___assert_fail+0x28>,r1	! 308ebc <_abort>
  308960:	41 0b       	jsr	@r1
  308962:	00 09       	nop	
  308964:	08 10       	.word 0x0810
  308966:	17 68       	mov.l	r6,@(32,r7)
  308968:	00 30       	.word 0x0030
  30896a:	89 74       	bt	308a56 <___printf_flush+0xe>
  30896c:	00 30       	.word 0x0030
  30896e:	c0 00       	mov.b	r0,@(0,gbr)
  308970:	00 30       	.word 0x0030
  308972:	8e bc       	ldre	308aee <___printf+0x32>	! 1917

00308974 <_fprintf>:
  308974:	2f 76       	mov.l	r7,@-r15
  308976:	2f 66       	mov.l	r6,@-r15
  308978:	e6 20       	mov	#32,r6
  30897a:	2f 86       	mov.l	r8,@-r15
  30897c:	68 53       	mov	r5,r8
  30897e:	2f 96       	mov.l	r9,@-r15
  308980:	69 43       	mov	r4,r9
  308982:	4f 22       	sts.l	pr,@-r15
  308984:	e5 00       	mov	#0,r5
  308986:	d0 0b       	mov.l	3089b4 <_fprintf+0x40>,r0	! 3091c0 <_memset>
  308988:	7f dc       	add	#-36,r15
  30898a:	64 f3       	mov	r15,r4
  30898c:	40 0b       	jsr	@r0
  30898e:	74 04       	add	#4,r4
  308990:	d1 09       	mov.l	3089b8 <_fprintf+0x44>,r1	! 10000
  308992:	64 f3       	mov	r15,r4
  308994:	d0 09       	mov.l	3089bc <_fprintf+0x48>,r0	! 308abc <___printf>
  308996:	66 f3       	mov	r15,r6
  308998:	1f 14       	mov.l	r1,@(16,r15)
  30899a:	e1 30       	mov	#48,r1
  30899c:	31 fc       	add	r15,r1
  30899e:	1f 92       	mov.l	r9,@(8,r15)
  3089a0:	65 83       	mov	r8,r5
  3089a2:	2f 12       	mov.l	r1,@r15
  3089a4:	40 0b       	jsr	@r0
  3089a6:	74 04       	add	#4,r4
  3089a8:	7f 24       	add	#36,r15
  3089aa:	4f 26       	lds.l	@r15+,pr
  3089ac:	69 f6       	mov.l	@r15+,r9
  3089ae:	68 f6       	mov.l	@r15+,r8
  3089b0:	00 0b       	rts	
  3089b2:	7f 08       	add	#8,r15
  3089b4:	00 30       	.word 0x0030
  3089b6:	91 c0       	mov.w	308b3a <___printf+0x7e>,r1	! 21b0
  3089b8:	00 01       	.word 0x0001
  3089ba:	00 00       	.word 0x0000
  3089bc:	00 30       	.word 0x0030
  3089be:	8a bc       	ldrc	#188

003089c0 <_printf>:
  3089c0:	2f 76       	mov.l	r7,@-r15
  3089c2:	2f 66       	mov.l	r6,@-r15
  3089c4:	e6 20       	mov	#32,r6
  3089c6:	2f 56       	mov.l	r5,@-r15
  3089c8:	e5 00       	mov	#0,r5
  3089ca:	2f 86       	mov.l	r8,@-r15
  3089cc:	68 43       	mov	r4,r8
  3089ce:	4f 22       	sts.l	pr,@-r15
  3089d0:	d0 0b       	mov.l	308a00 <_printf+0x40>,r0	! 3091c0 <_memset>
  3089d2:	7f dc       	add	#-36,r15
  3089d4:	64 f3       	mov	r15,r4
  3089d6:	40 0b       	jsr	@r0
  3089d8:	74 04       	add	#4,r4
  3089da:	d1 0a       	mov.l	308a04 <_printf+0x44>,r1	! 810176c <_stdout>
  3089dc:	64 f3       	mov	r15,r4
  3089de:	d0 0a       	mov.l	308a08 <_printf+0x48>,r0	! 308abc <___printf>
  3089e0:	66 f3       	mov	r15,r6
  3089e2:	61 12       	mov.l	@r1,r1
  3089e4:	65 83       	mov	r8,r5
  3089e6:	74 04       	add	#4,r4
  3089e8:	1f 12       	mov.l	r1,@(8,r15)
  3089ea:	d1 08       	mov.l	308a0c <_printf+0x4c>,r1	! 10000
  3089ec:	1f 14       	mov.l	r1,@(16,r15)
  3089ee:	e1 2c       	mov	#44,r1
  3089f0:	31 fc       	add	r15,r1
  3089f2:	40 0b       	jsr	@r0
  3089f4:	2f 12       	mov.l	r1,@r15
  3089f6:	7f 24       	add	#36,r15
  3089f8:	4f 26       	lds.l	@r15+,pr
  3089fa:	68 f6       	mov.l	@r15+,r8
  3089fc:	00 0b       	rts	
  3089fe:	7f 0c       	add	#12,r15
  308a00:	00 30       	.word 0x0030
  308a02:	91 c0       	mov.w	308b86 <___printf+0xca>,r1	! 8f41
  308a04:	08 10       	.word 0x0810
  308a06:	17 6c       	mov.l	r6,@(48,r7)
  308a08:	00 30       	.word 0x0030
  308a0a:	8a bc       	ldrc	#188
  308a0c:	00 01       	.word 0x0001
	...

00308a10 <___printf_register>:
  308a10:	62 43       	mov	r4,r2
  308a12:	72 bf       	add	#-65,r2
  308a14:	e1 19       	mov	#25,r1
  308a16:	32 16       	cmp/hi	r1,r2
  308a18:	89 0c       	bt	308a34 <___printf_register+0x24>
  308a1a:	64 23       	mov	r2,r4
  308a1c:	d1 09       	mov.l	308a44 <___printf_register+0x34>,r1	! 8101ac4 <___printf_formatters>
  308a1e:	44 08       	shll2	r4
  308a20:	31 4c       	add	r4,r1
  308a22:	60 12       	mov.l	@r1,r0
  308a24:	88 01       	cmp/eq	#1,r0
  308a26:	8d 03       	bt.s	308a30 <___printf_register+0x20>
  308a28:	60 53       	mov	r5,r0
  308a2a:	88 01       	cmp/eq	#1,r0
  308a2c:	89 00       	bt	308a30 <___printf_register+0x20>
  308a2e:	21 52       	mov.l	r5,@r1
  308a30:	00 0b       	rts	
  308a32:	00 09       	nop	
  308a34:	62 43       	mov	r4,r2
  308a36:	72 9f       	add	#-97,r2
  308a38:	32 16       	cmp/hi	r1,r2
  308a3a:	8d f9       	bt.s	308a30 <___printf_register+0x20>
  308a3c:	74 b9       	add	#-71,r4
  308a3e:	af ed       	bra	308a1c <___printf_register+0xc>
  308a40:	00 09       	nop	
  308a42:	00 09       	nop	
  308a44:	08 10       	.word 0x0810
  308a46:	1a c4       	mov.l	r12,@(16,r10)

00308a48 <___printf_flush>:
  308a48:	2f 86       	mov.l	r8,@-r15
  308a4a:	2f 96       	mov.l	r9,@-r15
  308a4c:	4f 22       	sts.l	pr,@-r15
  308a4e:	52 45       	mov.l	@(20,r4),r2
  308a50:	51 44       	mov.l	@(16,r4),r1
  308a52:	66 23       	mov	r2,r6
  308a54:	53 47       	mov.l	@(28,r4),r3
  308a56:	36 18       	sub	r1,r6
  308a58:	d9 14       	mov.l	308aac <___printf_flush+0x64>,r9	! 8101728 <___printf_buffer>
  308a5a:	33 6c       	add	r6,r3
  308a5c:	14 37       	mov.l	r3,@(28,r4)
  308a5e:	63 42       	mov.l	@r4,r3
  308a60:	23 38       	tst	r3,r3
  308a62:	8d 11       	bt.s	308a88 <___printf_flush+0x40>
  308a64:	68 43       	mov	r4,r8
  308a66:	33 90       	cmp/eq	r9,r3
  308a68:	89 0e       	bt	308a88 <___printf_flush+0x40>
  308a6a:	51 46       	mov.l	@(24,r4),r1
  308a6c:	71 ff       	add	#-1,r1
  308a6e:	32 12       	cmp/hs	r1,r2
  308a70:	89 00       	bt	308a74 <___printf_flush+0x2c>
  308a72:	61 23       	mov	r2,r1
  308a74:	e2 00       	mov	#0,r2
  308a76:	21 20       	mov.b	r2,@r1
  308a78:	d1 0d       	mov.l	308ab0 <___printf_flush+0x68>,r1	! 8101768 <_stderr>
  308a7a:	18 94       	mov.l	r9,@(16,r8)
  308a7c:	18 16       	mov.l	r1,@(24,r8)
  308a7e:	18 95       	mov.l	r9,@(20,r8)
  308a80:	4f 26       	lds.l	@r15+,pr
  308a82:	69 f6       	mov.l	@r15+,r9
  308a84:	00 0b       	rts	
  308a86:	68 f6       	mov.l	@r15+,r8
  308a88:	57 81       	mov.l	@(4,r8),r7
  308a8a:	27 78       	tst	r7,r7
  308a8c:	8d 05       	bt.s	308a9a <___printf_flush+0x52>
  308a8e:	e5 01       	mov	#1,r5
  308a90:	d0 08       	mov.l	308ab4 <___printf_flush+0x6c>,r0	! 3097d0 <_fwrite>
  308a92:	40 0b       	jsr	@r0
  308a94:	64 13       	mov	r1,r4
  308a96:	af ef       	bra	308a78 <___printf_flush+0x30>
  308a98:	00 09       	nop	
  308a9a:	54 82       	mov.l	@(8,r8),r4
  308a9c:	24 48       	tst	r4,r4
  308a9e:	89 eb       	bt	308a78 <___printf_flush+0x30>
  308aa0:	d0 05       	mov.l	308ab8 <___printf_flush+0x70>,r0	! 30a6f8 <_write>
  308aa2:	40 0b       	jsr	@r0
  308aa4:	65 13       	mov	r1,r5
  308aa6:	af e7       	bra	308a78 <___printf_flush+0x30>
  308aa8:	00 09       	nop	
  308aaa:	00 09       	nop	
  308aac:	08 10       	.word 0x0810
  308aae:	17 28       	mov.l	r2,@(32,r7)
  308ab0:	08 10       	.word 0x0810
  308ab2:	17 68       	mov.l	r6,@(32,r7)
  308ab4:	00 30       	.word 0x0030
  308ab6:	97 d0       	mov.w	308c5a <___printf+0x19e>,r7	! 7ed0
  308ab8:	00 30       	.word 0x0030
  308aba:	a6 f8       	bra	3098ae <_fwrite+0xde>

00308abc <___printf>:
  308abc:	2f 86       	mov.l	r8,@-r15
  308abe:	68 53       	mov	r5,r8
  308ac0:	2f 96       	mov.l	r9,@-r15
  308ac2:	69 43       	mov	r4,r9
  308ac4:	2f a6       	mov.l	r10,@-r15
  308ac6:	2f b6       	mov.l	r11,@-r15
  308ac8:	2f c6       	mov.l	r12,@-r15
  308aca:	2f d6       	mov.l	r13,@-r15
  308acc:	2f e6       	mov.l	r14,@-r15
  308ace:	4f 22       	sts.l	pr,@-r15
  308ad0:	51 41       	mov.l	@(4,r4),r1
  308ad2:	7f d0       	add	#-48,r15
  308ad4:	21 18       	tst	r1,r1
  308ad6:	8f 03       	bf.s	308ae0 <___printf+0x24>
  308ad8:	1f 65       	mov.l	r6,@(20,r15)
  308ada:	51 42       	mov.l	@(8,r4),r1
  308adc:	21 18       	tst	r1,r1
  308ade:	89 19       	bt	308b14 <___printf+0x58>
  308ae0:	d1 9f       	mov.l	308d60 <___printf+0x2a4>,r1	! 8101728 <___printf_buffer>
  308ae2:	19 14       	mov.l	r1,@(16,r9)
  308ae4:	71 40       	add	#64,r1
  308ae6:	19 16       	mov.l	r1,@(24,r9)
  308ae8:	51 94       	mov.l	@(16,r9),r1
  308aea:	19 15       	mov.l	r1,@(20,r9)
  308aec:	e1 00       	mov	#0,r1
  308aee:	19 17       	mov.l	r1,@(28,r9)
  308af0:	6a 83       	mov	r8,r10
  308af2:	6b a4       	mov.b	@r10+,r11
  308af4:	2b b8       	tst	r11,r11
  308af6:	8b 12       	bf	308b1e <___printf+0x62>
  308af8:	d1 9a       	mov.l	308d64 <___printf+0x2a8>,r1	! 308a48 <___printf_flush>
  308afa:	41 0b       	jsr	@r1
  308afc:	64 93       	mov	r9,r4
  308afe:	50 97       	mov.l	@(28,r9),r0
  308b00:	7f 30       	add	#48,r15
  308b02:	4f 26       	lds.l	@r15+,pr
  308b04:	6e f6       	mov.l	@r15+,r14
  308b06:	6d f6       	mov.l	@r15+,r13
  308b08:	6c f6       	mov.l	@r15+,r12
  308b0a:	6b f6       	mov.l	@r15+,r11
  308b0c:	6a f6       	mov.l	@r15+,r10
  308b0e:	69 f6       	mov.l	@r15+,r9
  308b10:	00 0b       	rts	
  308b12:	68 f6       	mov.l	@r15+,r8
  308b14:	61 42       	mov.l	@r4,r1
  308b16:	52 43       	mov.l	@(12,r4),r2
  308b18:	14 14       	mov.l	r1,@(16,r4)
  308b1a:	af e4       	bra	308ae6 <___printf+0x2a>
  308b1c:	31 2c       	add	r2,r1
  308b1e:	60 b3       	mov	r11,r0
  308b20:	88 25       	cmp/eq	#37,r0
  308b22:	89 0d       	bt	308b40 <___printf+0x84>
  308b24:	52 95       	mov.l	@(20,r9),r2
  308b26:	51 96       	mov.l	@(24,r9),r1
  308b28:	32 12       	cmp/hs	r1,r2
  308b2a:	8b 02       	bf	308b32 <___printf+0x76>
  308b2c:	d1 8d       	mov.l	308d64 <___printf+0x2a8>,r1	! 308a48 <___printf_flush>
  308b2e:	41 0b       	jsr	@r1
  308b30:	64 93       	mov	r9,r4
  308b32:	51 95       	mov.l	@(20,r9),r1
  308b34:	62 13       	mov	r1,r2
  308b36:	72 01       	add	#1,r2
  308b38:	19 25       	mov.l	r2,@(20,r9)
  308b3a:	21 b0       	mov.b	r11,@r1
  308b3c:	af d8       	bra	308af0 <___printf+0x34>
  308b3e:	68 a3       	mov	r10,r8
  308b40:	84 81       	mov.b	@(1,r8),r0
  308b42:	20 08       	tst	r0,r0
  308b44:	8d d8       	bt.s	308af8 <___printf+0x3c>
  308b46:	88 25       	cmp/eq	#37,r0
  308b48:	8f 10       	bf.s	308b6c <___printf+0xb0>
  308b4a:	e1 00       	mov	#0,r1
  308b4c:	52 95       	mov.l	@(20,r9),r2
  308b4e:	51 96       	mov.l	@(24,r9),r1
  308b50:	32 12       	cmp/hs	r1,r2
  308b52:	8b 02       	bf	308b5a <___printf+0x9e>
  308b54:	d1 83       	mov.l	308d64 <___printf+0x2a8>,r1	! 308a48 <___printf_flush>
  308b56:	41 0b       	jsr	@r1
  308b58:	64 93       	mov	r9,r4
  308b5a:	51 95       	mov.l	@(20,r9),r1
  308b5c:	6a 83       	mov	r8,r10
  308b5e:	7a 02       	add	#2,r10
  308b60:	62 13       	mov	r1,r2
  308b62:	72 01       	add	#1,r2
  308b64:	19 25       	mov.l	r2,@(20,r9)
  308b66:	e2 25       	mov	#37,r2
  308b68:	af e8       	bra	308b3c <___printf+0x80>
  308b6a:	21 20       	mov.b	r2,@r1
  308b6c:	e0 00       	mov	#0,r0
  308b6e:	1f 18       	mov.l	r1,@(32,r15)
  308b70:	e3 00       	mov	#0,r3
  308b72:	1f 19       	mov.l	r1,@(36,r15)
  308b74:	e7 00       	mov	#0,r7
  308b76:	1f 04       	mov.l	r0,@(16,r15)
  308b78:	e6 00       	mov	#0,r6
  308b7a:	eb 00       	mov	#0,r11
  308b7c:	ec ff       	mov	#-1,r12
  308b7e:	ee 00       	mov	#0,r14
  308b80:	e2 00       	mov	#0,r2
  308b82:	68 a0       	mov.b	@r10,r8
  308b84:	28 88       	tst	r8,r8
  308b86:	8f 41       	bf.s	308c0c <___printf+0x150>
  308b88:	6d 83       	mov	r8,r13
  308b8a:	65 f3       	mov	r15,r5
  308b8c:	75 20       	add	#32,r5
  308b8e:	60 c3       	mov	r12,r0
  308b90:	81 51       	mov.w	r0,@(2,r5)
  308b92:	60 b3       	mov	r11,r0
  308b94:	80 54       	mov.b	r0,@(4,r5)
  308b96:	46 18       	shll8	r6
  308b98:	84 55       	mov.b	@(5,r5),r0
  308b9a:	46 01       	shlr	r6
  308b9c:	47 18       	shll8	r7
  308b9e:	c9 3f       	and	#63,r0
  308ba0:	47 09       	shlr2	r7
  308ba2:	20 6b       	or	r6,r0
  308ba4:	43 08       	shll2	r3
  308ba6:	e1 df       	mov	#-33,r1
  308ba8:	20 7b       	or	r7,r0
  308baa:	33 3c       	add	r3,r3
  308bac:	20 19       	and	r1,r0
  308bae:	43 08       	shll2	r3
  308bb0:	20 3b       	or	r3,r0
  308bb2:	80 55       	mov.b	r0,@(5,r5)
  308bb4:	64 f3       	mov	r15,r4
  308bb6:	50 f4       	mov.l	@(16,r15),r0
  308bb8:	61 f3       	mov	r15,r1
  308bba:	d2 6b       	mov.l	308d68 <___printf+0x2ac>,r2	! 30a7a8 <___movmemSI8>
  308bbc:	74 28       	add	#40,r4
  308bbe:	71 18       	add	#24,r1
  308bc0:	80 56       	mov.b	r0,@(6,r5)
  308bc2:	2b b8       	tst	r11,r11
  308bc4:	42 0b       	jsr	@r2
  308bc6:	25 e1       	mov.w	r14,@r5
  308bc8:	64 13       	mov	r1,r4
  308bca:	42 0b       	jsr	@r2
  308bcc:	75 08       	add	#8,r5
  308bce:	60 83       	mov	r8,r0
  308bd0:	80 17       	mov.b	r0,@(7,r1)
  308bd2:	8f 06       	bf.s	308be2 <___printf+0x126>
  308bd4:	7a 01       	add	#1,r10
  308bd6:	60 83       	mov	r8,r0
  308bd8:	88 63       	cmp/eq	#99,r0
  308bda:	8d 01       	bt.s	308be0 <___printf+0x124>
  308bdc:	e0 01       	mov	#1,r0
  308bde:	e0 04       	mov	#4,r0
  308be0:	80 14       	mov.b	r0,@(4,r1)
  308be2:	63 83       	mov	r8,r3
  308be4:	73 bf       	add	#-65,r3
  308be6:	e2 19       	mov	#25,r2
  308be8:	33 26       	cmp/hi	r2,r3
  308bea:	8b 01       	bf	308bf0 <___printf+0x134>
  308bec:	a0 b1       	bra	308d52 <___printf+0x296>
  308bee:	63 83       	mov	r8,r3
  308bf0:	68 33       	mov	r3,r8
  308bf2:	d2 5e       	mov.l	308d6c <___printf+0x2b0>,r2	! 8101ac4 <___printf_formatters>
  308bf4:	48 08       	shll2	r8
  308bf6:	60 83       	mov	r8,r0
  308bf8:	02 2e       	mov.l	@(r0,r2),r2
  308bfa:	e3 01       	mov	#1,r3
  308bfc:	32 36       	cmp/hi	r3,r2
  308bfe:	8f 9d       	bf.s	308b3c <___printf+0x80>
  308c00:	65 13       	mov	r1,r5
  308c02:	56 f5       	mov.l	@(20,r15),r6
  308c04:	42 0b       	jsr	@r2
  308c06:	64 93       	mov	r9,r4
  308c08:	af 98       	bra	308b3c <___printf+0x80>
  308c0a:	00 09       	nop	
  308c0c:	60 83       	mov	r8,r0
  308c0e:	70 bf       	add	#-65,r0
  308c10:	e5 19       	mov	#25,r5
  308c12:	30 56       	cmp/hi	r5,r0
  308c14:	8f 07       	bf.s	308c26 <___printf+0x16a>
  308c16:	40 11       	cmp/pz	r0
  308c18:	64 83       	mov	r8,r4
  308c1a:	74 9f       	add	#-97,r4
  308c1c:	34 56       	cmp/hi	r5,r4
  308c1e:	8d 09       	bt.s	308c34 <___printf+0x178>
  308c20:	60 83       	mov	r8,r0
  308c22:	70 b9       	add	#-71,r0
  308c24:	40 11       	cmp/pz	r0
  308c26:	8f 05       	bf.s	308c34 <___printf+0x178>
  308c28:	40 08       	shll2	r0
  308c2a:	d5 50       	mov.l	308d6c <___printf+0x2b0>,r5	! 8101ac4 <___printf_formatters>
  308c2c:	00 5e       	mov.l	@(r0,r5),r0
  308c2e:	88 01       	cmp/eq	#1,r0
  308c30:	8f ac       	bf.s	308b8c <___printf+0xd0>
  308c32:	65 f3       	mov	r15,r5
  308c34:	60 83       	mov	r8,r0
  308c36:	88 2e       	cmp/eq	#46,r0
  308c38:	8f 02       	bf.s	308c40 <___printf+0x184>
  308c3a:	60 13       	mov	r1,r0
  308c3c:	a0 23       	bra	308c86 <___printf+0x1ca>
  308c3e:	ec 00       	mov	#0,r12
  308c40:	88 01       	cmp/eq	#1,r0
  308c42:	8f 10       	bf.s	308c66 <___printf+0x1aa>
  308c44:	64 8c       	extu.b	r8,r4
  308c46:	e5 2f       	mov	#47,r5
  308c48:	38 57       	cmp/gt	r5,r8
  308c4a:	8b 0c       	bf	308c66 <___printf+0x1aa>
  308c4c:	e1 39       	mov	#57,r1
  308c4e:	38 17       	cmp/gt	r1,r8
  308c50:	8d 21       	bt.s	308c96 <___printf+0x1da>
  308c52:	60 83       	mov	r8,r0
  308c54:	e1 0a       	mov	#10,r1
  308c56:	2e 1e       	mulu.w	r1,r14
  308c58:	0e 1a       	sts	macl,r14
  308c5a:	7e d0       	add	#-48,r14
  308c5c:	3e 8c       	add	r8,r14
  308c5e:	6e ed       	extu.w	r14,r14
  308c60:	e1 01       	mov	#1,r1
  308c62:	af 8e       	bra	308b82 <___printf+0xc6>
  308c64:	7a 01       	add	#1,r10
  308c66:	65 43       	mov	r4,r5
  308c68:	75 d0       	add	#-48,r5
  308c6a:	65 5c       	extu.b	r5,r5
  308c6c:	e0 09       	mov	#9,r0
  308c6e:	35 06       	cmp/hi	r0,r5
  308c70:	8d 0b       	bt.s	308c8a <___printf+0x1ce>
  308c72:	60 13       	mov	r1,r0
  308c74:	88 02       	cmp/eq	#2,r0
  308c76:	8f 09       	bf.s	308c8c <___printf+0x1d0>
  308c78:	60 83       	mov	r8,r0
  308c7a:	e1 0a       	mov	#10,r1
  308c7c:	2c 1e       	mulu.w	r1,r12
  308c7e:	0c 1a       	sts	macl,r12
  308c80:	3c 8c       	add	r8,r12
  308c82:	7c d0       	add	#-48,r12
  308c84:	6c cf       	exts.w	r12,r12
  308c86:	af ec       	bra	308c62 <___printf+0x1a6>
  308c88:	e1 02       	mov	#2,r1
  308c8a:	60 83       	mov	r8,r0
  308c8c:	88 23       	cmp/eq	#35,r0
  308c8e:	8d 37       	bt.s	308d00 <___printf+0x244>
  308c90:	88 20       	cmp/eq	#32,r0
  308c92:	8d 3c       	bt.s	308d0e <___printf+0x252>
  308c94:	60 83       	mov	r8,r0
  308c96:	88 2b       	cmp/eq	#43,r0
  308c98:	8d 3b       	bt.s	308d12 <___printf+0x256>
  308c9a:	88 2d       	cmp/eq	#45,r0
  308c9c:	8d 32       	bt.s	308d04 <___printf+0x248>
  308c9e:	88 30       	cmp/eq	#48,r0
  308ca0:	8d 31       	bt.s	308d06 <___printf+0x24a>
  308ca2:	50 f4       	mov.l	@(16,r15),r0
  308ca4:	d1 32       	mov.l	308d70 <___printf+0x2b4>,r1	! 308f88 <_strchr>
  308ca6:	65 83       	mov	r8,r5
  308ca8:	1f 23       	mov.l	r2,@(12,r15)
  308caa:	2f 32       	mov.l	r3,@r15
  308cac:	1f 62       	mov.l	r6,@(8,r15)
  308cae:	d4 31       	mov.l	308d74 <___printf+0x2b8>,r4	! 30c020
  308cb0:	41 0b       	jsr	@r1
  308cb2:	1f 71       	mov.l	r7,@(4,r15)
  308cb4:	20 08       	tst	r0,r0
  308cb6:	52 f3       	mov.l	@(12,r15),r2
  308cb8:	63 f2       	mov.l	@r15,r3
  308cba:	56 f2       	mov.l	@(8,r15),r6
  308cbc:	8d 31       	bt.s	308d22 <___printf+0x266>
  308cbe:	57 f1       	mov.l	@(4,r15),r7
  308cc0:	60 83       	mov	r8,r0
  308cc2:	88 68       	cmp/eq	#104,r0
  308cc4:	8f 02       	bf.s	308ccc <___printf+0x210>
  308cc6:	60 23       	mov	r2,r0
  308cc8:	88 68       	cmp/eq	#104,r0
  308cca:	89 2c       	bt	308d26 <___printf+0x26a>
  308ccc:	60 83       	mov	r8,r0
  308cce:	88 68       	cmp/eq	#104,r0
  308cd0:	8d 2c       	bt.s	308d2c <___printf+0x270>
  308cd2:	88 6c       	cmp/eq	#108,r0
  308cd4:	8f 02       	bf.s	308cdc <___printf+0x220>
  308cd6:	60 23       	mov	r2,r0
  308cd8:	88 6c       	cmp/eq	#108,r0
  308cda:	89 29       	bt	308d30 <___printf+0x274>
  308cdc:	60 83       	mov	r8,r0
  308cde:	88 6c       	cmp/eq	#108,r0
  308ce0:	8d 29       	bt.s	308d36 <___printf+0x27a>
  308ce2:	e1 6c       	mov	#108,r1
  308ce4:	38 17       	cmp/gt	r1,r8
  308ce6:	8d 16       	bt.s	308d16 <___printf+0x25a>
  308ce8:	88 74       	cmp/eq	#116,r0
  308cea:	88 4c       	cmp/eq	#76,r0
  308cec:	8d 25       	bt.s	308d3a <___printf+0x27e>
  308cee:	88 6a       	cmp/eq	#106,r0
  308cf0:	89 26       	bt	308d40 <___printf+0x284>
  308cf2:	78 cf       	add	#-49,r8
  308cf4:	e1 08       	mov	#8,r1
  308cf6:	38 16       	cmp/hi	r1,r8
  308cf8:	89 28       	bt	308d4c <___printf+0x290>
  308cfa:	7a ff       	add	#-1,r10
  308cfc:	af b0       	bra	308c60 <___printf+0x1a4>
  308cfe:	62 d3       	mov	r13,r2
  308d00:	af d0       	bra	308ca4 <___printf+0x1e8>
  308d02:	e6 01       	mov	#1,r6
  308d04:	50 f4       	mov.l	@(16,r15),r0
  308d06:	88 30       	cmp/eq	#48,r0
  308d08:	89 cc       	bt	308ca4 <___printf+0x1e8>
  308d0a:	af cb       	bra	308ca4 <___printf+0x1e8>
  308d0c:	1f 44       	mov.l	r4,@(16,r15)
  308d0e:	af c9       	bra	308ca4 <___printf+0x1e8>
  308d10:	e7 01       	mov	#1,r7
  308d12:	af c7       	bra	308ca4 <___printf+0x1e8>
  308d14:	e3 01       	mov	#1,r3
  308d16:	8d 16       	bt.s	308d46 <___printf+0x28a>
  308d18:	88 7a       	cmp/eq	#122,r0
  308d1a:	8b ea       	bf	308cf2 <___printf+0x236>
  308d1c:	eb 04       	mov	#4,r11
  308d1e:	af e8       	bra	308cf2 <___printf+0x236>
  308d20:	ed 7a       	mov	#122,r13
  308d22:	af e6       	bra	308cf2 <___printf+0x236>
  308d24:	6d 23       	mov	r2,r13
  308d26:	eb 01       	mov	#1,r11
  308d28:	af e3       	bra	308cf2 <___printf+0x236>
  308d2a:	ed 68       	mov	#104,r13
  308d2c:	af e1       	bra	308cf2 <___printf+0x236>
  308d2e:	eb 02       	mov	#2,r11
  308d30:	eb 08       	mov	#8,r11
  308d32:	af de       	bra	308cf2 <___printf+0x236>
  308d34:	ed 6c       	mov	#108,r13
  308d36:	af fc       	bra	308d32 <___printf+0x276>
  308d38:	eb 04       	mov	#4,r11
  308d3a:	eb 08       	mov	#8,r11
  308d3c:	af d9       	bra	308cf2 <___printf+0x236>
  308d3e:	ed 4c       	mov	#76,r13
  308d40:	eb 08       	mov	#8,r11
  308d42:	af d6       	bra	308cf2 <___printf+0x236>
  308d44:	ed 6a       	mov	#106,r13
  308d46:	eb 04       	mov	#4,r11
  308d48:	af d3       	bra	308cf2 <___printf+0x236>
  308d4a:	ed 74       	mov	#116,r13
  308d4c:	62 d3       	mov	r13,r2
  308d4e:	af 88       	bra	308c62 <___printf+0x1a6>
  308d50:	e1 00       	mov	#0,r1
  308d52:	73 9f       	add	#-97,r3
  308d54:	33 26       	cmp/hi	r2,r3
  308d56:	8b 01       	bf	308d5c <___printf+0x2a0>
  308d58:	ae f0       	bra	308b3c <___printf+0x80>
  308d5a:	00 09       	nop	
  308d5c:	af 49       	bra	308bf2 <___printf+0x136>
  308d5e:	78 b9       	add	#-71,r8
  308d60:	08 10       	.word 0x0810
  308d62:	17 28       	mov.l	r2,@(32,r7)
  308d64:	00 30       	.word 0x0030
  308d66:	8a 48       	ldrc	#72
  308d68:	00 30       	.word 0x0030
  308d6a:	a7 a8       	bra	309cbe <___printf_format_ouxX+0xe2>
  308d6c:	08 10       	.word 0x0810
  308d6e:	1a c4       	mov.l	r12,@(16,r10)
  308d70:	00 30       	.word 0x0030
  308d72:	8f 88       	bf.s	308c86 <___printf+0x1ca>
  308d74:	00 30       	.word 0x0030
  308d76:	c0 20       	mov.b	r0,@(32,gbr)

00308d78 <_snprintf>:
  308d78:	2f 76       	mov.l	r7,@-r15
  308d7a:	2f 86       	mov.l	r8,@-r15
  308d7c:	68 63       	mov	r6,r8
  308d7e:	2f 96       	mov.l	r9,@-r15
  308d80:	e6 1c       	mov	#28,r6
  308d82:	2f a6       	mov.l	r10,@-r15
  308d84:	6a 43       	mov	r4,r10
  308d86:	4f 22       	sts.l	pr,@-r15
  308d88:	69 53       	mov	r5,r9
  308d8a:	d0 0c       	mov.l	308dbc <_snprintf+0x44>,r0	! 3091c0 <_memset>
  308d8c:	7f dc       	add	#-36,r15
  308d8e:	64 f3       	mov	r15,r4
  308d90:	e5 00       	mov	#0,r5
  308d92:	40 0b       	jsr	@r0
  308d94:	74 08       	add	#8,r4
  308d96:	d0 0a       	mov.l	308dc0 <_snprintf+0x48>,r0	! 308abc <___printf>
  308d98:	e1 34       	mov	#52,r1
  308d9a:	31 fc       	add	r15,r1
  308d9c:	64 f3       	mov	r15,r4
  308d9e:	1f a1       	mov.l	r10,@(4,r15)
  308da0:	66 f3       	mov	r15,r6
  308da2:	1f 94       	mov.l	r9,@(16,r15)
  308da4:	65 83       	mov	r8,r5
  308da6:	2f 12       	mov.l	r1,@r15
  308da8:	40 0b       	jsr	@r0
  308daa:	74 04       	add	#4,r4
  308dac:	7f 24       	add	#36,r15
  308dae:	4f 26       	lds.l	@r15+,pr
  308db0:	6a f6       	mov.l	@r15+,r10
  308db2:	69 f6       	mov.l	@r15+,r9
  308db4:	68 f6       	mov.l	@r15+,r8
  308db6:	00 0b       	rts	
  308db8:	7f 04       	add	#4,r15
  308dba:	00 09       	nop	
  308dbc:	00 30       	.word 0x0030
  308dbe:	91 c0       	mov.w	308f42 <_strtol+0x16>,r1	! 8901
  308dc0:	00 30       	.word 0x0030
  308dc2:	8a bc       	ldrc	#188

00308dc4 <_sprintf>:
  308dc4:	2f 76       	mov.l	r7,@-r15
  308dc6:	2f 66       	mov.l	r6,@-r15
  308dc8:	e6 1c       	mov	#28,r6
  308dca:	2f 86       	mov.l	r8,@-r15
  308dcc:	68 53       	mov	r5,r8
  308dce:	2f 96       	mov.l	r9,@-r15
  308dd0:	69 43       	mov	r4,r9
  308dd2:	4f 22       	sts.l	pr,@-r15
  308dd4:	e5 00       	mov	#0,r5
  308dd6:	d0 0b       	mov.l	308e04 <_sprintf+0x40>,r0	! 3091c0 <_memset>
  308dd8:	7f dc       	add	#-36,r15
  308dda:	64 f3       	mov	r15,r4
  308ddc:	40 0b       	jsr	@r0
  308dde:	74 08       	add	#8,r4
  308de0:	d1 09       	mov.l	308e08 <_sprintf+0x44>,r1	! 10000
  308de2:	64 f3       	mov	r15,r4
  308de4:	d0 09       	mov.l	308e0c <_sprintf+0x48>,r0	! 308abc <___printf>
  308de6:	66 f3       	mov	r15,r6
  308de8:	1f 14       	mov.l	r1,@(16,r15)
  308dea:	e1 30       	mov	#48,r1
  308dec:	31 fc       	add	r15,r1
  308dee:	1f 91       	mov.l	r9,@(4,r15)
  308df0:	65 83       	mov	r8,r5
  308df2:	2f 12       	mov.l	r1,@r15
  308df4:	40 0b       	jsr	@r0
  308df6:	74 04       	add	#4,r4
  308df8:	7f 24       	add	#36,r15
  308dfa:	4f 26       	lds.l	@r15+,pr
  308dfc:	69 f6       	mov.l	@r15+,r9
  308dfe:	68 f6       	mov.l	@r15+,r8
  308e00:	00 0b       	rts	
  308e02:	7f 08       	add	#8,r15
  308e04:	00 30       	.word 0x0030
  308e06:	91 c0       	mov.w	308f8a <_strchr+0x2>,r1	! 6043
  308e08:	00 01       	.word 0x0001
  308e0a:	00 00       	.word 0x0000
  308e0c:	00 30       	.word 0x0030
  308e0e:	8a bc       	ldrc	#188

00308e10 <_initialize_streams>:
  308e10:	2f 86       	mov.l	r8,@-r15
  308e12:	2f 96       	mov.l	r9,@-r15
  308e14:	d8 11       	mov.l	308e5c <_initialize_streams+0x4c>,r8	! 3092e8 <_fdopen>
  308e16:	2f a6       	mov.l	r10,@-r15
  308e18:	d5 11       	mov.l	308e60 <_initialize_streams+0x50>,r5	! 30c0cc
  308e1a:	4f 22       	sts.l	pr,@-r15
  308e1c:	48 0b       	jsr	@r8
  308e1e:	e4 00       	mov	#0,r4
  308e20:	d1 10       	mov.l	308e64 <_initialize_streams+0x54>,r1	! 8101770 <_stdin>
  308e22:	e4 01       	mov	#1,r4
  308e24:	da 10       	mov.l	308e68 <_initialize_streams+0x58>,r10	! 30c028
  308e26:	21 02       	mov.l	r0,@r1
  308e28:	48 0b       	jsr	@r8
  308e2a:	65 a3       	mov	r10,r5
  308e2c:	d1 0f       	mov.l	308e6c <_initialize_streams+0x5c>,r1	! 810176c <_stdout>
  308e2e:	e6 01       	mov	#1,r6
  308e30:	d9 0f       	mov.l	308e70 <_initialize_streams+0x60>,r9	! 30a044 <_setvbuf>
  308e32:	64 03       	mov	r0,r4
  308e34:	97 11       	mov.w	308e5a <_initialize_streams+0x4a>,r7	! 200
  308e36:	e5 00       	mov	#0,r5
  308e38:	49 0b       	jsr	@r9
  308e3a:	21 02       	mov.l	r0,@r1
  308e3c:	65 a3       	mov	r10,r5
  308e3e:	48 0b       	jsr	@r8
  308e40:	e4 02       	mov	#2,r4
  308e42:	d1 0c       	mov.l	308e74 <_initialize_streams+0x64>,r1	! 8101768 <_stderr>
  308e44:	64 03       	mov	r0,r4
  308e46:	e7 00       	mov	#0,r7
  308e48:	21 02       	mov.l	r0,@r1
  308e4a:	e6 02       	mov	#2,r6
  308e4c:	e5 00       	mov	#0,r5
  308e4e:	61 93       	mov	r9,r1
  308e50:	4f 26       	lds.l	@r15+,pr
  308e52:	6a f6       	mov.l	@r15+,r10
  308e54:	69 f6       	mov.l	@r15+,r9
  308e56:	41 2b       	jmp	@r1
  308e58:	68 f6       	mov.l	@r15+,r8
  308e5a:	02 00       	.word 0x0200
  308e5c:	00 30       	.word 0x0030
  308e5e:	92 e8       	mov.w	309032 <_longjmp+0x2>,r2	! 2558
  308e60:	00 30       	.word 0x0030
  308e62:	c0 cc       	mov.b	r0,@(204,gbr)
  308e64:	08 10       	.word 0x0810
  308e66:	17 70       	mov.l	r7,@(0,r7)
  308e68:	00 30       	.word 0x0030
  308e6a:	c0 28       	mov.b	r0,@(40,gbr)
  308e6c:	08 10       	.word 0x0810
  308e6e:	17 6c       	mov.l	r6,@(48,r7)
  308e70:	00 30       	.word 0x0030
  308e72:	a0 44       	bra	308efe <_calloc+0x1e>
  308e74:	08 10       	.word 0x0810
  308e76:	17 68       	mov.l	r6,@(32,r7)

00308e78 <_vsnprintf>:
  308e78:	2f 86       	mov.l	r8,@-r15
  308e7a:	68 63       	mov	r6,r8
  308e7c:	2f 96       	mov.l	r9,@-r15
  308e7e:	e6 1c       	mov	#28,r6
  308e80:	2f a6       	mov.l	r10,@-r15
  308e82:	6a 43       	mov	r4,r10
  308e84:	4f 22       	sts.l	pr,@-r15
  308e86:	69 53       	mov	r5,r9
  308e88:	d0 0a       	mov.l	308eb4 <_vsnprintf+0x3c>,r0	! 3091c0 <_memset>
  308e8a:	7f dc       	add	#-36,r15
  308e8c:	64 f3       	mov	r15,r4
  308e8e:	2f 72       	mov.l	r7,@r15
  308e90:	e5 00       	mov	#0,r5
  308e92:	40 0b       	jsr	@r0
  308e94:	74 08       	add	#8,r4
  308e96:	d0 08       	mov.l	308eb8 <_vsnprintf+0x40>,r0	! 308abc <___printf>
  308e98:	64 f3       	mov	r15,r4
  308e9a:	1f a1       	mov.l	r10,@(4,r15)
  308e9c:	66 f3       	mov	r15,r6
  308e9e:	1f 94       	mov.l	r9,@(16,r15)
  308ea0:	65 83       	mov	r8,r5
  308ea2:	40 0b       	jsr	@r0
  308ea4:	74 04       	add	#4,r4
  308ea6:	7f 24       	add	#36,r15
  308ea8:	4f 26       	lds.l	@r15+,pr
  308eaa:	6a f6       	mov.l	@r15+,r10
  308eac:	69 f6       	mov.l	@r15+,r9
  308eae:	00 0b       	rts	
  308eb0:	68 f6       	mov.l	@r15+,r8
  308eb2:	00 09       	nop	
  308eb4:	00 30       	.word 0x0030
  308eb6:	91 c0       	mov.w	30903a <context_switch+0x2>,r1	! 6483
  308eb8:	00 30       	.word 0x0030
  308eba:	8a bc       	ldrc	#188

00308ebc <_abort>:
  308ebc:	d0 03       	mov.l	308ecc <_abort+0x10>,r0	! 309270 <_raise>
  308ebe:	4f 22       	sts.l	pr,@-r15
  308ec0:	40 0b       	jsr	@r0
  308ec2:	e4 06       	mov	#6,r4
  308ec4:	d1 02       	mov.l	308ed0 <_abort+0x14>,r1	! 303288 <__Exit>
  308ec6:	41 0b       	jsr	@r1
  308ec8:	e4 00       	mov	#0,r4
  308eca:	00 09       	nop	
  308ecc:	00 30       	.word 0x0030
  308ece:	92 70       	mov.w	308fb2 <_strcmp+0x14>,r2	! b
  308ed0:	00 30       	.word 0x0030
  308ed2:	32 88       	sub	r8,r2

00308ed4 <_atoi>:
  308ed4:	d0 01       	mov.l	308edc <_atoi+0x8>,r0	! 308f2c <_strtol>
  308ed6:	e6 0a       	mov	#10,r6
  308ed8:	40 2b       	jmp	@r0
  308eda:	e5 00       	mov	#0,r5
  308edc:	00 30       	.word 0x0030
  308ede:	8f 2c       	bf.s	308f3a <_strtol+0xe>

00308ee0 <_calloc>:
  308ee0:	2f 86       	mov.l	r8,@-r15
  308ee2:	34 55       	dmulu.l	r5,r4
  308ee4:	2f 96       	mov.l	r9,@-r15
  308ee6:	01 0a       	sts	mach,r1
  308ee8:	4f 22       	sts.l	pr,@-r15
  308eea:	21 18       	tst	r1,r1
  308eec:	09 1a       	sts	macl,r9
  308eee:	8f 06       	bf.s	308efe <_calloc+0x1e>
  308ef0:	e8 00       	mov	#0,r8
  308ef2:	d0 09       	mov.l	308f18 <_calloc+0x38>,r0	! 309250 <_malloc>
  308ef4:	40 0b       	jsr	@r0
  308ef6:	04 1a       	sts	macl,r4
  308ef8:	20 08       	tst	r0,r0
  308efa:	8f 05       	bf.s	308f08 <_calloc+0x28>
  308efc:	68 03       	mov	r0,r8
  308efe:	60 83       	mov	r8,r0
  308f00:	4f 26       	lds.l	@r15+,pr
  308f02:	69 f6       	mov.l	@r15+,r9
  308f04:	00 0b       	rts	
  308f06:	68 f6       	mov.l	@r15+,r8
  308f08:	64 03       	mov	r0,r4
  308f0a:	d0 04       	mov.l	308f1c <_calloc+0x3c>,r0	! 3091c0 <_memset>
  308f0c:	66 93       	mov	r9,r6
  308f0e:	40 0b       	jsr	@r0
  308f10:	e5 00       	mov	#0,r5
  308f12:	af f5       	bra	308f00 <_calloc+0x20>
  308f14:	60 83       	mov	r8,r0
  308f16:	00 09       	nop	
  308f18:	00 30       	.word 0x0030
  308f1a:	92 50       	mov.w	308fbe <_strcpy+0x8>,r2	! 8f02
  308f1c:	00 30       	.word 0x0030
  308f1e:	91 c0       	mov.w	3090a2 <.aligned4+0x10>,r1	! 9

00308f20 <_exit>:
  308f20:	d1 01       	mov.l	308f28 <_exit+0x8>,r1	! 303288 <__Exit>
  308f22:	4f 22       	sts.l	pr,@-r15
  308f24:	41 0b       	jsr	@r1
  308f26:	00 09       	nop	
  308f28:	00 30       	.word 0x0030
  308f2a:	32 88       	sub	r8,r2

00308f2c <_strtol>:
  308f2c:	4f 22       	sts.l	pr,@-r15
  308f2e:	e1 00       	mov	#0,r1
  308f30:	d0 08       	mov.l	308f54 <_strtol+0x28>,r0	! 30a0d0 <___strto_int>
  308f32:	7f f4       	add	#-12,r15
  308f34:	67 f3       	mov	r15,r7
  308f36:	1f 12       	mov.l	r1,@(8,r15)
  308f38:	77 08       	add	#8,r7
  308f3a:	1f 11       	mov.l	r1,@(4,r15)
  308f3c:	40 0b       	jsr	@r0
  308f3e:	2f 12       	mov.l	r1,@r15
  308f40:	20 08       	tst	r0,r0
  308f42:	89 01       	bt	308f48 <_strtol+0x1c>
  308f44:	d1 04       	mov.l	308f58 <_strtol+0x2c>,r1	! 8101778 <_errno>
  308f46:	21 02       	mov.l	r0,@r1
  308f48:	50 f2       	mov.l	@(8,r15),r0
  308f4a:	7f 0c       	add	#12,r15
  308f4c:	4f 26       	lds.l	@r15+,pr
  308f4e:	00 0b       	rts	
  308f50:	00 09       	nop	
  308f52:	00 09       	nop	
  308f54:	00 30       	.word 0x0030
  308f56:	a0 d0       	bra	3090fa <.___cpucap+0xa>
  308f58:	08 10       	.word 0x0810
  308f5a:	17 78       	mov.l	r7,@(32,r7)

00308f5c <_strcat>:
  308f5c:	25 58       	tst	r5,r5
  308f5e:	8d 11       	bt.s	308f84 <_strcat+0x28>
  308f60:	60 43       	mov	r4,r0
  308f62:	24 48       	tst	r4,r4
  308f64:	8d 0e       	bt.s	308f84 <_strcat+0x28>
  308f66:	62 43       	mov	r4,r2
  308f68:	61 23       	mov	r2,r1
  308f6a:	63 24       	mov.b	@r2+,r3
  308f6c:	23 38       	tst	r3,r3
  308f6e:	8f fb       	bf.s	308f68 <_strcat+0xc>
  308f70:	31 08       	sub	r0,r1
  308f72:	31 0c       	add	r0,r1
  308f74:	62 54       	mov.b	@r5+,r2
  308f76:	22 28       	tst	r2,r2
  308f78:	8f 02       	bf.s	308f80 <_strcat+0x24>
  308f7a:	21 20       	mov.b	r2,@r1
  308f7c:	00 0b       	rts	
  308f7e:	00 09       	nop	
  308f80:	af f8       	bra	308f74 <_strcat+0x18>
  308f82:	71 01       	add	#1,r1
  308f84:	00 0b       	rts	
  308f86:	e0 00       	mov	#0,r0

00308f88 <_strchr>:
  308f88:	61 40       	mov.b	@r4,r1
  308f8a:	60 43       	mov	r4,r0
  308f8c:	21 18       	tst	r1,r1
  308f8e:	8f 02       	bf.s	308f96 <_strchr+0xe>
  308f90:	74 01       	add	#1,r4
  308f92:	a0 02       	bra	308f9a <_strchr+0x12>
  308f94:	e0 00       	mov	#0,r0
  308f96:	31 50       	cmp/eq	r5,r1
  308f98:	8b f6       	bf	308f88 <_strchr>
  308f9a:	00 0b       	rts	
  308f9c:	00 09       	nop	

00308f9e <_strcmp>:
  308f9e:	60 44       	mov.b	@r4+,r0
  308fa0:	20 08       	tst	r0,r0
  308fa2:	8d 04       	bt.s	308fae <_strcmp+0x10>
  308fa4:	61 54       	mov.b	@r5+,r1
  308fa6:	30 10       	cmp/eq	r1,r0
  308fa8:	8f 01       	bf.s	308fae <_strcmp+0x10>
  308faa:	21 18       	tst	r1,r1
  308fac:	8b f7       	bf	308f9e <_strcmp>
  308fae:	61 1c       	extu.b	r1,r1
  308fb0:	60 0c       	extu.b	r0,r0
  308fb2:	00 0b       	rts	
  308fb4:	30 18       	sub	r1,r0

00308fb6 <_strcpy>:
  308fb6:	60 43       	mov	r4,r0
  308fb8:	61 43       	mov	r4,r1
  308fba:	62 54       	mov.b	@r5+,r2
  308fbc:	22 28       	tst	r2,r2
  308fbe:	8f 02       	bf.s	308fc6 <_strcpy+0x10>
  308fc0:	21 20       	mov.b	r2,@r1
  308fc2:	00 0b       	rts	
  308fc4:	00 09       	nop	
  308fc6:	af f8       	bra	308fba <_strcpy+0x4>
  308fc8:	71 01       	add	#1,r1
	...

00308fcc <_strdup>:
  308fcc:	2f 86       	mov.l	r8,@-r15
  308fce:	2f 96       	mov.l	r9,@-r15
  308fd0:	d0 0b       	mov.l	309000 <_strdup+0x34>,r0	! 309216 <_strlen>
  308fd2:	2f a6       	mov.l	r10,@-r15
  308fd4:	4f 22       	sts.l	pr,@-r15
  308fd6:	40 0b       	jsr	@r0
  308fd8:	69 43       	mov	r4,r9
  308fda:	6a 03       	mov	r0,r10
  308fdc:	d0 09       	mov.l	309004 <_strdup+0x38>,r0	! 309250 <_malloc>
  308fde:	7a 01       	add	#1,r10
  308fe0:	40 0b       	jsr	@r0
  308fe2:	64 a3       	mov	r10,r4
  308fe4:	20 08       	tst	r0,r0
  308fe6:	8d 05       	bt.s	308ff4 <_strdup+0x28>
  308fe8:	68 03       	mov	r0,r8
  308fea:	64 03       	mov	r0,r4
  308fec:	d0 06       	mov.l	309008 <_strdup+0x3c>,r0	! 309100 <_memcpy>
  308fee:	66 a3       	mov	r10,r6
  308ff0:	40 0b       	jsr	@r0
  308ff2:	65 93       	mov	r9,r5
  308ff4:	60 83       	mov	r8,r0
  308ff6:	4f 26       	lds.l	@r15+,pr
  308ff8:	6a f6       	mov.l	@r15+,r10
  308ffa:	69 f6       	mov.l	@r15+,r9
  308ffc:	00 0b       	rts	
  308ffe:	68 f6       	mov.l	@r15+,r8
  309000:	00 30       	.word 0x0030
  309002:	92 16       	mov.w	309032 <_longjmp+0x2>,r2	! 2558
  309004:	00 30       	.word 0x0030
  309006:	92 50       	mov.w	3090aa <.unaligned4+0x6>,r2	! 8f10
  309008:	00 30       	.word 0x0030
  30900a:	91 00       	mov.w	30900e <_setjmp+0x2>,r1	! 7434

0030900c <_setjmp>:
  30900c:	03 02       	stc	sr,r3
  30900e:	74 34       	add	#52,r4
  309010:	44 22       	sts.l	pr,@-r4
  309012:	44 02       	sts.l	mach,@-r4
  309014:	44 12       	sts.l	macl,@-r4
  309016:	44 13       	stc.l	gbr,@-r4
  309018:	24 f6       	mov.l	r15,@-r4
  30901a:	24 e6       	mov.l	r14,@-r4
  30901c:	24 d6       	mov.l	r13,@-r4
  30901e:	24 c6       	mov.l	r12,@-r4
  309020:	24 b6       	mov.l	r11,@-r4
  309022:	24 a6       	mov.l	r10,@-r4
  309024:	24 96       	mov.l	r9,@-r4
  309026:	24 86       	mov.l	r8,@-r4
  309028:	24 36       	mov.l	r3,@-r4
  30902a:	00 0b       	rts	
  30902c:	e0 00       	mov	#0,r0
  30902e:	00 09       	nop	

00309030 <_longjmp>:
  309030:	68 43       	mov	r4,r8
  309032:	25 58       	tst	r5,r5
  309034:	09 29       	movt	r9
  309036:	39 5c       	add	r5,r9

00309038 <context_switch>:
  309038:	48 07       	ldc.l	@r8+,sr
  30903a:	64 83       	mov	r8,r4
  30903c:	60 93       	mov	r9,r0
  30903e:	68 46       	mov.l	@r4+,r8
  309040:	69 46       	mov.l	@r4+,r9
  309042:	6a 46       	mov.l	@r4+,r10
  309044:	6b 46       	mov.l	@r4+,r11
  309046:	6c 46       	mov.l	@r4+,r12
  309048:	6d 46       	mov.l	@r4+,r13
  30904a:	6e 46       	mov.l	@r4+,r14
  30904c:	6f 46       	mov.l	@r4+,r15
  30904e:	44 17       	ldc.l	@r4+,gbr
  309050:	44 16       	lds.l	@r4+,macl
  309052:	44 06       	lds.l	@r4+,mach
  309054:	44 26       	lds.l	@r4+,pr
  309056:	00 0b       	rts	
  309058:	00 09       	nop	
  30905a:	00 09       	nop	
  30905c:	00 00       	.word 0x0000
	...

00309060 <_memcmp>:
  309060:	26 68       	tst	r6,r6
  309062:	89 41       	bt	3090e8 <.zero>
  309064:	e0 40       	mov	#64,r0
  309066:	30 63       	cmp/ge	r6,r0
  309068:	89 34       	bt	3090d4 <_naive_memcmp>
  30906a:	e2 04       	mov	#4,r2
  30906c:	e3 03       	mov	#3,r3

0030906e <_memcmp_align_rhs>:
  30906e:	60 44       	mov.b	@r4+,r0
  309070:	61 54       	mov.b	@r5+,r1
  309072:	31 00       	cmp/eq	r0,r1
  309074:	8f 34       	bf.s	3090e0 <.end>
  309076:	46 10       	dt	r6
  309078:	25 38       	tst	r3,r5
  30907a:	8b f8       	bf	30906e <_memcmp_align_rhs>
  30907c:	24 38       	tst	r3,r4
  30907e:	89 08       	bt	309092 <.aligned4>
  309080:	d0 1b       	mov.l	3090f0 <.___cpucap>,r0	! 8101774 <___cpucap>
  309082:	60 02       	mov.l	@r0,r0
  309084:	c8 01       	tst	#1,r0
  309086:	8b 0d       	bf	3090a4 <.unaligned4>
  309088:	60 43       	mov	r4,r0
  30908a:	c8 01       	tst	#1,r0
  30908c:	89 13       	bt	3090b6 <.aligned2>
  30908e:	a0 21       	bra	3090d4 <_naive_memcmp>
  309090:	00 09       	nop	

00309092 <.aligned4>:
  309092:	60 46       	mov.l	@r4+,r0
  309094:	61 56       	mov.l	@r5+,r1
  309096:	31 00       	cmp/eq	r0,r1
  309098:	8f 19       	bf.s	3090ce <_fail>
  30909a:	76 fc       	add	#-4,r6
  30909c:	32 63       	cmp/ge	r6,r2
  30909e:	8b f8       	bf	309092 <.aligned4>
  3090a0:	a0 18       	bra	3090d4 <_naive_memcmp>
  3090a2:	00 09       	nop	

003090a4 <.unaligned4>:
  3090a4:	44 e9       	movua.l	@r4+,r0
  3090a6:	61 56       	mov.l	@r5+,r1
  3090a8:	31 00       	cmp/eq	r0,r1
  3090aa:	8f 10       	bf.s	3090ce <_fail>
  3090ac:	76 fc       	add	#-4,r6
  3090ae:	32 63       	cmp/ge	r6,r2
  3090b0:	8b f8       	bf	3090a4 <.unaligned4>
  3090b2:	a0 0f       	bra	3090d4 <_naive_memcmp>
  3090b4:	00 09       	nop	

003090b6 <.aligned2>:
  3090b6:	60 45       	mov.w	@r4+,r0
  3090b8:	61 56       	mov.l	@r5+,r1
  3090ba:	62 45       	mov.w	@r4+,r2
  3090bc:	40 28       	shll16	r0
  3090be:	20 2b       	or	r2,r0
  3090c0:	31 00       	cmp/eq	r0,r1
  3090c2:	8f 04       	bf.s	3090ce <_fail>
  3090c4:	76 fc       	add	#-4,r6
  3090c6:	32 63       	cmp/ge	r6,r2
  3090c8:	8b f5       	bf	3090b6 <.aligned2>
  3090ca:	a0 03       	bra	3090d4 <_naive_memcmp>
  3090cc:	00 09       	nop	

003090ce <_fail>:
  3090ce:	74 fc       	add	#-4,r4
  3090d0:	75 fc       	add	#-4,r5
  3090d2:	76 04       	add	#4,r6

003090d4 <_naive_memcmp>:
  3090d4:	60 44       	mov.b	@r4+,r0
  3090d6:	61 54       	mov.b	@r5+,r1
  3090d8:	31 00       	cmp/eq	r0,r1
  3090da:	8f 01       	bf.s	3090e0 <.end>
  3090dc:	46 10       	dt	r6
  3090de:	8b f9       	bf	3090d4 <_naive_memcmp>

003090e0 <.end>:
  3090e0:	60 0c       	extu.b	r0,r0
  3090e2:	61 1c       	extu.b	r1,r1
  3090e4:	00 0b       	rts	
  3090e6:	30 18       	sub	r1,r0

003090e8 <.zero>:
  3090e8:	00 0b       	rts	
  3090ea:	e0 00       	mov	#0,r0
  3090ec:	00 09       	nop	
  3090ee:	00 09       	nop	

003090f0 <.___cpucap>:
  3090f0:	08 10       	.word 0x0810
  3090f2:	17 74       	mov.l	r7,@(16,r7)
  3090f4:	00 09       	nop	
  3090f6:	00 09       	nop	
  3090f8:	00 09       	nop	
  3090fa:	00 09       	nop	
  3090fc:	00 09       	nop	
  3090fe:	00 09       	nop	

00309100 <_memcpy>:
  309100:	26 68       	tst	r6,r6
  309102:	89 4d       	bt	3091a0 <.zero>
  309104:	63 43       	mov	r4,r3
  309106:	e2 03       	mov	#3,r2
  309108:	e0 40       	mov	#64,r0
  30910a:	30 63       	cmp/ge	r6,r0
  30910c:	89 41       	bt	309192 <_naive_memcpy>

0030910e <_memcpy_align_dst>:
  30910e:	60 54       	mov.b	@r5+,r0
  309110:	24 00       	mov.b	r0,@r4
  309112:	74 01       	add	#1,r4
  309114:	24 28       	tst	r2,r4
  309116:	8f fa       	bf.s	30910e <_memcpy_align_dst>
  309118:	46 10       	dt	r6
  30911a:	25 28       	tst	r2,r5
  30911c:	8d 09       	bt.s	309132 <.aligned4_32>
  30911e:	e2 04       	mov	#4,r2
  309120:	d0 23       	mov.l	3091b0 <.___cpucap>,r0	! 8101774 <___cpucap>
  309122:	60 02       	mov.l	@r0,r0
  309124:	c8 01       	tst	#1,r0
  309126:	8b 22       	bf	30916e <.unaligned4>
  309128:	60 53       	mov	r5,r0
  30912a:	c8 01       	tst	#1,r0
  30912c:	89 27       	bt	30917e <.aligned2>
  30912e:	a0 30       	bra	309192 <_naive_memcpy>
  309130:	00 09       	nop	

00309132 <.aligned4_32>:
  309132:	e2 24       	mov	#36,r2
  309134:	60 56       	mov.l	@r5+,r0
  309136:	61 56       	mov.l	@r5+,r1
  309138:	67 56       	mov.l	@r5+,r7
  30913a:	24 02       	mov.l	r0,@r4
  30913c:	14 11       	mov.l	r1,@(4,r4)
  30913e:	14 72       	mov.l	r7,@(8,r4)
  309140:	60 56       	mov.l	@r5+,r0
  309142:	61 56       	mov.l	@r5+,r1
  309144:	67 56       	mov.l	@r5+,r7
  309146:	14 03       	mov.l	r0,@(12,r4)
  309148:	14 14       	mov.l	r1,@(16,r4)
  30914a:	14 75       	mov.l	r7,@(20,r4)
  30914c:	60 56       	mov.l	@r5+,r0
  30914e:	61 56       	mov.l	@r5+,r1
  309150:	76 e0       	add	#-32,r6
  309152:	14 06       	mov.l	r0,@(24,r4)
  309154:	14 17       	mov.l	r1,@(28,r4)
  309156:	32 63       	cmp/ge	r6,r2
  309158:	8f eb       	bf.s	309132 <.aligned4_32>
  30915a:	74 20       	add	#32,r4

0030915c <.aligned4_4>:
  30915c:	e2 04       	mov	#4,r2
  30915e:	60 56       	mov.l	@r5+,r0
  309160:	24 02       	mov.l	r0,@r4
  309162:	76 fc       	add	#-4,r6
  309164:	32 63       	cmp/ge	r6,r2
  309166:	8f f9       	bf.s	30915c <.aligned4_4>
  309168:	74 04       	add	#4,r4
  30916a:	a0 12       	bra	309192 <_naive_memcpy>
  30916c:	00 09       	nop	

0030916e <.unaligned4>:
  30916e:	45 e9       	movua.l	@r5+,r0
  309170:	24 02       	mov.l	r0,@r4
  309172:	76 fc       	add	#-4,r6
  309174:	32 63       	cmp/ge	r6,r2
  309176:	8f fa       	bf.s	30916e <.unaligned4>
  309178:	74 04       	add	#4,r4
  30917a:	a0 0a       	bra	309192 <_naive_memcpy>
  30917c:	00 09       	nop	

0030917e <.aligned2>:
  30917e:	60 55       	mov.w	@r5+,r0
  309180:	24 01       	mov.w	r0,@r4
  309182:	60 55       	mov.w	@r5+,r0
  309184:	81 41       	mov.w	r0,@(2,r4)
  309186:	76 fc       	add	#-4,r6
  309188:	32 63       	cmp/ge	r6,r2
  30918a:	8f f8       	bf.s	30917e <.aligned2>
  30918c:	74 04       	add	#4,r4
  30918e:	a0 00       	bra	309192 <_naive_memcpy>
  309190:	00 09       	nop	

00309192 <_naive_memcpy>:
  309192:	60 54       	mov.b	@r5+,r0
  309194:	46 10       	dt	r6
  309196:	24 00       	mov.b	r0,@r4
  309198:	8f fb       	bf.s	309192 <_naive_memcpy>
  30919a:	74 01       	add	#1,r4
  30919c:	00 0b       	rts	
  30919e:	60 33       	mov	r3,r0

003091a0 <.zero>:
  3091a0:	00 0b       	rts	
  3091a2:	60 43       	mov	r4,r0
  3091a4:	00 09       	nop	
  3091a6:	00 09       	nop	
  3091a8:	00 09       	nop	
  3091aa:	00 09       	nop	
  3091ac:	00 09       	nop	
  3091ae:	00 09       	nop	

003091b0 <.___cpucap>:
  3091b0:	08 10       	.word 0x0810
  3091b2:	17 74       	mov.l	r7,@(16,r7)
  3091b4:	00 09       	nop	
  3091b6:	00 09       	nop	
  3091b8:	00 09       	nop	
  3091ba:	00 09       	nop	
  3091bc:	00 09       	nop	
  3091be:	00 09       	nop	

003091c0 <_memset>:
  3091c0:	26 68       	tst	r6,r6
  3091c2:	89 26       	bt	309212 <.zero>
  3091c4:	63 43       	mov	r4,r3
  3091c6:	34 6c       	add	r6,r4
  3091c8:	e0 40       	mov	#64,r0
  3091ca:	30 63       	cmp/ge	r6,r0
  3091cc:	8d 1c       	bt.s	309208 <_naive_memset>
  3091ce:	60 53       	mov	r5,r0
  3091d0:	e2 03       	mov	#3,r2
  3091d2:	45 18       	shll8	r5
  3091d4:	20 5b       	or	r5,r0
  3091d6:	65 03       	mov	r0,r5
  3091d8:	45 28       	shll16	r5
  3091da:	20 5b       	or	r5,r0

003091dc <_memset_align>:
  3091dc:	24 04       	mov.b	r0,@-r4
  3091de:	24 28       	tst	r2,r4
  3091e0:	8f fc       	bf.s	3091dc <_memset_align>
  3091e2:	46 10       	dt	r6
  3091e4:	e2 28       	mov	#40,r2

003091e6 <.aligned4_32>:
  3091e6:	74 e0       	add	#-32,r4
  3091e8:	76 e0       	add	#-32,r6
  3091ea:	14 07       	mov.l	r0,@(28,r4)
  3091ec:	14 06       	mov.l	r0,@(24,r4)
  3091ee:	14 05       	mov.l	r0,@(20,r4)
  3091f0:	14 04       	mov.l	r0,@(16,r4)
  3091f2:	14 03       	mov.l	r0,@(12,r4)
  3091f4:	14 02       	mov.l	r0,@(8,r4)
  3091f6:	14 01       	mov.l	r0,@(4,r4)
  3091f8:	32 63       	cmp/ge	r6,r2
  3091fa:	8f f4       	bf.s	3091e6 <.aligned4_32>
  3091fc:	24 02       	mov.l	r0,@r4
  3091fe:	e2 08       	mov	#8,r2

00309200 <.aligned4_4>:
  309200:	24 06       	mov.l	r0,@-r4
  309202:	32 63       	cmp/ge	r6,r2
  309204:	8f fc       	bf.s	309200 <.aligned4_4>
  309206:	76 fc       	add	#-4,r6

00309208 <_naive_memset>:
  309208:	46 10       	dt	r6
  30920a:	8f fd       	bf.s	309208 <_naive_memset>
  30920c:	24 04       	mov.b	r0,@-r4

0030920e <.end>:
  30920e:	00 0b       	rts	
  309210:	60 33       	mov	r3,r0

00309212 <.zero>:
  309212:	00 0b       	rts	
  309214:	60 43       	mov	r4,r0

00309216 <_strlen>:
  309216:	60 43       	mov	r4,r0
  309218:	e2 00       	mov	#0,r2
  30921a:	61 04       	mov.b	@r0+,r1
  30921c:	21 18       	tst	r1,r1
  30921e:	89 0e       	bt	30923e <.end>
  309220:	61 04       	mov.b	@r0+,r1
  309222:	21 18       	tst	r1,r1
  309224:	89 0b       	bt	30923e <.end>
  309226:	61 04       	mov.b	@r0+,r1
  309228:	21 18       	tst	r1,r1
  30922a:	89 08       	bt	30923e <.end>
  30922c:	cb 03       	or	#3,r0
  30922e:	ca 03       	xor	#3,r0
  309230:	61 06       	mov.l	@r0+,r1
  309232:	22 1c       	cmp/str	r1,r2
  309234:	8b fc       	bf	309230 <_strlen+0x1a>
  309236:	70 fc       	add	#-4,r0
  309238:	61 04       	mov.b	@r0+,r1
  30923a:	21 18       	tst	r1,r1
  30923c:	8b fc       	bf	309238 <_strlen+0x22>

0030923e <.end>:
  30923e:	70 ff       	add	#-1,r0
  309240:	00 0b       	rts	
  309242:	30 48       	sub	r4,r0

00309244 <_free>:
  309244:	d1 01       	mov.l	30924c <_free+0x8>,r1	! 306350 <_kfree>
  309246:	41 2b       	jmp	@r1
  309248:	00 09       	nop	
  30924a:	00 09       	nop	
  30924c:	00 30       	.word 0x0030
  30924e:	63 50       	mov.b	@r5,r3

00309250 <_malloc>:
  309250:	d0 05       	mov.l	309268 <_malloc+0x18>,r0	! 3062bc <_kmalloc>
  309252:	4f 22       	sts.l	pr,@-r15
  309254:	40 0b       	jsr	@r0
  309256:	e5 00       	mov	#0,r5
  309258:	20 08       	tst	r0,r0
  30925a:	8f 02       	bf.s	309262 <_malloc+0x12>
  30925c:	e2 09       	mov	#9,r2
  30925e:	d1 03       	mov.l	30926c <_malloc+0x1c>,r1	! 8101778 <_errno>
  309260:	21 22       	mov.l	r2,@r1
  309262:	4f 26       	lds.l	@r15+,pr
  309264:	00 0b       	rts	
  309266:	00 09       	nop	
  309268:	00 30       	.word 0x0030
  30926a:	62 bc       	extu.b	r11,r2
  30926c:	08 10       	.word 0x0810
  30926e:	17 78       	mov.l	r7,@(32,r7)

00309270 <_raise>:
  309270:	2f 86       	mov.l	r8,@-r15
  309272:	e1 0f       	mov	#15,r1
  309274:	2f 96       	mov.l	r9,@-r15
  309276:	34 16       	cmp/hi	r1,r4
  309278:	2f a6       	mov.l	r10,@-r15
  30927a:	68 43       	mov	r4,r8
  30927c:	2f b6       	mov.l	r11,@-r15
  30927e:	e9 01       	mov	#1,r9
  309280:	8d 20       	bt.s	3092c4 <_raise+0x54>
  309282:	4f 22       	sts.l	pr,@-r15
  309284:	db 14       	mov.l	3092d8 <_raise+0x68>,r11	! 30a420 <_signal>
  309286:	4b 0b       	jsr	@r11
  309288:	e5 00       	mov	#0,r5
  30928a:	20 08       	tst	r0,r0
  30928c:	8f 11       	bf.s	3092b2 <_raise+0x42>
  30928e:	6a 03       	mov	r0,r10
  309290:	90 1f       	mov.w	3092d2 <_raise+0x62>,r0	! 950
  309292:	49 8d       	shld	r8,r9
  309294:	29 08       	tst	r0,r9
  309296:	8b 08       	bf	3092aa <_raise+0x3a>
  309298:	d1 10       	mov.l	3092dc <_raise+0x6c>,r1	! 8004
  30929a:	29 18       	tst	r1,r9
  30929c:	8d 0f       	bt.s	3092be <_raise+0x4e>
  30929e:	65 a3       	mov	r10,r5
  3092a0:	94 18       	mov.w	3092d4 <_raise+0x64>,r4	! 80
  3092a2:	d1 0f       	mov.l	3092e0 <_raise+0x70>,r1	! 308f20 <_exit>
  3092a4:	34 8c       	add	r8,r4
  3092a6:	41 0b       	jsr	@r1
  3092a8:	00 09       	nop	
  3092aa:	94 13       	mov.w	3092d4 <_raise+0x64>,r4	! 80
  3092ac:	d1 0d       	mov.l	3092e4 <_raise+0x74>,r1	! 303288 <__Exit>
  3092ae:	af fa       	bra	3092a6 <_raise+0x36>
  3092b0:	34 8c       	add	r8,r4
  3092b2:	88 01       	cmp/eq	#1,r0
  3092b4:	8d 03       	bt.s	3092be <_raise+0x4e>
  3092b6:	65 a3       	mov	r10,r5
  3092b8:	40 0b       	jsr	@r0
  3092ba:	64 83       	mov	r8,r4
  3092bc:	65 a3       	mov	r10,r5
  3092be:	64 83       	mov	r8,r4
  3092c0:	4b 0b       	jsr	@r11
  3092c2:	e9 00       	mov	#0,r9
  3092c4:	60 93       	mov	r9,r0
  3092c6:	4f 26       	lds.l	@r15+,pr
  3092c8:	6b f6       	mov.l	@r15+,r11
  3092ca:	6a f6       	mov.l	@r15+,r10
  3092cc:	69 f6       	mov.l	@r15+,r9
  3092ce:	00 0b       	rts	
  3092d0:	68 f6       	mov.l	@r15+,r8
  3092d2:	09 50       	.word 0x0950
  3092d4:	00 80       	.word 0x0080
  3092d6:	00 09       	nop	
  3092d8:	00 30       	.word 0x0030
  3092da:	a4 20       	bra	309b1e <___printf_format_di+0x3a>
  3092dc:	00 00       	.word 0x0000
  3092de:	80 04       	mov.b	r0,@(4,r0)
  3092e0:	00 30       	.word 0x0030
  3092e2:	8f 20       	bf.s	309326 <_fdopen+0x3e>
  3092e4:	00 30       	.word 0x0030
  3092e6:	32 88       	sub	r8,r2

003092e8 <_fdopen>:
  3092e8:	2f 86       	mov.l	r8,@-r15
  3092ea:	2f 96       	mov.l	r9,@-r15
  3092ec:	69 43       	mov	r4,r9
  3092ee:	d0 12       	mov.l	309338 <_fdopen+0x50>,r0	! 308ee0 <_calloc>
  3092f0:	e4 01       	mov	#1,r4
  3092f2:	2f a6       	mov.l	r10,@-r15
  3092f4:	6a 53       	mov	r5,r10
  3092f6:	4f 22       	sts.l	pr,@-r15
  3092f8:	40 0b       	jsr	@r0
  3092fa:	e5 20       	mov	#32,r5
  3092fc:	20 08       	tst	r0,r0
  3092fe:	8d 13       	bt.s	309328 <_fdopen+0x40>
  309300:	68 03       	mov	r0,r8
  309302:	e1 ff       	mov	#-1,r1
  309304:	20 12       	mov.l	r1,@r0
  309306:	65 03       	mov	r0,r5
  309308:	d0 0c       	mov.l	30933c <_fdopen+0x54>,r0	! 309730 <___fp_parse_mode>
  30930a:	40 0b       	jsr	@r0
  30930c:	64 a3       	mov	r10,r4
  30930e:	40 11       	cmp/pz	r0
  309310:	8f 0a       	bf.s	309328 <_fdopen+0x40>
  309312:	e6 01       	mov	#1,r6
  309314:	d0 0a       	mov.l	309340 <_fdopen+0x58>,r0	! 309348 <___fp_open>
  309316:	65 93       	mov	r9,r5
  309318:	40 0b       	jsr	@r0
  30931a:	64 83       	mov	r8,r4
  30931c:	60 83       	mov	r8,r0
  30931e:	4f 26       	lds.l	@r15+,pr
  309320:	6a f6       	mov.l	@r15+,r10
  309322:	69 f6       	mov.l	@r15+,r9
  309324:	00 0b       	rts	
  309326:	68 f6       	mov.l	@r15+,r8
  309328:	d1 06       	mov.l	309344 <_fdopen+0x5c>,r1	! 309374 <___fp_close>
  30932a:	64 83       	mov	r8,r4
  30932c:	e5 01       	mov	#1,r5
  30932e:	41 0b       	jsr	@r1
  309330:	e8 00       	mov	#0,r8
  309332:	af f4       	bra	30931e <_fdopen+0x36>
  309334:	60 83       	mov	r8,r0
  309336:	00 09       	nop	
  309338:	00 30       	.word 0x0030
  30933a:	8e e0       	ldre	3094fe <___fp_buffered_read+0x3e>	! 400b
  30933c:	00 30       	.word 0x0030
  30933e:	97 30       	mov.w	3093a2 <___fp_close+0x2e>,r7	! 5482
  309340:	00 30       	.word 0x0030
  309342:	93 48       	mov.w	3093d6 <___fp_remove_buffer+0xe>,r3	! d107
  309344:	00 30       	.word 0x0030
  309346:	93 74       	mov.w	309432 <___fp_set_buffer+0x3a>,r3	! b

00309348 <___fp_open>:
  309348:	66 6c       	extu.b	r6,r6
  30934a:	e1 00       	mov	#0,r1
  30934c:	4f 22       	sts.l	pr,@-r15
  30934e:	26 68       	tst	r6,r6
  309350:	24 52       	mov.l	r5,@r4
  309352:	e0 00       	mov	#0,r0
  309354:	8d 08       	bt.s	309368 <___fp_open+0x20>
  309356:	14 11       	mov.l	r1,@(4,r4)
  309358:	d0 05       	mov.l	309370 <___fp_open+0x28>,r0	! 30a044 <_setvbuf>
  30935a:	e6 00       	mov	#0,r6
  30935c:	97 07       	mov.w	30936e <___fp_open+0x26>,r7	! 200
  30935e:	40 0b       	jsr	@r0
  309360:	e5 00       	mov	#0,r5
  309362:	20 08       	tst	r0,r0
  309364:	30 0a       	subc	r0,r0
  309366:	60 07       	not	r0,r0
  309368:	4f 26       	lds.l	@r15+,pr
  30936a:	00 0b       	rts	
  30936c:	00 09       	nop	
  30936e:	02 00       	.word 0x0200
  309370:	00 30       	.word 0x0030
  309372:	a0 44       	bra	3093fe <___fp_set_buffer+0x6>

00309374 <___fp_close>:
  309374:	2f 86       	mov.l	r8,@-r15
  309376:	24 48       	tst	r4,r4
  309378:	2f 96       	mov.l	r9,@-r15
  30937a:	68 43       	mov	r4,r8
  30937c:	4f 22       	sts.l	pr,@-r15
  30937e:	8d 19       	bt.s	3093b4 <___fp_close+0x40>
  309380:	69 5c       	extu.b	r5,r9
  309382:	61 42       	mov.l	@r4,r1
  309384:	41 11       	cmp/pz	r1
  309386:	8b 05       	bf	309394 <___fp_close+0x20>
  309388:	d0 0c       	mov.l	3093bc <___fp_close+0x48>,r0	! 30a43c <_fflush>
  30938a:	40 0b       	jsr	@r0
  30938c:	00 09       	nop	
  30938e:	d0 0c       	mov.l	3093c0 <___fp_close+0x4c>,r0	! 30a518 <_close>
  309390:	40 0b       	jsr	@r0
  309392:	64 82       	mov.l	@r8,r4
  309394:	85 8e       	mov.w	@(28,r8),r0
  309396:	60 08       	swap.b	r0,r0
  309398:	c8 20       	tst	#32,r0
  30939a:	8d 04       	bt.s	3093a6 <___fp_close+0x32>
  30939c:	29 98       	tst	r9,r9
  30939e:	d1 09       	mov.l	3093c4 <___fp_close+0x50>,r1	! 309244 <_free>
  3093a0:	41 0b       	jsr	@r1
  3093a2:	54 82       	mov.l	@(8,r8),r4
  3093a4:	29 98       	tst	r9,r9
  3093a6:	8d 05       	bt.s	3093b4 <___fp_close+0x40>
  3093a8:	64 83       	mov	r8,r4
  3093aa:	d1 06       	mov.l	3093c4 <___fp_close+0x50>,r1	! 309244 <_free>
  3093ac:	4f 26       	lds.l	@r15+,pr
  3093ae:	69 f6       	mov.l	@r15+,r9
  3093b0:	41 2b       	jmp	@r1
  3093b2:	68 f6       	mov.l	@r15+,r8
  3093b4:	4f 26       	lds.l	@r15+,pr
  3093b6:	69 f6       	mov.l	@r15+,r9
  3093b8:	00 0b       	rts	
  3093ba:	68 f6       	mov.l	@r15+,r8
  3093bc:	00 30       	.word 0x0030
  3093be:	a4 3c       	bra	309c3a <___printf_format_ouxX+0x5e>
  3093c0:	00 30       	.word 0x0030
  3093c2:	a5 18       	bra	309df6 <___printf_format_m+0x52>
  3093c4:	00 30       	.word 0x0030
  3093c6:	92 44       	mov.w	309452 <___fp_buffer_mode_read+0x16>,r2	! 858e

003093c8 <___fp_remove_buffer>:
  3093c8:	2f 86       	mov.l	r8,@-r15
  3093ca:	4f 22       	sts.l	pr,@-r15
  3093cc:	85 4e       	mov.w	@(28,r4),r0
  3093ce:	60 08       	swap.b	r0,r0
  3093d0:	c8 20       	tst	#32,r0
  3093d2:	8d 03       	bt.s	3093dc <___fp_remove_buffer+0x14>
  3093d4:	68 43       	mov	r4,r8
  3093d6:	d1 07       	mov.l	3093f4 <___fp_remove_buffer+0x2c>,r1	! 309244 <_free>
  3093d8:	41 0b       	jsr	@r1
  3093da:	54 42       	mov.l	@(8,r4),r4
  3093dc:	92 08       	mov.w	3093f0 <___fp_remove_buffer+0x28>,r2	! dfff
  3093de:	e1 00       	mov	#0,r1
  3093e0:	85 8e       	mov.w	@(28,r8),r0
  3093e2:	20 29       	and	r2,r0
  3093e4:	18 12       	mov.l	r1,@(8,r8)
  3093e6:	81 8e       	mov.w	r0,@(28,r8)
  3093e8:	18 15       	mov.l	r1,@(20,r8)
  3093ea:	4f 26       	lds.l	@r15+,pr
  3093ec:	00 0b       	rts	
  3093ee:	68 f6       	mov.l	@r15+,r8
  3093f0:	df ff       	mov.l	3097f0 <_fwrite+0x20>,r15	! 858ee900
  3093f2:	00 09       	nop	
  3093f4:	00 30       	.word 0x0030
  3093f6:	92 44       	mov.w	309482 <___fp_buffer_mode_write+0x6>,r2	! 2f96

003093f8 <___fp_set_buffer>:
  3093f8:	2f 86       	mov.l	r8,@-r15
  3093fa:	25 58       	tst	r5,r5
  3093fc:	2f 96       	mov.l	r9,@-r15
  3093fe:	68 43       	mov	r4,r8
  309400:	4f 22       	sts.l	pr,@-r15
  309402:	69 63       	mov	r6,r9
  309404:	8f 08       	bf.s	309418 <___fp_set_buffer+0x20>
  309406:	e1 00       	mov	#0,r1
  309408:	d0 0b       	mov.l	309438 <___fp_set_buffer+0x40>,r0	! 309250 <_malloc>
  30940a:	40 0b       	jsr	@r0
  30940c:	64 63       	mov	r6,r4
  30940e:	20 08       	tst	r0,r0
  309410:	65 03       	mov	r0,r5
  309412:	8d 0c       	bt.s	30942e <___fp_set_buffer+0x36>
  309414:	e0 00       	mov	#0,r0
  309416:	e1 01       	mov	#1,r1
  309418:	92 0d       	mov.w	309436 <___fp_set_buffer+0x3e>,r2	! dfff
  30941a:	41 28       	shll16	r1
  30941c:	85 8e       	mov.w	@(28,r8),r0
  30941e:	41 09       	shlr2	r1
  309420:	41 01       	shlr	r1
  309422:	20 29       	and	r2,r0
  309424:	20 1b       	or	r1,r0
  309426:	18 52       	mov.l	r5,@(8,r8)
  309428:	18 95       	mov.l	r9,@(20,r8)
  30942a:	81 8e       	mov.w	r0,@(28,r8)
  30942c:	e0 01       	mov	#1,r0
  30942e:	4f 26       	lds.l	@r15+,pr
  309430:	69 f6       	mov.l	@r15+,r9
  309432:	00 0b       	rts	
  309434:	68 f6       	mov.l	@r15+,r8
  309436:	df ff       	mov.l	309834 <_fwrite+0x64>,r15	! 21188f0a
  309438:	00 30       	.word 0x0030
  30943a:	92 50       	mov.w	3094de <___fp_buffered_read+0x1e>,r2	! 5183

0030943c <___fp_buffer_mode_read>:
  30943c:	51 42       	mov.l	@(8,r4),r1
  30943e:	2f 86       	mov.l	r8,@-r15
  309440:	21 18       	tst	r1,r1
  309442:	4f 22       	sts.l	pr,@-r15
  309444:	8d 08       	bt.s	309458 <___fp_buffer_mode_read+0x1c>
  309446:	68 43       	mov	r4,r8
  309448:	85 4e       	mov.w	@(28,r4),r0
  30944a:	60 08       	swap.b	r0,r0
  30944c:	c8 10       	tst	#16,r0
  30944e:	8b 06       	bf	30945e <___fp_buffer_mode_read+0x22>
  309450:	91 10       	mov.w	309474 <___fp_buffer_mode_read+0x38>,r1	! efff
  309452:	85 8e       	mov.w	@(28,r8),r0
  309454:	20 19       	and	r1,r0
  309456:	81 8e       	mov.w	r0,@(28,r8)
  309458:	4f 26       	lds.l	@r15+,pr
  30945a:	00 0b       	rts	
  30945c:	68 f6       	mov.l	@r15+,r8
  30945e:	51 43       	mov.l	@(12,r4),r1
  309460:	21 18       	tst	r1,r1
  309462:	89 f5       	bt	309450 <___fp_buffer_mode_read+0x14>
  309464:	d0 04       	mov.l	309478 <___fp_buffer_mode_read+0x3c>,r0	! 30a43c <_fflush>
  309466:	40 0b       	jsr	@r0
  309468:	00 09       	nop	
  30946a:	51 82       	mov.l	@(8,r8),r1
  30946c:	21 18       	tst	r1,r1
  30946e:	8b ef       	bf	309450 <___fp_buffer_mode_read+0x14>
  309470:	af f2       	bra	309458 <___fp_buffer_mode_read+0x1c>
  309472:	00 09       	nop	
  309474:	ef ff       	mov	#-1,r15
  309476:	00 09       	nop	
  309478:	00 30       	.word 0x0030
  30947a:	a4 3c       	bra	309cf6 <___printf_format_ouxX+0x11a>

0030947c <___fp_buffer_mode_write>:
  30947c:	2f 86       	mov.l	r8,@-r15
  30947e:	68 43       	mov	r4,r8
  309480:	51 42       	mov.l	@(8,r4),r1
  309482:	2f 96       	mov.l	r9,@-r15
  309484:	21 18       	tst	r1,r1
  309486:	8d 07       	bt.s	309498 <___fp_buffer_mode_write+0x1c>
  309488:	4f 22       	sts.l	pr,@-r15
  30948a:	99 15       	mov.w	3094b8 <___fp_buffer_mode_write+0x3c>,r9	! 1000
  30948c:	85 4e       	mov.w	@(28,r4),r0
  30948e:	29 08       	tst	r0,r9
  309490:	89 06       	bt	3094a0 <___fp_buffer_mode_write+0x24>
  309492:	85 8e       	mov.w	@(28,r8),r0
  309494:	20 9b       	or	r9,r0
  309496:	81 8e       	mov.w	r0,@(28,r8)
  309498:	4f 26       	lds.l	@r15+,pr
  30949a:	69 f6       	mov.l	@r15+,r9
  30949c:	00 0b       	rts	
  30949e:	68 f6       	mov.l	@r15+,r8
  3094a0:	52 43       	mov.l	@(12,r4),r2
  3094a2:	51 44       	mov.l	@(16,r4),r1
  3094a4:	32 12       	cmp/hs	r1,r2
  3094a6:	89 f4       	bt	309492 <___fp_buffer_mode_write+0x16>
  3094a8:	d0 04       	mov.l	3094bc <___fp_buffer_mode_write+0x40>,r0	! 30a43c <_fflush>
  3094aa:	40 0b       	jsr	@r0
  3094ac:	00 09       	nop	
  3094ae:	51 82       	mov.l	@(8,r8),r1
  3094b0:	21 18       	tst	r1,r1
  3094b2:	8b ee       	bf	309492 <___fp_buffer_mode_write+0x16>
  3094b4:	af f0       	bra	309498 <___fp_buffer_mode_write+0x1c>
  3094b6:	00 09       	nop	
  3094b8:	10 00       	mov.l	r0,@(0,r0)
  3094ba:	00 09       	nop	
  3094bc:	00 30       	.word 0x0030
  3094be:	a4 3c       	bra	309d3a <___printf_format_ouxX+0x15e>

003094c0 <___fp_buffered_read>:
  3094c0:	2f 86       	mov.l	r8,@-r15
  3094c2:	68 43       	mov	r4,r8
  3094c4:	2f 96       	mov.l	r9,@-r15
  3094c6:	e9 ff       	mov	#-1,r9
  3094c8:	2f a6       	mov.l	r10,@-r15
  3094ca:	6a 53       	mov	r5,r10
  3094cc:	4f 22       	sts.l	pr,@-r15
  3094ce:	54 42       	mov.l	@(8,r4),r4
  3094d0:	24 48       	tst	r4,r4
  3094d2:	8d 3e       	bt.s	309552 <___fp_buffered_read+0x92>
  3094d4:	65 73       	mov	r7,r5
  3094d6:	85 8e       	mov.w	@(28,r8),r0
  3094d8:	60 08       	swap.b	r0,r0
  3094da:	c8 10       	tst	#16,r0
  3094dc:	8d 03       	bt.s	3094e6 <___fp_buffered_read+0x26>
  3094de:	51 83       	mov.l	@(12,r8),r1
  3094e0:	21 18       	tst	r1,r1
  3094e2:	8f 37       	bf.s	309554 <___fp_buffered_read+0x94>
  3094e4:	60 93       	mov	r9,r0
  3094e6:	59 84       	mov.l	@(16,r8),r9
  3094e8:	39 18       	sub	r1,r9
  3094ea:	39 67       	cmp/gt	r6,r9
  3094ec:	8f 02       	bf.s	3094f4 <___fp_buffered_read+0x34>
  3094ee:	49 15       	cmp/pl	r9
  3094f0:	69 63       	mov	r6,r9
  3094f2:	49 15       	cmp/pl	r9
  3094f4:	8f 33       	bf.s	30955e <___fp_buffered_read+0x9e>
  3094f6:	45 11       	cmp/pz	r5
  3094f8:	8f 0b       	bf.s	309512 <___fp_buffered_read+0x52>
  3094fa:	66 93       	mov	r9,r6
  3094fc:	d0 19       	mov.l	309564 <___fp_buffered_read+0xa4>,r0	! 30a380 <_memchr>
  3094fe:	40 0b       	jsr	@r0
  309500:	34 1c       	add	r1,r4
  309502:	20 08       	tst	r0,r0
  309504:	89 05       	bt	309512 <___fp_buffered_read+0x52>
  309506:	51 82       	mov.l	@(8,r8),r1
  309508:	69 03       	mov	r0,r9
  30950a:	52 83       	mov.l	@(12,r8),r2
  30950c:	31 2c       	add	r2,r1
  30950e:	39 18       	sub	r1,r9
  309510:	79 01       	add	#1,r9
  309512:	51 83       	mov.l	@(12,r8),r1
  309514:	66 93       	mov	r9,r6
  309516:	55 82       	mov.l	@(8,r8),r5
  309518:	64 a3       	mov	r10,r4
  30951a:	d0 13       	mov.l	309568 <___fp_buffered_read+0xa8>,r0	! 309100 <_memcpy>
  30951c:	40 0b       	jsr	@r0
  30951e:	35 1c       	add	r1,r5
  309520:	52 83       	mov.l	@(12,r8),r2
  309522:	51 86       	mov.l	@(24,r8),r1
  309524:	32 9c       	add	r9,r2
  309526:	31 98       	sub	r9,r1
  309528:	41 11       	cmp/pz	r1
  30952a:	8d 01       	bt.s	309530 <___fp_buffered_read+0x70>
  30952c:	18 23       	mov.l	r2,@(12,r8)
  30952e:	e1 00       	mov	#0,r1
  309530:	18 16       	mov.l	r1,@(24,r8)
  309532:	51 84       	mov.l	@(16,r8),r1
  309534:	32 12       	cmp/hs	r1,r2
  309536:	8f 0d       	bf.s	309554 <___fp_buffered_read+0x94>
  309538:	60 93       	mov	r9,r0
  30953a:	e1 00       	mov	#0,r1
  30953c:	18 14       	mov.l	r1,@(16,r8)
  30953e:	18 13       	mov.l	r1,@(12,r8)
  309540:	d1 0a       	mov.l	30956c <___fp_buffered_read+0xac>,r1	! c000
  309542:	85 8e       	mov.w	@(28,r8),r0
  309544:	20 19       	and	r1,r0
  309546:	d1 0a       	mov.l	309570 <___fp_buffered_read+0xb0>,r1	! 8000
  309548:	30 10       	cmp/eq	r1,r0
  30954a:	8b 02       	bf	309552 <___fp_buffered_read+0x92>
  30954c:	d1 09       	mov.l	309574 <___fp_buffered_read+0xb4>,r1	! 3093c8 <___fp_remove_buffer>
  30954e:	41 0b       	jsr	@r1
  309550:	64 83       	mov	r8,r4
  309552:	60 93       	mov	r9,r0
  309554:	4f 26       	lds.l	@r15+,pr
  309556:	6a f6       	mov.l	@r15+,r10
  309558:	69 f6       	mov.l	@r15+,r9
  30955a:	00 0b       	rts	
  30955c:	68 f6       	mov.l	@r15+,r8
  30955e:	af f8       	bra	309552 <___fp_buffered_read+0x92>
  309560:	e9 00       	mov	#0,r9
  309562:	00 09       	nop	
  309564:	00 30       	.word 0x0030
  309566:	a3 80       	bra	309c6a <___printf_format_ouxX+0x8e>
  309568:	00 30       	.word 0x0030
  30956a:	91 00       	mov.w	30956e <___fp_buffered_read+0xae>,r1	! c000
  30956c:	00 00       	.word 0x0000
  30956e:	c0 00       	mov.b	r0,@(0,gbr)
  309570:	00 00       	.word 0x0000
  309572:	80 00       	mov.b	r0,@(0,r0)
  309574:	00 30       	.word 0x0030
  309576:	93 c8       	mov.w	30970a <___fp_write+0x32>,r3	! e0ff

00309578 <___fp_read>:
  309578:	2f 86       	mov.l	r8,@-r15
  30957a:	e8 00       	mov	#0,r8
  30957c:	2f 96       	mov.l	r9,@-r15
  30957e:	69 43       	mov	r4,r9
  309580:	2f a6       	mov.l	r10,@-r15
  309582:	6a 63       	mov	r6,r10
  309584:	2f b6       	mov.l	r11,@-r15
  309586:	6b 53       	mov	r5,r11
  309588:	2f c6       	mov.l	r12,@-r15
  30958a:	dc 11       	mov.l	3095d0 <___fp_read+0x58>,r12	! 30a6b4 <_read>
  30958c:	4f 22       	sts.l	pr,@-r15
  30958e:	38 a2       	cmp/hs	r10,r8
  309590:	8d 17       	bt.s	3095c2 <___fp_read+0x4a>
  309592:	66 a3       	mov	r10,r6
  309594:	65 b3       	mov	r11,r5
  309596:	64 92       	mov.l	@r9,r4
  309598:	36 88       	sub	r8,r6
  30959a:	4c 0b       	jsr	@r12
  30959c:	35 8c       	add	r8,r5
  30959e:	40 11       	cmp/pz	r0
  3095a0:	8d 0b       	bt.s	3095ba <___fp_read+0x42>
  3095a2:	20 08       	tst	r0,r0
  3095a4:	85 9e       	mov.w	@(28,r9),r0
  3095a6:	cb 40       	or	#64,r0
  3095a8:	81 9e       	mov.w	r0,@(28,r9)
  3095aa:	e0 ff       	mov	#-1,r0
  3095ac:	4f 26       	lds.l	@r15+,pr
  3095ae:	6c f6       	mov.l	@r15+,r12
  3095b0:	6b f6       	mov.l	@r15+,r11
  3095b2:	6a f6       	mov.l	@r15+,r10
  3095b4:	69 f6       	mov.l	@r15+,r9
  3095b6:	00 0b       	rts	
  3095b8:	68 f6       	mov.l	@r15+,r8
  3095ba:	8b 04       	bf	3095c6 <___fp_read+0x4e>
  3095bc:	85 9e       	mov.w	@(28,r9),r0
  3095be:	cb 80       	or	#128,r0
  3095c0:	81 9e       	mov.w	r0,@(28,r9)
  3095c2:	af f3       	bra	3095ac <___fp_read+0x34>
  3095c4:	60 83       	mov	r8,r0
  3095c6:	51 91       	mov.l	@(4,r9),r1
  3095c8:	38 0c       	add	r0,r8
  3095ca:	31 0c       	add	r0,r1
  3095cc:	af df       	bra	30958e <___fp_read+0x16>
  3095ce:	19 11       	mov.l	r1,@(4,r9)
  3095d0:	00 30       	.word 0x0030
  3095d2:	a6 b4       	bra	30a33e <_memrchr+0x2>

003095d4 <___fp_fread2>:
  3095d4:	2f 86       	mov.l	r8,@-r15
  3095d6:	2f 96       	mov.l	r9,@-r15
  3095d8:	69 43       	mov	r4,r9
  3095da:	2f a6       	mov.l	r10,@-r15
  3095dc:	6a 73       	mov	r7,r10
  3095de:	2f b6       	mov.l	r11,@-r15
  3095e0:	6b 63       	mov	r6,r11
  3095e2:	2f c6       	mov.l	r12,@-r15
  3095e4:	6c 53       	mov	r5,r12
  3095e6:	2f d6       	mov.l	r13,@-r15
  3095e8:	2f e6       	mov.l	r14,@-r15
  3095ea:	4f 22       	sts.l	pr,@-r15
  3095ec:	85 4e       	mov.w	@(28,r4),r0
  3095ee:	61 03       	mov	r0,r1
  3095f0:	60 08       	swap.b	r0,r0
  3095f2:	c8 08       	tst	#8,r0
  3095f4:	8f 0e       	bf.s	309614 <___fp_fread2+0x40>
  3095f6:	7f f4       	add	#-12,r15
  3095f8:	e0 40       	mov	#64,r0
  3095fa:	20 1b       	or	r1,r0
  3095fc:	81 4e       	mov.w	r0,@(28,r4)
  3095fe:	e0 ff       	mov	#-1,r0
  309600:	7f 0c       	add	#12,r15
  309602:	4f 26       	lds.l	@r15+,pr
  309604:	6e f6       	mov.l	@r15+,r14
  309606:	6d f6       	mov.l	@r15+,r13
  309608:	6c f6       	mov.l	@r15+,r12
  30960a:	6b f6       	mov.l	@r15+,r11
  30960c:	6a f6       	mov.l	@r15+,r10
  30960e:	69 f6       	mov.l	@r15+,r9
  309610:	00 0b       	rts	
  309612:	68 f6       	mov.l	@r15+,r8
  309614:	d1 2d       	mov.l	3096cc <___fp_fread2+0xf8>,r1	! 30943c <___fp_buffer_mode_read>
  309616:	e8 00       	mov	#0,r8
  309618:	41 0b       	jsr	@r1
  30961a:	6d a7       	not	r10,r13
  30961c:	4a 11       	cmp/pz	r10
  30961e:	01 29       	movt	r1
  309620:	1f 11       	mov.l	r1,@(4,r15)
  309622:	38 b2       	cmp/hs	r11,r8
  309624:	8f 02       	bf.s	30962c <___fp_fread2+0x58>
  309626:	61 c3       	mov	r12,r1
  309628:	af ea       	bra	309600 <___fp_fread2+0x2c>
  30962a:	60 83       	mov	r8,r0
  30962c:	d0 28       	mov.l	3096d0 <___fp_fread2+0xfc>,r0	! 3094c0 <___fp_buffered_read>
  30962e:	6e b3       	mov	r11,r14
  309630:	31 8c       	add	r8,r1
  309632:	3e 88       	sub	r8,r14
  309634:	2f 12       	mov.l	r1,@r15
  309636:	67 a3       	mov	r10,r7
  309638:	65 13       	mov	r1,r5
  30963a:	66 e3       	mov	r14,r6
  30963c:	40 0b       	jsr	@r0
  30963e:	64 93       	mov	r9,r4
  309640:	52 f1       	mov.l	@(4,r15),r2
  309642:	67 d3       	mov	r13,r7
  309644:	27 09       	and	r0,r7
  309646:	47 11       	cmp/pz	r7
  309648:	61 f2       	mov.l	@r15,r1
  30964a:	8d 1a       	bt.s	309682 <___fp_fread2+0xae>
  30964c:	63 2c       	extu.b	r2,r3
  30964e:	dd 21       	mov.l	3096d4 <___fp_fread2+0x100>,r13	! 309578 <___fp_read>
  309650:	6c 13       	mov	r1,r12
  309652:	6b 83       	mov	r8,r11
  309654:	61 b3       	mov	r11,r1
  309656:	31 88       	sub	r8,r1
  309658:	3e 17       	cmp/gt	r1,r14
  30965a:	8f 10       	bf.s	30967e <___fp_fread2+0xaa>
  30965c:	65 f3       	mov	r15,r5
  30965e:	e6 01       	mov	#1,r6
  309660:	75 0b       	add	#11,r5
  309662:	4d 0b       	jsr	@r13
  309664:	64 93       	mov	r9,r4
  309666:	88 01       	cmp/eq	#1,r0
  309668:	8f ca       	bf.s	309600 <___fp_fread2+0x2c>
  30966a:	60 b3       	mov	r11,r0
  30966c:	60 f3       	mov	r15,r0
  30966e:	70 fc       	add	#-4,r0
  309670:	84 0f       	mov.b	@(15,r0),r0
  309672:	7b 01       	add	#1,r11
  309674:	61 0c       	extu.b	r0,r1
  309676:	2c 00       	mov.b	r0,@r12
  309678:	31 a0       	cmp/eq	r10,r1
  30967a:	8f eb       	bf.s	309654 <___fp_fread2+0x80>
  30967c:	7c 01       	add	#1,r12
  30967e:	af bf       	bra	309600 <___fp_fread2+0x2c>
  309680:	60 b3       	mov	r11,r0
  309682:	40 11       	cmp/pz	r0
  309684:	8d 0b       	bt.s	30969e <___fp_fread2+0xca>
  309686:	38 0c       	add	r0,r8
  309688:	38 08       	sub	r0,r8
  30968a:	d0 12       	mov.l	3096d4 <___fp_fread2+0x100>,r0	! 309578 <___fp_read>
  30968c:	66 e3       	mov	r14,r6
  30968e:	65 13       	mov	r1,r5
  309690:	40 0b       	jsr	@r0
  309692:	64 93       	mov	r9,r4
  309694:	88 ff       	cmp/eq	#-1,r0
  309696:	8b 00       	bf	30969a <___fp_fread2+0xc6>
  309698:	e0 00       	mov	#0,r0
  30969a:	af b1       	bra	309600 <___fp_fread2+0x2c>
  30969c:	30 8c       	add	r8,r0
  30969e:	3b 86       	cmp/hi	r8,r11
  3096a0:	8f c2       	bf.s	309628 <___fp_fread2+0x54>
  3096a2:	28 88       	tst	r8,r8
  3096a4:	8d 07       	bt.s	3096b6 <___fp_fread2+0xe2>
  3096a6:	23 38       	tst	r3,r3
  3096a8:	8d 05       	bt.s	3096b6 <___fp_fread2+0xe2>
  3096aa:	61 c3       	mov	r12,r1
  3096ac:	31 8c       	add	r8,r1
  3096ae:	71 ff       	add	#-1,r1
  3096b0:	61 10       	mov.b	@r1,r1
  3096b2:	31 a0       	cmp/eq	r10,r1
  3096b4:	89 b8       	bt	309628 <___fp_fread2+0x54>
  3096b6:	55 92       	mov.l	@(8,r9),r5
  3096b8:	25 58       	tst	r5,r5
  3096ba:	8d b2       	bt.s	309622 <___fp_fread2+0x4e>
  3096bc:	64 93       	mov	r9,r4
  3096be:	d0 05       	mov.l	3096d4 <___fp_fread2+0x100>,r0	! 309578 <___fp_read>
  3096c0:	40 0b       	jsr	@r0
  3096c2:	56 95       	mov.l	@(20,r9),r6
  3096c4:	40 15       	cmp/pl	r0
  3096c6:	8b af       	bf	309628 <___fp_fread2+0x54>
  3096c8:	af ab       	bra	309622 <___fp_fread2+0x4e>
  3096ca:	19 04       	mov.l	r0,@(16,r9)
  3096cc:	00 30       	.word 0x0030
  3096ce:	94 3c       	mov.w	30974a <___fp_parse_mode+0x1a>,r4	! 8861
  3096d0:	00 30       	.word 0x0030
  3096d2:	94 c0       	mov.w	309856 <_fwrite+0x86>,r4	! 9e40
  3096d4:	00 30       	.word 0x0030
  3096d6:	95 78       	mov.w	3097ca <___fp_parse_mode+0x9a>,r5	! e2ff

003096d8 <___fp_write>:
  3096d8:	2f 86       	mov.l	r8,@-r15
  3096da:	e8 00       	mov	#0,r8
  3096dc:	2f 96       	mov.l	r9,@-r15
  3096de:	69 43       	mov	r4,r9
  3096e0:	2f a6       	mov.l	r10,@-r15
  3096e2:	6a 63       	mov	r6,r10
  3096e4:	2f b6       	mov.l	r11,@-r15
  3096e6:	6b 53       	mov	r5,r11
  3096e8:	2f c6       	mov.l	r12,@-r15
  3096ea:	dc 10       	mov.l	30972c <___fp_write+0x54>,r12	! 30a6f8 <_write>
  3096ec:	4f 22       	sts.l	pr,@-r15
  3096ee:	38 a2       	cmp/hs	r10,r8
  3096f0:	8d 14       	bt.s	30971c <___fp_write+0x44>
  3096f2:	66 a3       	mov	r10,r6
  3096f4:	65 b3       	mov	r11,r5
  3096f6:	64 92       	mov.l	@r9,r4
  3096f8:	36 88       	sub	r8,r6
  3096fa:	4c 0b       	jsr	@r12
  3096fc:	35 8c       	add	r8,r5
  3096fe:	40 11       	cmp/pz	r0
  309700:	8d 0b       	bt.s	30971a <___fp_write+0x42>
  309702:	20 08       	tst	r0,r0
  309704:	85 9e       	mov.w	@(28,r9),r0
  309706:	cb 40       	or	#64,r0
  309708:	81 9e       	mov.w	r0,@(28,r9)
  30970a:	e0 ff       	mov	#-1,r0
  30970c:	4f 26       	lds.l	@r15+,pr
  30970e:	6c f6       	mov.l	@r15+,r12
  309710:	6b f6       	mov.l	@r15+,r11
  309712:	6a f6       	mov.l	@r15+,r10
  309714:	69 f6       	mov.l	@r15+,r9
  309716:	00 0b       	rts	
  309718:	68 f6       	mov.l	@r15+,r8
  30971a:	8b 01       	bf	309720 <___fp_write+0x48>
  30971c:	af f6       	bra	30970c <___fp_write+0x34>
  30971e:	60 83       	mov	r8,r0
  309720:	51 91       	mov.l	@(4,r9),r1
  309722:	38 0c       	add	r0,r8
  309724:	31 0c       	add	r0,r1
  309726:	af e2       	bra	3096ee <___fp_write+0x16>
  309728:	19 11       	mov.l	r1,@(4,r9)
  30972a:	00 09       	nop	
  30972c:	00 30       	.word 0x0030
  30972e:	a6 f8       	bra	30a522 <_close+0xa>

00309730 <___fp_parse_mode>:
  309730:	e2 00       	mov	#0,r2
  309732:	e6 00       	mov	#0,r6
  309734:	e3 00       	mov	#0,r3
  309736:	e1 62       	mov	#98,r1
  309738:	60 44       	mov.b	@r4+,r0
  30973a:	20 08       	tst	r0,r0
  30973c:	8f 26       	bf.s	30978c <___fp_parse_mode+0x5c>
  30973e:	88 62       	cmp/eq	#98,r0
  309740:	23 38       	tst	r3,r3
  309742:	8d 3e       	bt.s	3097c2 <___fp_parse_mode+0x92>
  309744:	25 58       	tst	r5,r5
  309746:	8d 1a       	bt.s	30977e <___fp_parse_mode+0x4e>
  309748:	60 33       	mov	r3,r0
  30974a:	88 61       	cmp/eq	#97,r0
  30974c:	04 29       	movt	r4
  30974e:	88 77       	cmp/eq	#119,r0
  309750:	01 29       	movt	r1
  309752:	88 72       	cmp/eq	#114,r0
  309754:	07 29       	movt	r7
  309756:	21 4b       	or	r4,r1
  309758:	27 2b       	or	r2,r7
  30975a:	21 2b       	or	r2,r1
  30975c:	47 08       	shll2	r7
  30975e:	37 7c       	add	r7,r7
  309760:	41 08       	shll2	r1
  309762:	21 7b       	or	r7,r1
  309764:	34 4c       	add	r4,r4
  309766:	60 63       	mov	r6,r0
  309768:	75 10       	add	#16,r5
  30976a:	ca 01       	xor	#1,r0
  30976c:	21 4b       	or	r4,r1
  30976e:	21 0b       	or	r0,r1
  309770:	e7 0f       	mov	#15,r7
  309772:	84 5c       	mov.b	@(12,r5),r0
  309774:	21 79       	and	r7,r1
  309776:	e7 f0       	mov	#-16,r7
  309778:	20 79       	and	r7,r0
  30977a:	20 1b       	or	r1,r0
  30977c:	80 5c       	mov.b	r0,@(12,r5)
  30977e:	60 33       	mov	r3,r0
  309780:	88 72       	cmp/eq	#114,r0
  309782:	8f 18       	bf.s	3097b6 <___fp_parse_mode+0x86>
  309784:	88 77       	cmp/eq	#119,r0
  309786:	32 2c       	add	r2,r2
  309788:	00 0b       	rts	
  30978a:	60 23       	mov	r2,r0
  30978c:	8d 0f       	bt.s	3097ae <___fp_parse_mode+0x7e>
  30978e:	30 17       	cmp/gt	r1,r0
  309790:	8d 08       	bt.s	3097a4 <___fp_parse_mode+0x74>
  309792:	88 2b       	cmp/eq	#43,r0
  309794:	8d 0d       	bt.s	3097b2 <___fp_parse_mode+0x82>
  309796:	88 61       	cmp/eq	#97,r0
  309798:	8b ce       	bf	309738 <___fp_parse_mode+0x8>
  30979a:	23 38       	tst	r3,r3
  30979c:	8f 11       	bf.s	3097c2 <___fp_parse_mode+0x92>
  30979e:	63 03       	mov	r0,r3
  3097a0:	af cb       	bra	30973a <___fp_parse_mode+0xa>
  3097a2:	60 44       	mov.b	@r4+,r0
  3097a4:	88 72       	cmp/eq	#114,r0
  3097a6:	8d f8       	bt.s	30979a <___fp_parse_mode+0x6a>
  3097a8:	88 77       	cmp/eq	#119,r0
  3097aa:	af f5       	bra	309798 <___fp_parse_mode+0x68>
  3097ac:	00 09       	nop	
  3097ae:	af c3       	bra	309738 <___fp_parse_mode+0x8>
  3097b0:	e6 01       	mov	#1,r6
  3097b2:	af c1       	bra	309738 <___fp_parse_mode+0x8>
  3097b4:	e2 01       	mov	#1,r2
  3097b6:	8f 02       	bf.s	3097be <___fp_parse_mode+0x8e>
  3097b8:	88 61       	cmp/eq	#97,r0
  3097ba:	af e5       	bra	309788 <___fp_parse_mode+0x58>
  3097bc:	72 25       	add	#37,r2
  3097be:	8d e3       	bt.s	309788 <___fp_parse_mode+0x58>
  3097c0:	72 05       	add	#5,r2
  3097c2:	d1 02       	mov.l	3097cc <___fp_parse_mode+0x9c>,r1	! 8101778 <_errno>
  3097c4:	e2 06       	mov	#6,r2
  3097c6:	21 22       	mov.l	r2,@r1
  3097c8:	af de       	bra	309788 <___fp_parse_mode+0x58>
  3097ca:	e2 ff       	mov	#-1,r2
  3097cc:	08 10       	.word 0x0810
  3097ce:	17 78       	mov.l	r7,@(32,r7)

003097d0 <_fwrite>:
  3097d0:	2f 86       	mov.l	r8,@-r15
  3097d2:	68 73       	mov	r7,r8
  3097d4:	2f 96       	mov.l	r9,@-r15
  3097d6:	2f a6       	mov.l	r10,@-r15
  3097d8:	2f b6       	mov.l	r11,@-r15
  3097da:	6b 43       	mov	r4,r11
  3097dc:	2f c6       	mov.l	r12,@-r15
  3097de:	2f d6       	mov.l	r13,@-r15
  3097e0:	85 7e       	mov.w	@(28,r7),r0
  3097e2:	2f e6       	mov.l	r14,@-r15
  3097e4:	61 0d       	extu.w	r0,r1
  3097e6:	4f 22       	sts.l	pr,@-r15
  3097e8:	60 08       	swap.b	r0,r0
  3097ea:	c8 04       	tst	#4,r0
  3097ec:	8f 0f       	bf.s	30980e <_fwrite+0x3e>
  3097ee:	7f fc       	add	#-4,r15
  3097f0:	85 8e       	mov.w	@(28,r8),r0
  3097f2:	e9 00       	mov	#0,r9
  3097f4:	cb 40       	or	#64,r0
  3097f6:	81 8e       	mov.w	r0,@(28,r8)
  3097f8:	60 93       	mov	r9,r0
  3097fa:	7f 04       	add	#4,r15
  3097fc:	4f 26       	lds.l	@r15+,pr
  3097fe:	6e f6       	mov.l	@r15+,r14
  309800:	6d f6       	mov.l	@r15+,r13
  309802:	6c f6       	mov.l	@r15+,r12
  309804:	6b f6       	mov.l	@r15+,r11
  309806:	6a f6       	mov.l	@r15+,r10
  309808:	69 f6       	mov.l	@r15+,r9
  30980a:	00 0b       	rts	
  30980c:	68 f6       	mov.l	@r15+,r8
  30980e:	35 65       	dmulu.l	r6,r5
  309810:	02 0a       	sts	mach,r2
  309812:	22 28       	tst	r2,r2
  309814:	00 29       	movt	r0
  309816:	ca 01       	xor	#1,r0
  309818:	0a 1a       	sts	macl,r10
  30981a:	8f e9       	bf.s	3097f0 <_fwrite+0x20>
  30981c:	69 03       	mov	r0,r9
  30981e:	60 18       	swap.b	r1,r0
  309820:	c8 02       	tst	#2,r0
  309822:	8d 06       	bt.s	309832 <_fwrite+0x62>
  309824:	e6 02       	mov	#2,r6
  309826:	d0 2d       	mov.l	3098dc <_fwrite+0x10c>,r0	! 30a4d0 <_fseek>
  309828:	e5 00       	mov	#0,r5
  30982a:	40 0b       	jsr	@r0
  30982c:	64 73       	mov	r7,r4
  30982e:	88 ff       	cmp/eq	#-1,r0
  309830:	89 de       	bt	3097f0 <_fwrite+0x20>
  309832:	51 82       	mov.l	@(8,r8),r1
  309834:	21 18       	tst	r1,r1
  309836:	8f 0a       	bf.s	30984e <_fwrite+0x7e>
  309838:	6c a3       	mov	r10,r12
  30983a:	d0 29       	mov.l	3098e0 <_fwrite+0x110>,r0	! 3096d8 <___fp_write>
  30983c:	66 a3       	mov	r10,r6
  30983e:	65 b3       	mov	r11,r5
  309840:	40 0b       	jsr	@r0
  309842:	64 83       	mov	r8,r4
  309844:	88 ff       	cmp/eq	#-1,r0
  309846:	8b 00       	bf	30984a <_fwrite+0x7a>
  309848:	e0 00       	mov	#0,r0
  30984a:	af d5       	bra	3097f8 <_fwrite+0x28>
  30984c:	69 03       	mov	r0,r9
  30984e:	d1 25       	mov.l	3098e4 <_fwrite+0x114>,r1	! 30947c <___fp_buffer_mode_write>
  309850:	9d 42       	mov.w	3098d8 <_fwrite+0x108>,r13	! c000
  309852:	41 0b       	jsr	@r1
  309854:	64 83       	mov	r8,r4
  309856:	9e 40       	mov.w	3098da <_fwrite+0x10a>,r14	! 4000
  309858:	3c 96       	cmp/hi	r9,r12
  30985a:	8f ce       	bf.s	3097fa <_fwrite+0x2a>
  30985c:	60 93       	mov	r9,r0
  30985e:	52 83       	mov.l	@(12,r8),r2
  309860:	6a c3       	mov	r12,r10
  309862:	51 85       	mov.l	@(20,r8),r1
  309864:	3a 98       	sub	r9,r10
  309866:	31 28       	sub	r2,r1
  309868:	3a 16       	cmp/hi	r1,r10
  30986a:	62 b3       	mov	r11,r2
  30986c:	8d 31       	bt.s	3098d2 <_fwrite+0x102>
  30986e:	32 9c       	add	r9,r2
  309870:	85 8e       	mov.w	@(28,r8),r0
  309872:	20 d9       	and	r13,r0
  309874:	60 0d       	extu.w	r0,r0
  309876:	30 e0       	cmp/eq	r14,r0
  309878:	8f 0d       	bf.s	309896 <_fwrite+0xc6>
  30987a:	e1 00       	mov	#0,r1
  30987c:	d0 1a       	mov.l	3098e8 <_fwrite+0x118>,r0	! 30a33c <_memrchr>
  30987e:	64 23       	mov	r2,r4
  309880:	2f 22       	mov.l	r2,@r15
  309882:	66 a3       	mov	r10,r6
  309884:	40 0b       	jsr	@r0
  309886:	e5 0a       	mov	#10,r5
  309888:	20 08       	tst	r0,r0
  30988a:	62 f2       	mov.l	@r15,r2
  30988c:	8d 03       	bt.s	309896 <_fwrite+0xc6>
  30988e:	61 03       	mov	r0,r1
  309890:	6a 03       	mov	r0,r10
  309892:	3a 28       	sub	r2,r10
  309894:	7a 01       	add	#1,r10
  309896:	54 82       	mov.l	@(8,r8),r4
  309898:	66 a3       	mov	r10,r6
  30989a:	53 83       	mov.l	@(12,r8),r3
  30989c:	65 23       	mov	r2,r5
  30989e:	d0 13       	mov.l	3098ec <_fwrite+0x11c>,r0	! 309100 <_memcpy>
  3098a0:	34 3c       	add	r3,r4
  3098a2:	40 0b       	jsr	@r0
  3098a4:	2f 12       	mov.l	r1,@r15
  3098a6:	52 83       	mov.l	@(12,r8),r2
  3098a8:	66 a3       	mov	r10,r6
  3098aa:	61 f2       	mov.l	@r15,r1
  3098ac:	36 2c       	add	r2,r6
  3098ae:	52 85       	mov.l	@(20,r8),r2
  3098b0:	39 ac       	add	r10,r9
  3098b2:	36 22       	cmp/hs	r2,r6
  3098b4:	8d 03       	bt.s	3098be <_fwrite+0xee>
  3098b6:	18 63       	mov.l	r6,@(12,r8)
  3098b8:	21 18       	tst	r1,r1
  3098ba:	8d ce       	bt.s	30985a <_fwrite+0x8a>
  3098bc:	3c 96       	cmp/hi	r9,r12
  3098be:	d0 08       	mov.l	3098e0 <_fwrite+0x110>,r0	! 3096d8 <___fp_write>
  3098c0:	64 83       	mov	r8,r4
  3098c2:	40 0b       	jsr	@r0
  3098c4:	55 82       	mov.l	@(8,r8),r5
  3098c6:	40 15       	cmp/pl	r0
  3098c8:	8f 97       	bf.s	3097fa <_fwrite+0x2a>
  3098ca:	60 93       	mov	r9,r0
  3098cc:	e1 00       	mov	#0,r1
  3098ce:	af c3       	bra	309858 <_fwrite+0x88>
  3098d0:	18 13       	mov.l	r1,@(12,r8)
  3098d2:	6a 13       	mov	r1,r10
  3098d4:	af df       	bra	309896 <_fwrite+0xc6>
  3098d6:	e1 00       	mov	#0,r1
  3098d8:	c0 00       	mov.b	r0,@(0,gbr)
  3098da:	40 00       	shll	r0
  3098dc:	00 30       	.word 0x0030
  3098de:	a4 d0       	bra	30a282 <___strto_int+0x1b2>
  3098e0:	00 30       	.word 0x0030
  3098e2:	96 d8       	mov.w	309a96 <___printf_format_s+0x4e>,r6	! 65f3
  3098e4:	00 30       	.word 0x0030
  3098e6:	94 7c       	mov.w	3099e2 <___printf_format_c+0x8e>,r4	! 251b
  3098e8:	00 30       	.word 0x0030
  3098ea:	a3 3c       	bra	309f66 <___printf_digits10+0x8>
  3098ec:	00 30       	.word 0x0030
  3098ee:	91 00       	mov.w	3098f2 <___printf_out+0x2>,r1	! 6843

003098f0 <___printf_out>:
  3098f0:	2f 86       	mov.l	r8,@-r15
  3098f2:	68 43       	mov	r4,r8
  3098f4:	52 45       	mov.l	@(20,r4),r2
  3098f6:	51 46       	mov.l	@(24,r4),r1
  3098f8:	2f 96       	mov.l	r9,@-r15
  3098fa:	32 12       	cmp/hs	r1,r2
  3098fc:	4f 22       	sts.l	pr,@-r15
  3098fe:	8f 03       	bf.s	309908 <___printf_out+0x18>
  309900:	69 53       	mov	r5,r9
  309902:	d1 06       	mov.l	30991c <___printf_out+0x2c>,r1	! 308a48 <___printf_flush>
  309904:	41 0b       	jsr	@r1
  309906:	00 09       	nop	
  309908:	51 85       	mov.l	@(20,r8),r1
  30990a:	62 13       	mov	r1,r2
  30990c:	72 01       	add	#1,r2
  30990e:	18 25       	mov.l	r2,@(20,r8)
  309910:	21 90       	mov.b	r9,@r1
  309912:	4f 26       	lds.l	@r15+,pr
  309914:	69 f6       	mov.l	@r15+,r9
  309916:	00 0b       	rts	
  309918:	68 f6       	mov.l	@r15+,r8
  30991a:	00 09       	nop	
  30991c:	00 30       	.word 0x0030
  30991e:	8a 48       	ldrc	#72

00309920 <___printf_outn>:
  309920:	2f 86       	mov.l	r8,@-r15
  309922:	68 63       	mov	r6,r8
  309924:	2f 96       	mov.l	r9,@-r15
  309926:	69 43       	mov	r4,r9
  309928:	2f a6       	mov.l	r10,@-r15
  30992a:	6a 53       	mov	r5,r10
  30992c:	2f b6       	mov.l	r11,@-r15
  30992e:	db 08       	mov.l	309950 <___printf_outn+0x30>,r11	! 3098f0 <___printf_out>
  309930:	4f 22       	sts.l	pr,@-r15
  309932:	48 15       	cmp/pl	r8
  309934:	8d 06       	bt.s	309944 <___printf_outn+0x24>
  309936:	65 a3       	mov	r10,r5
  309938:	4f 26       	lds.l	@r15+,pr
  30993a:	6b f6       	mov.l	@r15+,r11
  30993c:	6a f6       	mov.l	@r15+,r10
  30993e:	69 f6       	mov.l	@r15+,r9
  309940:	00 0b       	rts	
  309942:	68 f6       	mov.l	@r15+,r8
  309944:	64 93       	mov	r9,r4
  309946:	4b 0b       	jsr	@r11
  309948:	78 ff       	add	#-1,r8
  30994a:	af f3       	bra	309934 <___printf_outn+0x14>
  30994c:	48 15       	cmp/pl	r8
  30994e:	00 09       	nop	
  309950:	00 30       	.word 0x0030
  309952:	98 f0       	mov.w	309b36 <___printf_format_di+0x52>,r8	! 6803

00309954 <___printf_format_c>:
  309954:	2f 86       	mov.l	r8,@-r15
  309956:	68 43       	mov	r4,r8
  309958:	2f 96       	mov.l	r9,@-r15
  30995a:	69 53       	mov	r5,r9
  30995c:	2f a6       	mov.l	r10,@-r15
  30995e:	e5 00       	mov	#0,r5
  309960:	2f b6       	mov.l	r11,@-r15
  309962:	2f c6       	mov.l	r12,@-r15
  309964:	2f d6       	mov.l	r13,@-r15
  309966:	2f e6       	mov.l	r14,@-r15
  309968:	4f 22       	sts.l	pr,@-r15
  30996a:	61 62       	mov.l	@r6,r1
  30996c:	7f ec       	add	#-20,r15
  30996e:	d0 31       	mov.l	309a34 <___printf_format_c+0xe0>,r0	! 3091c0 <_memset>
  309970:	62 13       	mov	r1,r2
  309972:	6b f3       	mov	r15,r11
  309974:	72 04       	add	#4,r2
  309976:	7b 04       	add	#4,r11
  309978:	26 22       	mov.l	r2,@r6
  30997a:	64 b3       	mov	r11,r4
  30997c:	e6 10       	mov	#16,r6
  30997e:	40 0b       	jsr	@r0
  309980:	6a 12       	mov.l	@r1,r10
  309982:	d1 2d       	mov.l	309a38 <___printf_format_c+0xe4>,r1	! 309e38 <___printf_compute_geometry>
  309984:	e0 01       	mov	#1,r0
  309986:	81 b3       	mov.w	r0,@(6,r11)
  309988:	64 93       	mov	r9,r4
  30998a:	de 2c       	mov.l	309a3c <___printf_format_c+0xe8>,r14	! 309920 <___printf_outn>
  30998c:	41 0b       	jsr	@r1
  30998e:	65 b3       	mov	r11,r5
  309990:	66 b1       	mov.w	@r11,r6
  309992:	e5 20       	mov	#32,r5
  309994:	66 6d       	extu.w	r6,r6
  309996:	4e 0b       	jsr	@r14
  309998:	64 83       	mov	r8,r4
  30999a:	84 94       	mov.b	@(4,r9),r0
  30999c:	88 04       	cmp/eq	#4,r0
  30999e:	d9 28       	mov.l	309a40 <___printf_format_c+0xec>,r9	! 3098f0 <___printf_out>
  3099a0:	8f 03       	bf.s	3099aa <___printf_format_c+0x56>
  3099a2:	e1 7f       	mov	#127,r1
  3099a4:	3a 17       	cmp/gt	r1,r10
  3099a6:	8d 12       	bt.s	3099ce <___printf_format_c+0x7a>
  3099a8:	e1 fa       	mov	#-6,r1
  3099aa:	65 a3       	mov	r10,r5
  3099ac:	49 0b       	jsr	@r9
  3099ae:	64 83       	mov	r8,r4
  3099b0:	85 b4       	mov.w	@(8,r11),r0
  3099b2:	e5 20       	mov	#32,r5
  3099b4:	66 0d       	extu.w	r0,r6
  3099b6:	4e 0b       	jsr	@r14
  3099b8:	64 83       	mov	r8,r4
  3099ba:	7f 14       	add	#20,r15
  3099bc:	4f 26       	lds.l	@r15+,pr
  3099be:	6e f6       	mov.l	@r15+,r14
  3099c0:	6d f6       	mov.l	@r15+,r13
  3099c2:	6c f6       	mov.l	@r15+,r12
  3099c4:	6b f6       	mov.l	@r15+,r11
  3099c6:	6a f6       	mov.l	@r15+,r10
  3099c8:	69 f6       	mov.l	@r15+,r9
  3099ca:	00 0b       	rts	
  3099cc:	68 f6       	mov.l	@r15+,r8
  3099ce:	65 a3       	mov	r10,r5
  3099d0:	45 1c       	shad	r1,r5
  3099d2:	91 29       	mov.w	309a28 <___printf_format_c+0xd4>,r1	! 7ff
  3099d4:	60 a3       	mov	r10,r0
  3099d6:	9d 28       	mov.w	309a2a <___printf_format_c+0xd6>,r13	! 80
  3099d8:	c9 3f       	and	#63,r0
  3099da:	3a 17       	cmp/gt	r1,r10
  3099dc:	8d 06       	bt.s	3099ec <___printf_format_c+0x98>
  3099de:	2d 0b       	or	r0,r13
  3099e0:	91 24       	mov.w	309a2c <___printf_format_c+0xd8>,r1	! c0
  3099e2:	25 1b       	or	r1,r5
  3099e4:	49 0b       	jsr	@r9
  3099e6:	64 83       	mov	r8,r4
  3099e8:	af e0       	bra	3099ac <___printf_format_c+0x58>
  3099ea:	65 d3       	mov	r13,r5
  3099ec:	e2 f4       	mov	#-12,r2
  3099ee:	61 a3       	mov	r10,r1
  3099f0:	41 2c       	shad	r2,r1
  3099f2:	d2 14       	mov.l	309a44 <___printf_format_c+0xf0>,r2	! ffff
  3099f4:	60 53       	mov	r5,r0
  3099f6:	9c 18       	mov.w	309a2a <___printf_format_c+0xd6>,r12	! 80
  3099f8:	c9 3f       	and	#63,r0
  3099fa:	3a 27       	cmp/gt	r2,r10
  3099fc:	8d 06       	bt.s	309a0c <___printf_format_c+0xb8>
  3099fe:	2c 0b       	or	r0,r12
  309a00:	95 15       	mov.w	309a2e <___printf_format_c+0xda>,r5	! e0
  309a02:	25 1b       	or	r1,r5
  309a04:	49 0b       	jsr	@r9
  309a06:	64 83       	mov	r8,r4
  309a08:	af ec       	bra	3099e4 <___printf_format_c+0x90>
  309a0a:	65 c3       	mov	r12,r5
  309a0c:	e2 ee       	mov	#-18,r2
  309a0e:	65 a3       	mov	r10,r5
  309a10:	45 2c       	shad	r2,r5
  309a12:	92 0d       	mov.w	309a30 <___printf_format_c+0xdc>,r2	! f0
  309a14:	64 83       	mov	r8,r4
  309a16:	2f 12       	mov.l	r1,@r15
  309a18:	49 0b       	jsr	@r9
  309a1a:	25 2b       	or	r2,r5
  309a1c:	61 f2       	mov.l	@r15,r1
  309a1e:	e5 3f       	mov	#63,r5
  309a20:	25 19       	and	r1,r5
  309a22:	91 02       	mov.w	309a2a <___printf_format_c+0xd6>,r1	! 80
  309a24:	af ee       	bra	309a04 <___printf_format_c+0xb0>
  309a26:	25 1b       	or	r1,r5
  309a28:	07 ff       	mac.l	@r15+,@r7+
  309a2a:	00 80       	.word 0x0080
  309a2c:	00 c0       	.word 0x00c0
  309a2e:	00 e0       	.word 0x00e0
  309a30:	00 f0       	.word 0x00f0
  309a32:	00 09       	nop	
  309a34:	00 30       	.word 0x0030
  309a36:	91 c0       	mov.w	309bba <___printf_format_di+0xd6>,r1	! 4d0b
  309a38:	00 30       	.word 0x0030
  309a3a:	9e 38       	mov.w	309aae <___printf_format_s+0x66>,r14	! 660d
  309a3c:	00 30       	.word 0x0030
  309a3e:	99 20       	mov.w	309a82 <___printf_format_s+0x3a>,r9	! e500
  309a40:	00 30       	.word 0x0030
  309a42:	98 f0       	mov.w	309c26 <___printf_format_ouxX+0x4a>,r8	! 85b1
  309a44:	00 00       	.word 0x0000
  309a46:	ff ff       	.word 0xffff

00309a48 <___printf_format_s>:
  309a48:	2f 86       	mov.l	r8,@-r15
  309a4a:	2f 96       	mov.l	r9,@-r15
  309a4c:	2f a6       	mov.l	r10,@-r15
  309a4e:	2f b6       	mov.l	r11,@-r15
  309a50:	6b 43       	mov	r4,r11
  309a52:	2f c6       	mov.l	r12,@-r15
  309a54:	6c 53       	mov	r5,r12
  309a56:	2f d6       	mov.l	r13,@-r15
  309a58:	4f 22       	sts.l	pr,@-r15
  309a5a:	61 62       	mov.l	@r6,r1
  309a5c:	7f f0       	add	#-16,r15
  309a5e:	85 51       	mov.w	@(2,r5),r0
  309a60:	62 13       	mov	r1,r2
  309a62:	72 04       	add	#4,r2
  309a64:	26 22       	mov.l	r2,@r6
  309a66:	20 08       	tst	r0,r0
  309a68:	6a 12       	mov.l	@r1,r10
  309a6a:	8d 01       	bt.s	309a70 <___printf_format_s+0x28>
  309a6c:	e2 ff       	mov	#-1,r2
  309a6e:	62 03       	mov	r0,r2
  309a70:	e8 00       	mov	#0,r8
  309a72:	60 83       	mov	r8,r0
  309a74:	01 ac       	mov.b	@(r0,r10),r1
  309a76:	21 18       	tst	r1,r1
  309a78:	8d 01       	bt.s	309a7e <___printf_format_s+0x36>
  309a7a:	32 86       	cmp/hi	r8,r2
  309a7c:	89 23       	bt	309ac6 <___printf_format_s+0x7e>
  309a7e:	d0 15       	mov.l	309ad4 <___printf_format_s+0x8c>,r0	! 3091c0 <_memset>
  309a80:	e6 10       	mov	#16,r6
  309a82:	e5 00       	mov	#0,r5
  309a84:	40 0b       	jsr	@r0
  309a86:	64 f3       	mov	r15,r4
  309a88:	d1 13       	mov.l	309ad8 <___printf_format_s+0x90>,r1	! 309e38 <___printf_compute_geometry>
  309a8a:	60 83       	mov	r8,r0
  309a8c:	69 f3       	mov	r15,r9
  309a8e:	64 c3       	mov	r12,r4
  309a90:	81 93       	mov.w	r0,@(6,r9)
  309a92:	dc 12       	mov.l	309adc <___printf_format_s+0x94>,r12	! 309920 <___printf_outn>
  309a94:	41 0b       	jsr	@r1
  309a96:	65 f3       	mov	r15,r5
  309a98:	66 91       	mov.w	@r9,r6
  309a9a:	e5 20       	mov	#32,r5
  309a9c:	dd 10       	mov.l	309ae0 <___printf_format_s+0x98>,r13	! 3098f0 <___printf_out>
  309a9e:	66 6d       	extu.w	r6,r6
  309aa0:	64 b3       	mov	r11,r4
  309aa2:	4c 0b       	jsr	@r12
  309aa4:	38 ac       	add	r10,r8
  309aa6:	38 a0       	cmp/eq	r10,r8
  309aa8:	8f 0f       	bf.s	309aca <___printf_format_s+0x82>
  309aaa:	e5 20       	mov	#32,r5
  309aac:	85 94       	mov.w	@(8,r9),r0
  309aae:	66 0d       	extu.w	r0,r6
  309ab0:	4c 0b       	jsr	@r12
  309ab2:	64 b3       	mov	r11,r4
  309ab4:	7f 10       	add	#16,r15
  309ab6:	4f 26       	lds.l	@r15+,pr
  309ab8:	6d f6       	mov.l	@r15+,r13
  309aba:	6c f6       	mov.l	@r15+,r12
  309abc:	6b f6       	mov.l	@r15+,r11
  309abe:	6a f6       	mov.l	@r15+,r10
  309ac0:	69 f6       	mov.l	@r15+,r9
  309ac2:	00 0b       	rts	
  309ac4:	68 f6       	mov.l	@r15+,r8
  309ac6:	af d4       	bra	309a72 <___printf_format_s+0x2a>
  309ac8:	78 01       	add	#1,r8
  309aca:	65 a4       	mov.b	@r10+,r5
  309acc:	4d 0b       	jsr	@r13
  309ace:	64 b3       	mov	r11,r4
  309ad0:	af ea       	bra	309aa8 <___printf_format_s+0x60>
  309ad2:	38 a0       	cmp/eq	r10,r8
  309ad4:	00 30       	.word 0x0030
  309ad6:	91 c0       	mov.w	309c5a <___printf_format_ouxX+0x7e>,r1	! 400b
  309ad8:	00 30       	.word 0x0030
  309ada:	9e 38       	mov.w	309b4e <___printf_format_di+0x6a>,r14	! 6d83
  309adc:	00 30       	.word 0x0030
  309ade:	99 20       	mov.w	309b22 <___printf_format_di+0x3e>,r9	! 1a13
  309ae0:	00 30       	.word 0x0030
  309ae2:	98 f0       	mov.w	309cc6 <___printf_format_ouxX+0xea>,r8	! 8594

00309ae4 <___printf_format_di>:
  309ae4:	2f 86       	mov.l	r8,@-r15
  309ae6:	2f 96       	mov.l	r9,@-r15
  309ae8:	2f a6       	mov.l	r10,@-r15
  309aea:	2f b6       	mov.l	r11,@-r15
  309aec:	6b 43       	mov	r4,r11
  309aee:	2f c6       	mov.l	r12,@-r15
  309af0:	6c 53       	mov	r5,r12
  309af2:	2f d6       	mov.l	r13,@-r15
  309af4:	2f e6       	mov.l	r14,@-r15
  309af6:	4f 22       	sts.l	pr,@-r15
  309af8:	84 54       	mov.b	@(4,r5),r0
  309afa:	7f d0       	add	#-48,r15
  309afc:	64 0c       	extu.b	r0,r4
  309afe:	d0 31       	mov.l	309bc4 <___printf_format_di+0xe0>,r0	! 309ee8 <___printf_load_i>
  309b00:	65 63       	mov	r6,r5
  309b02:	40 0b       	jsr	@r0
  309b04:	6a f3       	mov	r15,r10
  309b06:	69 03       	mov	r0,r9
  309b08:	d0 2f       	mov.l	309bc8 <___printf_format_di+0xe4>,r0	! 3091c0 <_memset>
  309b0a:	6e 13       	mov	r1,r14
  309b0c:	e6 0c       	mov	#12,r6
  309b0e:	e5 00       	mov	#0,r5
  309b10:	40 0b       	jsr	@r0
  309b12:	64 f3       	mov	r15,r4
  309b14:	49 11       	cmp/pz	r9
  309b16:	8f 01       	bf.s	309b1c <___printf_format_di+0x38>
  309b18:	e0 2d       	mov	#45,r0
  309b1a:	e0 2b       	mov	#43,r0
  309b1c:	e1 01       	mov	#1,r1
  309b1e:	80 a2       	mov.b	r0,@(2,r10)
  309b20:	49 11       	cmp/pz	r9
  309b22:	1a 13       	mov.l	r1,@(12,r10)
  309b24:	65 93       	mov	r9,r5
  309b26:	8d 02       	bt.s	309b2e <___printf_format_di+0x4a>
  309b28:	66 e3       	mov	r14,r6
  309b2a:	66 ea       	negc	r14,r6
  309b2c:	65 9a       	negc	r9,r5
  309b2e:	d0 27       	mov.l	309bcc <___printf_format_di+0xe8>,r0	! 309f5e <___printf_digits10>
  309b30:	64 f3       	mov	r15,r4
  309b32:	40 0b       	jsr	@r0
  309b34:	74 10       	add	#16,r4
  309b36:	68 03       	mov	r0,r8
  309b38:	85 c1       	mov.w	@(2,r12),r0
  309b3a:	20 08       	tst	r0,r0
  309b3c:	8f 04       	bf.s	309b48 <___printf_format_di+0x64>
  309b3e:	29 eb       	or	r14,r9
  309b40:	29 98       	tst	r9,r9
  309b42:	8f 02       	bf.s	309b4a <___printf_format_di+0x66>
  309b44:	30 83       	cmp/ge	r8,r0
  309b46:	e8 00       	mov	#0,r8
  309b48:	30 83       	cmp/ge	r8,r0
  309b4a:	8d 01       	bt.s	309b50 <___printf_format_di+0x6c>
  309b4c:	6d 03       	mov	r0,r13
  309b4e:	6d 83       	mov	r8,r13
  309b50:	d1 1f       	mov.l	309bd0 <___printf_format_di+0xec>,r1	! 309e38 <___printf_compute_geometry>
  309b52:	60 d3       	mov	r13,r0
  309b54:	81 a3       	mov.w	r0,@(6,r10)
  309b56:	65 f3       	mov	r15,r5
  309b58:	d9 1e       	mov.l	309bd4 <___printf_format_di+0xf0>,r9	! 309920 <___printf_outn>
  309b5a:	41 0b       	jsr	@r1
  309b5c:	64 c3       	mov	r12,r4
  309b5e:	66 a1       	mov.w	@r10,r6
  309b60:	e5 20       	mov	#32,r5
  309b62:	66 6d       	extu.w	r6,r6
  309b64:	49 0b       	jsr	@r9
  309b66:	64 b3       	mov	r11,r4
  309b68:	84 a2       	mov.b	@(2,r10),r0
  309b6a:	20 08       	tst	r0,r0
  309b6c:	8d 03       	bt.s	309b76 <___printf_format_di+0x92>
  309b6e:	65 0c       	extu.b	r0,r5
  309b70:	d1 19       	mov.l	309bd8 <___printf_format_di+0xf4>,r1	! 3098f0 <___printf_out>
  309b72:	41 0b       	jsr	@r1
  309b74:	64 b3       	mov	r11,r4
  309b76:	85 a2       	mov.w	@(4,r10),r0
  309b78:	e5 30       	mov	#48,r5
  309b7a:	66 0d       	extu.w	r0,r6
  309b7c:	49 0b       	jsr	@r9
  309b7e:	64 b3       	mov	r11,r4
  309b80:	66 d3       	mov	r13,r6
  309b82:	dd 15       	mov.l	309bd8 <___printf_format_di+0xf4>,r13	! 3098f0 <___printf_out>
  309b84:	36 88       	sub	r8,r6
  309b86:	e5 30       	mov	#48,r5
  309b88:	64 b3       	mov	r11,r4
  309b8a:	49 0b       	jsr	@r9
  309b8c:	78 ff       	add	#-1,r8
  309b8e:	48 11       	cmp/pz	r8
  309b90:	8d 0f       	bt.s	309bb2 <___printf_format_di+0xce>
  309b92:	e1 10       	mov	#16,r1
  309b94:	85 a4       	mov.w	@(8,r10),r0
  309b96:	e5 20       	mov	#32,r5
  309b98:	66 0d       	extu.w	r0,r6
  309b9a:	49 0b       	jsr	@r9
  309b9c:	64 b3       	mov	r11,r4
  309b9e:	7f 30       	add	#48,r15
  309ba0:	4f 26       	lds.l	@r15+,pr
  309ba2:	6e f6       	mov.l	@r15+,r14
  309ba4:	6d f6       	mov.l	@r15+,r13
  309ba6:	6c f6       	mov.l	@r15+,r12
  309ba8:	6b f6       	mov.l	@r15+,r11
  309baa:	6a f6       	mov.l	@r15+,r10
  309bac:	69 f6       	mov.l	@r15+,r9
  309bae:	00 0b       	rts	
  309bb0:	68 f6       	mov.l	@r15+,r8
  309bb2:	60 83       	mov	r8,r0
  309bb4:	31 fc       	add	r15,r1
  309bb6:	05 1c       	mov.b	@(r0,r1),r5
  309bb8:	64 b3       	mov	r11,r4
  309bba:	4d 0b       	jsr	@r13
  309bbc:	78 ff       	add	#-1,r8
  309bbe:	af e7       	bra	309b90 <___printf_format_di+0xac>
  309bc0:	48 11       	cmp/pz	r8
  309bc2:	00 09       	nop	
  309bc4:	00 30       	.word 0x0030
  309bc6:	9e e8       	mov.w	309d9a <___printf_format_p+0x5e>,r14	! c02c
  309bc8:	00 30       	.word 0x0030
  309bca:	91 c0       	mov.w	309d4e <___printf_format_p+0x12>,r1	! 6213
  309bcc:	00 30       	.word 0x0030
  309bce:	9f 5e       	mov.w	309c8e <___printf_format_ouxX+0xb2>,r15	! 64a3
  309bd0:	00 30       	.word 0x0030
  309bd2:	9e 38       	mov.w	309c46 <___printf_format_ouxX+0x6a>,r14	! ec00
  309bd4:	00 30       	.word 0x0030
  309bd6:	99 20       	mov.w	309c1a <___printf_format_ouxX+0x3e>,r9	! 400b
  309bd8:	00 30       	.word 0x0030
  309bda:	98 f0       	mov.w	309dbe <___printf_format_m+0x1a>,r8	! d00c

00309bdc <___printf_format_ouxX>:
  309bdc:	2f 86       	mov.l	r8,@-r15
  309bde:	2f 96       	mov.l	r9,@-r15
  309be0:	2f a6       	mov.l	r10,@-r15
  309be2:	6a 43       	mov	r4,r10
  309be4:	2f b6       	mov.l	r11,@-r15
  309be6:	6b 53       	mov	r5,r11
  309be8:	2f c6       	mov.l	r12,@-r15
  309bea:	2f d6       	mov.l	r13,@-r15
  309bec:	ed 20       	mov	#32,r13
  309bee:	2f e6       	mov.l	r14,@-r15
  309bf0:	4f 22       	sts.l	pr,@-r15
  309bf2:	84 54       	mov.b	@(4,r5),r0
  309bf4:	7f bc       	add	#-68,r15
  309bf6:	64 0c       	extu.b	r0,r4
  309bf8:	d0 48       	mov.l	309d1c <___printf_format_ouxX+0x140>,r0	! 309f24 <___printf_load_u>
  309bfa:	40 0b       	jsr	@r0
  309bfc:	65 63       	mov	r6,r5
  309bfe:	69 03       	mov	r0,r9
  309c00:	84 b7       	mov.b	@(7,r11),r0
  309c02:	6c 13       	mov	r1,r12
  309c04:	2d 0b       	or	r0,r13
  309c06:	61 03       	mov	r0,r1
  309c08:	60 d3       	mov	r13,r0
  309c0a:	88 75       	cmp/eq	#117,r0
  309c0c:	8f 6a       	bf.s	309ce4 <___printf_format_ouxX+0x108>
  309c0e:	88 6f       	cmp/eq	#111,r0
  309c10:	d0 43       	mov.l	309d20 <___printf_format_ouxX+0x144>,r0	! 309f5e <___printf_digits10>
  309c12:	64 f3       	mov	r15,r4
  309c14:	65 93       	mov	r9,r5
  309c16:	66 c3       	mov	r12,r6
  309c18:	74 14       	add	#20,r4
  309c1a:	40 0b       	jsr	@r0
  309c1c:	00 09       	nop	
  309c1e:	68 03       	mov	r0,r8
  309c20:	29 cb       	or	r12,r9
  309c22:	29 98       	tst	r9,r9
  309c24:	8f 04       	bf.s	309c30 <___printf_format_ouxX+0x54>
  309c26:	85 b1       	mov.w	@(2,r11),r0
  309c28:	20 08       	tst	r0,r0
  309c2a:	8f 02       	bf.s	309c32 <___printf_format_ouxX+0x56>
  309c2c:	30 83       	cmp/ge	r8,r0
  309c2e:	e8 00       	mov	#0,r8
  309c30:	30 83       	cmp/ge	r8,r0
  309c32:	8d 01       	bt.s	309c38 <___printf_format_ouxX+0x5c>
  309c34:	6e 03       	mov	r0,r14
  309c36:	6e 83       	mov	r8,r14
  309c38:	60 d3       	mov	r13,r0
  309c3a:	88 75       	cmp/eq	#117,r0
  309c3c:	e1 ff       	mov	#-1,r1
  309c3e:	84 b5       	mov.b	@(5,r11),r0
  309c40:	61 1a       	negc	r1,r1
  309c42:	40 11       	cmp/pz	r0
  309c44:	8d 03       	bt.s	309c4e <___printf_format_ouxX+0x72>
  309c46:	ec 00       	mov	#0,r12
  309c48:	60 d3       	mov	r13,r0
  309c4a:	88 78       	cmp/eq	#120,r0
  309c4c:	3c 1e       	addc	r1,r12
  309c4e:	d0 35       	mov.l	309d24 <___printf_format_ouxX+0x148>,r0	! 3091c0 <_memset>
  309c50:	69 f3       	mov	r15,r9
  309c52:	79 04       	add	#4,r9
  309c54:	2f 12       	mov.l	r1,@r15
  309c56:	e6 0c       	mov	#12,r6
  309c58:	e5 00       	mov	#0,r5
  309c5a:	40 0b       	jsr	@r0
  309c5c:	64 93       	mov	r9,r4
  309c5e:	e2 01       	mov	#1,r2
  309c60:	19 23       	mov.l	r2,@(12,r9)
  309c62:	60 c3       	mov	r12,r0
  309c64:	d2 30       	mov.l	309d28 <___printf_format_ouxX+0x14c>,r2	! 309e38 <___printf_compute_geometry>
  309c66:	65 93       	mov	r9,r5
  309c68:	80 93       	mov.b	r0,@(3,r9)
  309c6a:	60 e3       	mov	r14,r0
  309c6c:	81 93       	mov.w	r0,@(6,r9)
  309c6e:	dc 2f       	mov.l	309d2c <___printf_format_ouxX+0x150>,r12	! 309920 <___printf_outn>
  309c70:	42 0b       	jsr	@r2
  309c72:	64 b3       	mov	r11,r4
  309c74:	66 91       	mov.w	@r9,r6
  309c76:	e5 20       	mov	#32,r5
  309c78:	66 6d       	extu.w	r6,r6
  309c7a:	4c 0b       	jsr	@r12
  309c7c:	64 a3       	mov	r10,r4
  309c7e:	84 b5       	mov.b	@(5,r11),r0
  309c80:	40 11       	cmp/pz	r0
  309c82:	8d 0f       	bt.s	309ca4 <___printf_format_ouxX+0xc8>
  309c84:	61 f2       	mov.l	@r15,r1
  309c86:	21 18       	tst	r1,r1
  309c88:	8d 0c       	bt.s	309ca4 <___printf_format_ouxX+0xc8>
  309c8a:	e5 30       	mov	#48,r5
  309c8c:	d1 28       	mov.l	309d30 <___printf_format_ouxX+0x154>,r1	! 3098f0 <___printf_out>
  309c8e:	64 a3       	mov	r10,r4
  309c90:	41 0b       	jsr	@r1
  309c92:	2f 12       	mov.l	r1,@r15
  309c94:	60 d3       	mov	r13,r0
  309c96:	88 78       	cmp/eq	#120,r0
  309c98:	8f 04       	bf.s	309ca4 <___printf_format_ouxX+0xc8>
  309c9a:	61 f2       	mov.l	@r15,r1
  309c9c:	84 b7       	mov.b	@(7,r11),r0
  309c9e:	64 a3       	mov	r10,r4
  309ca0:	41 0b       	jsr	@r1
  309ca2:	65 03       	mov	r0,r5
  309ca4:	85 92       	mov.w	@(4,r9),r0
  309ca6:	e5 30       	mov	#48,r5
  309ca8:	66 0d       	extu.w	r0,r6
  309caa:	dd 21       	mov.l	309d30 <___printf_format_ouxX+0x154>,r13	! 3098f0 <___printf_out>
  309cac:	4c 0b       	jsr	@r12
  309cae:	64 a3       	mov	r10,r4
  309cb0:	66 e3       	mov	r14,r6
  309cb2:	6b f3       	mov	r15,r11
  309cb4:	36 88       	sub	r8,r6
  309cb6:	e5 30       	mov	#48,r5
  309cb8:	64 a3       	mov	r10,r4
  309cba:	4c 0b       	jsr	@r12
  309cbc:	78 ff       	add	#-1,r8
  309cbe:	7b 14       	add	#20,r11
  309cc0:	48 11       	cmp/pz	r8
  309cc2:	8d 24       	bt.s	309d0e <___printf_format_ouxX+0x132>
  309cc4:	60 83       	mov	r8,r0
  309cc6:	85 94       	mov.w	@(8,r9),r0
  309cc8:	e5 20       	mov	#32,r5
  309cca:	66 0d       	extu.w	r0,r6
  309ccc:	4c 0b       	jsr	@r12
  309cce:	64 a3       	mov	r10,r4
  309cd0:	7f 44       	add	#68,r15
  309cd2:	4f 26       	lds.l	@r15+,pr
  309cd4:	6e f6       	mov.l	@r15+,r14
  309cd6:	6d f6       	mov.l	@r15+,r13
  309cd8:	6c f6       	mov.l	@r15+,r12
  309cda:	6b f6       	mov.l	@r15+,r11
  309cdc:	6a f6       	mov.l	@r15+,r10
  309cde:	69 f6       	mov.l	@r15+,r9
  309ce0:	00 0b       	rts	
  309ce2:	68 f6       	mov.l	@r15+,r8
  309ce4:	8d 0d       	bt.s	309d02 <___printf_format_ouxX+0x126>
  309ce6:	88 78       	cmp/eq	#120,r0
  309ce8:	8f 9a       	bf.s	309c20 <___printf_format_ouxX+0x44>
  309cea:	e8 00       	mov	#0,r8
  309cec:	60 13       	mov	r1,r0
  309cee:	88 58       	cmp/eq	#88,r0
  309cf0:	d0 10       	mov.l	309d34 <___printf_format_ouxX+0x158>,r0	! 309fd4 <___printf_digits16>
  309cf2:	64 f3       	mov	r15,r4
  309cf4:	66 93       	mov	r9,r6
  309cf6:	67 c3       	mov	r12,r7
  309cf8:	05 29       	movt	r5
  309cfa:	40 0b       	jsr	@r0
  309cfc:	74 14       	add	#20,r4
  309cfe:	af 8f       	bra	309c20 <___printf_format_ouxX+0x44>
  309d00:	68 03       	mov	r0,r8
  309d02:	64 f3       	mov	r15,r4
  309d04:	d0 0c       	mov.l	309d38 <___printf_format_ouxX+0x15c>,r0	! 30a014 <___printf_digits8>
  309d06:	65 93       	mov	r9,r5
  309d08:	66 c3       	mov	r12,r6
  309d0a:	af 86       	bra	309c1a <___printf_format_ouxX+0x3e>
  309d0c:	74 14       	add	#20,r4
  309d0e:	05 bc       	mov.b	@(r0,r11),r5
  309d10:	64 a3       	mov	r10,r4
  309d12:	4d 0b       	jsr	@r13
  309d14:	78 ff       	add	#-1,r8
  309d16:	af d4       	bra	309cc2 <___printf_format_ouxX+0xe6>
  309d18:	48 11       	cmp/pz	r8
  309d1a:	00 09       	nop	
  309d1c:	00 30       	.word 0x0030
  309d1e:	9f 24       	mov.w	309d6a <___printf_format_p+0x2e>,r15	! 64f3
  309d20:	00 30       	.word 0x0030
  309d22:	9f 5e       	mov.w	309de2 <___printf_format_m+0x3e>,r15	! 64b3
  309d24:	00 30       	.word 0x0030
  309d26:	91 c0       	mov.w	309eaa <___printf_compute_geometry+0x72>,r1	! 600c
  309d28:	00 30       	.word 0x0030
  309d2a:	9e 38       	mov.w	309d9e <___printf_format_p+0x62>,r14	! 9fd4
  309d2c:	00 30       	.word 0x0030
  309d2e:	99 20       	mov.w	309d72 <___printf_format_p+0x36>,r9	! e578
  309d30:	00 30       	.word 0x0030
  309d32:	98 f0       	mov.w	309f16 <___printf_load_i+0x2e>,r8	! b
  309d34:	00 30       	.word 0x0030
  309d36:	9f d4       	mov.w	309ee2 <___printf_compute_geometry+0xaa>,r15	! 8154
  309d38:	00 30       	.word 0x0030
  309d3a:	a0 14       	bra	309d66 <___printf_format_p+0x2a>

00309d3c <___printf_format_p>:
  309d3c:	2f 86       	mov.l	r8,@-r15
  309d3e:	2f 96       	mov.l	r9,@-r15
  309d40:	69 43       	mov	r4,r9
  309d42:	2f a6       	mov.l	r10,@-r15
  309d44:	ea 07       	mov	#7,r10
  309d46:	4f 22       	sts.l	pr,@-r15
  309d48:	61 62       	mov.l	@r6,r1
  309d4a:	7f f4       	add	#-12,r15
  309d4c:	d0 11       	mov.l	309d94 <___printf_format_p+0x58>,r0	! 309100 <_memcpy>
  309d4e:	62 13       	mov	r1,r2
  309d50:	72 04       	add	#4,r2
  309d52:	26 22       	mov.l	r2,@r6
  309d54:	64 f3       	mov	r15,r4
  309d56:	68 12       	mov.l	@r1,r8
  309d58:	d5 0f       	mov.l	309d98 <___printf_format_p+0x5c>,r5	! 30c02c
  309d5a:	40 0b       	jsr	@r0
  309d5c:	e6 09       	mov	#9,r6
  309d5e:	d0 0f       	mov.l	309d9c <___printf_format_p+0x60>,r0	! 309fd4 <___printf_digits16>
  309d60:	67 83       	mov	r8,r7
  309d62:	d8 0f       	mov.l	309da0 <___printf_format_p+0x64>,r8	! 3098f0 <___printf_out>
  309d64:	e6 00       	mov	#0,r6
  309d66:	e5 00       	mov	#0,r5
  309d68:	40 0b       	jsr	@r0
  309d6a:	64 f3       	mov	r15,r4
  309d6c:	e5 30       	mov	#48,r5
  309d6e:	48 0b       	jsr	@r8
  309d70:	64 93       	mov	r9,r4
  309d72:	e5 78       	mov	#120,r5
  309d74:	48 0b       	jsr	@r8
  309d76:	64 93       	mov	r9,r4
  309d78:	60 a3       	mov	r10,r0
  309d7a:	05 fc       	mov.b	@(r0,r15),r5
  309d7c:	64 93       	mov	r9,r4
  309d7e:	48 0b       	jsr	@r8
  309d80:	7a ff       	add	#-1,r10
  309d82:	60 a3       	mov	r10,r0
  309d84:	88 ff       	cmp/eq	#-1,r0
  309d86:	8b f8       	bf	309d7a <___printf_format_p+0x3e>
  309d88:	7f 0c       	add	#12,r15
  309d8a:	4f 26       	lds.l	@r15+,pr
  309d8c:	6a f6       	mov.l	@r15+,r10
  309d8e:	69 f6       	mov.l	@r15+,r9
  309d90:	00 0b       	rts	
  309d92:	68 f6       	mov.l	@r15+,r8
  309d94:	00 30       	.word 0x0030
  309d96:	91 00       	mov.w	309d9a <___printf_format_p+0x5e>,r1	! c02c
  309d98:	00 30       	.word 0x0030
  309d9a:	c0 2c       	mov.b	r0,@(44,gbr)
  309d9c:	00 30       	.word 0x0030
  309d9e:	9f d4       	mov.w	309f4a <___printf_load_u+0x26>,r15	! 8b04
  309da0:	00 30       	.word 0x0030
  309da2:	98 f0       	mov.w	309f86 <___printf_digits10+0x28>,r8	! e70a

00309da4 <___printf_format_m>:
  309da4:	2f 86       	mov.l	r8,@-r15
  309da6:	2f 96       	mov.l	r9,@-r15
  309da8:	2f a6       	mov.l	r10,@-r15
  309daa:	2f b6       	mov.l	r11,@-r15
  309dac:	6b 43       	mov	r4,r11
  309dae:	2f c6       	mov.l	r12,@-r15
  309db0:	d1 0d       	mov.l	309de8 <___printf_format_m+0x44>,r1	! 8101778 <_errno>
  309db2:	4f 22       	sts.l	pr,@-r15
  309db4:	d0 0d       	mov.l	309dec <___printf_format_m+0x48>,r0	! 30a364 <_strerror>
  309db6:	40 0b       	jsr	@r0
  309db8:	64 12       	mov.l	@r1,r4
  309dba:	68 03       	mov	r0,r8
  309dbc:	64 03       	mov	r0,r4
  309dbe:	d0 0c       	mov.l	309df0 <___printf_format_m+0x4c>,r0	! 309216 <_strlen>
  309dc0:	dc 0c       	mov.l	309df4 <___printf_format_m+0x50>,r12	! 3098f0 <___printf_out>
  309dc2:	40 0b       	jsr	@r0
  309dc4:	6a 83       	mov	r8,r10
  309dc6:	69 03       	mov	r0,r9
  309dc8:	61 a3       	mov	r10,r1
  309dca:	31 88       	sub	r8,r1
  309dcc:	39 17       	cmp/gt	r1,r9
  309dce:	89 06       	bt	309dde <___printf_format_m+0x3a>
  309dd0:	4f 26       	lds.l	@r15+,pr
  309dd2:	6c f6       	mov.l	@r15+,r12
  309dd4:	6b f6       	mov.l	@r15+,r11
  309dd6:	6a f6       	mov.l	@r15+,r10
  309dd8:	69 f6       	mov.l	@r15+,r9
  309dda:	00 0b       	rts	
  309ddc:	68 f6       	mov.l	@r15+,r8
  309dde:	65 a4       	mov.b	@r10+,r5
  309de0:	4c 0b       	jsr	@r12
  309de2:	64 b3       	mov	r11,r4
  309de4:	af f1       	bra	309dca <___printf_format_m+0x26>
  309de6:	61 a3       	mov	r10,r1
  309de8:	08 10       	.word 0x0810
  309dea:	17 78       	mov.l	r7,@(32,r7)
  309dec:	00 30       	.word 0x0030
  309dee:	a3 64       	bra	30a4ba <_fflush+0x7e>
  309df0:	00 30       	.word 0x0030
  309df2:	92 16       	mov.w	309e22 <___printf_format_n+0x2a>,r2	! 8804
  309df4:	00 30       	.word 0x0030
  309df6:	98 f0       	mov.w	309fda <___printf_digits16+0x6>,r8	! 6143

00309df8 <___printf_format_n>:
  309df8:	61 62       	mov.l	@r6,r1
  309dfa:	62 13       	mov	r1,r2
  309dfc:	72 04       	add	#4,r2
  309dfe:	26 22       	mov.l	r2,@r6
  309e00:	84 54       	mov.b	@(4,r5),r0
  309e02:	20 08       	tst	r0,r0
  309e04:	8f 02       	bf.s	309e0c <___printf_format_n+0x14>
  309e06:	61 12       	mov.l	@r1,r1
  309e08:	52 47       	mov.l	@(28,r4),r2
  309e0a:	21 20       	mov.b	r2,@r1
  309e0c:	84 54       	mov.b	@(4,r5),r0
  309e0e:	60 0c       	extu.b	r0,r0
  309e10:	88 01       	cmp/eq	#1,r0
  309e12:	8b 02       	bf	309e1a <___printf_format_n+0x22>
  309e14:	52 47       	mov.l	@(28,r4),r2
  309e16:	00 0b       	rts	
  309e18:	21 21       	mov.w	r2,@r1
  309e1a:	88 02       	cmp/eq	#2,r0
  309e1c:	8d 05       	bt.s	309e2a <___printf_format_n+0x32>
  309e1e:	88 03       	cmp/eq	#3,r0
  309e20:	8d 03       	bt.s	309e2a <___printf_format_n+0x32>
  309e22:	88 04       	cmp/eq	#4,r0
  309e24:	89 04       	bt	309e30 <___printf_format_n+0x38>
  309e26:	00 0b       	rts	
  309e28:	00 09       	nop	
  309e2a:	52 47       	mov.l	@(28,r4),r2
  309e2c:	00 0b       	rts	
  309e2e:	21 22       	mov.l	r2,@r1
  309e30:	52 47       	mov.l	@(28,r4),r2
  309e32:	11 21       	mov.l	r2,@(4,r1)
  309e34:	af fa       	bra	309e2c <___printf_format_n+0x34>
  309e36:	e2 00       	mov	#0,r2

00309e38 <___printf_compute_geometry>:
  309e38:	2f 86       	mov.l	r8,@-r15
  309e3a:	e1 01       	mov	#1,r1
  309e3c:	58 53       	mov.l	@(12,r5),r8
  309e3e:	e7 00       	mov	#0,r7
  309e40:	62 83       	mov	r8,r2
  309e42:	72 ff       	add	#-1,r2
  309e44:	32 16       	cmp/hi	r1,r2
  309e46:	8d 05       	bt.s	309e54 <___printf_compute_geometry+0x1c>
  309e48:	2f 96       	mov.l	r9,@-r15
  309e4a:	84 52       	mov.b	@(2,r5),r0
  309e4c:	88 2b       	cmp/eq	#43,r0
  309e4e:	8d 37       	bt.s	309ec0 <___printf_compute_geometry+0x88>
  309e50:	e7 01       	mov	#1,r7
  309e52:	e7 01       	mov	#1,r7
  309e54:	e0 00       	mov	#0,r0
  309e56:	81 52       	mov.w	r0,@(4,r5)
  309e58:	85 41       	mov.w	@(2,r4),r0
  309e5a:	62 03       	mov	r0,r2
  309e5c:	85 53       	mov.w	@(6,r5),r0
  309e5e:	66 0d       	extu.w	r0,r6
  309e60:	84 52       	mov.b	@(2,r5),r0
  309e62:	69 03       	mov	r0,r9
  309e64:	84 53       	mov.b	@(3,r5),r0
  309e66:	29 98       	tst	r9,r9
  309e68:	61 41       	mov.w	@r4,r1
  309e6a:	63 0c       	extu.b	r0,r3
  309e6c:	63 37       	not	r3,r3
  309e6e:	61 1d       	extu.w	r1,r1
  309e70:	31 3e       	addc	r3,r1
  309e72:	32 63       	cmp/ge	r6,r2
  309e74:	8d 01       	bt.s	309e7a <___printf_compute_geometry+0x42>
  309e76:	63 23       	mov	r2,r3
  309e78:	63 63       	mov	r6,r3
  309e7a:	31 38       	sub	r3,r1
  309e7c:	41 11       	cmp/pz	r1
  309e7e:	89 00       	bt	309e82 <___printf_compute_geometry+0x4a>
  309e80:	e1 00       	mov	#0,r1
  309e82:	84 46       	mov.b	@(6,r4),r0
  309e84:	63 0c       	extu.b	r0,r3
  309e86:	60 83       	mov	r8,r0
  309e88:	88 01       	cmp/eq	#1,r0
  309e8a:	8f 0d       	bf.s	309ea8 <___printf_compute_geometry+0x70>
  309e8c:	60 23       	mov	r2,r0
  309e8e:	40 00       	shll	r0
  309e90:	8d 0a       	bt.s	309ea8 <___printf_compute_geometry+0x70>
  309e92:	60 33       	mov	r3,r0
  309e94:	88 30       	cmp/eq	#48,r0
  309e96:	8f 03       	bf.s	309ea0 <___printf_compute_geometry+0x68>
  309e98:	60 23       	mov	r2,r0
  309e9a:	e0 00       	mov	#0,r0
  309e9c:	80 46       	mov.b	r0,@(6,r4)
  309e9e:	60 23       	mov	r2,r0
  309ea0:	30 68       	sub	r6,r0
  309ea2:	40 15       	cmp/pl	r0
  309ea4:	8b 00       	bf	309ea8 <___printf_compute_geometry+0x70>
  309ea6:	81 52       	mov.w	r0,@(4,r5)
  309ea8:	84 46       	mov.b	@(6,r4),r0
  309eaa:	60 0c       	extu.b	r0,r0
  309eac:	88 30       	cmp/eq	#48,r0
  309eae:	8f 14       	bf.s	309eda <___printf_compute_geometry+0xa2>
  309eb0:	61 1d       	extu.w	r1,r1
  309eb2:	27 78       	tst	r7,r7
  309eb4:	8d 16       	bt.s	309ee4 <___printf_compute_geometry+0xac>
  309eb6:	60 13       	mov	r1,r0
  309eb8:	81 52       	mov.w	r0,@(4,r5)
  309eba:	69 f6       	mov.l	@r15+,r9
  309ebc:	00 0b       	rts	
  309ebe:	68 f6       	mov.l	@r15+,r8
  309ec0:	84 45       	mov.b	@(5,r4),r0
  309ec2:	c8 20       	tst	#32,r0
  309ec4:	8f c6       	bf.s	309e54 <___printf_compute_geometry+0x1c>
  309ec6:	61 03       	mov	r0,r1
  309ec8:	60 13       	mov	r1,r0
  309eca:	c8 40       	tst	#64,r0
  309ecc:	e0 ff       	mov	#-1,r0
  309ece:	60 0a       	negc	r0,r0
  309ed0:	40 08       	shll2	r0
  309ed2:	30 0c       	add	r0,r0
  309ed4:	40 08       	shll2	r0
  309ed6:	af bc       	bra	309e52 <___printf_compute_geometry+0x1a>
  309ed8:	80 52       	mov.b	r0,@(2,r5)
  309eda:	88 2d       	cmp/eq	#45,r0
  309edc:	8f 02       	bf.s	309ee4 <___printf_compute_geometry+0xac>
  309ede:	60 13       	mov	r1,r0
  309ee0:	af eb       	bra	309eba <___printf_compute_geometry+0x82>
  309ee2:	81 54       	mov.w	r0,@(8,r5)
  309ee4:	af e9       	bra	309eba <___printf_compute_geometry+0x82>
  309ee6:	25 11       	mov.w	r1,@r5

00309ee8 <___printf_load_i>:
  309ee8:	61 52       	mov.l	@r5,r1
  309eea:	60 43       	mov	r4,r0
  309eec:	88 01       	cmp/eq	#1,r0
  309eee:	8f 07       	bf.s	309f00 <___printf_load_i+0x18>
  309ef0:	62 13       	mov	r1,r2
  309ef2:	72 04       	add	#4,r2
  309ef4:	25 22       	mov.l	r2,@r5
  309ef6:	84 13       	mov.b	@(3,r1),r0
  309ef8:	61 03       	mov	r0,r1
  309efa:	40 00       	shll	r0
  309efc:	00 0b       	rts	
  309efe:	30 0a       	subc	r0,r0
  309f00:	88 02       	cmp/eq	#2,r0
  309f02:	8f 04       	bf.s	309f0e <___printf_load_i+0x26>
  309f04:	88 08       	cmp/eq	#8,r0
  309f06:	72 04       	add	#4,r2
  309f08:	25 22       	mov.l	r2,@r5
  309f0a:	af f5       	bra	309ef8 <___printf_load_i+0x10>
  309f0c:	85 11       	mov.w	@(2,r1),r0
  309f0e:	8b 04       	bf	309f1a <___printf_load_i+0x32>
  309f10:	72 08       	add	#8,r2
  309f12:	60 12       	mov.l	@r1,r0
  309f14:	25 22       	mov.l	r2,@r5
  309f16:	00 0b       	rts	
  309f18:	51 11       	mov.l	@(4,r1),r1
  309f1a:	61 12       	mov.l	@r1,r1
  309f1c:	72 04       	add	#4,r2
  309f1e:	25 22       	mov.l	r2,@r5
  309f20:	af eb       	bra	309efa <___printf_load_i+0x12>
  309f22:	60 13       	mov	r1,r0

00309f24 <___printf_load_u>:
  309f24:	61 52       	mov.l	@r5,r1
  309f26:	60 43       	mov	r4,r0
  309f28:	88 01       	cmp/eq	#1,r0
  309f2a:	8f 06       	bf.s	309f3a <___printf_load_u+0x16>
  309f2c:	62 13       	mov	r1,r2
  309f2e:	61 12       	mov.l	@r1,r1
  309f30:	72 04       	add	#4,r2
  309f32:	25 22       	mov.l	r2,@r5
  309f34:	61 1c       	extu.b	r1,r1
  309f36:	00 0b       	rts	
  309f38:	e0 00       	mov	#0,r0
  309f3a:	88 02       	cmp/eq	#2,r0
  309f3c:	8f 05       	bf.s	309f4a <___printf_load_u+0x26>
  309f3e:	88 08       	cmp/eq	#8,r0
  309f40:	61 12       	mov.l	@r1,r1
  309f42:	72 04       	add	#4,r2
  309f44:	25 22       	mov.l	r2,@r5
  309f46:	af f6       	bra	309f36 <___printf_load_u+0x12>
  309f48:	61 1d       	extu.w	r1,r1
  309f4a:	8b 04       	bf	309f56 <___printf_load_u+0x32>
  309f4c:	72 08       	add	#8,r2
  309f4e:	60 12       	mov.l	@r1,r0
  309f50:	25 22       	mov.l	r2,@r5
  309f52:	00 0b       	rts	
  309f54:	51 11       	mov.l	@(4,r1),r1
  309f56:	72 04       	add	#4,r2
  309f58:	61 12       	mov.l	@r1,r1
  309f5a:	af ec       	bra	309f36 <___printf_load_u+0x12>
  309f5c:	25 22       	mov.l	r2,@r5

00309f5e <___printf_digits10>:
  309f5e:	2f 86       	mov.l	r8,@-r15
  309f60:	68 53       	mov	r5,r8
  309f62:	2f 96       	mov.l	r9,@-r15
  309f64:	69 63       	mov	r6,r9
  309f66:	2f a6       	mov.l	r10,@-r15
  309f68:	6a 43       	mov	r4,r10
  309f6a:	2f b6       	mov.l	r11,@-r15
  309f6c:	6b 43       	mov	r4,r11
  309f6e:	2f c6       	mov.l	r12,@-r15
  309f70:	2f d6       	mov.l	r13,@-r15
  309f72:	2f e6       	mov.l	r14,@-r15
  309f74:	d2 15       	mov.l	309fcc <___printf_digits10+0x6e>,r2	! 30ade4 <___umoddi3>
  309f76:	4f 22       	sts.l	pr,@-r15
  309f78:	de 15       	mov.l	309fd0 <___printf_digits10+0x72>,r14	! 30abd8 <___udivdi3>
  309f7a:	7f f8       	add	#-8,r15
  309f7c:	2f 22       	mov.l	r2,@r15
  309f7e:	64 83       	mov	r8,r4
  309f80:	65 93       	mov	r9,r5
  309f82:	e6 00       	mov	#0,r6
  309f84:	42 0b       	jsr	@r2
  309f86:	e7 0a       	mov	#10,r7
  309f88:	71 30       	add	#48,r1
  309f8a:	2a 10       	mov.b	r1,@r10
  309f8c:	64 83       	mov	r8,r4
  309f8e:	1f 81       	mov.l	r8,@(4,r15)
  309f90:	65 93       	mov	r9,r5
  309f92:	e6 00       	mov	#0,r6
  309f94:	4e 0b       	jsr	@r14
  309f96:	e7 0a       	mov	#10,r7
  309f98:	53 f1       	mov.l	@(4,r15),r3
  309f9a:	6c a3       	mov	r10,r12
  309f9c:	3c b8       	sub	r11,r12
  309f9e:	23 38       	tst	r3,r3
  309fa0:	6d 93       	mov	r9,r13
  309fa2:	62 f2       	mov.l	@r15,r2
  309fa4:	7c 01       	add	#1,r12
  309fa6:	7a 01       	add	#1,r10
  309fa8:	68 03       	mov	r0,r8
  309faa:	8f e7       	bf.s	309f7c <___printf_digits10+0x1e>
  309fac:	69 13       	mov	r1,r9
  309fae:	e1 09       	mov	#9,r1
  309fb0:	3d 16       	cmp/hi	r1,r13
  309fb2:	8d e3       	bt.s	309f7c <___printf_digits10+0x1e>
  309fb4:	60 c3       	mov	r12,r0
  309fb6:	7f 08       	add	#8,r15
  309fb8:	4f 26       	lds.l	@r15+,pr
  309fba:	6e f6       	mov.l	@r15+,r14
  309fbc:	6d f6       	mov.l	@r15+,r13
  309fbe:	6c f6       	mov.l	@r15+,r12
  309fc0:	6b f6       	mov.l	@r15+,r11
  309fc2:	6a f6       	mov.l	@r15+,r10
  309fc4:	69 f6       	mov.l	@r15+,r9
  309fc6:	00 0b       	rts	
  309fc8:	68 f6       	mov.l	@r15+,r8
  309fca:	00 09       	nop	
  309fcc:	00 30       	.word 0x0030
  309fce:	ad e4       	bra	309b9a <___printf_format_di+0xb6>
  309fd0:	00 30       	.word 0x0030
  309fd2:	ab d8       	bra	309786 <___fp_parse_mode+0x56>

00309fd4 <___printf_digits16>:
  309fd4:	25 58       	tst	r5,r5
  309fd6:	d3 0d       	mov.l	30a00c <___printf_digits16+0x38>,r3	! 30c038
  309fd8:	8f 01       	bf.s	309fde <___printf_digits16+0xa>
  309fda:	61 43       	mov	r4,r1
  309fdc:	d3 0c       	mov.l	30a010 <___printf_digits16+0x3c>,r3	! 30c04c
  309fde:	60 73       	mov	r7,r0
  309fe0:	c9 0f       	and	#15,r0
  309fe2:	05 3c       	mov.b	@(r0,r3),r5
  309fe4:	e0 1c       	mov	#28,r0
  309fe6:	21 50       	mov.b	r5,@r1
  309fe8:	65 63       	mov	r6,r5
  309fea:	46 09       	shlr2	r6
  309fec:	62 13       	mov	r1,r2
  309fee:	45 0d       	shld	r0,r5
  309ff0:	47 09       	shlr2	r7
  309ff2:	46 09       	shlr2	r6
  309ff4:	32 48       	sub	r4,r2
  309ff6:	47 09       	shlr2	r7
  309ff8:	26 68       	tst	r6,r6
  309ffa:	72 01       	add	#1,r2
  309ffc:	71 01       	add	#1,r1
  309ffe:	8f ee       	bf.s	309fde <___printf_digits16+0xa>
  30a000:	27 5b       	or	r5,r7
  30a002:	27 78       	tst	r7,r7
  30a004:	8f eb       	bf.s	309fde <___printf_digits16+0xa>
  30a006:	60 23       	mov	r2,r0
  30a008:	00 0b       	rts	
  30a00a:	00 09       	nop	
  30a00c:	00 30       	.word 0x0030
  30a00e:	c0 38       	mov.b	r0,@(56,gbr)
  30a010:	00 30       	.word 0x0030
  30a012:	c0 4c       	mov.b	r0,@(76,gbr)

0030a014 <___printf_digits8>:
  30a014:	61 43       	mov	r4,r1
  30a016:	60 63       	mov	r6,r0
  30a018:	46 09       	shlr2	r6
  30a01a:	63 53       	mov	r5,r3
  30a01c:	46 01       	shlr	r6
  30a01e:	c9 07       	and	#7,r0
  30a020:	e7 1d       	mov	#29,r7
  30a022:	45 09       	shlr2	r5
  30a024:	62 13       	mov	r1,r2
  30a026:	43 7d       	shld	r7,r3
  30a028:	70 30       	add	#48,r0
  30a02a:	45 01       	shlr	r5
  30a02c:	21 00       	mov.b	r0,@r1
  30a02e:	32 48       	sub	r4,r2
  30a030:	25 58       	tst	r5,r5
  30a032:	72 01       	add	#1,r2
  30a034:	71 01       	add	#1,r1
  30a036:	8f ee       	bf.s	30a016 <___printf_digits8+0x2>
  30a038:	26 3b       	or	r3,r6
  30a03a:	26 68       	tst	r6,r6
  30a03c:	8f eb       	bf.s	30a016 <___printf_digits8+0x2>
  30a03e:	60 23       	mov	r2,r0
  30a040:	00 0b       	rts	
  30a042:	00 09       	nop	

0030a044 <_setvbuf>:
  30a044:	2f 86       	mov.l	r8,@-r15
  30a046:	68 43       	mov	r4,r8
  30a048:	2f 96       	mov.l	r9,@-r15
  30a04a:	69 63       	mov	r6,r9
  30a04c:	2f a6       	mov.l	r10,@-r15
  30a04e:	6a 53       	mov	r5,r10
  30a050:	2f b6       	mov.l	r11,@-r15
  30a052:	2f c6       	mov.l	r12,@-r15
  30a054:	4f 22       	sts.l	pr,@-r15
  30a056:	d1 19       	mov.l	30a0bc <_setvbuf+0x78>,r1	! c000
  30a058:	85 4e       	mov.w	@(28,r4),r0
  30a05a:	20 19       	and	r1,r0
  30a05c:	d1 18       	mov.l	30a0c0 <_setvbuf+0x7c>,r1	! 8000
  30a05e:	30 10       	cmp/eq	r1,r0
  30a060:	8f 03       	bf.s	30a06a <_setvbuf+0x26>
  30a062:	6b 73       	mov	r7,r11
  30a064:	51 42       	mov.l	@(8,r4),r1
  30a066:	21 18       	tst	r1,r1
  30a068:	89 02       	bt	30a070 <_setvbuf+0x2c>
  30a06a:	d0 16       	mov.l	30a0c4 <_setvbuf+0x80>,r0	! 30a43c <_fflush>
  30a06c:	40 0b       	jsr	@r0
  30a06e:	64 83       	mov	r8,r4
  30a070:	d1 15       	mov.l	30a0c8 <_setvbuf+0x84>,r1	! 3093c8 <___fp_remove_buffer>
  30a072:	9c 20       	mov.w	30a0b6 <_setvbuf+0x72>,r12	! 3fff
  30a074:	41 0b       	jsr	@r1
  30a076:	64 83       	mov	r8,r4
  30a078:	85 8e       	mov.w	@(28,r8),r0
  30a07a:	91 1d       	mov.w	30a0b8 <_setvbuf+0x74>,r1	! 8000
  30a07c:	20 c9       	and	r12,r0
  30a07e:	20 1b       	or	r1,r0
  30a080:	81 8e       	mov.w	r0,@(28,r8)
  30a082:	60 93       	mov	r9,r0
  30a084:	88 02       	cmp/eq	#2,r0
  30a086:	8d 0f       	bt.s	30a0a8 <_setvbuf+0x64>
  30a088:	e0 00       	mov	#0,r0
  30a08a:	d0 10       	mov.l	30a0cc <_setvbuf+0x88>,r0	! 3093f8 <___fp_set_buffer>
  30a08c:	66 b3       	mov	r11,r6
  30a08e:	65 a3       	mov	r10,r5
  30a090:	40 0b       	jsr	@r0
  30a092:	64 83       	mov	r8,r4
  30a094:	20 08       	tst	r0,r0
  30a096:	8d 07       	bt.s	30a0a8 <_setvbuf+0x64>
  30a098:	e0 ff       	mov	#-1,r0
  30a09a:	85 8e       	mov.w	@(28,r8),r0
  30a09c:	49 28       	shll16	r9
  30a09e:	49 09       	shlr2	r9
  30a0a0:	20 c9       	and	r12,r0
  30a0a2:	20 9b       	or	r9,r0
  30a0a4:	81 8e       	mov.w	r0,@(28,r8)
  30a0a6:	e0 00       	mov	#0,r0
  30a0a8:	4f 26       	lds.l	@r15+,pr
  30a0aa:	6c f6       	mov.l	@r15+,r12
  30a0ac:	6b f6       	mov.l	@r15+,r11
  30a0ae:	6a f6       	mov.l	@r15+,r10
  30a0b0:	69 f6       	mov.l	@r15+,r9
  30a0b2:	00 0b       	rts	
  30a0b4:	68 f6       	mov.l	@r15+,r8
  30a0b6:	3f ff       	addv	r15,r15
  30a0b8:	80 00       	mov.b	r0,@(0,r0)
  30a0ba:	00 09       	nop	
  30a0bc:	00 00       	.word 0x0000
  30a0be:	c0 00       	mov.b	r0,@(0,gbr)
  30a0c0:	00 00       	.word 0x0000
  30a0c2:	80 00       	mov.b	r0,@(0,r0)
  30a0c4:	00 30       	.word 0x0030
  30a0c6:	a4 3c       	bra	30a942 <___sdivsi3_i4i+0xbe>
  30a0c8:	00 30       	.word 0x0030
  30a0ca:	93 c8       	mov.w	30a25e <___strto_int+0x18e>,r3	! 6b23
  30a0cc:	00 30       	.word 0x0030
  30a0ce:	93 f8       	mov.w	30a2c2 <___strto_int+0x1f2>,r3	! e4ff

0030a0d0 <___strto_int>:
  30a0d0:	2f 86       	mov.l	r8,@-r15
  30a0d2:	25 58       	tst	r5,r5
  30a0d4:	2f 96       	mov.l	r9,@-r15
  30a0d6:	2f a6       	mov.l	r10,@-r15
  30a0d8:	2f b6       	mov.l	r11,@-r15
  30a0da:	2f c6       	mov.l	r12,@-r15
  30a0dc:	2f d6       	mov.l	r13,@-r15
  30a0de:	2f e6       	mov.l	r14,@-r15
  30a0e0:	6e 73       	mov	r7,r14
  30a0e2:	7f f0       	add	#-16,r15
  30a0e4:	59 fc       	mov.l	@(48,r15),r9
  30a0e6:	1f 51       	mov.l	r5,@(4,r15)
  30a0e8:	69 9c       	extu.b	r9,r9
  30a0ea:	8d 01       	bt.s	30a0f0 <___strto_int+0x20>
  30a0ec:	58 fb       	mov.l	@(44,r15),r8
  30a0ee:	25 42       	mov.l	r4,@r5
  30a0f0:	e7 04       	mov	#4,r7
  30a0f2:	60 40       	mov.b	@r4,r0
  30a0f4:	61 43       	mov	r4,r1
  30a0f6:	62 03       	mov	r0,r2
  30a0f8:	72 f7       	add	#-9,r2
  30a0fa:	37 22       	cmp/hs	r2,r7
  30a0fc:	03 29       	movt	r3
  30a0fe:	88 20       	cmp/eq	#32,r0
  30a100:	02 29       	movt	r2
  30a102:	23 2b       	or	r2,r3
  30a104:	23 38       	tst	r3,r3
  30a106:	8f f4       	bf.s	30a0f2 <___strto_int+0x22>
  30a108:	74 01       	add	#1,r4
  30a10a:	88 2d       	cmp/eq	#45,r0
  30a10c:	8d 69       	bt.s	30a1e2 <___strto_int+0x112>
  30a10e:	88 2b       	cmp/eq	#43,r0
  30a110:	e4 00       	mov	#0,r4
  30a112:	8f 01       	bf.s	30a118 <___strto_int+0x48>
  30a114:	2f 42       	mov.l	r4,@r15
  30a116:	71 01       	add	#1,r1
  30a118:	ed ef       	mov	#-17,r13
  30a11a:	26 d8       	tst	r13,r6
  30a11c:	8f 11       	bf.s	30a142 <___strto_int+0x72>
  30a11e:	60 10       	mov.b	@r1,r0
  30a120:	88 30       	cmp/eq	#48,r0
  30a122:	8f 61       	bf.s	30a1e8 <___strto_int+0x118>
  30a124:	26 68       	tst	r6,r6
  30a126:	84 11       	mov.b	@(1,r1),r0
  30a128:	e2 19       	mov	#25,r2
  30a12a:	67 03       	mov	r0,r7
  30a12c:	77 bf       	add	#-65,r7
  30a12e:	37 26       	cmp/hi	r2,r7
  30a130:	8d 02       	bt.s	30a138 <___strto_int+0x68>
  30a132:	88 78       	cmp/eq	#120,r0
  30a134:	cb 20       	or	#32,r0
  30a136:	88 78       	cmp/eq	#120,r0
  30a138:	89 01       	bt	30a13e <___strto_int+0x6e>
  30a13a:	a0 f5       	bra	30a328 <___strto_int+0x258>
  30a13c:	26 68       	tst	r6,r6
  30a13e:	71 02       	add	#2,r1
  30a140:	e6 10       	mov	#16,r6
  30a142:	1f 12       	mov.l	r1,@(8,r15)
  30a144:	e5 00       	mov	#0,r5
  30a146:	e2 00       	mov	#0,r2
  30a148:	e1 00       	mov	#0,r1
  30a14a:	e7 00       	mov	#0,r7
  30a14c:	54 f2       	mov.l	@(8,r15),r4
  30a14e:	6a 43       	mov	r4,r10
  30a150:	60 a4       	mov.b	@r10+,r0
  30a152:	1f 43       	mov.l	r4,@(12,r15)
  30a154:	64 03       	mov	r0,r4
  30a156:	1f a2       	mov.l	r10,@(8,r15)
  30a158:	74 d0       	add	#-48,r4
  30a15a:	ea 09       	mov	#9,r10
  30a15c:	34 a6       	cmp/hi	r10,r4
  30a15e:	8b 07       	bf	30a170 <___strto_int+0xa0>
  30a160:	64 03       	mov	r0,r4
  30a162:	74 9f       	add	#-97,r4
  30a164:	ea 19       	mov	#25,r10
  30a166:	34 a6       	cmp/hi	r10,r4
  30a168:	8d 02       	bt.s	30a170 <___strto_int+0xa0>
  30a16a:	e4 ff       	mov	#-1,r4
  30a16c:	64 03       	mov	r0,r4
  30a16e:	74 a9       	add	#-87,r4
  30a170:	60 43       	mov	r4,r0
  30a172:	88 ff       	cmp/eq	#-1,r0
  30a174:	8d 5a       	bt.s	30a22c <___strto_int+0x15c>
  30a176:	34 63       	cmp/ge	r6,r4
  30a178:	8d 58       	bt.s	30a22c <___strto_int+0x15c>
  30a17a:	2e e8       	tst	r14,r14
  30a17c:	8d 0c       	bt.s	30a198 <___strto_int+0xc8>
  30a17e:	28 88       	tst	r8,r8
  30a180:	37 65       	dmulu.l	r6,r7
  30a182:	07 0a       	sts	mach,r7
  30a184:	27 78       	tst	r7,r7
  30a186:	8d 01       	bt.s	30a18c <___strto_int+0xbc>
  30a188:	03 1a       	sts	macl,r3
  30a18a:	e5 03       	mov	#3,r5
  30a18c:	67 43       	mov	r4,r7
  30a18e:	37 3c       	add	r3,r7
  30a190:	37 32       	cmp/hs	r3,r7
  30a192:	8d 01       	bt.s	30a198 <___strto_int+0xc8>
  30a194:	28 88       	tst	r8,r8
  30a196:	e5 03       	mov	#3,r5
  30a198:	8d 21       	bt.s	30a1de <___strto_int+0x10e>
  30a19a:	e0 00       	mov	#0,r0
  30a19c:	30 67       	cmp/gt	r6,r0
  30a19e:	3c ca       	subc	r12,r12
  30a1a0:	22 28       	tst	r2,r2
  30a1a2:	8f 3e       	bf.s	30a222 <___strto_int+0x152>
  30a1a4:	eb 00       	mov	#0,r11
  30a1a6:	2c c8       	tst	r12,r12
  30a1a8:	8f 21       	bf.s	30a1ee <___strto_int+0x11e>
  30a1aa:	31 65       	dmulu.l	r6,r1
  30a1ac:	00 1a       	sts	macl,r0
  30a1ae:	03 0a       	sts	mach,r3
  30a1b0:	2b b8       	tst	r11,r11
  30a1b2:	6a 33       	mov	r3,r10
  30a1b4:	8d 01       	bt.s	30a1ba <___strto_int+0xea>
  30a1b6:	6c 03       	mov	r0,r12
  30a1b8:	e5 03       	mov	#3,r5
  30a1ba:	61 43       	mov	r4,r1
  30a1bc:	44 00       	shll	r4
  30a1be:	32 2a       	subc	r2,r2
  30a1c0:	00 08       	clrt	
  30a1c2:	31 ce       	addc	r12,r1
  30a1c4:	32 ae       	addc	r10,r2
  30a1c6:	32 a6       	cmp/hi	r10,r2
  30a1c8:	8d 06       	bt.s	30a1d8 <___strto_int+0x108>
  30a1ca:	e3 00       	mov	#0,r3
  30a1cc:	32 a2       	cmp/hs	r10,r2
  30a1ce:	8f 02       	bf.s	30a1d6 <___strto_int+0x106>
  30a1d0:	31 c2       	cmp/hs	r12,r1
  30a1d2:	8d 02       	bt.s	30a1da <___strto_int+0x10a>
  30a1d4:	23 38       	tst	r3,r3
  30a1d6:	e3 01       	mov	#1,r3
  30a1d8:	23 38       	tst	r3,r3
  30a1da:	89 00       	bt	30a1de <___strto_int+0x10e>
  30a1dc:	e5 03       	mov	#3,r5
  30a1de:	af b5       	bra	30a14c <___strto_int+0x7c>
  30a1e0:	e3 01       	mov	#1,r3
  30a1e2:	ea 01       	mov	#1,r10
  30a1e4:	af 97       	bra	30a116 <___strto_int+0x46>
  30a1e6:	2f a2       	mov.l	r10,@r15
  30a1e8:	8b ab       	bf	30a142 <___strto_int+0x72>
  30a1ea:	af aa       	bra	30a142 <___strto_int+0x72>
  30a1ec:	e6 0a       	mov	#10,r6
  30a1ee:	63 c3       	mov	r12,r3
  30a1f0:	6a 13       	mov	r1,r10
  30a1f2:	31 65       	dmulu.l	r6,r1
  30a1f4:	0d 0a       	sts	mach,r13
  30a1f6:	00 1a       	sts	macl,r0
  30a1f8:	3a 35       	dmulu.l	r3,r10
  30a1fa:	03 1a       	sts	macl,r3
  30a1fc:	00 08       	clrt	
  30a1fe:	33 de       	addc	r13,r3
  30a200:	0a 0a       	sts	mach,r10
  30a202:	ed 00       	mov	#0,r13
  30a204:	3a de       	addc	r13,r10
  30a206:	2a a8       	tst	r10,r10
  30a208:	8d d3       	bt.s	30a1b2 <___strto_int+0xe2>
  30a20a:	2b b8       	tst	r11,r11
  30a20c:	06 27       	mul.l	r2,r6
  30a20e:	02 1a       	sts	macl,r2
  30a210:	0c 17       	mul.l	r1,r12
  30a212:	03 1a       	sts	macl,r3
  30a214:	31 65       	dmulu.l	r6,r1
  30a216:	32 3c       	add	r3,r2
  30a218:	03 0a       	sts	mach,r3
  30a21a:	00 1a       	sts	macl,r0
  30a21c:	33 2c       	add	r2,r3
  30a21e:	af c7       	bra	30a1b0 <___strto_int+0xe0>
  30a220:	eb 01       	mov	#1,r11
  30a222:	2c c8       	tst	r12,r12
  30a224:	8f f2       	bf.s	30a20c <___strto_int+0x13c>
  30a226:	6a 63       	mov	r6,r10
  30a228:	af e3       	bra	30a1f2 <___strto_int+0x122>
  30a22a:	63 23       	mov	r2,r3
  30a22c:	66 f2       	mov.l	@r15,r6
  30a22e:	2e e8       	tst	r14,r14
  30a230:	e4 ff       	mov	#-1,r4
  30a232:	64 4a       	negc	r4,r4
  30a234:	60 93       	mov	r9,r0
  30a236:	ca 01       	xor	#1,r0
  30a238:	6a 43       	mov	r4,r10
  30a23a:	26 68       	tst	r6,r6
  30a23c:	8d 4b       	bt.s	30a2d6 <___strto_int+0x206>
  30a23e:	2a 09       	and	r0,r10
  30a240:	66 93       	mov	r9,r6
  30a242:	26 49       	and	r4,r6
  30a244:	26 68       	tst	r6,r6
  30a246:	8d 03       	bt.s	30a250 <___strto_int+0x180>
  30a248:	27 78       	tst	r7,r7
  30a24a:	8d 02       	bt.s	30a252 <___strto_int+0x182>
  30a24c:	28 88       	tst	r8,r8
  30a24e:	e5 03       	mov	#3,r5
  30a250:	28 88       	tst	r8,r8
  30a252:	e6 ff       	mov	#-1,r6
  30a254:	66 6a       	negc	r6,r6
  30a256:	6b 63       	mov	r6,r11
  30a258:	2b 99       	and	r9,r11
  30a25a:	2b b8       	tst	r11,r11
  30a25c:	8d 04       	bt.s	30a268 <___strto_int+0x198>
  30a25e:	6b 23       	mov	r2,r11
  30a260:	2b 1b       	or	r1,r11
  30a262:	2b b8       	tst	r11,r11
  30a264:	89 00       	bt	30a268 <___strto_int+0x198>
  30a266:	e5 03       	mov	#3,r5
  30a268:	db 32       	mov.l	30a334 <___strto_int+0x264>,r11	! 80000000
  30a26a:	37 b6       	cmp/hi	r11,r7
  30a26c:	8f 02       	bf.s	30a274 <___strto_int+0x1a4>
  30a26e:	2a a8       	tst	r10,r10
  30a270:	89 00       	bt	30a274 <___strto_int+0x1a4>
  30a272:	e5 03       	mov	#3,r5
  30a274:	da 2f       	mov.l	30a334 <___strto_int+0x264>,r10	! 80000000
  30a276:	eb 00       	mov	#0,r11
  30a278:	6c 23       	mov	r2,r12
  30a27a:	6d 13       	mov	r1,r13
  30a27c:	3c a0       	cmp/eq	r10,r12
  30a27e:	8f 01       	bf.s	30a284 <___strto_int+0x1b4>
  30a280:	3c a6       	cmp/hi	r10,r12
  30a282:	3d b6       	cmp/hi	r11,r13
  30a284:	8f 05       	bf.s	30a292 <___strto_int+0x1c2>
  30a286:	00 08       	clrt	
  30a288:	26 09       	and	r0,r6
  30a28a:	26 68       	tst	r6,r6
  30a28c:	8d 01       	bt.s	30a292 <___strto_int+0x1c2>
  30a28e:	00 08       	clrt	
  30a290:	e5 03       	mov	#3,r5
  30a292:	61 1a       	negc	r1,r1
  30a294:	67 7b       	neg	r7,r7
  30a296:	62 2a       	negc	r2,r2
  30a298:	60 53       	mov	r5,r0
  30a29a:	88 03       	cmp/eq	#3,r0
  30a29c:	8f 08       	bf.s	30a2b0 <___strto_int+0x1e0>
  30a29e:	06 29       	movt	r6
  30a2a0:	24 48       	tst	r4,r4
  30a2a2:	8d 05       	bt.s	30a2b0 <___strto_int+0x1e0>
  30a2a4:	29 98       	tst	r9,r9
  30a2a6:	8f 03       	bf.s	30a2b0 <___strto_int+0x1e0>
  30a2a8:	e7 ff       	mov	#-1,r7
  30a2aa:	6a f2       	mov.l	@r15,r10
  30a2ac:	d7 22       	mov.l	30a338 <___strto_int+0x268>,r7	! 7fffffff
  30a2ae:	37 ac       	add	r10,r7
  30a2b0:	28 88       	tst	r8,r8
  30a2b2:	8d 1f       	bt.s	30a2f4 <___strto_int+0x224>
  30a2b4:	26 68       	tst	r6,r6
  30a2b6:	8d 1d       	bt.s	30a2f4 <___strto_int+0x224>
  30a2b8:	29 98       	tst	r9,r9
  30a2ba:	e2 ff       	mov	#-1,r2
  30a2bc:	8f 07       	bf.s	30a2ce <___strto_int+0x1fe>
  30a2be:	e1 ff       	mov	#-1,r1
  30a2c0:	61 f2       	mov.l	@r15,r1
  30a2c2:	e4 ff       	mov	#-1,r4
  30a2c4:	d6 1c       	mov.l	30a338 <___strto_int+0x268>,r6	! 7fffffff
  30a2c6:	00 08       	clrt	
  30a2c8:	e2 00       	mov	#0,r2
  30a2ca:	31 4e       	addc	r4,r1
  30a2cc:	32 6e       	addc	r6,r2
  30a2ce:	2e e8       	tst	r14,r14
  30a2d0:	8b 13       	bf	30a2fa <___strto_int+0x22a>
  30a2d2:	a0 17       	bra	30a304 <___strto_int+0x234>
  30a2d4:	28 22       	mov.l	r2,@r8
  30a2d6:	2a a8       	tst	r10,r10
  30a2d8:	8d 04       	bt.s	30a2e4 <___strto_int+0x214>
  30a2da:	28 88       	tst	r8,r8
  30a2dc:	47 11       	cmp/pz	r7
  30a2de:	8d 01       	bt.s	30a2e4 <___strto_int+0x214>
  30a2e0:	28 88       	tst	r8,r8
  30a2e2:	e5 03       	mov	#3,r5
  30a2e4:	8d d8       	bt.s	30a298 <___strto_int+0x1c8>
  30a2e6:	20 08       	tst	r0,r0
  30a2e8:	8d d6       	bt.s	30a298 <___strto_int+0x1c8>
  30a2ea:	42 11       	cmp/pz	r2
  30a2ec:	8d d5       	bt.s	30a29a <___strto_int+0x1ca>
  30a2ee:	60 53       	mov	r5,r0
  30a2f0:	af d2       	bra	30a298 <___strto_int+0x1c8>
  30a2f2:	e5 03       	mov	#3,r5
  30a2f4:	2e e8       	tst	r14,r14
  30a2f6:	8d 02       	bt.s	30a2fe <___strto_int+0x22e>
  30a2f8:	28 88       	tst	r8,r8
  30a2fa:	2e 72       	mov.l	r7,@r14
  30a2fc:	28 88       	tst	r8,r8
  30a2fe:	8d 03       	bt.s	30a308 <___strto_int+0x238>
  30a300:	5d f1       	mov.l	@(4,r15),r13
  30a302:	28 22       	mov.l	r2,@r8
  30a304:	18 11       	mov.l	r1,@(4,r8)
  30a306:	5d f1       	mov.l	@(4,r15),r13
  30a308:	2d d8       	tst	r13,r13
  30a30a:	8d 03       	bt.s	30a314 <___strto_int+0x244>
  30a30c:	23 38       	tst	r3,r3
  30a30e:	8d 01       	bt.s	30a314 <___strto_int+0x244>
  30a310:	51 f3       	mov.l	@(12,r15),r1
  30a312:	2d 12       	mov.l	r1,@r13
  30a314:	60 53       	mov	r5,r0
  30a316:	7f 10       	add	#16,r15
  30a318:	6e f6       	mov.l	@r15+,r14
  30a31a:	6d f6       	mov.l	@r15+,r13
  30a31c:	6c f6       	mov.l	@r15+,r12
  30a31e:	6b f6       	mov.l	@r15+,r11
  30a320:	6a f6       	mov.l	@r15+,r10
  30a322:	69 f6       	mov.l	@r15+,r9
  30a324:	00 0b       	rts	
  30a326:	68 f6       	mov.l	@r15+,r8
  30a328:	8b 01       	bf	30a32e <___strto_int+0x25e>
  30a32a:	71 01       	add	#1,r1
  30a32c:	e6 08       	mov	#8,r6
  30a32e:	af 09       	bra	30a144 <___strto_int+0x74>
  30a330:	1f 12       	mov.l	r1,@(8,r15)
  30a332:	00 09       	nop	
  30a334:	80 00       	mov.b	r0,@(0,r0)
  30a336:	00 00       	.word 0x0000
  30a338:	7f ff       	add	#-1,r15
  30a33a:	ff ff       	.word 0xffff

0030a33c <_memrchr>:
  30a33c:	60 63       	mov	r6,r0
  30a33e:	70 ff       	add	#-1,r0
  30a340:	e1 ff       	mov	#-1,r1
  30a342:	30 13       	cmp/ge	r1,r0
  30a344:	8d 01       	bt.s	30a34a <_memrchr+0xe>
  30a346:	76 01       	add	#1,r6
  30a348:	e6 01       	mov	#1,r6
  30a34a:	46 10       	dt	r6
  30a34c:	8f 03       	bf.s	30a356 <_memrchr+0x1a>
  30a34e:	61 43       	mov	r4,r1
  30a350:	e1 00       	mov	#0,r1
  30a352:	00 0b       	rts	
  30a354:	60 13       	mov	r1,r0
  30a356:	02 4c       	mov.b	@(r0,r4),r2
  30a358:	32 50       	cmp/eq	r5,r2
  30a35a:	8d fa       	bt.s	30a352 <_memrchr+0x16>
  30a35c:	31 0c       	add	r0,r1
  30a35e:	af f4       	bra	30a34a <_memrchr+0xe>
  30a360:	70 ff       	add	#-1,r0
	...

0030a364 <_strerror>:
  30a364:	e1 17       	mov	#23,r1
  30a366:	34 16       	cmp/hi	r1,r4
  30a368:	d1 03       	mov.l	30a378 <_strerror+0x14>,r1	! 30c060
  30a36a:	8d 03       	bt.s	30a374 <_strerror+0x10>
  30a36c:	44 08       	shll2	r4
  30a36e:	d1 03       	mov.l	30a37c <_strerror+0x18>,r1	! 30c288 <_errno_strings>
  30a370:	60 43       	mov	r4,r0
  30a372:	01 1e       	mov.l	@(r0,r1),r1
  30a374:	00 0b       	rts	
  30a376:	60 13       	mov	r1,r0
  30a378:	00 30       	.word 0x0030
  30a37a:	c0 60       	mov.b	r0,@(96,gbr)
  30a37c:	00 30       	.word 0x0030
  30a37e:	c2 88       	mov.l	r0,@(544,gbr)

0030a380 <_memchr>:
  30a380:	61 43       	mov	r4,r1
  30a382:	65 5e       	exts.b	r5,r5
  30a384:	e2 40       	mov	#64,r2
  30a386:	32 66       	cmp/hi	r6,r2
  30a388:	89 31       	bt	30a3ee <.naive>
  30a38a:	63 5c       	extu.b	r5,r3
  30a38c:	62 38       	swap.b	r3,r2
  30a38e:	22 3b       	or	r3,r2
  30a390:	63 29       	swap.w	r2,r3
  30a392:	22 3b       	or	r3,r2
  30a394:	d0 1e       	mov.l	30a410 <.___cpucap>,r0	! 8101774 <___cpucap>
  30a396:	60 02       	mov.l	@r0,r0
  30a398:	c8 01       	tst	#1,r0
  30a39a:	8b 17       	bf	30a3cc <.sh4aldsp>

0030a39c <.sh3>:
  30a39c:	60 14       	mov.b	@r1+,r0
  30a39e:	35 00       	cmp/eq	r0,r5
  30a3a0:	89 31       	bt	30a406 <.end>
  30a3a2:	60 14       	mov.b	@r1+,r0
  30a3a4:	35 00       	cmp/eq	r0,r5
  30a3a6:	89 2e       	bt	30a406 <.end>
  30a3a8:	60 14       	mov.b	@r1+,r0
  30a3aa:	35 00       	cmp/eq	r0,r5
  30a3ac:	89 2b       	bt	30a406 <.end>
  30a3ae:	41 09       	shlr2	r1
  30a3b0:	41 08       	shll2	r1
  30a3b2:	36 4c       	add	r4,r6
  30a3b4:	36 18       	sub	r1,r6
  30a3b6:	67 63       	mov	r6,r7
  30a3b8:	47 09       	shlr2	r7
  30a3ba:	e3 03       	mov	#3,r3
  30a3bc:	26 39       	and	r3,r6
  30a3be:	60 16       	mov.l	@r1+,r0
  30a3c0:	22 0c       	cmp/str	r0,r2
  30a3c2:	89 1d       	bt	30a400 <.found>
  30a3c4:	47 10       	dt	r7
  30a3c6:	8b fa       	bf	30a3be <.sh3+0x22>
  30a3c8:	a0 11       	bra	30a3ee <.naive>
  30a3ca:	00 09       	nop	

0030a3cc <.sh4aldsp>:
  30a3cc:	41 e9       	movua.l	@r1+,r0
  30a3ce:	22 0c       	cmp/str	r0,r2
  30a3d0:	89 16       	bt	30a400 <.found>
  30a3d2:	41 09       	shlr2	r1
  30a3d4:	41 08       	shll2	r1
  30a3d6:	36 4c       	add	r4,r6
  30a3d8:	36 18       	sub	r1,r6
  30a3da:	67 63       	mov	r6,r7
  30a3dc:	47 09       	shlr2	r7
  30a3de:	8c 03       	ldrs	30a3e8 <.sh4aldsp+0x1c>	! 6016
  30a3e0:	8e 04       	ldre	30a3ec <.sh4aldsp+0x20>	! 8908
  30a3e2:	47 34       	ldrc	r7
  30a3e4:	e3 03       	mov	#3,r3
  30a3e6:	26 39       	and	r3,r6
  30a3e8:	60 16       	mov.l	@r1+,r0
  30a3ea:	22 0c       	cmp/str	r0,r2
  30a3ec:	89 08       	bt	30a400 <.found>

0030a3ee <.naive>:
  30a3ee:	26 68       	tst	r6,r6
  30a3f0:	89 04       	bt	30a3fc <.none>
  30a3f2:	60 14       	mov.b	@r1+,r0
  30a3f4:	35 00       	cmp/eq	r0,r5
  30a3f6:	89 06       	bt	30a406 <.end>
  30a3f8:	46 10       	dt	r6
  30a3fa:	8b fa       	bf	30a3f2 <.naive+0x4>

0030a3fc <.none>:
  30a3fc:	00 0b       	rts	
  30a3fe:	e0 00       	mov	#0,r0

0030a400 <.found>:
  30a400:	71 fc       	add	#-4,r1
  30a402:	af f6       	bra	30a3f2 <.naive+0x4>
  30a404:	e6 04       	mov	#4,r6

0030a406 <.end>:
  30a406:	60 13       	mov	r1,r0
  30a408:	00 0b       	rts	
  30a40a:	70 ff       	add	#-1,r0
  30a40c:	00 09       	nop	
  30a40e:	00 09       	nop	

0030a410 <.___cpucap>:
  30a410:	08 10       	.word 0x0810
  30a412:	17 74       	mov.l	r7,@(16,r7)
  30a414:	00 09       	nop	
  30a416:	00 09       	nop	
  30a418:	00 09       	nop	
  30a41a:	00 09       	nop	
  30a41c:	00 09       	nop	
  30a41e:	00 09       	nop	

0030a420 <_signal>:
  30a420:	e1 0f       	mov	#15,r1
  30a422:	34 16       	cmp/hi	r1,r4
  30a424:	8d 05       	bt.s	30a432 <_signal+0x12>
  30a426:	e0 ff       	mov	#-1,r0
  30a428:	d1 03       	mov.l	30a438 <_signal+0x18>,r1	! 810177c <___signal_handlers>
  30a42a:	44 08       	shll2	r4
  30a42c:	31 4c       	add	r4,r1
  30a42e:	60 12       	mov.l	@r1,r0
  30a430:	21 52       	mov.l	r5,@r1
  30a432:	00 0b       	rts	
  30a434:	00 09       	nop	
  30a436:	00 09       	nop	
  30a438:	08 10       	.word 0x0810
  30a43a:	17 7c       	mov.l	r7,@(48,r7)

0030a43c <_fflush>:
  30a43c:	2f 86       	mov.l	r8,@-r15
  30a43e:	24 48       	tst	r4,r4
  30a440:	2f 96       	mov.l	r9,@-r15
  30a442:	68 43       	mov	r4,r8
  30a444:	8f 09       	bf.s	30a45a <_fflush+0x1e>
  30a446:	4f 22       	sts.l	pr,@-r15
  30a448:	d1 1b       	mov.l	30a4b8 <_fflush+0x7c>,r1	! 8101778 <_errno>
  30a44a:	e2 06       	mov	#6,r2
  30a44c:	e9 ff       	mov	#-1,r9
  30a44e:	21 22       	mov.l	r2,@r1
  30a450:	60 93       	mov	r9,r0
  30a452:	4f 26       	lds.l	@r15+,pr
  30a454:	69 f6       	mov.l	@r15+,r9
  30a456:	00 0b       	rts	
  30a458:	68 f6       	mov.l	@r15+,r8
  30a45a:	55 42       	mov.l	@(8,r4),r5
  30a45c:	25 58       	tst	r5,r5
  30a45e:	8d f7       	bt.s	30a450 <_fflush+0x14>
  30a460:	e9 00       	mov	#0,r9
  30a462:	85 4e       	mov.w	@(28,r4),r0
  30a464:	60 08       	swap.b	r0,r0
  30a466:	c8 10       	tst	#16,r0
  30a468:	8f 1b       	bf.s	30a4a2 <_fflush+0x66>
  30a46a:	56 43       	mov.l	@(12,r4),r6
  30a46c:	51 44       	mov.l	@(16,r4),r1
  30a46e:	31 66       	cmp/hi	r6,r1
  30a470:	8b 08       	bf	30a484 <_fflush+0x48>
  30a472:	52 41       	mov.l	@(4,r4),r2
  30a474:	d0 11       	mov.l	30a4bc <_fflush+0x80>,r0	! 30a65c <_lseek>
  30a476:	36 2c       	add	r2,r6
  30a478:	65 63       	mov	r6,r5
  30a47a:	35 18       	sub	r1,r5
  30a47c:	14 51       	mov.l	r5,@(4,r4)
  30a47e:	e6 03       	mov	#3,r6
  30a480:	40 0b       	jsr	@r0
  30a482:	64 42       	mov.l	@r4,r4
  30a484:	e1 00       	mov	#0,r1
  30a486:	18 13       	mov.l	r1,@(12,r8)
  30a488:	18 14       	mov.l	r1,@(16,r8)
  30a48a:	18 16       	mov.l	r1,@(24,r8)
  30a48c:	d1 0c       	mov.l	30a4c0 <_fflush+0x84>,r1	! c000
  30a48e:	85 8e       	mov.w	@(28,r8),r0
  30a490:	20 19       	and	r1,r0
  30a492:	d1 0c       	mov.l	30a4c4 <_fflush+0x88>,r1	! 8000
  30a494:	30 10       	cmp/eq	r1,r0
  30a496:	8b db       	bf	30a450 <_fflush+0x14>
  30a498:	d1 0b       	mov.l	30a4c8 <_fflush+0x8c>,r1	! 3093c8 <___fp_remove_buffer>
  30a49a:	41 0b       	jsr	@r1
  30a49c:	64 83       	mov	r8,r4
  30a49e:	af d8       	bra	30a452 <_fflush+0x16>
  30a4a0:	60 93       	mov	r9,r0
  30a4a2:	26 68       	tst	r6,r6
  30a4a4:	8d ee       	bt.s	30a484 <_fflush+0x48>
  30a4a6:	e9 00       	mov	#0,r9
  30a4a8:	d0 08       	mov.l	30a4cc <_fflush+0x90>,r0	! 3096d8 <___fp_write>
  30a4aa:	40 0b       	jsr	@r0
  30a4ac:	00 09       	nop	
  30a4ae:	51 83       	mov.l	@(12,r8),r1
  30a4b0:	31 00       	cmp/eq	r0,r1
  30a4b2:	39 9a       	subc	r9,r9
  30a4b4:	af e6       	bra	30a484 <_fflush+0x48>
  30a4b6:	69 97       	not	r9,r9
  30a4b8:	08 10       	.word 0x0810
  30a4ba:	17 78       	mov.l	r7,@(32,r7)
  30a4bc:	00 30       	.word 0x0030
  30a4be:	a6 5c       	bra	30b17a <.shared+0x16>
  30a4c0:	00 00       	.word 0x0000
  30a4c2:	c0 00       	mov.b	r0,@(0,gbr)
  30a4c4:	00 00       	.word 0x0000
  30a4c6:	80 00       	mov.b	r0,@(0,r0)
  30a4c8:	00 30       	.word 0x0030
  30a4ca:	93 c8       	mov.w	30a65e <_lseek+0x2>,r3	! e102
  30a4cc:	00 30       	.word 0x0030
  30a4ce:	96 d8       	mov.w	30a682 <_lseek+0x26>,r6	! 400b

0030a4d0 <_fseek>:
  30a4d0:	2f 86       	mov.l	r8,@-r15
  30a4d2:	68 43       	mov	r4,r8
  30a4d4:	2f 96       	mov.l	r9,@-r15
  30a4d6:	69 53       	mov	r5,r9
  30a4d8:	d0 0d       	mov.l	30a510 <_fseek+0x40>,r0	! 30a43c <_fflush>
  30a4da:	2f a6       	mov.l	r10,@-r15
  30a4dc:	4f 22       	sts.l	pr,@-r15
  30a4de:	40 0b       	jsr	@r0
  30a4e0:	6a 63       	mov	r6,r10
  30a4e2:	88 ff       	cmp/eq	#-1,r0
  30a4e4:	8f 06       	bf.s	30a4f4 <_fseek+0x24>
  30a4e6:	66 a3       	mov	r10,r6
  30a4e8:	e0 ff       	mov	#-1,r0
  30a4ea:	4f 26       	lds.l	@r15+,pr
  30a4ec:	6a f6       	mov.l	@r15+,r10
  30a4ee:	69 f6       	mov.l	@r15+,r9
  30a4f0:	00 0b       	rts	
  30a4f2:	68 f6       	mov.l	@r15+,r8
  30a4f4:	d0 07       	mov.l	30a514 <_fseek+0x44>,r0	! 30a65c <_lseek>
  30a4f6:	64 82       	mov.l	@r8,r4
  30a4f8:	40 0b       	jsr	@r0
  30a4fa:	65 93       	mov	r9,r5
  30a4fc:	40 11       	cmp/pz	r0
  30a4fe:	8b f3       	bf	30a4e8 <_fseek+0x18>
  30a500:	91 05       	mov.w	30a50e <_fseek+0x3e>,r1	! ff7f
  30a502:	18 01       	mov.l	r0,@(4,r8)
  30a504:	85 8e       	mov.w	@(28,r8),r0
  30a506:	20 19       	and	r1,r0
  30a508:	81 8e       	mov.w	r0,@(28,r8)
  30a50a:	af ee       	bra	30a4ea <_fseek+0x1a>
  30a50c:	e0 00       	mov	#0,r0
  30a50e:	ff 7f       	.word 0xff7f
  30a510:	00 30       	.word 0x0030
  30a512:	a4 3c       	bra	30ad8e <___udivdi3+0x1b6>
  30a514:	00 30       	.word 0x0030
  30a516:	a6 5c       	bra	30b1d2 <.id_etmux>

0030a518 <_close>:
  30a518:	d0 0e       	mov.l	30a554 <_close+0x3c>,r0	! 30a560 <_fs_get_descriptor>
  30a51a:	2f 86       	mov.l	r8,@-r15
  30a51c:	2f 96       	mov.l	r9,@-r15
  30a51e:	4f 22       	sts.l	pr,@-r15
  30a520:	40 0b       	jsr	@r0
  30a522:	69 43       	mov	r4,r9
  30a524:	20 08       	tst	r0,r0
  30a526:	8f 08       	bf.s	30a53a <_close+0x22>
  30a528:	e2 0d       	mov	#13,r2
  30a52a:	d1 0b       	mov.l	30a558 <_close+0x40>,r1	! 8101778 <_errno>
  30a52c:	e8 ff       	mov	#-1,r8
  30a52e:	21 22       	mov.l	r2,@r1
  30a530:	60 83       	mov	r8,r0
  30a532:	4f 26       	lds.l	@r15+,pr
  30a534:	69 f6       	mov.l	@r15+,r9
  30a536:	00 0b       	rts	
  30a538:	68 f6       	mov.l	@r15+,r8
  30a53a:	61 02       	mov.l	@r0,r1
  30a53c:	51 13       	mov.l	@(12,r1),r1
  30a53e:	21 18       	tst	r1,r1
  30a540:	8d 03       	bt.s	30a54a <_close+0x32>
  30a542:	e8 00       	mov	#0,r8
  30a544:	41 0b       	jsr	@r1
  30a546:	54 01       	mov.l	@(4,r0),r4
  30a548:	68 03       	mov	r0,r8
  30a54a:	d1 04       	mov.l	30a55c <_close+0x44>,r1	! 30a5bc <_fs_free_descriptor>
  30a54c:	41 0b       	jsr	@r1
  30a54e:	64 93       	mov	r9,r4
  30a550:	af ef       	bra	30a532 <_close+0x1a>
  30a552:	60 83       	mov	r8,r0
  30a554:	00 30       	.word 0x0030
  30a556:	a5 60       	bra	30b01a <___umoddi3+0x236>
  30a558:	08 10       	.word 0x0810
  30a55a:	17 78       	mov.l	r7,@(32,r7)
  30a55c:	00 30       	.word 0x0030
  30a55e:	a5 bc       	bra	30b0da <___udiv_qrnnd_16+0x3a>

0030a560 <_fs_get_descriptor>:
  30a560:	e1 1f       	mov	#31,r1
  30a562:	34 16       	cmp/hi	r1,r4
  30a564:	8d 08       	bt.s	30a578 <_fs_get_descriptor+0x18>
  30a566:	e0 00       	mov	#0,r0
  30a568:	d1 04       	mov.l	30a57c <_fs_get_descriptor+0x1c>,r1	! 81017cc <_fdtable>
  30a56a:	44 08       	shll2	r4
  30a56c:	34 4c       	add	r4,r4
  30a56e:	31 4c       	add	r4,r1
  30a570:	60 12       	mov.l	@r1,r0
  30a572:	20 08       	tst	r0,r0
  30a574:	89 00       	bt	30a578 <_fs_get_descriptor+0x18>
  30a576:	60 13       	mov	r1,r0
  30a578:	00 0b       	rts	
  30a57a:	00 09       	nop	
  30a57c:	08 10       	.word 0x0810
  30a57e:	17 cc       	mov.l	r12,@(48,r7)

0030a580 <_fs_create_descriptor>:
  30a580:	61 42       	mov.l	@r4,r1
  30a582:	21 18       	tst	r1,r1
  30a584:	8d 15       	bt.s	30a5b2 <_fs_create_descriptor+0x32>
  30a586:	e0 ff       	mov	#-1,r0
  30a588:	d1 0b       	mov.l	30a5b8 <_fs_create_descriptor+0x38>,r1	! 81017cc <_fdtable>
  30a58a:	e0 03       	mov	#3,r0
  30a58c:	e2 1d       	mov	#29,r2
  30a58e:	63 13       	mov	r1,r3
  30a590:	57 16       	mov.l	@(24,r1),r7
  30a592:	27 78       	tst	r7,r7
  30a594:	8b 08       	bf	30a5a8 <_fs_create_descriptor+0x28>
  30a596:	61 03       	mov	r0,r1
  30a598:	41 08       	shll2	r1
  30a59a:	66 42       	mov.l	@r4,r6
  30a59c:	31 1c       	add	r1,r1
  30a59e:	57 41       	mov.l	@(4,r4),r7
  30a5a0:	33 1c       	add	r1,r3
  30a5a2:	23 62       	mov.l	r6,@r3
  30a5a4:	00 0b       	rts	
  30a5a6:	13 71       	mov.l	r7,@(4,r3)
  30a5a8:	42 10       	dt	r2
  30a5aa:	70 01       	add	#1,r0
  30a5ac:	8f f0       	bf.s	30a590 <_fs_create_descriptor+0x10>
  30a5ae:	71 08       	add	#8,r1
  30a5b0:	e0 ff       	mov	#-1,r0
  30a5b2:	00 0b       	rts	
  30a5b4:	00 09       	nop	
  30a5b6:	00 09       	nop	
  30a5b8:	08 10       	.word 0x0810
  30a5ba:	17 cc       	mov.l	r12,@(48,r7)

0030a5bc <_fs_free_descriptor>:
  30a5bc:	e1 1f       	mov	#31,r1
  30a5be:	34 16       	cmp/hi	r1,r4
  30a5c0:	8d 06       	bt.s	30a5d0 <_fs_free_descriptor+0x14>
  30a5c2:	44 08       	shll2	r4
  30a5c4:	d1 03       	mov.l	30a5d4 <_fs_free_descriptor+0x18>,r1	! 81017cc <_fdtable>
  30a5c6:	34 4c       	add	r4,r4
  30a5c8:	31 4c       	add	r4,r1
  30a5ca:	e2 00       	mov	#0,r2
  30a5cc:	21 22       	mov.l	r2,@r1
  30a5ce:	11 21       	mov.l	r2,@(4,r1)
  30a5d0:	00 0b       	rts	
  30a5d2:	00 09       	nop	
  30a5d4:	08 10       	.word 0x0810
  30a5d6:	17 cc       	mov.l	r12,@(48,r7)

0030a5d8 <_open_generic>:
  30a5d8:	4f 22       	sts.l	pr,@-r15
  30a5da:	24 48       	tst	r4,r4
  30a5dc:	7f f8       	add	#-8,r15
  30a5de:	8f 08       	bf.s	30a5f2 <_open_generic+0x1a>
  30a5e0:	60 63       	mov	r6,r0
  30a5e2:	d1 14       	mov.l	30a634 <_open_generic+0x5c>,r1	! 8101778 <_errno>
  30a5e4:	e2 06       	mov	#6,r2
  30a5e6:	21 22       	mov.l	r2,@r1
  30a5e8:	e0 ff       	mov	#-1,r0
  30a5ea:	7f 08       	add	#8,r15
  30a5ec:	4f 26       	lds.l	@r15+,pr
  30a5ee:	00 0b       	rts	
  30a5f0:	00 09       	nop	
  30a5f2:	2f 42       	mov.l	r4,@r15
  30a5f4:	46 11       	cmp/pz	r6
  30a5f6:	8f 17       	bf.s	30a628 <_open_generic+0x50>
  30a5f8:	1f 51       	mov.l	r5,@(4,r15)
  30a5fa:	e1 1f       	mov	#31,r1
  30a5fc:	36 17       	cmp/gt	r1,r6
  30a5fe:	8f 03       	bf.s	30a608 <_open_generic+0x30>
  30a600:	e2 0d       	mov	#13,r2
  30a602:	d1 0c       	mov.l	30a634 <_open_generic+0x5c>,r1	! 8101778 <_errno>
  30a604:	af f0       	bra	30a5e8 <_open_generic+0x10>
  30a606:	21 22       	mov.l	r2,@r1
  30a608:	d2 0b       	mov.l	30a638 <_open_generic+0x60>,r2	! 81017cc <_fdtable>
  30a60a:	61 63       	mov	r6,r1
  30a60c:	41 08       	shll2	r1
  30a60e:	31 1c       	add	r1,r1
  30a610:	31 2c       	add	r2,r1
  30a612:	62 12       	mov.l	@r1,r2
  30a614:	22 28       	tst	r2,r2
  30a616:	8d 03       	bt.s	30a620 <_open_generic+0x48>
  30a618:	53 f1       	mov.l	@(4,r15),r3
  30a61a:	d1 06       	mov.l	30a634 <_open_generic+0x5c>,r1	! 8101778 <_errno>
  30a61c:	af e3       	bra	30a5e6 <_open_generic+0xe>
  30a61e:	e2 07       	mov	#7,r2
  30a620:	62 f2       	mov.l	@r15,r2
  30a622:	21 22       	mov.l	r2,@r1
  30a624:	af e1       	bra	30a5ea <_open_generic+0x12>
  30a626:	11 31       	mov.l	r3,@(4,r1)
  30a628:	d0 04       	mov.l	30a63c <_open_generic+0x64>,r0	! 30a580 <_fs_create_descriptor>
  30a62a:	40 0b       	jsr	@r0
  30a62c:	64 f3       	mov	r15,r4
  30a62e:	af dc       	bra	30a5ea <_open_generic+0x12>
  30a630:	00 09       	nop	
  30a632:	00 09       	nop	
  30a634:	08 10       	.word 0x0810
  30a636:	17 78       	mov.l	r7,@(32,r7)
  30a638:	08 10       	.word 0x0810
  30a63a:	17 cc       	mov.l	r12,@(48,r7)
  30a63c:	00 30       	.word 0x0030
  30a63e:	a5 80       	bra	30b142 <.jump_over+0xa>

0030a640 <_init_standard_streams>:
  30a640:	d1 04       	mov.l	30a654 <_init_standard_streams+0x14>,r1	! 81017cc <_fdtable>
  30a642:	e2 00       	mov	#0,r2
  30a644:	d3 04       	mov.l	30a658 <_init_standard_streams+0x18>,r3	! 81017bc <_devnull>
  30a646:	11 21       	mov.l	r2,@(4,r1)
  30a648:	21 32       	mov.l	r3,@r1
  30a64a:	11 32       	mov.l	r3,@(8,r1)
  30a64c:	11 23       	mov.l	r2,@(12,r1)
  30a64e:	11 34       	mov.l	r3,@(16,r1)
  30a650:	00 0b       	rts	
  30a652:	11 25       	mov.l	r2,@(20,r1)
  30a654:	08 10       	.word 0x0810
  30a656:	17 cc       	mov.l	r12,@(48,r7)
  30a658:	08 10       	.word 0x0810
  30a65a:	17 bc       	mov.l	r11,@(48,r7)

0030a65c <_lseek>:
  30a65c:	2f 86       	mov.l	r8,@-r15
  30a65e:	e1 02       	mov	#2,r1
  30a660:	2f 96       	mov.l	r9,@-r15
  30a662:	62 63       	mov	r6,r2
  30a664:	72 ff       	add	#-1,r2
  30a666:	69 53       	mov	r5,r9
  30a668:	4f 22       	sts.l	pr,@-r15
  30a66a:	32 16       	cmp/hi	r1,r2
  30a66c:	8f 08       	bf.s	30a680 <_lseek+0x24>
  30a66e:	68 63       	mov	r6,r8
  30a670:	d1 0e       	mov.l	30a6ac <_lseek+0x50>,r1	! 8101778 <_errno>
  30a672:	e2 06       	mov	#6,r2
  30a674:	21 22       	mov.l	r2,@r1
  30a676:	e0 ff       	mov	#-1,r0
  30a678:	4f 26       	lds.l	@r15+,pr
  30a67a:	69 f6       	mov.l	@r15+,r9
  30a67c:	00 0b       	rts	
  30a67e:	68 f6       	mov.l	@r15+,r8
  30a680:	d0 0b       	mov.l	30a6b0 <_lseek+0x54>,r0	! 30a560 <_fs_get_descriptor>
  30a682:	40 0b       	jsr	@r0
  30a684:	00 09       	nop	
  30a686:	20 08       	tst	r0,r0
  30a688:	8f 03       	bf.s	30a692 <_lseek+0x36>
  30a68a:	e2 0d       	mov	#13,r2
  30a68c:	d1 07       	mov.l	30a6ac <_lseek+0x50>,r1	! 8101778 <_errno>
  30a68e:	af f2       	bra	30a676 <_lseek+0x1a>
  30a690:	21 22       	mov.l	r2,@r1
  30a692:	61 02       	mov.l	@r0,r1
  30a694:	51 12       	mov.l	@(8,r1),r1
  30a696:	21 18       	tst	r1,r1
  30a698:	89 06       	bt	30a6a8 <_lseek+0x4c>
  30a69a:	54 01       	mov.l	@(4,r0),r4
  30a69c:	66 83       	mov	r8,r6
  30a69e:	65 93       	mov	r9,r5
  30a6a0:	4f 26       	lds.l	@r15+,pr
  30a6a2:	69 f6       	mov.l	@r15+,r9
  30a6a4:	41 2b       	jmp	@r1
  30a6a6:	68 f6       	mov.l	@r15+,r8
  30a6a8:	af e6       	bra	30a678 <_lseek+0x1c>
  30a6aa:	e0 00       	mov	#0,r0
  30a6ac:	08 10       	.word 0x0810
  30a6ae:	17 78       	mov.l	r7,@(32,r7)
  30a6b0:	00 30       	.word 0x0030
  30a6b2:	a5 60       	bra	30b176 <.shared+0x12>

0030a6b4 <_read>:
  30a6b4:	d0 0e       	mov.l	30a6f0 <_read+0x3c>,r0	! 30a560 <_fs_get_descriptor>
  30a6b6:	2f 86       	mov.l	r8,@-r15
  30a6b8:	68 53       	mov	r5,r8
  30a6ba:	2f 96       	mov.l	r9,@-r15
  30a6bc:	4f 22       	sts.l	pr,@-r15
  30a6be:	40 0b       	jsr	@r0
  30a6c0:	69 63       	mov	r6,r9
  30a6c2:	20 08       	tst	r0,r0
  30a6c4:	8f 07       	bf.s	30a6d6 <_read+0x22>
  30a6c6:	e2 0d       	mov	#13,r2
  30a6c8:	d1 0a       	mov.l	30a6f4 <_read+0x40>,r1	! 8101778 <_errno>
  30a6ca:	e0 ff       	mov	#-1,r0
  30a6cc:	21 22       	mov.l	r2,@r1
  30a6ce:	4f 26       	lds.l	@r15+,pr
  30a6d0:	69 f6       	mov.l	@r15+,r9
  30a6d2:	00 0b       	rts	
  30a6d4:	68 f6       	mov.l	@r15+,r8
  30a6d6:	61 02       	mov.l	@r0,r1
  30a6d8:	61 12       	mov.l	@r1,r1
  30a6da:	21 18       	tst	r1,r1
  30a6dc:	89 06       	bt	30a6ec <_read+0x38>
  30a6de:	54 01       	mov.l	@(4,r0),r4
  30a6e0:	66 93       	mov	r9,r6
  30a6e2:	65 83       	mov	r8,r5
  30a6e4:	4f 26       	lds.l	@r15+,pr
  30a6e6:	69 f6       	mov.l	@r15+,r9
  30a6e8:	41 2b       	jmp	@r1
  30a6ea:	68 f6       	mov.l	@r15+,r8
  30a6ec:	af ef       	bra	30a6ce <_read+0x1a>
  30a6ee:	e0 00       	mov	#0,r0
  30a6f0:	00 30       	.word 0x0030
  30a6f2:	a5 60       	bra	30b1b6 <.gint_inth_callback+0x2>
  30a6f4:	08 10       	.word 0x0810
  30a6f6:	17 78       	mov.l	r7,@(32,r7)

0030a6f8 <_write>:
  30a6f8:	d0 0e       	mov.l	30a734 <_write+0x3c>,r0	! 30a560 <_fs_get_descriptor>
  30a6fa:	2f 86       	mov.l	r8,@-r15
  30a6fc:	68 63       	mov	r6,r8
  30a6fe:	2f 96       	mov.l	r9,@-r15
  30a700:	4f 22       	sts.l	pr,@-r15
  30a702:	40 0b       	jsr	@r0
  30a704:	69 53       	mov	r5,r9
  30a706:	20 08       	tst	r0,r0
  30a708:	8f 07       	bf.s	30a71a <_write+0x22>
  30a70a:	e2 0d       	mov	#13,r2
  30a70c:	d1 0a       	mov.l	30a738 <_write+0x40>,r1	! 8101778 <_errno>
  30a70e:	e0 ff       	mov	#-1,r0
  30a710:	21 22       	mov.l	r2,@r1
  30a712:	4f 26       	lds.l	@r15+,pr
  30a714:	69 f6       	mov.l	@r15+,r9
  30a716:	00 0b       	rts	
  30a718:	68 f6       	mov.l	@r15+,r8
  30a71a:	61 02       	mov.l	@r0,r1
  30a71c:	51 11       	mov.l	@(4,r1),r1
  30a71e:	21 18       	tst	r1,r1
  30a720:	89 06       	bt	30a730 <_write+0x38>
  30a722:	54 01       	mov.l	@(4,r0),r4
  30a724:	66 83       	mov	r8,r6
  30a726:	65 93       	mov	r9,r5
  30a728:	4f 26       	lds.l	@r15+,pr
  30a72a:	69 f6       	mov.l	@r15+,r9
  30a72c:	41 2b       	jmp	@r1
  30a72e:	68 f6       	mov.l	@r15+,r8
  30a730:	af ef       	bra	30a712 <_write+0x1a>
  30a732:	60 83       	mov	r8,r0
  30a734:	00 30       	.word 0x0030
  30a736:	a5 60       	bra	30b1fa <.shared1+0x14>
  30a738:	08 10       	.word 0x0810
  30a73a:	17 78       	mov.l	r7,@(32,r7)

0030a73c <___movmem>:
  30a73c:	4f 22       	sts.l	pr,@-r15
  30a73e:	46 08       	shll2	r6
  30a740:	b0 1d       	bsr	30a77e <___movmemSI52+0x2>
  30a742:	50 5c       	mov.l	@(48,r5),r0
  30a744:	50 5f       	mov.l	@(60,r5),r0
  30a746:	76 c0       	add	#-64,r6
  30a748:	14 0f       	mov.l	r0,@(60,r4)
  30a74a:	26 68       	tst	r6,r6
  30a74c:	50 5e       	mov.l	@(56,r5),r0
  30a74e:	89 09       	bt	30a764 <___movmem+0x28>
  30a750:	14 0e       	mov.l	r0,@(56,r4)
  30a752:	46 15       	cmp/pl	r6
  30a754:	50 5d       	mov.l	@(52,r5),r0
  30a756:	75 40       	add	#64,r5
  30a758:	14 0d       	mov.l	r0,@(52,r4)
  30a75a:	74 40       	add	#64,r4
  30a75c:	89 0e       	bt	30a77c <___movmemSI52>
  30a75e:	c7 14       	mova	30a7b0 <___movmemSI4+0x4>,r0
  30a760:	30 6c       	add	r6,r0
  30a762:	40 2b       	jmp	@r0
  30a764:	4f 26       	lds.l	@r15+,pr
  30a766:	14 0e       	mov.l	r0,@(56,r4)
  30a768:	50 5d       	mov.l	@(52,r5),r0
  30a76a:	00 0b       	rts	
  30a76c:	14 0d       	mov.l	r0,@(52,r4)
  30a76e:	00 09       	nop	

0030a770 <___movmemSI64>:
  30a770:	50 5f       	mov.l	@(60,r5),r0
  30a772:	14 0f       	mov.l	r0,@(60,r4)

0030a774 <___movmemSI60>:
  30a774:	50 5e       	mov.l	@(56,r5),r0
  30a776:	14 0e       	mov.l	r0,@(56,r4)

0030a778 <___movmemSI56>:
  30a778:	50 5d       	mov.l	@(52,r5),r0
  30a77a:	14 0d       	mov.l	r0,@(52,r4)

0030a77c <___movmemSI52>:
  30a77c:	50 5c       	mov.l	@(48,r5),r0
  30a77e:	14 0c       	mov.l	r0,@(48,r4)

0030a780 <___movmemSI48>:
  30a780:	50 5b       	mov.l	@(44,r5),r0
  30a782:	14 0b       	mov.l	r0,@(44,r4)

0030a784 <___movmemSI44>:
  30a784:	50 5a       	mov.l	@(40,r5),r0
  30a786:	14 0a       	mov.l	r0,@(40,r4)

0030a788 <___movmemSI40>:
  30a788:	50 59       	mov.l	@(36,r5),r0
  30a78a:	14 09       	mov.l	r0,@(36,r4)

0030a78c <___movmemSI36>:
  30a78c:	50 58       	mov.l	@(32,r5),r0
  30a78e:	14 08       	mov.l	r0,@(32,r4)

0030a790 <___movmemSI32>:
  30a790:	50 57       	mov.l	@(28,r5),r0
  30a792:	14 07       	mov.l	r0,@(28,r4)

0030a794 <___movmemSI28>:
  30a794:	50 56       	mov.l	@(24,r5),r0
  30a796:	14 06       	mov.l	r0,@(24,r4)

0030a798 <___movmemSI24>:
  30a798:	50 55       	mov.l	@(20,r5),r0
  30a79a:	14 05       	mov.l	r0,@(20,r4)

0030a79c <___movmemSI20>:
  30a79c:	50 54       	mov.l	@(16,r5),r0
  30a79e:	14 04       	mov.l	r0,@(16,r4)

0030a7a0 <___movmemSI16>:
  30a7a0:	50 53       	mov.l	@(12,r5),r0
  30a7a2:	14 03       	mov.l	r0,@(12,r4)

0030a7a4 <___movmemSI12>:
  30a7a4:	50 52       	mov.l	@(8,r5),r0
  30a7a6:	14 02       	mov.l	r0,@(8,r4)

0030a7a8 <___movmemSI8>:
  30a7a8:	50 51       	mov.l	@(4,r5),r0
  30a7aa:	14 01       	mov.l	r0,@(4,r4)

0030a7ac <___movmemSI4>:
  30a7ac:	50 50       	mov.l	@(0,r5),r0
  30a7ae:	00 0b       	rts	
  30a7b0:	14 00       	mov.l	r0,@(0,r4)
  30a7b2:	00 09       	nop	

0030a7b4 <___udivsi3_i4i>:
  30a7b4:	91 f5       	mov.w	30a9a2 <___sdivsi3_i4i+0x11e>,r1	! 80
  30a7b6:	00 19       	div0u	
  30a7b8:	60 43       	mov	r4,r0
  30a7ba:	40 19       	shlr8	r0
  30a7bc:	35 16       	cmp/hi	r1,r5
  30a7be:	61 5d       	extu.w	r5,r1
  30a7c0:	8b 0e       	bf	30a7e0 <___udivsi3_i4i+0x2c>
  30a7c2:	31 50       	cmp/eq	r5,r1
  30a7c4:	8b 29       	bf	30a81a <___udivsi3_i4i+0x66>
  30a7c6:	40 01       	shlr	r0
  30a7c8:	61 53       	mov	r5,r1
  30a7ca:	45 28       	shll16	r5
  30a7cc:	2f 46       	mov.l	r4,@-r15
  30a7ce:	30 54       	div1	r5,r0
  30a7d0:	2f 16       	mov.l	r1,@-r15
  30a7d2:	30 54       	div1	r5,r0
  30a7d4:	30 54       	div1	r5,r0
  30a7d6:	a0 6b       	bra	30a8b0 <___sdivsi3_i4i+0x2c>
  30a7d8:	30 54       	div1	r5,r0
  30a7da:	c7 9e       	mova	30aa54 <___sdivsi3_i4i+0x1d0>,r0
  30a7dc:	a0 04       	bra	30a7e8 <___udivsi3_i4i+0x34>
  30a7de:	01 5c       	mov.b	@(r0,r5),r1
  30a7e0:	2f 46       	mov.l	r4,@-r15
  30a7e2:	c7 9c       	mova	30aa54 <___sdivsi3_i4i+0x1d0>,r0
  30a7e4:	01 5c       	mov.b	@(r0,r5),r1
  30a7e6:	2f 56       	mov.l	r5,@-r15
  30a7e8:	c7 db       	mova	30ab58 <___sdivsi3_i4i+0x2d4>,r0
  30a7ea:	01 1e       	mov.l	@(r0,r1),r1
  30a7ec:	60 53       	mov	r5,r0
  30a7ee:	c8 fe       	tst	#254,r0
  30a7f0:	c7 78       	mova	30a9d4 <___sdivsi3_i4i+0x150>,r0
  30a7f2:	34 15       	dmulu.l	r1,r4
  30a7f4:	01 5c       	mov.b	@(r0,r5),r1
  30a7f6:	8d 08       	bt.s	30a80a <___udivsi3_i4i+0x56>
  30a7f8:	60 43       	mov	r4,r0
  30a7fa:	65 f6       	mov.l	@r15+,r5
  30a7fc:	00 0a       	sts	mach,r0
  30a7fe:	30 4e       	addc	r4,r0
  30a800:	64 f6       	mov.l	@r15+,r4
  30a802:	40 25       	rotcr	r0
  30a804:	00 0b       	rts	
  30a806:	40 1d       	shld	r1,r0
  30a808:	60 4b       	neg	r4,r0
  30a80a:	65 f6       	mov.l	@r15+,r5
  30a80c:	00 0b       	rts	
  30a80e:	64 f6       	mov.l	@r15+,r4
  30a810:	8d 19       	bt.s	30a846 <___udivsi3_i4i+0x92>
  30a812:	00 19       	div0u	
  30a814:	45 18       	shll8	r5
  30a816:	a0 07       	bra	30a828 <___udivsi3_i4i+0x74>
  30a818:	30 54       	div1	r5,r0
  30a81a:	35 06       	cmp/hi	r0,r5
  30a81c:	61 53       	mov	r5,r1
  30a81e:	89 15       	bt	30a84c <___udivsi3_i4i+0x98>
  30a820:	45 18       	shll8	r5
  30a822:	2f 46       	mov.l	r4,@-r15
  30a824:	30 54       	div1	r5,r0
  30a826:	2f 16       	mov.l	r1,@-r15
  30a828:	30 54       	div1	r5,r0
  30a82a:	d1 ab       	mov.l	30aad8 <___sdivsi3_i4i+0x254>,r1	! 0 <_sxyram>
  30a82c:	30 54       	div1	r5,r0
  30a82e:	30 54       	div1	r5,r0
  30a830:	30 54       	div1	r5,r0
  30a832:	30 54       	div1	r5,r0
  30a834:	2f 16       	mov.l	r1,@-r15
  30a836:	30 54       	div1	r5,r0
  30a838:	91 cb       	mov.w	30a9d2 <___sdivsi3_i4i+0x14e>,r1	! ff00
  30a83a:	30 54       	div1	r5,r0
  30a83c:	80 f2       	mov.b	r0,@(2,r15)
  30a83e:	20 4a       	xor	r4,r0
  30a840:	20 19       	and	r1,r0
  30a842:	a0 48       	bra	30a8d6 <___sdivsi3_i4i+0x52>
  30a844:	20 4a       	xor	r4,r0
  30a846:	44 28       	shll16	r4
  30a848:	a0 05       	bra	30a856 <___udivsi3_i4i+0xa2>
  30a84a:	44 18       	shll8	r4
  30a84c:	2f 46       	mov.l	r4,@-r15
  30a84e:	44 28       	shll16	r4
  30a850:	00 08       	clrt	
  30a852:	44 18       	shll8	r4
  30a854:	2f 56       	mov.l	r5,@-r15
  30a856:	44 24       	rotcl	r4
  30a858:	61 03       	mov	r0,r1
  30a85a:	31 54       	div1	r5,r1
  30a85c:	60 43       	mov	r4,r0
  30a85e:	40 24       	rotcl	r0
  30a860:	64 53       	mov	r5,r4
  30a862:	31 54       	div1	r5,r1
  30a864:	40 24       	rotcl	r0
  30a866:	31 54       	div1	r5,r1
  30a868:	40 24       	rotcl	r0
  30a86a:	31 54       	div1	r5,r1
  30a86c:	40 24       	rotcl	r0
  30a86e:	31 54       	div1	r5,r1
  30a870:	40 24       	rotcl	r0
  30a872:	31 54       	div1	r5,r1
  30a874:	40 24       	rotcl	r0
  30a876:	31 54       	div1	r5,r1
  30a878:	40 24       	rotcl	r0
  30a87a:	65 f6       	mov.l	@r15+,r5
  30a87c:	31 44       	div1	r4,r1
  30a87e:	64 f6       	mov.l	@r15+,r4
  30a880:	00 0b       	rts	
  30a882:	40 24       	rotcl	r0

0030a884 <___sdivsi3_i4i>:
  30a884:	2f 46       	mov.l	r4,@-r15
  30a886:	45 11       	cmp/pz	r5
  30a888:	91 8b       	mov.w	30a9a2 <___sdivsi3_i4i+0x11e>,r1	! 80
  30a88a:	8d 44       	bt.s	30a916 <___sdivsi3_i4i+0x92>
  30a88c:	44 11       	cmp/pz	r4
  30a88e:	2f 56       	mov.l	r5,@-r15
  30a890:	65 5b       	neg	r5,r5
  30a892:	8d 44       	bt.s	30a91e <___sdivsi3_i4i+0x9a>
  30a894:	35 16       	cmp/hi	r1,r5
  30a896:	64 4b       	neg	r4,r4
  30a898:	60 5d       	extu.w	r5,r0
  30a89a:	8b 9e       	bf	30a7da <___udivsi3_i4i+0x26>
  30a89c:	30 50       	cmp/eq	r5,r0
  30a89e:	60 43       	mov	r4,r0
  30a8a0:	40 19       	shlr8	r0
  30a8a2:	8f b5       	bf.s	30a810 <___udivsi3_i4i+0x5c>
  30a8a4:	35 06       	cmp/hi	r0,r5
  30a8a6:	00 19       	div0u	
  30a8a8:	45 28       	shll16	r5
  30a8aa:	30 54       	div1	r5,r0
  30a8ac:	30 54       	div1	r5,r0
  30a8ae:	30 54       	div1	r5,r0
  30a8b0:	d1 89       	mov.l	30aad8 <___sdivsi3_i4i+0x254>,r1	! 0 <_sxyram>
  30a8b2:	30 54       	div1	r5,r0
  30a8b4:	30 54       	div1	r5,r0
  30a8b6:	2f 16       	mov.l	r1,@-r15
  30a8b8:	30 54       	div1	r5,r0
  30a8ba:	30 54       	div1	r5,r0
  30a8bc:	30 54       	div1	r5,r0
  30a8be:	80 f1       	mov.b	r0,@(1,r15)
  30a8c0:	20 4d       	xtrct	r4,r0
  30a8c2:	60 09       	swap.w	r0,r0
  30a8c4:	30 54       	div1	r5,r0
  30a8c6:	30 54       	div1	r5,r0
  30a8c8:	30 54       	div1	r5,r0
  30a8ca:	30 54       	div1	r5,r0
  30a8cc:	30 54       	div1	r5,r0
  30a8ce:	30 54       	div1	r5,r0
  30a8d0:	30 54       	div1	r5,r0
  30a8d2:	30 54       	div1	r5,r0
  30a8d4:	80 f2       	mov.b	r0,@(2,r15)
  30a8d6:	30 54       	div1	r5,r0
  30a8d8:	30 54       	div1	r5,r0
  30a8da:	30 54       	div1	r5,r0
  30a8dc:	30 54       	div1	r5,r0
  30a8de:	30 54       	div1	r5,r0
  30a8e0:	30 54       	div1	r5,r0
  30a8e2:	30 54       	div1	r5,r0
  30a8e4:	30 54       	div1	r5,r0
  30a8e6:	64 f6       	mov.l	@r15+,r4
  30a8e8:	60 0c       	extu.b	r0,r0
  30a8ea:	65 f6       	mov.l	@r15+,r5
  30a8ec:	20 4b       	or	r4,r0
  30a8ee:	64 f6       	mov.l	@r15+,r4
  30a8f0:	00 0b       	rts	
  30a8f2:	40 24       	rotcl	r0
  30a8f4:	c8 fe       	tst	#254,r0
  30a8f6:	c7 57       	mova	30aa54 <___sdivsi3_i4i+0x1d0>,r0
  30a8f8:	01 5c       	mov.b	@(r0,r5),r1
  30a8fa:	c7 97       	mova	30ab58 <___sdivsi3_i4i+0x2d4>,r0
  30a8fc:	8d 84       	bt.s	30a808 <___udivsi3_i4i+0x54>
  30a8fe:	01 1e       	mov.l	@(r0,r1),r1
  30a900:	c7 34       	mova	30a9d4 <___sdivsi3_i4i+0x150>,r0
  30a902:	34 15       	dmulu.l	r1,r4
  30a904:	01 5c       	mov.b	@(r0,r5),r1
  30a906:	65 f6       	mov.l	@r15+,r5
  30a908:	00 0a       	sts	mach,r0
  30a90a:	30 4e       	addc	r4,r0
  30a90c:	64 f6       	mov.l	@r15+,r4
  30a90e:	40 25       	rotcr	r0
  30a910:	40 1d       	shld	r1,r0
  30a912:	00 0b       	rts	
  30a914:	60 0b       	neg	r0,r0
  30a916:	2f 56       	mov.l	r5,@-r15
  30a918:	8d be       	bt.s	30a898 <___sdivsi3_i4i+0x14>
  30a91a:	35 16       	cmp/hi	r1,r5
  30a91c:	64 4b       	neg	r4,r4
  30a91e:	60 5d       	extu.w	r5,r0
  30a920:	8b e8       	bf	30a8f4 <___sdivsi3_i4i+0x70>
  30a922:	30 50       	cmp/eq	r5,r0
  30a924:	60 43       	mov	r4,r0
  30a926:	40 19       	shlr8	r0
  30a928:	8f 28       	bf.s	30a97c <___sdivsi3_i4i+0xf8>
  30a92a:	35 06       	cmp/hi	r0,r5
  30a92c:	00 19       	div0u	
  30a92e:	d1 6a       	mov.l	30aad8 <___sdivsi3_i4i+0x254>,r1	! 0 <_sxyram>
  30a930:	45 28       	shll16	r5
  30a932:	30 54       	div1	r5,r0
  30a934:	2f 16       	mov.l	r1,@-r15
  30a936:	30 54       	div1	r5,r0
  30a938:	30 54       	div1	r5,r0
  30a93a:	30 54       	div1	r5,r0
  30a93c:	30 54       	div1	r5,r0
  30a93e:	30 54       	div1	r5,r0
  30a940:	30 54       	div1	r5,r0
  30a942:	30 54       	div1	r5,r0
  30a944:	80 f1       	mov.b	r0,@(1,r15)
  30a946:	20 4d       	xtrct	r4,r0
  30a948:	60 09       	swap.w	r0,r0
  30a94a:	30 54       	div1	r5,r0
  30a94c:	30 54       	div1	r5,r0
  30a94e:	30 54       	div1	r5,r0
  30a950:	30 54       	div1	r5,r0
  30a952:	30 54       	div1	r5,r0
  30a954:	30 54       	div1	r5,r0
  30a956:	30 54       	div1	r5,r0
  30a958:	30 54       	div1	r5,r0
  30a95a:	80 f2       	mov.b	r0,@(2,r15)
  30a95c:	30 54       	div1	r5,r0
  30a95e:	30 54       	div1	r5,r0
  30a960:	30 54       	div1	r5,r0
  30a962:	30 54       	div1	r5,r0
  30a964:	30 54       	div1	r5,r0
  30a966:	30 54       	div1	r5,r0
  30a968:	30 54       	div1	r5,r0
  30a96a:	30 54       	div1	r5,r0
  30a96c:	64 f6       	mov.l	@r15+,r4
  30a96e:	61 0c       	extu.b	r0,r1
  30a970:	65 f6       	mov.l	@r15+,r5
  30a972:	21 4b       	or	r4,r1
  30a974:	64 f6       	mov.l	@r15+,r4
  30a976:	41 24       	rotcl	r1
  30a978:	00 0b       	rts	
  30a97a:	60 1b       	neg	r1,r0
  30a97c:	8d 12       	bt.s	30a9a4 <___sdivsi3_i4i+0x120>
  30a97e:	00 19       	div0u	
  30a980:	45 18       	shll8	r5
  30a982:	d1 55       	mov.l	30aad8 <___sdivsi3_i4i+0x254>,r1	! 0 <_sxyram>
  30a984:	30 54       	div1	r5,r0
  30a986:	30 54       	div1	r5,r0
  30a988:	30 54       	div1	r5,r0
  30a98a:	30 54       	div1	r5,r0
  30a98c:	30 54       	div1	r5,r0
  30a98e:	30 54       	div1	r5,r0
  30a990:	2f 16       	mov.l	r1,@-r15
  30a992:	30 54       	div1	r5,r0
  30a994:	91 1d       	mov.w	30a9d2 <___sdivsi3_i4i+0x14e>,r1	! ff00
  30a996:	30 54       	div1	r5,r0
  30a998:	80 f2       	mov.b	r0,@(2,r15)
  30a99a:	20 4a       	xor	r4,r0
  30a99c:	20 19       	and	r1,r0
  30a99e:	af dd       	bra	30a95c <___sdivsi3_i4i+0xd8>
  30a9a0:	20 4a       	xor	r4,r0
  30a9a2:	00 80       	.word 0x0080
  30a9a4:	00 08       	clrt	
  30a9a6:	44 28       	shll16	r4
  30a9a8:	61 43       	mov	r4,r1
  30a9aa:	41 18       	shll8	r1
  30a9ac:	64 53       	mov	r5,r4
  30a9ae:	41 24       	rotcl	r1
  30a9b0:	30 54       	div1	r5,r0
  30a9b2:	41 24       	rotcl	r1
  30a9b4:	30 54       	div1	r5,r0
  30a9b6:	41 24       	rotcl	r1
  30a9b8:	30 54       	div1	r5,r0
  30a9ba:	41 24       	rotcl	r1
  30a9bc:	30 54       	div1	r5,r0
  30a9be:	41 24       	rotcl	r1
  30a9c0:	30 54       	div1	r5,r0
  30a9c2:	41 24       	rotcl	r1
  30a9c4:	30 54       	div1	r5,r0
  30a9c6:	41 24       	rotcl	r1
  30a9c8:	30 54       	div1	r5,r0
  30a9ca:	65 f6       	mov.l	@r15+,r5
  30a9cc:	41 24       	rotcl	r1
  30a9ce:	af d1       	bra	30a974 <___sdivsi3_i4i+0xf0>
  30a9d0:	30 44       	div1	r4,r0
  30a9d2:	ff 00       	.word 0xff00
  30a9d4:	00 01       	.word 0x0001
  30a9d6:	00 ff       	mac.l	@r15+,@r0+
  30a9d8:	ff fe       	.word 0xfffe
  30a9da:	fe fe       	.word 0xfefe
  30a9dc:	fe fd       	.word 0xfefd
  30a9de:	fd fd       	.word 0xfdfd
  30a9e0:	fd fd       	.word 0xfdfd
  30a9e2:	fd fd       	.word 0xfdfd
  30a9e4:	fd fc       	.word 0xfdfc
  30a9e6:	fc fc       	.word 0xfcfc
  30a9e8:	fc fc       	.word 0xfcfc
  30a9ea:	fc fc       	.word 0xfcfc
  30a9ec:	fc fc       	.word 0xfcfc
  30a9ee:	fc fc       	.word 0xfcfc
  30a9f0:	fc fc       	.word 0xfcfc
  30a9f2:	fc fc       	.word 0xfcfc
  30a9f4:	fc fb       	.word 0xfcfb
  30a9f6:	fb fb fb fb 	dcf pcopy	m1,y1	movx.w	a1,@r5+	movy.w	a1,@r7+r9
  30a9fa:	fb fb fb fb 	dcf pcopy	m1,y1	movx.w	a1,@r5+	movy.w	a1,@r7+r9
  30a9fe:	fb fb fb fb 	dcf pcopy	m1,y1	movx.w	a1,@r5+	movy.w	a1,@r7+r9
  30aa02:	fb fb fb fb 	dcf pcopy	m1,y1	movx.w	a1,@r5+	movy.w	a1,@r7+r9
  30aa06:	fb fb fb fb 	dcf pcopy	m1,y1	movx.w	a1,@r5+	movy.w	a1,@r7+r9
  30aa0a:	fb fb fb fb 	dcf pcopy	m1,y1	movx.w	a1,@r5+	movy.w	a1,@r7+r9
  30aa0e:	fb fb fb fb 	dcf pcopy	m1,y1	movx.w	a1,@r5+	movy.w	a1,@r7+r9
  30aa12:	fb fb fb fa 	dcf pcopy	m1,y0	movx.w	a1,@r5+	movy.w	a1,@r7+r9
  30aa16:	fa fa fa fa 	dct pcopy	m1,y0	movx.w	a1,@r5+	movy.w	a1,@r6+
  30aa1a:	fa fa fa fa 	dct pcopy	m1,y0	movx.w	a1,@r5+	movy.w	a1,@r6+
  30aa1e:	fa fa fa fa 	dct pcopy	m1,y0	movx.w	a1,@r5+	movy.w	a1,@r6+
  30aa22:	fa fa fa fa 	dct pcopy	m1,y0	movx.w	a1,@r5+	movy.w	a1,@r6+
  30aa26:	fa fa fa fa 	dct pcopy	m1,y0	movx.w	a1,@r5+	movy.w	a1,@r6+
  30aa2a:	fa fa fa fa 	dct pcopy	m1,y0	movx.w	a1,@r5+	movy.w	a1,@r6+
  30aa2e:	fa fa fa fa 	dct pcopy	m1,y0	movx.w	a1,@r5+	movy.w	a1,@r6+
  30aa32:	fa fa fa fa 	dct pcopy	m1,y0	movx.w	a1,@r5+	movy.w	a1,@r6+
  30aa36:	fa fa fa fa 	dct pcopy	m1,y0	movx.w	a1,@r5+	movy.w	a1,@r6+
  30aa3a:	fa fa fa fa 	dct pcopy	m1,y0	movx.w	a1,@r5+	movy.w	a1,@r6+
  30aa3e:	fa fa fa fa 	dct pcopy	m1,y0	movx.w	a1,@r5+	movy.w	a1,@r6+
  30aa42:	fa fa fa fa 	dct pcopy	m1,y0	movx.w	a1,@r5+	movy.w	a1,@r6+
  30aa46:	fa fa fa fa 	dct pcopy	m1,y0	movx.w	a1,@r5+	movy.w	a1,@r6+
  30aa4a:	fa fa fa fa 	dct pcopy	m1,y0	movx.w	a1,@r5+	movy.w	a1,@r6+
  30aa4e:	fa fa fa fa 	dct pcopy	m1,y0	movx.w	a1,@r5+	movy.w	a1,@r6+
  30aa52:	fa fa fa 80 	dct pcopy	y0,0x0	movx.w	a1,@r5+	movy.w	a1,@r6+
  30aa56:	80 00       	mov.b	r0,@(0,r0)
  30aa58:	80 c0       	mov.b	r0,@(0,r12)
  30aa5a:	00 40       	.word 0x0040
  30aa5c:	80 a0       	mov.b	r0,@(0,r10)
  30aa5e:	c0 e0       	mov.b	r0,@(224,gbr)
  30aa60:	00 20       	.word 0x0020
  30aa62:	40 60       	.word 0x4060
  30aa64:	80 90       	mov.b	r0,@(0,r9)
  30aa66:	a0 b0       	bra	30abca <___sdivsi3_i4i+0x346>
  30aa68:	c0 d0       	mov.b	r0,@(208,gbr)
  30aa6a:	e0 f0       	mov	#-16,r0
  30aa6c:	00 10       	.word 0x0010
  30aa6e:	20 30       	mov.b	r3,@r0
  30aa70:	40 50       	.word 0x4050
  30aa72:	60 70       	mov.b	@r7,r0
  30aa74:	80 88       	mov.b	r0,@(8,r8)
  30aa76:	90 98       	mov.w	30abaa <___sdivsi3_i4i+0x326>,r0	! 9612
  30aa78:	a0 a8       	bra	30abcc <___sdivsi3_i4i+0x348>
  30aa7a:	b0 b8       	bsr	30abee <___udivdi3+0x16>
  30aa7c:	c0 c8       	mov.b	r0,@(200,gbr)
  30aa7e:	d0 d8       	mov.l	30ade0 <___udivdi3+0x208>,r0	! 30b052 <___udivsi3>
  30aa80:	e0 e8       	mov	#-24,r0
  30aa82:	f0 f8       	movx.l	x1,@r4+
  30aa84:	00 08       	clrt	
  30aa86:	10 18       	mov.l	r1,@(32,r0)
  30aa88:	20 28       	tst	r2,r0
  30aa8a:	30 38       	sub	r3,r0
  30aa8c:	40 48       	.word 0x4048
  30aa8e:	50 58       	mov.l	@(32,r5),r0
  30aa90:	60 68       	swap.b	r6,r0
  30aa92:	70 78       	add	#120,r0
  30aa94:	80 84       	mov.b	r0,@(4,r8)
  30aa96:	88 8c       	cmp/eq	#-116,r0
  30aa98:	90 94       	mov.w	30abc4 <___sdivsi3_i4i+0x340>,r0	! a68
  30aa9a:	98 9c       	mov.w	30abd6 <___sdivsi3_i4i+0x352>,r8	! 811
  30aa9c:	a0 a4       	bra	30abe8 <___udivdi3+0x10>
  30aa9e:	a8 ac       	bra	309bfa <___printf_format_ouxX+0x1e>
  30aaa0:	b0 b4       	bsr	30ac0c <___udivdi3+0x34>
  30aaa2:	b8 bc       	bsr	309c1e <___printf_format_ouxX+0x42>
  30aaa4:	c0 c4       	mov.b	r0,@(196,gbr)
  30aaa6:	c8 cc       	tst	#204,r0
  30aaa8:	d0 d4       	mov.l	30adfc <___umoddi3+0x18>,r0	! 6353d687
  30aaaa:	d8 dc       	mov.l	30ae1c <___umoddi3+0x38>,r8	! 5c600c
  30aaac:	e0 e4       	mov	#-28,r0
  30aaae:	e8 ec       	mov	#-20,r8
  30aab0:	f0 f4       	movx.l	x1,@r4
  30aab2:	f8 fc 00 04 	pshl	#0,0x4	movx.l	x1,@r4+r8
  30aab6:	08 0c       	mov.b	@(r0,r0),r8
  30aab8:	10 14       	mov.l	r1,@(16,r0)
  30aaba:	18 1c       	mov.l	r1,@(48,r8)
  30aabc:	20 24       	mov.b	r2,@-r0
  30aabe:	28 2c       	cmp/str	r2,r8
  30aac0:	30 34       	div1	r3,r0
  30aac2:	38 3c       	add	r3,r8
  30aac4:	40 44       	.word 0x4044
  30aac6:	48 4c       	shad	r4,r8
  30aac8:	50 54       	mov.l	@(16,r5),r0
  30aaca:	58 5c       	mov.l	@(48,r5),r8
  30aacc:	60 64       	mov.b	@r6+,r0
  30aace:	68 6c       	extu.b	r6,r8
  30aad0:	70 74       	add	#116,r0
  30aad2:	78 7c       	add	#124,r8
  30aad4:	80 00       	mov.b	r0,@(0,r0)
  30aad6:	00 09       	nop	
  30aad8:	00 00       	.word 0x0000
  30aada:	00 00       	.word 0x0000
  30aadc:	f8 1f 81 f9 	pshl	a1,m1,x1	movx.w	@r4+r8,x0	movy.w	a0,@r6+r9
  30aae0:	f0 7c       	movx.l	x0,@r4+r8
  30aae2:	1f 08       	mov.l	r0,@(32,r15)
  30aae4:	e9 13       	mov	#19,r9
  30aae6:	1a c0       	mov.l	r12,@(0,r10)
  30aae8:	e1 e1       	mov	#-31,r1
  30aaea:	e1 e2       	mov	#-30,r1
  30aaec:	da e6       	mov.l	30ae88 <___umoddi3+0xa4>,r10	! 633c331c
  30aaee:	07 6c       	mov.b	@(r0,r6),r7
  30aaf0:	d4 1d       	mov.l	30ab68 <___sdivsi3_i4i+0x2e4>,r4	! 47ae147b
  30aaf2:	41 d5       	.word 0x41d5
  30aaf4:	cd 85       	and.b	#133,@(r0,gbr)
  30aaf6:	68 91       	mov.w	@r9,r8
  30aaf8:	c7 1c       	mova	30ab6c <___sdivsi3_i4i+0x2e8>,r0
  30aafa:	71 c8       	add	#-56,r1
  30aafc:	c0 e0       	mov.b	r0,@(224,gbr)
  30aafe:	70 39       	add	#57,r0
  30ab00:	ba cf       	bsr	30a0a2 <_setvbuf+0x5e>
  30ab02:	91 4d       	mov.w	30aba0 <___sdivsi3_i4i+0x31c>,r1	! 1f70
  30ab04:	b4 e8       	bsr	30b4d8 <_MINCOLS+0xb>
  30ab06:	1b 4f       	mov.l	r4,@(60,r11)
  30ab08:	af 28       	bra	30a95c <___sdivsi3_i4i+0xd8>
  30ab0a:	6b cb       	neg	r12,r11
  30ab0c:	a9 8e       	bra	309e2c <___printf_format_n+0x34>
  30ab0e:	f6 07       	movs.l	0x0,@r2
  30ab10:	a4 1a       	bra	30b348 <_drv_dma0+0x28>
  30ab12:	41 a5       	.word 0x41a5
  30ab14:	9e c8       	mov.w	30aca8 <___udivdi3+0xd0>,r14	! e801
  30ab16:	e9 52       	mov	#82,r9
  30ab18:	99 99       	mov.w	30ac4e <___udivdi3+0x76>,r9	! 69f6
  30ab1a:	99 9a       	mov.w	30ac52 <___udivdi3+0x7a>,r9	! 68f6
  30ab1c:	94 8b       	mov.w	30ac36 <___udivdi3+0x5e>,r4	! 480b
  30ab1e:	0f ce       	mov.l	@(r0,r12),r15
  30ab20:	8f 9c       	bf.s	30aa5c <___sdivsi3_i4i+0x1d8>
  30ab22:	18 fa       	mov.l	r15,@(40,r8)
  30ab24:	8a cb       	ldrc	#203
  30ab26:	90 f7       	mov.w	30ad18 <___udivdi3+0x140>,r0	! 600c
  30ab28:	86 18       	.word 0x8618
  30ab2a:	61 87       	not	r8,r1
  30ab2c:	81 81       	mov.w	r0,@(2,r8)
  30ab2e:	81 82       	mov.w	r0,@(4,r8)
  30ab30:	7d 05       	add	#5,r13
  30ab32:	f4 18       	movs.w	@r4+,0x1
  30ab34:	78 a4       	add	#-92,r8
  30ab36:	c8 18       	tst	#24,r0
  30ab38:	74 5d       	add	#93,r4
  30ab3a:	17 46       	mov.l	r4,@(24,r7)
  30ab3c:	70 2e       	add	#46,r0
  30ab3e:	05 c1       	.word 0x05c1
  30ab40:	6c 16       	mov.l	@r1+,r12
  30ab42:	c1 6d       	mov.w	r0,@(218,gbr)
  30ab44:	68 16       	mov.l	@r1+,r8
  30ab46:	81 69       	mov.w	r0,@(18,r6)
  30ab48:	64 2c       	extu.b	r2,r4
  30ab4a:	85 91       	mov.w	@(2,r9),r0
  30ab4c:	60 58       	swap.b	r5,r0
  30ab4e:	16 06       	mov.l	r0,@(24,r6)
  30ab50:	5c 98       	mov.l	@(32,r9),r12
  30ab52:	82 ba       	setrc	#186
  30ab54:	58 ed       	mov.l	@(52,r14),r8
  30ab56:	23 09       	and	r0,r3
  30ab58:	55 55       	mov.l	@(20,r5),r5
  30ab5a:	55 56       	mov.l	@(24,r5),r5
  30ab5c:	51 d0       	mov.l	@(0,r13),r1
  30ab5e:	7e af       	add	#-81,r14
  30ab60:	4e 5e       	ldc	r14,mod
  30ab62:	0a 73       	movco.l	r0,@r10
  30ab64:	4a fd       	shld	r15,r10
  30ab66:	6a 06       	mov.l	@r0+,r10
  30ab68:	47 ae       	ldc	r7,r2_bank
  30ab6a:	14 7b       	mov.l	r7,@(44,r4)
  30ab6c:	44 6f       	mac.w	@r6+,@r4+
  30ab6e:	86 57       	.word 0x8657
  30ab70:	41 41       	.word 0x4141
  30ab72:	41 42       	.word 0x4142
  30ab74:	3e 22       	cmp/hs	r2,r14
  30ab76:	cb cf       	or	#207,r0
  30ab78:	3b 13       	cmp/ge	r1,r11
  30ab7a:	b1 3c       	bsr	30adf6 <___umoddi3+0x12>
  30ab7c:	38 13       	cmp/ge	r1,r8
  30ab7e:	81 39       	mov.w	r0,@(18,r3)
  30ab80:	35 21       	.word 0x3521
  30ab82:	cf b3       	or.b	#179,@(r0,gbr)
  30ab84:	32 3e       	addc	r3,r2
  30ab86:	34 a3       	cmp/ge	r10,r4
  30ab88:	2f 68       	tst	r6,r15
  30ab8a:	4b db       	.word 0x4bdb
  30ab8c:	2c 9f       	muls.w	r9,r12
  30ab8e:	b4 d9       	bsr	30b544 <_MINCOLS+0x77>
  30ab90:	29 e4       	mov.b	r14,@-r9
  30ab92:	12 9f       	mov.l	r9,@(60,r2)
  30ab94:	27 35       	mov.w	r3,@-r7
  30ab96:	0b 89       	.word 0x0b89
  30ab98:	24 92       	mov.l	r9,@r4
  30ab9a:	49 25       	rotcr	r9
  30ab9c:	21 fb       	or	r15,r1
  30ab9e:	78 13       	add	#19,r8
  30aba0:	1f 70       	mov.l	r7,@(0,r15)
  30aba2:	47 dd       	shld	r13,r7
  30aba4:	1c f0       	mov.l	r15,@(0,r12)
  30aba6:	6a db       	neg	r13,r10
  30aba8:	1a 7b       	mov.l	r7,@(44,r10)
  30abaa:	96 12       	mov.w	30abd2 <___sdivsi3_i4i+0x34e>,r6	! 4105
  30abac:	18 11       	mov.l	r1,@(4,r8)
  30abae:	81 19       	mov.w	r0,@(18,r1)
  30abb0:	15 b1       	mov.l	r11,@(4,r5)
  30abb2:	e5 f8       	mov	#-8,r5
  30abb4:	13 5c       	mov.l	r5,@(48,r3)
  30abb6:	81 14       	mov.w	r0,@(8,r1)
  30abb8:	11 11       	mov.l	r1,@(4,r1)
  30abba:	11 12       	mov.l	r1,@(8,r1)
  30abbc:	0e cf       	mac.l	@r12+,@r14+
  30abbe:	56 bf       	mov.l	@(60,r11),r6
  30abc0:	0c 97       	mul.l	r9,r12
  30abc2:	14 fc       	mov.l	r15,@(48,r4)
  30abc4:	0a 68       	.word 0x0a68
  30abc6:	10 a7       	mov.l	r10,@(28,r0)
  30abc8:	08 42       	stc	spc,r8
  30abca:	10 85       	mov.l	r8,@(20,r0)
  30abcc:	06 24       	mov.b	r2,@(r0,r6)
  30abce:	dd 30       	mov.l	30ac90 <___udivdi3+0xb8>,r13	! d651006c
  30abd0:	04 10       	.word 0x0410
  30abd2:	41 05       	rotr	r1
  30abd4:	02 04       	mov.b	r0,@(r0,r2)
  30abd6:	08 11       	.word 0x0811

0030abd8 <___udivdi3>:
  30abd8:	2f 86       	mov.l	r8,@-r15
  30abda:	2f 96       	mov.l	r9,@-r15
  30abdc:	2f a6       	mov.l	r10,@-r15
  30abde:	2f b6       	mov.l	r11,@-r15
  30abe0:	4f 22       	sts.l	pr,@-r15
  30abe2:	26 68       	tst	r6,r6
  30abe4:	62 43       	mov	r4,r2
  30abe6:	8f 35       	bf.s	30ac54 <___udivdi3+0x7c>
  30abe8:	68 53       	mov	r5,r8
  30abea:	37 46       	cmp/hi	r4,r7
  30abec:	8f 3d       	bf.s	30ac6a <___udivdi3+0x92>
  30abee:	63 53       	mov	r5,r3
  30abf0:	d1 77       	mov.l	30add0 <___udivdi3+0x1f8>,r1	! ffff
  30abf2:	37 16       	cmp/hi	r1,r7
  30abf4:	8d 02       	bt.s	30abfc <___udivdi3+0x24>
  30abf6:	65 43       	mov	r4,r5
  30abf8:	a0 df       	bra	30adba <___udivdi3+0x1e2>
  30abfa:	00 09       	nop	
  30abfc:	d1 75       	mov.l	30add4 <___udivdi3+0x1fc>,r1	! ffffff
  30abfe:	37 16       	cmp/hi	r1,r7
  30ac00:	8f 01       	bf.s	30ac06 <___udivdi3+0x2e>
  30ac02:	e1 10       	mov	#16,r1
  30ac04:	e1 18       	mov	#24,r1
  30ac06:	66 1b       	neg	r1,r6
  30ac08:	60 73       	mov	r7,r0
  30ac0a:	40 6d       	shld	r6,r0
  30ac0c:	d6 72       	mov.l	30add8 <___udivdi3+0x200>,r6	! 30c2e8 <___clz_tab>
  30ac0e:	00 6c       	mov.b	@(r0,r6),r0
  30ac10:	60 0c       	extu.b	r0,r0
  30ac12:	30 1c       	add	r1,r0
  30ac14:	60 0b       	neg	r0,r0
  30ac16:	61 03       	mov	r0,r1
  30ac18:	88 e0       	cmp/eq	#-32,r0
  30ac1a:	8d 07       	bt.s	30ac2c <___udivdi3+0x54>
  30ac1c:	71 20       	add	#32,r1
  30ac1e:	65 83       	mov	r8,r5
  30ac20:	42 1d       	shld	r1,r2
  30ac22:	45 0d       	shld	r0,r5
  30ac24:	63 83       	mov	r8,r3
  30ac26:	47 1d       	shld	r1,r7
  30ac28:	43 1d       	shld	r1,r3
  30ac2a:	25 2b       	or	r2,r5
  30ac2c:	d8 6b       	mov.l	30addc <___udivdi3+0x204>,r8	! 30b0a0 <___udiv_qrnnd_16>
  30ac2e:	60 53       	mov	r5,r0
  30ac30:	65 73       	mov	r7,r5
  30ac32:	64 39       	swap.w	r3,r4
  30ac34:	66 59       	swap.w	r5,r6
  30ac36:	48 0b       	jsr	@r8
  30ac38:	46 28       	shll16	r6
  30ac3a:	64 49       	swap.w	r4,r4
  30ac3c:	48 0b       	jsr	@r8
  30ac3e:	63 19       	swap.w	r1,r3
  30ac40:	23 1b       	or	r1,r3
  30ac42:	e8 00       	mov	#0,r8
  30ac44:	61 33       	mov	r3,r1
  30ac46:	60 83       	mov	r8,r0
  30ac48:	4f 26       	lds.l	@r15+,pr
  30ac4a:	6b f6       	mov.l	@r15+,r11
  30ac4c:	6a f6       	mov.l	@r15+,r10
  30ac4e:	69 f6       	mov.l	@r15+,r9
  30ac50:	00 0b       	rts	
  30ac52:	68 f6       	mov.l	@r15+,r8
  30ac54:	36 46       	cmp/hi	r4,r6
  30ac56:	8b 3a       	bf	30acce <___udivdi3+0xf6>
  30ac58:	e1 00       	mov	#0,r1
  30ac5a:	e8 00       	mov	#0,r8
  30ac5c:	60 83       	mov	r8,r0
  30ac5e:	4f 26       	lds.l	@r15+,pr
  30ac60:	6b f6       	mov.l	@r15+,r11
  30ac62:	6a f6       	mov.l	@r15+,r10
  30ac64:	69 f6       	mov.l	@r15+,r9
  30ac66:	00 0b       	rts	
  30ac68:	68 f6       	mov.l	@r15+,r8
  30ac6a:	27 78       	tst	r7,r7
  30ac6c:	8f 04       	bf.s	30ac78 <___udivdi3+0xa0>
  30ac6e:	e4 01       	mov	#1,r4
  30ac70:	d7 5b       	mov.l	30ade0 <___udivdi3+0x208>,r7	! 30b052 <___udivsi3>
  30ac72:	47 0b       	jsr	@r7
  30ac74:	e5 00       	mov	#0,r5
  30ac76:	67 03       	mov	r0,r7
  30ac78:	d1 55       	mov.l	30add0 <___udivdi3+0x1f8>,r1	! ffff
  30ac7a:	37 16       	cmp/hi	r1,r7
  30ac7c:	8f 43       	bf.s	30ad06 <___udivdi3+0x12e>
  30ac7e:	60 73       	mov	r7,r0
  30ac80:	d1 54       	mov.l	30add4 <___udivdi3+0x1fc>,r1	! ffffff
  30ac82:	37 16       	cmp/hi	r1,r7
  30ac84:	8f 01       	bf.s	30ac8a <___udivdi3+0xb2>
  30ac86:	e1 10       	mov	#16,r1
  30ac88:	e1 18       	mov	#24,r1
  30ac8a:	66 1b       	neg	r1,r6
  30ac8c:	60 73       	mov	r7,r0
  30ac8e:	40 6d       	shld	r6,r0
  30ac90:	d6 51       	mov.l	30add8 <___udivdi3+0x200>,r6	! 30c2e8 <___clz_tab>
  30ac92:	00 6c       	mov.b	@(r0,r6),r0
  30ac94:	60 0c       	extu.b	r0,r0
  30ac96:	30 1c       	add	r1,r0
  30ac98:	60 0b       	neg	r0,r0
  30ac9a:	66 03       	mov	r0,r6
  30ac9c:	88 e0       	cmp/eq	#-32,r0
  30ac9e:	8f 42       	bf.s	30ad26 <___udivdi3+0x14e>
  30aca0:	76 20       	add	#32,r6
  30aca2:	da 4e       	mov.l	30addc <___udivdi3+0x204>,r10	! 30b0a0 <___udiv_qrnnd_16>
  30aca4:	61 23       	mov	r2,r1
  30aca6:	31 78       	sub	r7,r1
  30aca8:	e8 01       	mov	#1,r8
  30acaa:	60 13       	mov	r1,r0
  30acac:	65 73       	mov	r7,r5
  30acae:	64 39       	swap.w	r3,r4
  30acb0:	66 59       	swap.w	r5,r6
  30acb2:	4a 0b       	jsr	@r10
  30acb4:	46 28       	shll16	r6
  30acb6:	64 49       	swap.w	r4,r4
  30acb8:	4a 0b       	jsr	@r10
  30acba:	63 19       	swap.w	r1,r3
  30acbc:	23 1b       	or	r1,r3
  30acbe:	60 83       	mov	r8,r0
  30acc0:	61 33       	mov	r3,r1
  30acc2:	4f 26       	lds.l	@r15+,pr
  30acc4:	6b f6       	mov.l	@r15+,r11
  30acc6:	6a f6       	mov.l	@r15+,r10
  30acc8:	69 f6       	mov.l	@r15+,r9
  30acca:	00 0b       	rts	
  30accc:	68 f6       	mov.l	@r15+,r8
  30acce:	d1 40       	mov.l	30add0 <___udivdi3+0x1f8>,r1	! ffff
  30acd0:	36 16       	cmp/hi	r1,r6
  30acd2:	8f 3e       	bf.s	30ad52 <___udivdi3+0x17a>
  30acd4:	60 63       	mov	r6,r0
  30acd6:	d1 3f       	mov.l	30add4 <___udivdi3+0x1fc>,r1	! ffffff
  30acd8:	36 16       	cmp/hi	r1,r6
  30acda:	8f 01       	bf.s	30ace0 <___udivdi3+0x108>
  30acdc:	e1 10       	mov	#16,r1
  30acde:	e1 18       	mov	#24,r1
  30ace0:	63 1b       	neg	r1,r3
  30ace2:	60 63       	mov	r6,r0
  30ace4:	40 3d       	shld	r3,r0
  30ace6:	d3 3c       	mov.l	30add8 <___udivdi3+0x200>,r3	! 30c2e8 <___clz_tab>
  30ace8:	00 3c       	mov.b	@(r0,r3),r0
  30acea:	60 0c       	extu.b	r0,r0
  30acec:	30 1c       	add	r1,r0
  30acee:	60 0b       	neg	r0,r0
  30acf0:	69 03       	mov	r0,r9
  30acf2:	88 e0       	cmp/eq	#-32,r0
  30acf4:	8f 3d       	bf.s	30ad72 <___udivdi3+0x19a>
  30acf6:	79 20       	add	#32,r9
  30acf8:	32 66       	cmp/hi	r6,r2
  30acfa:	8d 01       	bt.s	30ad00 <___udivdi3+0x128>
  30acfc:	38 72       	cmp/hs	r7,r8
  30acfe:	8b ab       	bf	30ac58 <___udivdi3+0x80>
  30ad00:	e1 01       	mov	#1,r1
  30ad02:	af ab       	bra	30ac5c <___udivdi3+0x84>
  30ad04:	e8 00       	mov	#0,r8
  30ad06:	91 61       	mov.w	30adcc <___udivdi3+0x1f4>,r1	! ff
  30ad08:	37 16       	cmp/hi	r1,r7
  30ad0a:	01 29       	movt	r1
  30ad0c:	41 08       	shll2	r1
  30ad0e:	31 1c       	add	r1,r1
  30ad10:	66 1b       	neg	r1,r6
  30ad12:	40 6d       	shld	r6,r0
  30ad14:	d6 30       	mov.l	30add8 <___udivdi3+0x200>,r6	! 30c2e8 <___clz_tab>
  30ad16:	00 6c       	mov.b	@(r0,r6),r0
  30ad18:	60 0c       	extu.b	r0,r0
  30ad1a:	30 1c       	add	r1,r0
  30ad1c:	60 0b       	neg	r0,r0
  30ad1e:	66 03       	mov	r0,r6
  30ad20:	88 e0       	cmp/eq	#-32,r0
  30ad22:	8d be       	bt.s	30aca2 <___udivdi3+0xca>
  30ad24:	76 20       	add	#32,r6
  30ad26:	61 23       	mov	r2,r1
  30ad28:	69 83       	mov	r8,r9
  30ad2a:	41 0d       	shld	r0,r1
  30ad2c:	da 2b       	mov.l	30addc <___udivdi3+0x204>,r10	! 30b0a0 <___udiv_qrnnd_16>
  30ad2e:	42 6d       	shld	r6,r2
  30ad30:	49 0d       	shld	r0,r9
  30ad32:	63 83       	mov	r8,r3
  30ad34:	60 13       	mov	r1,r0
  30ad36:	47 6d       	shld	r6,r7
  30ad38:	43 6d       	shld	r6,r3
  30ad3a:	29 2b       	or	r2,r9
  30ad3c:	65 73       	mov	r7,r5
  30ad3e:	64 99       	swap.w	r9,r4
  30ad40:	66 59       	swap.w	r5,r6
  30ad42:	4a 0b       	jsr	@r10
  30ad44:	46 28       	shll16	r6
  30ad46:	64 49       	swap.w	r4,r4
  30ad48:	4a 0b       	jsr	@r10
  30ad4a:	68 19       	swap.w	r1,r8
  30ad4c:	28 1b       	or	r1,r8
  30ad4e:	af ac       	bra	30acaa <___udivdi3+0xd2>
  30ad50:	61 03       	mov	r0,r1
  30ad52:	91 3b       	mov.w	30adcc <___udivdi3+0x1f4>,r1	! ff
  30ad54:	36 16       	cmp/hi	r1,r6
  30ad56:	01 29       	movt	r1
  30ad58:	41 08       	shll2	r1
  30ad5a:	31 1c       	add	r1,r1
  30ad5c:	63 1b       	neg	r1,r3
  30ad5e:	40 3d       	shld	r3,r0
  30ad60:	d3 1d       	mov.l	30add8 <___udivdi3+0x200>,r3	! 30c2e8 <___clz_tab>
  30ad62:	00 3c       	mov.b	@(r0,r3),r0
  30ad64:	60 0c       	extu.b	r0,r0
  30ad66:	30 1c       	add	r1,r0
  30ad68:	60 0b       	neg	r0,r0
  30ad6a:	69 03       	mov	r0,r9
  30ad6c:	88 e0       	cmp/eq	#-32,r0
  30ad6e:	8d c3       	bt.s	30acf8 <___udivdi3+0x120>
  30ad70:	79 20       	add	#32,r9
  30ad72:	6a 73       	mov	r7,r10
  30ad74:	61 23       	mov	r2,r1
  30ad76:	63 83       	mov	r8,r3
  30ad78:	41 0d       	shld	r0,r1
  30ad7a:	db 18       	mov.l	30addc <___udivdi3+0x204>,r11	! 30b0a0 <___udiv_qrnnd_16>
  30ad7c:	46 9d       	shld	r9,r6
  30ad7e:	4a 0d       	shld	r0,r10
  30ad80:	42 9d       	shld	r9,r2
  30ad82:	43 0d       	shld	r0,r3
  30ad84:	47 9d       	shld	r9,r7
  30ad86:	60 13       	mov	r1,r0
  30ad88:	2a 6b       	or	r6,r10
  30ad8a:	23 2b       	or	r2,r3
  30ad8c:	65 a3       	mov	r10,r5
  30ad8e:	64 39       	swap.w	r3,r4
  30ad90:	66 59       	swap.w	r5,r6
  30ad92:	4b 0b       	jsr	@r11
  30ad94:	46 28       	shll16	r6
  30ad96:	64 49       	swap.w	r4,r4
  30ad98:	4b 0b       	jsr	@r11
  30ad9a:	63 19       	swap.w	r1,r3
  30ad9c:	23 1b       	or	r1,r3
  30ad9e:	37 35       	dmulu.l	r3,r7
  30ada0:	01 1a       	sts	macl,r1
  30ada2:	07 0a       	sts	mach,r7
  30ada4:	30 72       	cmp/hs	r7,r0
  30ada6:	8b 04       	bf	30adb2 <___udivdi3+0x1da>
  30ada8:	48 9d       	shld	r9,r8
  30adaa:	38 12       	cmp/hs	r1,r8
  30adac:	8d 0b       	bt.s	30adc6 <___udivdi3+0x1ee>
  30adae:	30 70       	cmp/eq	r7,r0
  30adb0:	8b 09       	bf	30adc6 <___udivdi3+0x1ee>
  30adb2:	61 33       	mov	r3,r1
  30adb4:	71 ff       	add	#-1,r1
  30adb6:	af 51       	bra	30ac5c <___udivdi3+0x84>
  30adb8:	e8 00       	mov	#0,r8
  30adba:	91 07       	mov.w	30adcc <___udivdi3+0x1f4>,r1	! ff
  30adbc:	37 16       	cmp/hi	r1,r7
  30adbe:	01 29       	movt	r1
  30adc0:	41 08       	shll2	r1
  30adc2:	af 20       	bra	30ac06 <___udivdi3+0x2e>
  30adc4:	31 1c       	add	r1,r1
  30adc6:	61 33       	mov	r3,r1
  30adc8:	af 48       	bra	30ac5c <___udivdi3+0x84>
  30adca:	e8 00       	mov	#0,r8
  30adcc:	00 ff       	mac.l	@r15+,@r0+
  30adce:	00 09       	nop	
  30add0:	00 00       	.word 0x0000
  30add2:	ff ff       	.word 0xffff
  30add4:	00 ff       	mac.l	@r15+,@r0+
  30add6:	ff ff       	.word 0xffff
  30add8:	00 30       	.word 0x0030
  30adda:	c2 e8       	mov.l	r0,@(928,gbr)
  30addc:	00 30       	.word 0x0030
  30adde:	b0 a0       	bsr	30af22 <___umoddi3+0x13e>
  30ade0:	00 30       	.word 0x0030
  30ade2:	b0 52       	bsr	30ae8a <___umoddi3+0xa6>

0030ade4 <___umoddi3>:
  30ade4:	2f 86       	mov.l	r8,@-r15
  30ade6:	2f 96       	mov.l	r9,@-r15
  30ade8:	2f a6       	mov.l	r10,@-r15
  30adea:	2f b6       	mov.l	r11,@-r15
  30adec:	2f c6       	mov.l	r12,@-r15
  30adee:	4f 22       	sts.l	pr,@-r15
  30adf0:	26 68       	tst	r6,r6
  30adf2:	62 43       	mov	r4,r2
  30adf4:	8f 2e       	bf.s	30ae54 <___umoddi3+0x70>
  30adf6:	69 53       	mov	r5,r9
  30adf8:	37 46       	cmp/hi	r4,r7
  30adfa:	8f 5d       	bf.s	30aeb8 <___umoddi3+0xd4>
  30adfc:	63 53       	mov	r5,r3
  30adfe:	d6 87       	mov.l	30b01c <___umoddi3+0x238>,r6	! ffff
  30ae00:	37 66       	cmp/hi	r6,r7
  30ae02:	8d 02       	bt.s	30ae0a <___umoddi3+0x26>
  30ae04:	61 43       	mov	r4,r1
  30ae06:	a0 b1       	bra	30af6c <___umoddi3+0x188>
  30ae08:	00 09       	nop	
  30ae0a:	d6 85       	mov.l	30b020 <___umoddi3+0x23c>,r6	! ffffff
  30ae0c:	37 66       	cmp/hi	r6,r7
  30ae0e:	8f 01       	bf.s	30ae14 <___umoddi3+0x30>
  30ae10:	e6 10       	mov	#16,r6
  30ae12:	e6 18       	mov	#24,r6
  30ae14:	65 6b       	neg	r6,r5
  30ae16:	60 73       	mov	r7,r0
  30ae18:	40 5d       	shld	r5,r0
  30ae1a:	d5 82       	mov.l	30b024 <___umoddi3+0x240>,r5	! 30c2e8 <___clz_tab>
  30ae1c:	00 5c       	mov.b	@(r0,r5),r0
  30ae1e:	60 0c       	extu.b	r0,r0
  30ae20:	30 6c       	add	r6,r0
  30ae22:	60 0b       	neg	r0,r0
  30ae24:	68 03       	mov	r0,r8
  30ae26:	88 e0       	cmp/eq	#-32,r0
  30ae28:	8d 07       	bt.s	30ae3a <___umoddi3+0x56>
  30ae2a:	78 20       	add	#32,r8
  30ae2c:	61 93       	mov	r9,r1
  30ae2e:	42 8d       	shld	r8,r2
  30ae30:	41 0d       	shld	r0,r1
  30ae32:	63 93       	mov	r9,r3
  30ae34:	47 8d       	shld	r8,r7
  30ae36:	43 8d       	shld	r8,r3
  30ae38:	21 2b       	or	r2,r1
  30ae3a:	60 13       	mov	r1,r0
  30ae3c:	d9 7a       	mov.l	30b028 <___umoddi3+0x244>,r9	! 30b0a0 <___udiv_qrnnd_16>
  30ae3e:	65 73       	mov	r7,r5
  30ae40:	64 39       	swap.w	r3,r4
  30ae42:	66 59       	swap.w	r5,r6
  30ae44:	49 0b       	jsr	@r9
  30ae46:	46 28       	shll16	r6
  30ae48:	64 49       	swap.w	r4,r4
  30ae4a:	49 0b       	jsr	@r9
  30ae4c:	69 19       	swap.w	r1,r9
  30ae4e:	29 1b       	or	r1,r9
  30ae50:	a0 5c       	bra	30af0c <___umoddi3+0x128>
  30ae52:	61 03       	mov	r0,r1
  30ae54:	36 46       	cmp/hi	r4,r6
  30ae56:	8f 08       	bf.s	30ae6a <___umoddi3+0x86>
  30ae58:	60 43       	mov	r4,r0
  30ae5a:	61 53       	mov	r5,r1
  30ae5c:	4f 26       	lds.l	@r15+,pr
  30ae5e:	6c f6       	mov.l	@r15+,r12
  30ae60:	6b f6       	mov.l	@r15+,r11
  30ae62:	6a f6       	mov.l	@r15+,r10
  30ae64:	69 f6       	mov.l	@r15+,r9
  30ae66:	00 0b       	rts	
  30ae68:	68 f6       	mov.l	@r15+,r8
  30ae6a:	d1 6c       	mov.l	30b01c <___umoddi3+0x238>,r1	! ffff
  30ae6c:	36 16       	cmp/hi	r1,r6
  30ae6e:	89 01       	bt	30ae74 <___umoddi3+0x90>
  30ae70:	a0 82       	bra	30af78 <___umoddi3+0x194>
  30ae72:	60 63       	mov	r6,r0
  30ae74:	d1 6a       	mov.l	30b020 <___umoddi3+0x23c>,r1	! ffffff
  30ae76:	36 16       	cmp/hi	r1,r6
  30ae78:	8f 01       	bf.s	30ae7e <___umoddi3+0x9a>
  30ae7a:	e1 10       	mov	#16,r1
  30ae7c:	e1 18       	mov	#24,r1
  30ae7e:	63 1b       	neg	r1,r3
  30ae80:	60 63       	mov	r6,r0
  30ae82:	40 3d       	shld	r3,r0
  30ae84:	d3 67       	mov.l	30b024 <___umoddi3+0x240>,r3	! 30c2e8 <___clz_tab>
  30ae86:	03 3c       	mov.b	@(r0,r3),r3
  30ae88:	63 3c       	extu.b	r3,r3
  30ae8a:	33 1c       	add	r1,r3
  30ae8c:	60 3b       	neg	r3,r0
  30ae8e:	68 03       	mov	r0,r8
  30ae90:	88 e0       	cmp/eq	#-32,r0
  30ae92:	8d 02       	bt.s	30ae9a <___umoddi3+0xb6>
  30ae94:	78 20       	add	#32,r8
  30ae96:	a0 82       	bra	30af9e <___umoddi3+0x1ba>
  30ae98:	6a 73       	mov	r7,r10
  30ae9a:	32 66       	cmp/hi	r6,r2
  30ae9c:	89 01       	bt	30aea2 <___umoddi3+0xbe>
  30ae9e:	39 72       	cmp/hs	r7,r9
  30aea0:	8b 01       	bf	30aea6 <___umoddi3+0xc2>
  30aea2:	a0 b2       	bra	30b00a <___umoddi3+0x226>
  30aea4:	64 23       	mov	r2,r4
  30aea6:	60 43       	mov	r4,r0
  30aea8:	61 53       	mov	r5,r1
  30aeaa:	4f 26       	lds.l	@r15+,pr
  30aeac:	6c f6       	mov.l	@r15+,r12
  30aeae:	6b f6       	mov.l	@r15+,r11
  30aeb0:	6a f6       	mov.l	@r15+,r10
  30aeb2:	69 f6       	mov.l	@r15+,r9
  30aeb4:	00 0b       	rts	
  30aeb6:	68 f6       	mov.l	@r15+,r8
  30aeb8:	27 78       	tst	r7,r7
  30aeba:	8f 04       	bf.s	30aec6 <___umoddi3+0xe2>
  30aebc:	e4 01       	mov	#1,r4
  30aebe:	d7 5b       	mov.l	30b02c <___umoddi3+0x248>,r7	! 30b052 <___udivsi3>
  30aec0:	47 0b       	jsr	@r7
  30aec2:	e5 00       	mov	#0,r5
  30aec4:	67 03       	mov	r0,r7
  30aec6:	d1 55       	mov.l	30b01c <___umoddi3+0x238>,r1	! ffff
  30aec8:	37 16       	cmp/hi	r1,r7
  30aeca:	8f 29       	bf.s	30af20 <___umoddi3+0x13c>
  30aecc:	60 73       	mov	r7,r0
  30aece:	d1 54       	mov.l	30b020 <___umoddi3+0x23c>,r1	! ffffff
  30aed0:	37 16       	cmp/hi	r1,r7
  30aed2:	8f 01       	bf.s	30aed8 <___umoddi3+0xf4>
  30aed4:	e1 10       	mov	#16,r1
  30aed6:	e1 18       	mov	#24,r1
  30aed8:	66 1b       	neg	r1,r6
  30aeda:	60 73       	mov	r7,r0
  30aedc:	40 6d       	shld	r6,r0
  30aede:	d6 51       	mov.l	30b024 <___umoddi3+0x240>,r6	! 30c2e8 <___clz_tab>
  30aee0:	00 6c       	mov.b	@(r0,r6),r0
  30aee2:	60 0c       	extu.b	r0,r0
  30aee4:	30 1c       	add	r1,r0
  30aee6:	60 0b       	neg	r0,r0
  30aee8:	68 03       	mov	r0,r8
  30aeea:	88 e0       	cmp/eq	#-32,r0
  30aeec:	8f 28       	bf.s	30af40 <___umoddi3+0x15c>
  30aeee:	78 20       	add	#32,r8
  30aef0:	d9 4d       	mov.l	30b028 <___umoddi3+0x244>,r9	! 30b0a0 <___udiv_qrnnd_16>
  30aef2:	61 23       	mov	r2,r1
  30aef4:	31 78       	sub	r7,r1
  30aef6:	60 13       	mov	r1,r0
  30aef8:	65 73       	mov	r7,r5
  30aefa:	64 39       	swap.w	r3,r4
  30aefc:	66 59       	swap.w	r5,r6
  30aefe:	49 0b       	jsr	@r9
  30af00:	46 28       	shll16	r6
  30af02:	64 49       	swap.w	r4,r4
  30af04:	49 0b       	jsr	@r9
  30af06:	63 19       	swap.w	r1,r3
  30af08:	23 1b       	or	r1,r3
  30af0a:	61 03       	mov	r0,r1
  30af0c:	62 8b       	neg	r8,r2
  30af0e:	41 2d       	shld	r2,r1
  30af10:	e0 00       	mov	#0,r0
  30af12:	4f 26       	lds.l	@r15+,pr
  30af14:	6c f6       	mov.l	@r15+,r12
  30af16:	6b f6       	mov.l	@r15+,r11
  30af18:	6a f6       	mov.l	@r15+,r10
  30af1a:	69 f6       	mov.l	@r15+,r9
  30af1c:	00 0b       	rts	
  30af1e:	68 f6       	mov.l	@r15+,r8
  30af20:	91 7a       	mov.w	30b018 <___umoddi3+0x234>,r1	! ff
  30af22:	37 16       	cmp/hi	r1,r7
  30af24:	01 29       	movt	r1
  30af26:	41 08       	shll2	r1
  30af28:	31 1c       	add	r1,r1
  30af2a:	66 1b       	neg	r1,r6
  30af2c:	40 6d       	shld	r6,r0
  30af2e:	d6 3d       	mov.l	30b024 <___umoddi3+0x240>,r6	! 30c2e8 <___clz_tab>
  30af30:	00 6c       	mov.b	@(r0,r6),r0
  30af32:	60 0c       	extu.b	r0,r0
  30af34:	30 1c       	add	r1,r0
  30af36:	60 0b       	neg	r0,r0
  30af38:	68 03       	mov	r0,r8
  30af3a:	88 e0       	cmp/eq	#-32,r0
  30af3c:	8d d8       	bt.s	30aef0 <___umoddi3+0x10c>
  30af3e:	78 20       	add	#32,r8
  30af40:	61 23       	mov	r2,r1
  30af42:	6a 93       	mov	r9,r10
  30af44:	41 0d       	shld	r0,r1
  30af46:	42 8d       	shld	r8,r2
  30af48:	4a 0d       	shld	r0,r10
  30af4a:	63 93       	mov	r9,r3
  30af4c:	60 13       	mov	r1,r0
  30af4e:	d9 36       	mov.l	30b028 <___umoddi3+0x244>,r9	! 30b0a0 <___udiv_qrnnd_16>
  30af50:	47 8d       	shld	r8,r7
  30af52:	2a 2b       	or	r2,r10
  30af54:	43 8d       	shld	r8,r3
  30af56:	65 73       	mov	r7,r5
  30af58:	64 a9       	swap.w	r10,r4
  30af5a:	66 59       	swap.w	r5,r6
  30af5c:	49 0b       	jsr	@r9
  30af5e:	46 28       	shll16	r6
  30af60:	64 49       	swap.w	r4,r4
  30af62:	49 0b       	jsr	@r9
  30af64:	6a 19       	swap.w	r1,r10
  30af66:	2a 1b       	or	r1,r10
  30af68:	af c5       	bra	30aef6 <___umoddi3+0x112>
  30af6a:	61 03       	mov	r0,r1
  30af6c:	96 54       	mov.w	30b018 <___umoddi3+0x234>,r6	! ff
  30af6e:	37 66       	cmp/hi	r6,r7
  30af70:	06 29       	movt	r6
  30af72:	46 08       	shll2	r6
  30af74:	af 4e       	bra	30ae14 <___umoddi3+0x30>
  30af76:	36 6c       	add	r6,r6
  30af78:	91 4e       	mov.w	30b018 <___umoddi3+0x234>,r1	! ff
  30af7a:	36 16       	cmp/hi	r1,r6
  30af7c:	01 29       	movt	r1
  30af7e:	41 08       	shll2	r1
  30af80:	31 1c       	add	r1,r1
  30af82:	63 1b       	neg	r1,r3
  30af84:	40 3d       	shld	r3,r0
  30af86:	d3 27       	mov.l	30b024 <___umoddi3+0x240>,r3	! 30c2e8 <___clz_tab>
  30af88:	03 3c       	mov.b	@(r0,r3),r3
  30af8a:	63 3c       	extu.b	r3,r3
  30af8c:	33 1c       	add	r1,r3
  30af8e:	60 3b       	neg	r3,r0
  30af90:	68 03       	mov	r0,r8
  30af92:	88 e0       	cmp/eq	#-32,r0
  30af94:	8f 02       	bf.s	30af9c <___umoddi3+0x1b8>
  30af96:	78 20       	add	#32,r8
  30af98:	af 80       	bra	30ae9c <___umoddi3+0xb8>
  30af9a:	32 66       	cmp/hi	r6,r2
  30af9c:	6a 73       	mov	r7,r10
  30af9e:	46 8d       	shld	r8,r6
  30afa0:	dc 21       	mov.l	30b028 <___umoddi3+0x244>,r12	! 30b0a0 <___udiv_qrnnd_16>
  30afa2:	4a 0d       	shld	r0,r10
  30afa4:	6b 93       	mov	r9,r11
  30afa6:	2a 6b       	or	r6,r10
  30afa8:	66 23       	mov	r2,r6
  30afaa:	46 0d       	shld	r0,r6
  30afac:	42 8d       	shld	r8,r2
  30afae:	4b 0d       	shld	r0,r11
  30afb0:	47 8d       	shld	r8,r7
  30afb2:	2b 2b       	or	r2,r11
  30afb4:	60 63       	mov	r6,r0
  30afb6:	65 a3       	mov	r10,r5
  30afb8:	64 b9       	swap.w	r11,r4
  30afba:	66 59       	swap.w	r5,r6
  30afbc:	4c 0b       	jsr	@r12
  30afbe:	46 28       	shll16	r6
  30afc0:	64 49       	swap.w	r4,r4
  30afc2:	4c 0b       	jsr	@r12
  30afc4:	6b 19       	swap.w	r1,r11
  30afc6:	2b 1b       	or	r1,r11
  30afc8:	37 b5       	dmulu.l	r11,r7
  30afca:	02 1a       	sts	macl,r2
  30afcc:	01 0a       	sts	mach,r1
  30afce:	30 12       	cmp/hs	r1,r0
  30afd0:	49 8d       	shld	r8,r9
  30afd2:	66 13       	mov	r1,r6
  30afd4:	8f 04       	bf.s	30afe0 <___umoddi3+0x1fc>
  30afd6:	65 23       	mov	r2,r5
  30afd8:	30 10       	cmp/eq	r1,r0
  30afda:	8f 06       	bf.s	30afea <___umoddi3+0x206>
  30afdc:	32 96       	cmp/hi	r9,r2
  30afde:	8b 04       	bf	30afea <___umoddi3+0x206>
  30afe0:	00 08       	clrt	
  30afe2:	32 7a       	subc	r7,r2
  30afe4:	31 aa       	subc	r10,r1
  30afe6:	66 13       	mov	r1,r6
  30afe8:	65 23       	mov	r2,r5
  30afea:	00 08       	clrt	
  30afec:	39 5a       	subc	r5,r9
  30afee:	30 6a       	subc	r6,r0
  30aff0:	68 8b       	neg	r8,r8
  30aff2:	61 03       	mov	r0,r1
  30aff4:	41 3d       	shld	r3,r1
  30aff6:	49 8d       	shld	r8,r9
  30aff8:	40 8d       	shld	r8,r0
  30affa:	21 9b       	or	r9,r1
  30affc:	4f 26       	lds.l	@r15+,pr
  30affe:	6c f6       	mov.l	@r15+,r12
  30b000:	6b f6       	mov.l	@r15+,r11
  30b002:	6a f6       	mov.l	@r15+,r10
  30b004:	69 f6       	mov.l	@r15+,r9
  30b006:	00 0b       	rts	
  30b008:	68 f6       	mov.l	@r15+,r8
  30b00a:	65 93       	mov	r9,r5
  30b00c:	00 08       	clrt	
  30b00e:	35 7a       	subc	r7,r5
  30b010:	34 6a       	subc	r6,r4
  30b012:	60 43       	mov	r4,r0
  30b014:	af 49       	bra	30aeaa <___umoddi3+0xc6>
  30b016:	61 53       	mov	r5,r1
  30b018:	00 ff       	mac.l	@r15+,@r0+
  30b01a:	00 09       	nop	
  30b01c:	00 00       	.word 0x0000
  30b01e:	ff ff       	.word 0xffff
  30b020:	00 ff       	mac.l	@r15+,@r0+
  30b022:	ff ff       	.word 0xffff
  30b024:	00 30       	.word 0x0030
  30b026:	c2 e8       	mov.l	r0,@(928,gbr)
  30b028:	00 30       	.word 0x0030
  30b02a:	b0 a0       	bsr	30b16e <.shared+0xa>
  30b02c:	00 30       	.word 0x0030
  30b02e:	b0 52       	bsr	30b0d6 <___udiv_qrnnd_16+0x36>
  30b030:	34 54       	div1	r5,r4
  30b032:	34 54       	div1	r5,r4
  30b034:	34 54       	div1	r5,r4
  30b036:	34 54       	div1	r5,r4
  30b038:	34 54       	div1	r5,r4
  30b03a:	34 54       	div1	r5,r4
  30b03c:	34 54       	div1	r5,r4
  30b03e:	00 0b       	rts	
  30b040:	34 54       	div1	r5,r4
  30b042:	34 54       	div1	r5,r4
  30b044:	40 24       	rotcl	r0
  30b046:	34 54       	div1	r5,r4
  30b048:	40 24       	rotcl	r0
  30b04a:	34 54       	div1	r5,r4
  30b04c:	40 24       	rotcl	r0
  30b04e:	00 0b       	rts	
  30b050:	34 54       	div1	r5,r4

0030b052 <___udivsi3>:
  30b052:	4f 22       	sts.l	pr,@-r15
  30b054:	60 5d       	extu.w	r5,r0
  30b056:	30 50       	cmp/eq	r5,r0
  30b058:	8f 12       	bf.s	30b080 <___udivsi3+0x2e>
  30b05a:	00 19       	div0u	
  30b05c:	60 49       	swap.w	r4,r0
  30b05e:	44 29       	shlr16	r4
  30b060:	bf e6       	bsr	30b030 <___umoddi3+0x24c>
  30b062:	45 28       	shll16	r5
  30b064:	bf e5       	bsr	30b032 <___umoddi3+0x24e>
  30b066:	34 54       	div1	r5,r4
  30b068:	20 4d       	xtrct	r4,r0
  30b06a:	24 0d       	xtrct	r0,r4
  30b06c:	bf e0       	bsr	30b030 <___umoddi3+0x24c>
  30b06e:	64 49       	swap.w	r4,r4
  30b070:	bf df       	bsr	30b032 <___umoddi3+0x24e>
  30b072:	34 54       	div1	r5,r4
  30b074:	4f 26       	lds.l	@r15+,pr
  30b076:	20 4d       	xtrct	r4,r0
  30b078:	60 09       	swap.w	r0,r0
  30b07a:	40 24       	rotcl	r0
  30b07c:	00 0b       	rts	
  30b07e:	45 29       	shlr16	r5
  30b080:	e0 00       	mov	#0,r0
  30b082:	20 4d       	xtrct	r4,r0
  30b084:	24 0d       	xtrct	r0,r4
  30b086:	bf dc       	bsr	30b042 <___umoddi3+0x25e>
  30b088:	40 24       	rotcl	r0
  30b08a:	bf da       	bsr	30b042 <___umoddi3+0x25e>
  30b08c:	40 24       	rotcl	r0
  30b08e:	bf d8       	bsr	30b042 <___umoddi3+0x25e>
  30b090:	40 24       	rotcl	r0
  30b092:	bf d6       	bsr	30b042 <___umoddi3+0x25e>
  30b094:	40 24       	rotcl	r0
  30b096:	4f 26       	lds.l	@r15+,pr
  30b098:	00 0b       	rts	
  30b09a:	40 24       	rotcl	r0
  30b09c:	00 00       	.word 0x0000
	...

0030b0a0 <___udiv_qrnnd_16>:
  30b0a0:	00 19       	div0u	
  30b0a2:	30 66       	cmp/hi	r6,r0
  30b0a4:	89 20       	bt	30b0e8 <___udiv_qrnnd_16+0x48>
  30b0a6:	30 64       	div1	r6,r0
  30b0a8:	30 64       	div1	r6,r0
  30b0aa:	30 64       	div1	r6,r0
  30b0ac:	30 64       	div1	r6,r0
  30b0ae:	30 64       	div1	r6,r0
  30b0b0:	30 64       	div1	r6,r0
  30b0b2:	30 64       	div1	r6,r0
  30b0b4:	30 64       	div1	r6,r0
  30b0b6:	30 64       	div1	r6,r0
  30b0b8:	30 64       	div1	r6,r0
  30b0ba:	30 64       	div1	r6,r0
  30b0bc:	30 64       	div1	r6,r0
  30b0be:	30 64       	div1	r6,r0
  30b0c0:	30 64       	div1	r6,r0
  30b0c2:	30 64       	div1	r6,r0
  30b0c4:	30 64       	div1	r6,r0
  30b0c6:	61 0d       	extu.w	r0,r1
  30b0c8:	89 00       	bt	30b0cc <___udiv_qrnnd_16+0x2c>
  30b0ca:	30 6c       	add	r6,r0
  30b0cc:	41 24       	rotcl	r1
  30b0ce:	25 1e       	mulu.w	r1,r5
  30b0d0:	20 4d       	xtrct	r4,r0
  30b0d2:	60 09       	swap.w	r0,r0
  30b0d4:	02 1a       	sts	macl,r2
  30b0d6:	30 22       	cmp/hs	r2,r0
  30b0d8:	30 28       	sub	r2,r0
  30b0da:	89 0e       	bt	30b0fa <___udiv_qrnnd_16+0x5a>
  30b0dc:	30 5e       	addc	r5,r0
  30b0de:	71 ff       	add	#-1,r1
  30b0e0:	89 0b       	bt	30b0fa <___udiv_qrnnd_16+0x5a>
  30b0e2:	71 ff       	add	#-1,r1
  30b0e4:	00 0b       	rts	
  30b0e6:	30 5c       	add	r5,r0
  30b0e8:	30 58       	sub	r5,r0
  30b0ea:	61 49       	swap.w	r4,r1
  30b0ec:	21 0d       	xtrct	r0,r1
  30b0ee:	00 08       	clrt	
  30b0f0:	60 13       	mov	r1,r0
  30b0f2:	30 5e       	addc	r5,r0
  30b0f4:	e1 ff       	mov	#-1,r1
  30b0f6:	8f f4       	bf.s	30b0e2 <___udiv_qrnnd_16+0x42>
  30b0f8:	41 29       	shlr16	r1
  30b0fa:	00 0b       	rts	
  30b0fc:	00 09       	nop	
  30b0fe:	00 09       	nop	

Disassembly of section .gint.blocks:

0030b100 <_intc_generic_handler>:
  30b100:	c7 01       	mova	30b108 <_intc_generic_handler+0x8>,r0
  30b102:	d1 06       	mov.l	30b11c <_intc_generic_handler+0x1c>,r1	! 0 <_sxyram>
  30b104:	41 2b       	jmp	@r1
  30b106:	64 03       	mov	r0,r4
	...

0030b120 <_gint_inth_7305>:
  30b120:	4f 22       	sts.l	pr,@-r15
  30b122:	4f 13       	stc.l	gbr,@-r15
  30b124:	4f 02       	sts.l	mach,@-r15
  30b126:	4f 12       	sts.l	macl,@-r15
  30b128:	d0 0c       	mov.l	30b15c <.jump_over+0x24>,r0	! ff000028
  30b12a:	60 02       	mov.l	@r0,r0
  30b12c:	e1 04       	mov	#4,r1
  30b12e:	41 18       	shll8	r1
  30b130:	30 18       	sub	r1,r0
  30b132:	70 28       	add	#40,r0
  30b134:	00 03       	bsrf	r0
  30b136:	00 09       	nop	

0030b138 <.jump_over>:
  30b138:	4f 16       	lds.l	@r15+,macl
  30b13a:	4f 06       	lds.l	@r15+,mach
  30b13c:	4f 17       	ldc.l	@r15+,gbr
  30b13e:	4f 26       	lds.l	@r15+,pr
  30b140:	00 2b       	rte	
  30b142:	00 09       	nop	
	...
  30b15c:	ff 00       	.word 0xff00
  30b15e:	00 28       	clrmac	

0030b160 <_inth_etmu4>:
  30b160:	c7 15       	mova	30b1b8 <.storage_etmu4>,r0
  30b162:	e2 07       	mov	#7,r2

0030b164 <.shared>:
  30b164:	2f 86       	mov.l	r8,@-r15
  30b166:	4f 22       	sts.l	pr,@-r15
  30b168:	7f ec       	add	#-20,r15
  30b16a:	1f 21       	mov.l	r2,@(4,r15)
  30b16c:	61 03       	mov	r0,r1
  30b16e:	53 11       	mov.l	@(4,r1),r3
  30b170:	60 30       	mov.b	@r3,r0
  30b172:	c8 02       	tst	#2,r0
  30b174:	c9 fd       	and	#253,r0
  30b176:	8f fb       	bf.s	30b170 <.shared+0xc>
  30b178:	23 00       	mov.b	r0,@r3
  30b17a:	d8 0e       	mov.l	30b1b4 <.gint_inth_callback>,r8	! 8101b94 <_gint_inth_callback>
  30b17c:	68 82       	mov.l	@r8,r8
  30b17e:	48 0b       	jsr	@r8
  30b180:	64 12       	mov.l	@r1,r4
  30b182:	20 08       	tst	r0,r0
  30b184:	89 03       	bt	30b18e <.shared+0x2a>
  30b186:	d0 0a       	mov.l	30b1b0 <.timer_stop>,r0	! 304568 <_timer_stop>
  30b188:	2f 02       	mov.l	r0,@r15
  30b18a:	48 0b       	jsr	@r8
  30b18c:	64 f3       	mov	r15,r4
  30b18e:	7f 14       	add	#20,r15
  30b190:	4f 26       	lds.l	@r15+,pr
  30b192:	00 0b       	rts	
  30b194:	68 f6       	mov.l	@r15+,r8
	...

0030b1b0 <.timer_stop>:
  30b1b0:	00 30       	.word 0x0030
  30b1b2:	45 68       	.word 0x4568

0030b1b4 <.gint_inth_callback>:
  30b1b4:	08 10       	.word 0x0810
  30b1b6:	1b 94       	mov.l	r9,@(16,r11)

0030b1b8 <.storage_etmu4>:
  30b1b8:	08 10       	.word 0x0810
  30b1ba:	15 98       	mov.l	r9,@(32,r5)
  30b1bc:	a4 4d       	bra	30ba5a <_info+0x16>
  30b1be:	00 bc       	mov.b	@(r0,r11),r0

0030b1c0 <_inth_etmux>:
  30b1c0:	03 22       	stc	vbr,r3
  30b1c2:	d2 04       	mov.l	30b1d4 <.id_etmux+0x2>,r2	! 4
  30b1c4:	33 2c       	add	r2,r3
  30b1c6:	c7 04       	mova	30b1d8 <.storage_etmux>,r0
  30b1c8:	92 03       	mov.w	30b1d2 <.id_etmux>,r2	! 0 <_sxyram>
  30b1ca:	43 2b       	jmp	@r3
  30b1cc:	00 09       	nop	
  30b1ce:	00 09       	nop	
  30b1d0:	00 09       	nop	

0030b1d2 <.id_etmux>:
  30b1d2:	00 00       	.word 0x0000
  30b1d4:	00 00       	.word 0x0000
  30b1d6:	00 04       	mov.b	r0,@(r0,r0)

0030b1d8 <.storage_etmux>:
  30b1d8:	08 10       	.word 0x0810
  30b1da:	15 0c       	mov.l	r0,@(48,r5)
  30b1dc:	00 00       	.word 0x0000
	...

0030b1e0 <_inth_tmu>:
  30b1e0:	e5 00       	mov	#0,r5
  30b1e2:	e6 00       	mov	#0,r6
  30b1e4:	e7 00       	mov	#0,r7

0030b1e6 <.shared1>:
  30b1e6:	d1 14       	mov.l	30b238 <.TCR0>,r1	! a4490010
  30b1e8:	31 6c       	add	r6,r1
  30b1ea:	2f 86       	mov.l	r8,@-r15
  30b1ec:	4f 22       	sts.l	pr,@-r15
  30b1ee:	2f 56       	mov.l	r5,@-r15
  30b1f0:	65 11       	mov.w	@r1,r5
  30b1f2:	63 5c       	extu.b	r5,r3
  30b1f4:	33 50       	cmp/eq	r5,r3
  30b1f6:	8f fb       	bf.s	30b1f0 <.shared1+0xa>
  30b1f8:	21 31       	mov.w	r3,@r1
  30b1fa:	d8 0e       	mov.l	30b234 <.callback>,r8	! 8101b94 <_gint_inth_callback>
  30b1fc:	a0 04       	bra	30b208 <.shared2>
  30b1fe:	68 82       	mov.l	@r8,r8

0030b200 <_inth_tmu_1>:
  30b200:	e5 01       	mov	#1,r5
  30b202:	e6 0c       	mov	#12,r6
  30b204:	af ef       	bra	30b1e6 <.shared1>
  30b206:	e7 14       	mov	#20,r7

0030b208 <.shared2>:
  30b208:	d4 0c       	mov.l	30b23c <.tmu_callbacks>,r4	! 810150c <_tmu_callbacks>
  30b20a:	48 0b       	jsr	@r8
  30b20c:	34 7c       	add	r7,r4
  30b20e:	20 08       	tst	r0,r0
  30b210:	d2 07       	mov.l	30b230 <.timer_stop>,r2	! 304568 <_timer_stop>
  30b212:	8d 09       	bt.s	30b228 <.shared3>
  30b214:	2f 26       	mov.l	r2,@-r15
  30b216:	48 0b       	jsr	@r8
  30b218:	64 f3       	mov	r15,r4
  30b21a:	a0 05       	bra	30b228 <.shared3>
  30b21c:	00 09       	nop	
  30b21e:	00 09       	nop	

0030b220 <_inth_tmu_2>:
  30b220:	e5 02       	mov	#2,r5
  30b222:	e6 18       	mov	#24,r6
  30b224:	af df       	bra	30b1e6 <.shared1>
  30b226:	e7 28       	mov	#40,r7

0030b228 <.shared3>:
  30b228:	7f 08       	add	#8,r15
  30b22a:	4f 26       	lds.l	@r15+,pr
  30b22c:	00 0b       	rts	
  30b22e:	68 f6       	mov.l	@r15+,r8

0030b230 <.timer_stop>:
  30b230:	00 30       	.word 0x0030
  30b232:	45 68       	.word 0x4568

0030b234 <.callback>:
  30b234:	08 10       	.word 0x0810
  30b236:	1b 94       	mov.l	r9,@(16,r11)

0030b238 <.TCR0>:
  30b238:	a4 49       	bra	30bace <_info+0x8a>
  30b23a:	00 10       	.word 0x0010

0030b23c <.tmu_callbacks>:
  30b23c:	08 10       	.word 0x0810
  30b23e:	15 0c       	mov.l	r0,@(48,r5)

0030b240 <_inth_dma_ae>:
  30b240:	d4 06       	mov.l	30b25c <_inth_dma_ae+0x1c>,r4	! 1020
  30b242:	44 ce       	ldc	r4,r4_bank
  30b244:	01 32       	stc	ssr,r1
  30b246:	41 0e       	ldc	r1,sr
  30b248:	d0 03       	mov.l	30b258 <_inth_dma_ae+0x18>,r0	! 307510 <_gint_panic>
  30b24a:	40 2b       	jmp	@r0
  30b24c:	00 09       	nop	
	...
  30b256:	00 00       	.word 0x0000
  30b258:	00 30       	.word 0x0030
  30b25a:	75 10       	add	#16,r5
  30b25c:	00 00       	.word 0x0000
  30b25e:	10 20       	mov.l	r2,@(0,r0)

Disassembly of section .ilram:

e5200000 <_ILbuf>:
	...

e5200020 <_gint_inth_callback_reloc>:
e5200020:	4f 83       	stc.l	r0_bank,@-r15
e5200022:	4f 93       	stc.l	r1_bank,@-r15
e5200024:	4f a3       	stc.l	r2_bank,@-r15
e5200026:	4f b3       	stc.l	r3_bank,@-r15
e5200028:	4f c3       	stc.l	r4_bank,@-r15
e520002a:	4f d3       	stc.l	r5_bank,@-r15
e520002c:	4f e3       	stc.l	r6_bank,@-r15
e520002e:	4f f3       	stc.l	r7_bank,@-r15
e5200030:	4f 43       	stc.l	spc,@-r15
e5200032:	4f 33       	stc.l	ssr,@-r15
e5200034:	4f 03       	stc.l	sr,@-r15
e5200036:	44 8e       	ldc	r4,r0_bank
e5200038:	01 02       	stc	sr,r1
e520003a:	d0 15       	mov.l	e5200090 <.SR_clear_RB_BL>,r0	! cfffffff
e520003c:	21 09       	and	r0,r1
e520003e:	d2 16       	mov.l	e5200098 <.gint>,r2	! 8101bc4 <_gint>
e5200040:	60 22       	mov.l	@r2,r0
e5200042:	c8 01       	tst	#1,r0
e5200044:	8b 04       	bf	e5200050 <.set_imask>
e5200046:	50 23       	mov.l	@(12,r2),r0
e5200048:	88 06       	cmp/eq	#6,r0
e520004a:	89 01       	bt	e5200050 <.set_imask>
e520004c:	a0 02       	bra	e5200054 <.load_sr>
e520004e:	00 09       	nop	

e5200050 <.set_imask>:
e5200050:	d0 10       	mov.l	e5200094 <.SR_set_IMASK>,r0	! f0
e5200052:	21 0b       	or	r0,r1

e5200054 <.load_sr>:
e5200054:	41 0e       	ldc	r1,sr
e5200056:	4f 22       	sts.l	pr,@-r15
e5200058:	54 01       	mov.l	@(4,r0),r4
e520005a:	55 02       	mov.l	@(8,r0),r5
e520005c:	56 03       	mov.l	@(12,r0),r6
e520005e:	57 04       	mov.l	@(16,r0),r7
e5200060:	60 02       	mov.l	@r0,r0
e5200062:	40 0b       	jsr	@r0
e5200064:	00 09       	nop	
e5200066:	4f 26       	lds.l	@r15+,pr
e5200068:	4f 07       	ldc.l	@r15+,sr
e520006a:	00 82       	stc	r0_bank,r0
e520006c:	4f 37       	ldc.l	@r15+,ssr
e520006e:	4f 47       	ldc.l	@r15+,spc
e5200070:	4f f7       	ldc.l	@r15+,r7_bank
e5200072:	4f e7       	ldc.l	@r15+,r6_bank
e5200074:	4f d7       	ldc.l	@r15+,r5_bank
e5200076:	4f c7       	ldc.l	@r15+,r4_bank
e5200078:	4f b7       	ldc.l	@r15+,r3_bank
e520007a:	4f a7       	ldc.l	@r15+,r2_bank
e520007c:	4f 97       	ldc.l	@r15+,r1_bank
e520007e:	00 0b       	rts	
e5200080:	4f 87       	ldc.l	@r15+,r0_bank
e5200082:	00 09       	nop	
e5200084:	00 09       	nop	
e5200086:	00 09       	nop	
e5200088:	00 09       	nop	
e520008a:	00 09       	nop	
e520008c:	00 09       	nop	
e520008e:	00 09       	nop	

e5200090 <.SR_clear_RB_BL>:
e5200090:	cf ff       	or.b	#255,@(r0,gbr)
e5200092:	ff ff       	.word 0xffff

e5200094 <.SR_set_IMASK>:
e5200094:	00 00       	.word 0x0000
e5200096:	00 f0       	.word 0x00f0

e5200098 <.gint>:
e5200098:	08 10       	.word 0x0810
e520009a:	1b c4       	mov.l	r12,@(16,r11)
e520009c:	00 09       	nop	
e520009e:	00 09       	nop	
